* RX FAMILY ASSEMBLER V2.03.00.01 [24 Oct 2014] *  SOURCE LIST  Sun Feb 19 10:54:26 2017

LOC.     OBJ.              0XMDA SOURCE STATEMENT

                                 ;RX Family C/C++ Compiler (V2.03.00.03 [04 Dec 2014])  19-Feb-2017 10:54:26
                                 
                                 ;*** CPU TYPE ***
                                 
                                 ;-ISA=RXV1
                                 
                                 ;*** COMMAND PARAMETER ***
                                 
                                 ;-output=src=r_usb_hmanager.src
                                 ;-lang=c99
                                 ;-include=C:\PROGRA~2\Renesas\RX\2_3_0/include,C:\Workspace\e2studio\git\MT01\r_lvd_rx,C:\Workspace\e2studio\git\MT01\r_lvd_rx\src,C:/Workspace/e2studio/git/MT01/r_tfa
                                 ;-debug
                                 ;-show=source,conditionals,definitions,expansions
                                 ;-listfile=r_usb_hmanager.lst
                                 ;-isa=rxv1
                                 ;-optimize=0
                                 ;-fpu
                                 ;-alias=noansi
                                 ;-nologo
                                 ;-nomessage
                                 ;-define=__RX,COMPACTAXP=0,EASYMAK=0,MOBILE=1,FREE_RTOS_PP
                                 ;r_usb_hmanager.c
                                 
                                 		.glb	_usb_ghstd_DeviceDrv
                                 		.glb	_usb_ghstd_DeviceInfo
                                 		.glb	_usb_ghstd_MgrMode
                                 		.glb	_usb_ghstd_DcpRegister
                                 		.glb	_usb_ghstd_DeviceAddr
                                 		.glb	_usb_ghstd_DeviceSpeed
                                 		.glb	_usb_ghstd_DeviceNum
                                 		.glb	_usb_ghstd_EnumSeq
                                 		.glb	_usb_ghstd_DeviceDescriptor
                                 		.glb	_usb_ghstd_ConfigurationDescriptor
                                 		.glb	_usb_ghstd_SuspendPipe
                                 		.glb	_usb_ghstd_CheckEnuResult
                                 		.glb	_usb_ghstd_EnuWait
                                 		.glb	_usb_shstd_StdRequest
                                 		.glb	_usb_shstd_StdReqMsg
                                 		.glb	_usb_ghstd_EnumarationProcess
                                 		.glb	_usb_ghstd_ClassData
                                 		.glb	_usb_ghstd_ClassControl
                                 		.glb	_usb_ghstd_ClassRequest
                                 		.glb	_usb_hstd_MgrRelMpl
                                 		.glb	_usb_cstd_RelBlk
                                 		.glb	_usb_hstd_Enumeration
                                 		.glb	_usb_cstd_GetDevsel
                                 		.glb	_usb_hstd_GetRootport
                                 		.glb	_usb_hstd_SetDevAddr
                                 		.glb	_usb_hstd_EnumFunction1
                                 		.glb	_usb_hstd_EnumFunction2
                                 		.glb	_usb_hstd_EnumFunction4
                                 		.glb	_usb_hstd_NotifAtorDetach
                                 		.glb	_usb_hstd_MgrSndMbx
                                 		.glb	_usb_hstd_OvcrNotifiation
                                 		.glb	_usb_hstd_StatusResult
                                 		.glb	_usb_hstd_SubmitResult
                                 		.glb	_usb_hstd_TransferEndResult
                                 		.glb	_usb_hstd_EnumGetDescriptor
                                 		.glb	_usb_hstd_EnumSetAddress
                                 		.glb	_usb_hstd_EnumSetConfiguration
                                 		.glb	_usb_hstd_EnumDummyRequest
                                 		.glb	_usb_hstd_TransferStart
                                 		.glb	_usb_hstd_MgrSuspend
                                 		.glb	_usb_cstd_SetNak
                                 		.glb	_usb_cstd_GetPid
                                 		.glb	_usb_hstd_ChkDevAddr
                                 		.glb	_usb_hstd_DeviceStateControl
                                 		.glb	_usb_hstd_ChangeDeviceState
                                 		.glb	_usb_hstd_DeviceStateControl2
                                 		.glb	_usb_hstd_MgrReset
                                 		.glb	_usb_hstd_MgrResume
                                 		.glb	_usb_hstd_ClearFeature
                                 		.glb	_usb_cstd_SetBuf
                                 		.glb	_usb_cstd_GetDeviceAddress
                                 		.glb	_usb_hstd_SetFeature
                                 		.glb	_usb_hstd_GetConfigDesc
                                 		.glb	_usb_hstd_StdReqCheck
                                 		.glb	_usb_hstd_GetStringDesc
                                 		.glb	_usb_hstd_MgrTask
                                 		.glb	_usb_cstd_RecMsg
                                 		.glb	_usb_hstd_LsConnectFunction
                                 		.glb	_usb_hstd_support_speed_check
                                 		.glb	_usb_hstd_AttachFunction
                                 		.glb	_usb_hstd_VbusControl
                                 		.glb	_usb_cstd_DummyFunction
                                 ;LineNo. C-SOURCE STATEMENT
                                 
                                 		.SECTION	P,CODE
00000000                         _usb_hstd_MgrRelMpl:
                                 		.STACK	_usb_hstd_MgrRelMpl=16
                                 ;       1 /***********************************************************************************************************************
                                 ;       2 * DISCLAIMER
                                 ;       3 * This software is supplied by Renesas Electronics Corporation and is only intended for use with Renesas products. No
                                 ;       4 * other uses are authorized. This software is owned by Renesas Electronics Corporation and is protected under all
                                 ;       5 * applicable laws, including copyright laws.
                                 ;       6 * THIS SOFTWARE IS PROVIDED "AS IS" AND RENESAS MAKES NO WARRANTIES REGARDING
                                 ;       7 * THIS SOFTWARE, WHETHER EXPRESS, IMPLIED OR STATUTORY, INCLUDING BUT NOT LIMITED TO WARRANTIES OF MERCHANTABILITY,
                                 ;       8 * FITNESS FOR A PARTICULAR PURPOSE AND NON-INFRINGEMENT. ALL SUCH WARRANTIES ARE EXPRESSLY DISCLAIMED. TO THE MAXIMUM
                                 ;       9 * EXTENT PERMITTED NOT PROHIBITED BY LAW, NEITHER RENESAS ELECTRONICS CORPORATION NOR ANY OF ITS AFFILIATED COMPANIES
                                 ;      10 * SHALL BE LIABLE FOR ANY DIRECT, INDIRECT, SPECIAL, INCIDENTAL OR CONSEQUENTIAL DAMAGES FOR ANY REASON RELATED TO THIS
                                 ;      11 * SOFTWARE, EVEN IF RENESAS OR ITS AFFILIATES HAVE BEEN ADVISED OF THE POSSIBILITY OF SUCH DAMAGES.
                                 ;      12 * Renesas reserves the right, without notice, to make changes to this software and to discontinue the availability of
                                 ;      13 * this software. By using this software, you agree to the additional terms and conditions found by accessing the
                                 ;      14 * following link:
                                 ;      15 * http://www.renesas.com/disclaimer
                                 ;      16 *
                                 ;      17 * Copyright (C) 2014(2015) Renesas Electronics Corporation. All rights reserved.
                                 ;      18 ***********************************************************************************************************************/
                                 ;      19 /***********************************************************************************************************************
                                 ;      20 * File Name    : r_usb_hmanager.c
                                 ;      21 * Description  : USB Host Control Manager
                                 ;      22 ***********************************************************************************************************************/
                                 ;      23 /**********************************************************************************************************************
                                 ;      24 * History : DD.MM.YYYY Version Description
                                 ;      25 *         : 04.01.2014 1.00 First Release
                                 ;      26 *         : 30.01.2015 1.01    Support Multi device.
                                 ;      27 ***********************************************************************************************************************/
                                 ;      28 
                                 ;      29 
                                 ;      30 /******************************************************************************
                                 ;      31 Includes   <System Includes> , "Project Includes"
                                 ;      32 ******************************************************************************/
                                 ;      33 #include "r_usb_basic_if.h"
                                 ;      34 #include "r_usb_api.h"
                                 ;      35 #include "r_usb_reg_access.h"
                                 ;      36 
                                 ;      37 
                                 ;      38 #if (USB_FUNCSEL_USBIP0_PP == USB_HOST_PP) || (USB_FUNCSEL_USBIP1_PP == USB_HOST_PP)
                                 ;      39 
                                 ;      40 /******************************************************************************
                                 ;      41 Constant macro definitions
                                 ;      42 ******************************************************************************/
                                 ;      43 #define CLSDATASIZE     512
                                 ;      44 
                                 ;      45 
                                 ;      46 /******************************************************************************
                                 ;      47 Private global variables and functions
                                 ;      48 ******************************************************************************/
                                 ;      49 /* Manager */
                                 ;      50 uint16_t                usb_ghstd_EnumSeq[USB_NUM_USBIP];   /* Enumeration request */
                                 ;      51 uint16_t                usb_ghstd_DeviceDescriptor[USB_NUM_USBIP][USB_DEVICESIZE / 2u];
                                 ;      52 uint16_t                usb_ghstd_ConfigurationDescriptor[USB_NUM_USBIP][USB_CONFIGSIZE / 2u];
                                 ;      53 uint16_t                usb_ghstd_SuspendPipe[USB_NUM_USBIP][USB_MAX_PIPE_NO + 1u];
                                 ;      54 
                                 ;      55 uint16_t                usb_ghstd_CheckEnuResult[USB_NUM_USBIP];
                                 ;      56 uint8_t                 usb_ghstd_EnuWait[USB_NUM_USBIP + USB_NUM_USBIP%2u];
                                 ;      57 
                                 ;      58 void usb_hstd_MgrRelMpl(USB_UTR_t *ptr,uint16_t n);
                                 ;      59 
                                 ;      60 /******************************************************************************
                                 ;      61 Static variables and functions
                                 ;      62 ******************************************************************************/
                                 ;      63 uint16_t         usb_shstd_StdRequest[USB_NUM_USBIP][5];
                                 ;      64 static uint16_t         usb_shstd_DummyData;
                                 ;      65 USB_UTR_t        usb_shstd_StdReqMsg[USB_NUM_USBIP];
                                 ;      66     /* Condition compilation by the difference of the operating system */
                                 ;      67 static uint16_t         usb_shstd_RegPointer[USB_NUM_USBIP];
                                 ;      68 static USB_MGRINFO_t    *usb_shstd_MgrMsg[USB_NUM_USBIP];
                                 ;      69 static uint16_t         usb_shstd_mgr_msginfo[USB_NUM_USBIP] = {0,0};
                                 ;      70 static USB_CB_t         usb_shstd_mgr_callback[USB_NUM_USBIP];
                                 ;      71 static uint16_t         usb_shstd_SuspendSeq[USB_NUM_USBIP] = {0,0};
                                 ;      72 static uint16_t         usb_shstd_ResumeSeq[USB_NUM_USBIP] = {0,0};
                                 ;      73 static  void usb_hstd_SuspCont(USB_UTR_t *ptr, uint16_t devaddr, uint16_t rootport);
                                 ;      74 static  void usb_hstd_ResuCont(USB_UTR_t *ptr, uint16_t devaddr, uint16_t rootport);
                                 ;      75 
                                 ;      76 static  uint16_t usb_hstd_ChkDeviceClass(USB_UTR_t *ptr, USB_HCDREG_t *driver, uint16_t port);
                                 ;      77 static  void usb_hstd_EnumerationErr(uint16_t Rnum);
                                 ;      78         uint16_t usb_hstd_SetFeature(USB_UTR_t *ptr, uint16_t addr, uint16_t epnum, USB_CB_t completeC);
                                 ;      79         uint16_t usb_hstd_GetConfigDesc(USB_UTR_t *ptr, uint16_t addr, uint16_t length, USB_CB_t complete);
                                 ;      80         uint16_t usb_hstd_GetStringDesc(USB_UTR_t *ptr, uint16_t addr, uint16_t string, USB_CB_t complete);
                                 ;      81         uint16_t usb_hstd_StdReqCheck(uint16_t errcheck);
                                 ;      82 static  uint16_t usb_hstd_CmdSubmit(USB_UTR_t *ptr, USB_CB_t complete);
                                 ;      83 static  uint16_t usb_hstd_ChkRemote(USB_UTR_t *ptr);
                                 ;      84 
                                 ;      85 
                                 ;      86 /******************************************************************************
                                 ;      87 Private global variables and functions
                                 ;      88 ******************************************************************************/
                                 ;      89 /* Enumeration Table */
                                 ;      90 void (*usb_ghstd_EnumarationProcess[8])(USB_UTR_t *, uint16_t, uint16_t) =
                                 ;      91 {
                                 ;      92     usb_hstd_EnumGetDescriptor,     usb_hstd_EnumSetAddress,
                                 ;      93     usb_hstd_EnumGetDescriptor,     usb_hstd_EnumGetDescriptor,
                                 ;      94     usb_hstd_EnumGetDescriptor,     usb_hstd_EnumGetDescriptor,
                                 ;      95     usb_hstd_EnumSetConfiguration,  usb_hstd_EnumDummyRequest,
                                 ;      96 };
                                 ;      97 
                                 ;      98 uint8_t         usb_ghstd_ClassData[USB_NUM_USBIP][CLSDATASIZE];
                                 ;      99 USB_UTR_t       usb_ghstd_ClassControl[USB_NUM_USBIP];
                                 ;     100 uint16_t        usb_ghstd_ClassRequest[USB_NUM_USBIP][5];
                                 ;     101 
                                 ;     102 /******************************************************************************
                                 ;     103 External variables and functions
                                 ;     104 ******************************************************************************/
                                 ;     105 extern  uint16_t    usb_hstd_ChkRemote(USB_UTR_t *ptr);
                                 ;     106 extern void (*usb_ghstd_EnumarationProcess[8])(USB_UTR_t *,uint16_t, uint16_t); /* Enumeration Table */
                                 ;     107 
                                 ;     108 
                                 ;     109 /******************************************************************************
                                 ;     110 Function Name   : usb_hstd_MgrRelMpl
                                 ;     111 Description     : Release a memory block.
                                 ;     112 Argument        : uint16_t n    : Error no.
                                 ;     113 Return          : none
                                 ;     114 ******************************************************************************/
                                 ;     115 void usb_hstd_MgrRelMpl(USB_UTR_t *ptr,uint16_t n)
                                 		.LINE  "C:\Workspace\e2studio\git\MT01\r_usb_basic\src\driver\host\r_usb_hmanager.c",115
00000000 60C0                    		SUB #0CH, R0
00000002 A081                    		MOV.L R1, 08H[R0]
00000004 908A                    		MOV.W R2, 06H[R0]
                                 ;     116 {
                                 ;     117     USB_ER_t        err;
                                 ;     118 
                                 ;     119     err = USB_REL_BLK(USB_MGR_MPL, (USB_MH_t)usb_shstd_MgrMsg[ptr->ip]);
                                 		.LINE  "C:\Workspace\e2studio\git\MT01\r_usb_basic\src\driver\host\r_usb_hmanager.c",119
00000006 A881                    		MOV.L 08H[R0], R1
00000008 B991                    		MOVU.W 0CH[R1], R1
0000000A FBE2rrrrrrrr            		MOV.L #__$usb_shstd_MgrMsg, R14
00000010 FE61E2                  		MOV.L [R1,R14], R2
00000013 6621                    		MOV.L #00000002H, R1
00000015 05rrrrrr             A  		BSR _usb_cstd_RelBlk
00000019 E301                    		MOV.L R1, [R0]
0000001B                         L11:	; entry.split
                                 ;     120     if( err != USB_E_OK )
                                 		.LINE  "C:\Workspace\e2studio\git\MT01\r_usb_basic\src\driver\host\r_usb_hmanager.c",120
0000001B 6703                    		RTSD #0CH
0000001D                         __$usb_hstd_mgr_chgdevst_cb:
                                 		.STACK	__$usb_hstd_mgr_chgdevst_cb=12
                                 ;     121     {
                                 ;     122         USB_PRINTF1("### USB MGR rel_blk error: %d\n", n);
                                 ;     123     }
                                 ;     124 }
                                 ;     125 /******************************************************************************
                                 ;     126 End of function usb_hstd_MgrRelMpl
                                 ;     127 ******************************************************************************/
                                 ;     128 
                                 ;     129 /******************************************************************************
                                 ;     130 Function Name   : usb_hstd_mgr_chgdevst_cb
                                 ;     131 Description     : Call the callback function specified by the argument given to
                                 ;     132                 : the API R_usb_hstd_ChangeDeviceState.
                                 ;     133 Argument        : uint16_t rootport : Port no.
                                 ;     134 Return          : none
                                 ;     135 ******************************************************************************/
                                 ;     136 static void usb_hstd_mgr_chgdevst_cb(USB_UTR_t *ptr, uint16_t rootport)
                                 		.LINE  "C:\Workspace\e2studio\git\MT01\r_usb_basic\src\driver\host\r_usb_hmanager.c",136
0000001D 6080                    		SUB #08H, R0
0000001F A009                    		MOV.L R1, 04H[R0]
00000021 900A                    		MOV.W R2, 02H[R0]
                                 ;     137 {
                                 ;     138     if( usb_shstd_mgr_msginfo[ptr->ip] != 0 )
                                 		.LINE  "C:\Workspace\e2studio\git\MT01\r_usb_basic\src\driver\host\r_usb_hmanager.c",138
00000023 A809                    		MOV.L 04H[R0], R1
00000025 B991                    		MOVU.W 0CH[R1], R1
00000027 FBE2rrrrrrrr            		MOV.L #__$usb_shstd_mgr_msginfo, R14
0000002D FED1EE                  		MOVU.W [R1,R14], R14
00000030 610E                    		CMP #00H, R14
00000032 20rr                    		BEQ L15
00000034                         L13:	; bb3
                                 ;     139     {
                                 ;     140         (*usb_shstd_mgr_callback[ptr->ip])(ptr, rootport, usb_shstd_mgr_msginfo[ptr->ip]);
                                 		.LINE  "C:\Workspace\e2studio\git\MT01\r_usb_basic\src\driver\host\r_usb_hmanager.c",140
00000034 A809                    		MOV.L 04H[R0], R1
00000036 B992                    		MOVU.W 0CH[R1], R2
00000038 FBE2rrrrrrrr            		MOV.L #__$usb_shstd_mgr_msginfo, R14
0000003E FED2E3                  		MOVU.W [R2,R14], R3
00000041 FBE2rrrrrrrr            		MOV.L #__$usb_shstd_mgr_callback, R14
00000047 FE62EE                  		MOV.L [R2,R14], R14
0000004A B80A                    		MOVU.W 02H[R0], R2
0000004C 7F1E                    		JSR R14
0000004E                         L14:	; bb3.split
                                 ;     141         usb_shstd_mgr_msginfo[ptr->ip] = 0;
                                 		.LINE  "C:\Workspace\e2studio\git\MT01\r_usb_basic\src\driver\host\r_usb_hmanager.c",141
0000004E A809                    		MOV.L 04H[R0], R1
00000050 B991                    		MOVU.W 0CH[R1], R1
00000052 FBE2rrrrrrrr            		MOV.L #__$usb_shstd_mgr_msginfo, R14
00000058 660F                    		MOV.L #00000000H, R15
0000005A FE11EF                  		MOV.W R15, [R1,R14]
0000005D 6702                    		RTSD #08H
0000005F                         L15:	; return
                                 ;     142     }
                                 ;     143 }
                                 		.LINE  "C:\Workspace\e2studio\git\MT01\r_usb_basic\src\driver\host\r_usb_hmanager.c",143
0000005F 6702                    		RTSD #08H
00000061                         _usb_hstd_Enumeration:
                                 		.STACK	_usb_hstd_Enumeration=44
                                 ;     144 
                                 ;     145 /******************************************************************************
                                 ;     146 End of function usb_hstd_mgr_chgdevst_cb
                                 ;     147 ******************************************************************************/
                                 ;     148 
                                 ;     149 
                                 ;     150 /******************************************************************************
                                 ;     151 Function Name   : usb_hstd_Enumeration
                                 ;     152 Description     : Execute enumeration on the connected USB device.
                                 ;     153 Arguments       : USB_UTR_t *ptr : USB system internal structure.
                                 ;     154 Return          : uint16_t       : Enumeration status.
                                 ;     155 ******************************************************************************/
                                 ;     156 uint16_t usb_hstd_Enumeration(USB_UTR_t *ptr)
                                 		.LINE  "C:\Workspace\e2studio\git\MT01\r_usb_basic\src\driver\host\r_usb_hmanager.c",156
00000061 7100D8                  		ADD #0FFFFFFD8H, R0
00000064 A209                    		MOV.L R1, 24H[R0]
                                 ;     157 {
                                 ;     158 #ifdef USB_HOST_COMPLIANCE_MODE
                                 ;     159     uint16_t        vendor_id;
                                 ;     160     uint16_t        product_id;
                                 ;     161 #endif  /* USB_HOST_COMPLIANCE_MODE */
                                 ;     162 
                                 ;     163     uint16_t        md, flg;
                                 ;     164     USB_HCDREG_t    *driver;
                                 ;     165     uint16_t        enume_mode;     /* Enumeration mode (device state) */
                                 ;     166     uint8_t         *descriptor_table;
                                 ;     167     uint16_t        rootport, pipenum, devsel;
                                 ;     168 
                                 ;     169     /* Attach Detect Mode */
                                 ;     170     enume_mode = USB_NONDEVICE;
                                 		.LINE  "C:\Workspace\e2studio\git\MT01\r_usb_basic\src\driver\host\r_usb_hmanager.c",170
00000066 3D0900                  		MOV.W #0000H, 12H[R0]
00000069                         L17:	; entry.split
                                 ;     171 
                                 ;     172     pipenum     = usb_shstd_MgrMsg[ptr->ip]->keyword;
                                 		.LINE  "C:\Workspace\e2studio\git\MT01\r_usb_basic\src\driver\host\r_usb_hmanager.c",172
00000069 AA09                    		MOV.L 24H[R0], R1
0000006B B991                    		MOVU.W 0CH[R1], R1
0000006D FBE2rrrrrrrr            		MOV.L #__$usb_shstd_MgrMsg, R14
00000073 FE61E1                  		MOV.L [R1,R14], R1
00000076 D510030E                		MOV.W 06H[R1], 1CH[R0]
0000007A                         L18:	; entry.split1
                                 ;     173     /* Agreement device address */
                                 ;     174     devsel      = usb_cstd_GetDevsel(ptr, pipenum);
                                 		.LINE  "C:\Workspace\e2studio\git\MT01\r_usb_basic\src\driver\host\r_usb_hmanager.c",174
0000007A BB82                    		MOVU.W 1CH[R0], R2
0000007C AA09                    		MOV.L 24H[R0], R1
0000007E 05rrrrrr             A  		BSR _usb_cstd_GetDevsel
00000082 9389                    		MOV.W R1, 1EH[R0]
00000084                         L19:	; entry.split2
                                 ;     175     /* Get root port number from device addr */
                                 ;     176     rootport    = usb_hstd_GetRootport(ptr, devsel);
                                 		.LINE  "C:\Workspace\e2studio\git\MT01\r_usb_basic\src\driver\host\r_usb_hmanager.c",176
00000084 BB8A                    		MOVU.W 1EH[R0], R2
00000086 AA09                    		MOV.L 24H[R0], R1
00000088 05rrrrrr             A  		BSR _usb_hstd_GetRootport
0000008C 9309                    		MOV.W R1, 1AH[R0]
0000008E                         L20:	; entry.split3
                                 ;     177 
                                 ;     178     /* Manager Mode Change */
                                 ;     179     switch( usb_shstd_MgrMsg[ptr->ip]->result )
                                 		.LINE  "C:\Workspace\e2studio\git\MT01\r_usb_basic\src\driver\host\r_usb_hmanager.c",179
0000008E AA09                    		MOV.L 24H[R0], R1
00000090 B991                    		MOVU.W 0CH[R1], R1
00000092 FBE2rrrrrrrr            		MOV.L #__$usb_shstd_MgrMsg, R14
00000098 FE61E1                  		MOV.L [R1,R14], R1
0000009B B999                    		MOVU.W 0EH[R1], R1
0000009D 6171                    		CMP #07H, R1
0000009F 3Arrrr               W  		BEQ L97
000000A2                         L21:	; entry.split3
000000A2 6151                    		CMP #05H, R1
000000A4 3Arrrr               W  		BEQ L98
000000A7                         L22:	; entry.split3
000000A7 6161                    		CMP #06H, R1
000000A9 3Arrrr               W  		BEQ L99
000000AC                         L23:	; entry.split3
000000AC 6101                    		CMP #00H, R1
000000AE 3Brrrr               W  		BNE L101
000000B1                         L24:	; bb
                                 ;     180     {
                                 ;     181     case USB_CTRL_END:
                                 ;     182         enume_mode = USB_DEVICEENUMERATION;
                                 		.LINE  "C:\Workspace\e2studio\git\MT01\r_usb_basic\src\driver\host\r_usb_hmanager.c",182
000000B1 3D0903                  		MOV.W #0003H, 12H[R0]
000000B4                         L25:	; bb.split
                                 ;     183         switch( usb_ghstd_EnumSeq[ptr->ip] )
                                 		.LINE  "C:\Workspace\e2studio\git\MT01\r_usb_basic\src\driver\host\r_usb_hmanager.c",183
000000B4 AA09                    		MOV.L 24H[R0], R1
000000B6 B991                    		MOVU.W 0CH[R1], R1
000000B8 FBE2rrrrrrrr            		MOV.L #_usb_ghstd_EnumSeq, R14
000000BE FED1EE                  		MOVU.W [R1,R14], R14
000000C1 616E                    		CMP #06H, R14
000000C3 3Arrrr               W  		BEQ L75
000000C6                         L26:	; bb.split
000000C6 614E                    		CMP #04H, R14
000000C8 20rr                    		BEQ L33
000000CA                         L27:	; bb.split
000000CA 615E                    		CMP #05H, R14
000000CC 3Arrrr               W  		BEQ L67
000000CF                         L28:	; bb.split
000000CF 611E                    		CMP #01H, R14
000000D1 3Brrrr               W  		BNE L87
000000D4                         L29:	; bb43
                                 ;     184         {
                                 ;     185         /* Receive Device Descriptor */
                                 ;     186         case 0:
                                 ;     187             break;
                                 ;     188         /* Set Address */
                                 ;     189         case 1:
                                 ;     190             descriptor_table = (uint8_t*)usb_ghstd_DeviceDescriptor[ptr->ip];
                                 		.LINE  "C:\Workspace\e2studio\git\MT01\r_usb_basic\src\driver\host\r_usb_hmanager.c",190
000000D4 AA09                    		MOV.L 24H[R0], R1
000000D6 B991                    		MOVU.W 0CH[R1], R1
000000D8 751114                  		MUL #14H, R1
000000DB FB22rrrrrrrr            		MOV.L #_usb_ghstd_DeviceDescriptor, R2
000000E1 4B12                    		ADD R1, R2
000000E3 A10A                    		MOV.L R2, 14H[R0]
000000E5                         L30:	; bb43.split
                                 ;     191             devsel = (uint16_t)(usb_ghstd_DeviceAddr[ptr->ip] << USB_DEVADDRBIT);
                                 		.LINE  "C:\Workspace\e2studio\git\MT01\r_usb_basic\src\driver\host\r_usb_hmanager.c",191
000000E5 AA09                    		MOV.L 24H[R0], R1
000000E7 B991                    		MOVU.W 0CH[R1], R1
000000E9 FBE2rrrrrrrr            		MOV.L #_usb_ghstd_DeviceAddr, R14
000000EF FE51E1                  		MOV.W [R1,R14], R1
000000F2 6CC1                    		SHLL #0CH, R1
000000F4 9389                    		MOV.W R1, 1EH[R0]
000000F6                         L31:	; bb43.split4
                                 ;     192             /* Set device speed */
                                 ;     193             usb_hstd_SetDevAddr(ptr, devsel, usb_ghstd_DeviceSpeed[ptr->ip], rootport);
                                 		.LINE  "C:\Workspace\e2studio\git\MT01\r_usb_basic\src\driver\host\r_usb_hmanager.c",193
000000F6 AA09                    		MOV.L 24H[R0], R1
000000F8 B992                    		MOVU.W 0CH[R1], R2
000000FA FBE2rrrrrrrr            		MOV.L #_usb_ghstd_DeviceSpeed, R14
00000100 FED2E3                  		MOVU.W [R2,R14], R3
00000103 BB0C                    		MOVU.W 1AH[R0], R4
00000105 BB8A                    		MOVU.W 1EH[R0], R2
00000107 05rrrrrr             A  		BSR _usb_hstd_SetDevAddr
0000010B                         L32:	; bb43.split5
                                 ;     194             usb_ghstd_DcpRegister[ptr->ip][usb_ghstd_DeviceAddr[ptr->ip]] 
                                 		.LINE  "C:\Workspace\e2studio\git\MT01\r_usb_basic\src\driver\host\r_usb_hmanager.c",194
0000010B AA09                    		MOV.L 24H[R0], R1
0000010D B991                    		MOVU.W 0CH[R1], R1
0000010F FBE2rrrrrrrr            		MOV.L #_usb_ghstd_DeviceAddr, R14
00000115 FED1EE                  		MOVU.W [R1,R14], R14
00000118 751116                  		MUL #16H, R1
0000011B FBF2rrrrrrrr            		MOV.L #_usb_ghstd_DcpRegister, R15
00000121 4B1F                    		ADD R1, R15
00000123 A909                    		MOV.L 14H[R0], R1
00000125 B199                    		MOVU.B 07H[R1], R1
00000127 75217F                  		AND #7FH, R1
0000012A 0655010F                		OR 1EH[R0].W, R1
0000012E FE1EF1                  		MOV.W R1, [R14,R15]
00000131 38rrrr               W  		BRA L87
00000134                         L33:	; bb96
                                 ;     195                 = (uint16_t)((uint16_t)(descriptor_table[7] & USB_MAXPFIELD) | devsel);
                                 ;     196             break;
                                 ;     197         /* Receive Device Descriptor(18) */
                                 ;     198         case 2:
                                 ;     199             break;
                                 ;     200         /* Receive Configuration Descriptor(9) */
                                 ;     201         case 3:
                                 ;     202             break;
                                 ;     203         /* Receive Configuration Descriptor(xx) */
                                 ;     204         case 4:
                                 ;     205 #ifdef USB_HOST_COMPLIANCE_MODE
                                 ;     206             descriptor_table = (uint8_t*)usb_ghstd_DeviceDescriptor[ptr->ip];
                                 ;     207             /* If 'vendor_id' and 'product_id' value is defined by PET, */
                                 ;     208             /*    system works for compliance test mode. */
                                 ;     209             /* Values ??defined by PET is the following. */
                                 ;     210             /* vendor_id : 0x1A0A  */
                                 ;     211             /* product_id : 0x0101 - 0x0108 , 0x0200 */
                                 ;     212 
                                 ;     213             vendor_id = (uint16_t)(descriptor_table[USB_DEV_ID_VENDOR_L]
                                 ;     214                       + ((uint16_t)descriptor_table[USB_DEV_ID_VENDOR_H] << 8));
                                 ;     215 
                                 ;     216             if(vendor_id == 0x1A0A)
                                 ;     217             {
                                 ;     218                 product_id = (uint16_t)(descriptor_table[USB_DEV_ID_PRODUCT_L]
                                 ;     219                            + ((uint16_t)descriptor_table[USB_DEV_ID_PRODUCT_H] << 8));
                                 ;     220 
                                 ;     221                 descriptor_table = (uint8_t*)usb_ghstd_ConfigurationDescriptor[ptr->ip];
                                 ;     222 #ifdef USB_HS_EL_TEST
                                 ;     223                 if((product_id >= 0x0101) && (product_id <= 0x0108))
                                 ;     224                 {
                                 ;     225                     usb_hstd_ElectricalTestMode(ptr, product_id, rootport);
                                 ;     226                     enume_mode = USB_NOTTPL;
                                 ;     227                     break;
                                 ;     228                 }
                                 ;     229 #endif  /* USB_HS_EL_TEST */
                                 ;     230                 if(product_id == 0x0200)
                                 ;     231                 {
                                 ;     232                     usb_ghstd_EnumSeq[ptr->ip]++;
                                 ;     233                     break;
                                 ;     234                 }
                                 ;     235             }
                                 ;     236 #endif  /* USB_HOST_COMPLIANCE_MODE */
                                 ;     237 
                                 ;     238 
                                 ;     239             /* Device enumeration function */
                                 ;     240             switch( usb_hstd_EnumFunction1() )
                                 		.LINE  "C:\Workspace\e2studio\git\MT01\r_usb_basic\src\driver\host\r_usb_hmanager.c",240
00000134 05rrrrrr             A  		BSR _usb_hstd_EnumFunction1
00000138 7701FFFF00              		CMP #0FFFFH, R1
0000013D 3Arrrr               W  		BEQ L65
00000140                         L34:	; bb96
00000140 6121                    		CMP #02H, R1
00000142 3Arrrr               W  		BEQ L52
00000145                         L35:	; bb96
00000145 6101                    		CMP #00H, R1
00000147 3Brrrr               W  		BNE L66
0000014A                         L36:	; bb99
                                 ;     241             {
                                 ;     242             /* Driver open */
                                 ;     243             case USB_DONE:
                                 ;     244                 for( flg = 0u, md = 0; (md < usb_ghstd_DeviceNum[ptr->ip]) && (flg == 0u); md++ ) 
                                 		.LINE  "C:\Workspace\e2studio\git\MT01\r_usb_basic\src\driver\host\r_usb_hmanager.c",244
0000014A 3D0500                  		MOV.W #0000H, 0AH[R0]
0000014D 3D0400                  		MOV.W #0000H, 08H[R0]
00000150 2Err                 B  		BRA L45
00000152                         L37:	; bb102
                                 ;     245                 {
                                 ;     246                     driver = &usb_ghstd_DeviceDrv[ptr->ip][md];
                                 		.LINE  "C:\Workspace\e2studio\git\MT01\r_usb_basic\src\driver\host\r_usb_hmanager.c",246
00000152 AA09                    		MOV.L 24H[R0], R1
00000154 B991                    		MOVU.W 0CH[R1], R1
00000156 7611B801                		MUL #01B8H, R1
0000015A FB22rrrrrrrr            		MOV.L #_usb_ghstd_DeviceDrv, R2
00000160 4B12                    		ADD R1, R2
00000162 B901                    		MOVU.W 08H[R0], R1
00000164 751128                  		MUL #28H, R1
00000167 4B12                    		ADD R1, R2
00000169 A08A                    		MOV.L R2, 0CH[R0]
0000016B                         L38:	; bb102.split
                                 ;     247                     if( driver->devstate == USB_DETACHED ) 
                                 		.LINE  "C:\Workspace\e2studio\git\MT01\r_usb_basic\src\driver\host\r_usb_hmanager.c",247
0000016B A889                    		MOV.L 0CH[R0], R1
0000016D B891                    		MOVU.W 04H[R1], R1
0000016F 61A1                    		CMP #0AH, R1
00000171 21rr                    		BNE L44
00000173                         L39:	; bb113
                                 ;     248                     {
                                 ;     249                         uint16_t retval;
                                 ;     250                         retval = usb_hstd_ChkDeviceClass(ptr, driver, rootport);
                                 		.LINE  "C:\Workspace\e2studio\git\MT01\r_usb_basic\src\driver\host\r_usb_hmanager.c",250
00000173 BB0B                    		MOVU.W 1AH[R0], R3
00000175 A88A                    		MOV.L 0CH[R0], R2
00000177 AA09                    		MOV.L 24H[R0], R1
00000179 39rrrr               W  		BSR __$usb_hstd_ChkDeviceClass
0000017C 9401                    		MOV.W R1, 20H[R0]
0000017E                         L40:	; bb113.split
                                 ;     251                         usb_ghstd_CheckEnuResult[ptr->ip] = USB_DONE;
                                 		.LINE  "C:\Workspace\e2studio\git\MT01\r_usb_basic\src\driver\host\r_usb_hmanager.c",251
0000017E AA09                    		MOV.L 24H[R0], R1
00000180 B991                    		MOVU.W 0CH[R1], R1
00000182 FBE2rrrrrrrr            		MOV.L #_usb_ghstd_CheckEnuResult, R14
00000188 660F                    		MOV.L #00000000H, R15
0000018A FE11EF                  		MOV.W R15, [R1,R14]
0000018D                         L41:	; bb113.split6
                                 ;     252                         /* In this function, check device class of       */
                                 ;     253                         /*              enumeration flow move to class   */
                                 ;     254                         /* "R_usb_hstd_ReturnEnuMGR()" is used to return */
                                 ;     255                         if( retval == USB_DONE )
                                 		.LINE  "C:\Workspace\e2studio\git\MT01\r_usb_basic\src\driver\host\r_usb_hmanager.c",255
0000018D BC01                    		MOVU.W 20H[R0], R1
0000018F 6101                    		CMP #00H, R1
00000191 21rr                    		BNE L44
00000193                         L42:	; bb124
                                 ;     256                         {
                                 ;     257                             usb_shstd_RegPointer[ptr->ip] = md;
                                 		.LINE  "C:\Workspace\e2studio\git\MT01\r_usb_basic\src\driver\host\r_usb_hmanager.c",257
00000193 AA09                    		MOV.L 24H[R0], R1
00000195 B991                    		MOVU.W 0CH[R1], R1
00000197 FBE2rrrrrrrr            		MOV.L #__$usb_shstd_RegPointer, R14
0000019D 9902                    		MOV.W 08H[R0], R2
0000019F FE11E2                  		MOV.W R2, [R1,R14]
000001A2                         L43:	; bb124.split
                                 ;     258                             flg = 1;    /* break; */
                                 		.LINE  "C:\Workspace\e2studio\git\MT01\r_usb_basic\src\driver\host\r_usb_hmanager.c",258
000001A2 3D0501                  		MOV.W #0001H, 0AH[R0]
000001A5                         L44:	; bb143
000001A5 9901                    		MOV.W 08H[R0], R1
000001A7 6211                    		ADD #01H, R1
000001A9 9101                    		MOV.W R1, 08H[R0]
000001AB                         L45:	; bb146
                                 		.LINE  "C:\Workspace\e2studio\git\MT01\r_usb_basic\src\driver\host\r_usb_hmanager.c",244
000001AB AA09                    		MOV.L 24H[R0], R1
000001AD B991                    		MOVU.W 0CH[R1], R1
000001AF FBE2rrrrrrrr            		MOV.L #_usb_ghstd_DeviceNum, R14
000001B5 FED1EE                  		MOVU.W [R1,R14], R14
000001B8 B901                    		MOVU.W 08H[R0], R1
000001BA 47E1                    		CMP R14, R1
000001BC 28rr                    		BGE L48
000001BE                         L46:	; bb158
000001BE B909                    		MOVU.W 0AH[R0], R1
000001C0 6101                    		CMP #00H, R1
000001C2 18                   S  		BNE L48
000001C3                         L47:	; bb163
000001C3 F80601                  		MOV.L #00000001H, [R0]
000001C6 08                   S  		BRA L49
000001C7                         L48:	; bb164
000001C7 F80600                  		MOV.L #00000000H, [R0]
000001CA                         L49:	; bb165
000001CA EC01                    		MOV.L [R0], R1
000001CC 6101                    		CMP #00H, R1
000001CE 21rr                    		BNE L37
000001D0                         L50:	; bb171
                                 ;     259                         }
                                 ;     260                     }
                                 ;     261                 }
                                 ;     262                 if( flg != 1 )
                                 		.LINE  "C:\Workspace\e2studio\git\MT01\r_usb_basic\src\driver\host\r_usb_hmanager.c",262
000001D0 B909                    		MOVU.W 0AH[R0], R1
000001D2 6111                    		CMP #01H, R1
000001D4 3Arrrr               W  		BEQ L87
000001D7                         L51:	; bb172
                                 ;     263                 {
                                 ;     264 #ifdef USB_HOST_COMPLIANCE_MODE
                                 ;     265                     usb_ghstd_EnumSeq[ptr->ip] = usb_ghstd_EnumSeq[ptr->ip] + 2;
                                 ;     266 #else /* USB_HOST_COMPLIANCE_MODE */
                                 ;     267                     usb_ghstd_EnumSeq[ptr->ip]++;
                                 		.LINE  "C:\Workspace\e2studio\git\MT01\r_usb_basic\src\driver\host\r_usb_hmanager.c",267
000001D7 AA09                    		MOV.L 24H[R0], R1
000001D9 B991                    		MOVU.W 0CH[R1], R1
000001DB FBE2rrrrrrrr            		MOV.L #_usb_ghstd_EnumSeq, R14
000001E1 FE51EF                  		MOV.W [R1,R14], R15
000001E4 621F                    		ADD #01H, R15
000001E6 FE11EF                  		MOV.W R15, [R1,R14]
000001E9 38rrrr               W  		BRA L87
000001EC                         L52:	; bb186
                                 ;     268 #endif /* USB_HOST_COMPLIANCE_MODE */
                                 ;     269                 }
                                 ;     270                 break;
                                 ;     271             /* OTG CV test */
                                 ;     272             case USB_OTG_DONE:
                                 ;     273                 for( flg = 0u, md = 0u; (md < usb_ghstd_DeviceNum[ptr->ip]) && (flg == 0); md++ )
                                 		.LINE  "C:\Workspace\e2studio\git\MT01\r_usb_basic\src\driver\host\r_usb_hmanager.c",273
000001EC 3D0500                  		MOV.W #0000H, 0AH[R0]
000001EF 3D0400                  		MOV.W #0000H, 08H[R0]
000001F2 2Err                 B  		BRA L60
000001F4                         L53:	; bb189
                                 ;     274                 {
                                 ;     275                     driver = &usb_ghstd_DeviceDrv[ptr->ip][md];
                                 		.LINE  "C:\Workspace\e2studio\git\MT01\r_usb_basic\src\driver\host\r_usb_hmanager.c",275
000001F4 AA09                    		MOV.L 24H[R0], R1
000001F6 B991                    		MOVU.W 0CH[R1], R1
000001F8 7611B801                		MUL #01B8H, R1
000001FC FB22rrrrrrrr            		MOV.L #_usb_ghstd_DeviceDrv, R2
00000202 4B12                    		ADD R1, R2
00000204 B901                    		MOVU.W 08H[R0], R1
00000206 751128                  		MUL #28H, R1
00000209 4B12                    		ADD R1, R2
0000020B A08A                    		MOV.L R2, 0CH[R0]
0000020D                         L54:	; bb189.split
                                 ;     276                     if( driver->devstate == USB_DETACHED )
                                 		.LINE  "C:\Workspace\e2studio\git\MT01\r_usb_basic\src\driver\host\r_usb_hmanager.c",276
0000020D A889                    		MOV.L 0CH[R0], R1
0000020F B891                    		MOVU.W 04H[R1], R1
00000211 61A1                    		CMP #0AH, R1
00000213 21rr                    		BNE L59
00000215                         L55:	; bb200
                                 ;     277                     {
                                 ;     278                         usb_ghstd_DeviceInfo[ptr->ip][usb_ghstd_DeviceAddr[ptr->ip]][0] = rootport; /* root port */
                                 		.LINE  "C:\Workspace\e2studio\git\MT01\r_usb_basic\src\driver\host\r_usb_hmanager.c",278
00000215 AA09                    		MOV.L 24H[R0], R1
00000217 B991                    		MOVU.W 0CH[R1], R1
00000219 FBE2rrrrrrrr            		MOV.L #_usb_ghstd_DeviceAddr, R14
0000021F FED1EE                  		MOVU.W [R1,R14], R14
00000222 7611B000                		MUL #0B0H, R1
00000226 FBF2rrrrrrrr            		MOV.L #_usb_ghstd_DeviceInfo, R15
0000022C 4B1F                    		ADD R1, R15
0000022E 6C4E                    		SHLL #04H, R14
00000230 4BEF                    		ADD R14, R15
00000232 D10F0D                  		MOV.W 1AH[R0], [R15]
00000235                         L56:	; bb200.split
                                 ;     279                         driver->rootport    = rootport;
                                 		.LINE  "C:\Workspace\e2studio\git\MT01\r_usb_basic\src\driver\host\r_usb_hmanager.c",279
00000235 9B09                    		MOV.W 1AH[R0], R1
00000237 A88A                    		MOV.L 0CH[R0], R2
00000239 D321                    		MOV.W R1, [R2]
0000023B                         L57:	; bb200.split7
                                 ;     280                         driver->devaddr     = usb_ghstd_DeviceAddr[ptr->ip];
                                 		.LINE  "C:\Workspace\e2studio\git\MT01\r_usb_basic\src\driver\host\r_usb_hmanager.c",280
0000023B AA09                    		MOV.L 24H[R0], R1
0000023D B991                    		MOVU.W 0CH[R1], R1
0000023F FBE2rrrrrrrr            		MOV.L #_usb_ghstd_DeviceAddr, R14
00000245 FE51E1                  		MOV.W [R1,R14], R1
00000248 A88A                    		MOV.L 0CH[R0], R2
0000024A 9029                    		MOV.W R1, 02H[R2]
0000024C                         L58:	; bb200.split8
                                 ;     281                         flg = 1;    /* break; */
                                 		.LINE  "C:\Workspace\e2studio\git\MT01\r_usb_basic\src\driver\host\r_usb_hmanager.c",281
0000024C 3D0501                  		MOV.W #0001H, 0AH[R0]
0000024F                         L59:	; bb236
0000024F 9901                    		MOV.W 08H[R0], R1
00000251 6211                    		ADD #01H, R1
00000253 9101                    		MOV.W R1, 08H[R0]
00000255                         L60:	; bb239
                                 		.LINE  "C:\Workspace\e2studio\git\MT01\r_usb_basic\src\driver\host\r_usb_hmanager.c",273
00000255 AA09                    		MOV.L 24H[R0], R1
00000257 B991                    		MOVU.W 0CH[R1], R1
00000259 FBE2rrrrrrrr            		MOV.L #_usb_ghstd_DeviceNum, R14
0000025F FED1EE                  		MOVU.W [R1,R14], R14
00000262 B901                    		MOVU.W 08H[R0], R1
00000264 47E1                    		CMP R14, R1
00000266 28rr                    		BGE L63
00000268                         L61:	; bb251
00000268 B909                    		MOVU.W 0AH[R0], R1
0000026A 6101                    		CMP #00H, R1
0000026C 18                   S  		BNE L63
0000026D                         L62:	; bb256
0000026D F80601                  		MOV.L #00000001H, [R0]
00000270 08                   S  		BRA L64
00000271                         L63:	; bb257
00000271 F80600                  		MOV.L #00000000H, [R0]
00000274                         L64:	; bb258
00000274 EC01                    		MOV.L [R0], R1
00000276 6101                    		CMP #00H, R1
00000278 3Brrrr               W  		BNE L53
0000027B 38rrrr               W  		BRA L87
0000027E                         L65:	; bb264
                                 ;     282                     }
                                 ;     283                 }
                                 ;     284                 break;
                                 ;     285             /* Descriptor error */
                                 ;     286             case USB_ERROR:
                                 ;     287                 USB_PRINTF0("### Enumeration is stoped(ClassCode-ERROR)\n");
                                 ;     288                 /* Attach Detect Mode */
                                 ;     289                 enume_mode = USB_NOTTPL;
                                 		.LINE  "C:\Workspace\e2studio\git\MT01\r_usb_basic\src\driver\host\r_usb_hmanager.c",289
0000027E 3D0901                  		MOV.W #0001H, 12H[R0]
00000281 38rrrr               W  		BRA L87
00000284                         L66:	; bb265
                                 ;     290                 break;
                                 ;     291             default:
                                 ;     292                 /* Attach Detect Mode */
                                 ;     293                 enume_mode = USB_NONDEVICE;
                                 		.LINE  "C:\Workspace\e2studio\git\MT01\r_usb_basic\src\driver\host\r_usb_hmanager.c",293
00000284 3D0900                  		MOV.W #0000H, 12H[R0]
00000287 38rrrr               W  		BRA L87
0000028A                         L67:	; bb267
                                 ;     294                 break;
                                 ;     295             }
                                 ;     296             break;
                                 ;     297         /* Class Check Result */
                                 ;     298         case 5:
                                 ;     299             switch(usb_ghstd_CheckEnuResult[ptr->ip])
                                 		.LINE  "C:\Workspace\e2studio\git\MT01\r_usb_basic\src\driver\host\r_usb_hmanager.c",299
0000028A AA09                    		MOV.L 24H[R0], R1
0000028C B991                    		MOVU.W 0CH[R1], R1
0000028E FBE2rrrrrrrr            		MOV.L #_usb_ghstd_CheckEnuResult, R14
00000294 FED1EE                  		MOVU.W [R1,R14], R14
00000297 770EFFFF00              		CMP #0FFFFH, R14
0000029C 20rr                    		BEQ L73
0000029E                         L68:	; bb267
0000029E 610E                    		CMP #00H, R14
000002A0 21rr                    		BNE L74
000002A2                         L69:	; bb275
                                 ;     300             {
                                 ;     301             case    USB_DONE:
                                 ;     302                 driver  = &usb_ghstd_DeviceDrv[ptr->ip][usb_shstd_RegPointer[ptr->ip]];
                                 		.LINE  "C:\Workspace\e2studio\git\MT01\r_usb_basic\src\driver\host\r_usb_hmanager.c",302
000002A2 AA09                    		MOV.L 24H[R0], R1
000002A4 B991                    		MOVU.W 0CH[R1], R1
000002A6 FBE2rrrrrrrr            		MOV.L #__$usb_shstd_RegPointer, R14
000002AC FED1EE                  		MOVU.W [R1,R14], R14
000002AF 7611B801                		MUL #01B8H, R1
000002B3 FB22rrrrrrrr            		MOV.L #_usb_ghstd_DeviceDrv, R2
000002B9 4B12                    		ADD R1, R2
000002BB 751E28                  		MUL #28H, R14
000002BE 4BE2                    		ADD R14, R2
000002C0 A08A                    		MOV.L R2, 0CH[R0]
000002C2                         L70:	; bb275.split
                                 ;     303                 usb_ghstd_DeviceInfo[ptr->ip][usb_ghstd_DeviceAddr[ptr->ip]][0] = rootport; /* Root port */
                                 		.LINE  "C:\Workspace\e2studio\git\MT01\r_usb_basic\src\driver\host\r_usb_hmanager.c",303
000002C2 AA09                    		MOV.L 24H[R0], R1
000002C4 B991                    		MOVU.W 0CH[R1], R1
000002C6 FBE2rrrrrrrr            		MOV.L #_usb_ghstd_DeviceAddr, R14
000002CC FED1EE                  		MOVU.W [R1,R14], R14
000002CF 7611B000                		MUL #0B0H, R1
000002D3 FBF2rrrrrrrr            		MOV.L #_usb_ghstd_DeviceInfo, R15
000002D9 4B1F                    		ADD R1, R15
000002DB 6C4E                    		SHLL #04H, R14
000002DD 4BEF                    		ADD R14, R15
000002DF D10F0D                  		MOV.W 1AH[R0], [R15]
000002E2                         L71:	; bb275.split9
                                 ;     304                 driver->rootport    = rootport;
                                 		.LINE  "C:\Workspace\e2studio\git\MT01\r_usb_basic\src\driver\host\r_usb_hmanager.c",304
000002E2 9B09                    		MOV.W 1AH[R0], R1
000002E4 A88A                    		MOV.L 0CH[R0], R2
000002E6 D321                    		MOV.W R1, [R2]
000002E8                         L72:	; bb275.split10
                                 ;     305                 driver->devaddr     = usb_ghstd_DeviceAddr[ptr->ip];
                                 		.LINE  "C:\Workspace\e2studio\git\MT01\r_usb_basic\src\driver\host\r_usb_hmanager.c",305
000002E8 AA09                    		MOV.L 24H[R0], R1
000002EA B991                    		MOVU.W 0CH[R1], R1
000002EC FBE2rrrrrrrr            		MOV.L #_usb_ghstd_DeviceAddr, R14
000002F2 FE51E1                  		MOV.W [R1,R14], R1
000002F5 A88A                    		MOV.L 0CH[R0], R2
000002F7 9029                    		MOV.W R1, 02H[R2]
000002F9 38rrrr               W  		BRA L87
000002FC                         L73:	; bb318
                                 ;     306                 break;
                                 ;     307             case    USB_ERROR:
                                 ;     308                 enume_mode = USB_NOTTPL;
                                 		.LINE  "C:\Workspace\e2studio\git\MT01\r_usb_basic\src\driver\host\r_usb_hmanager.c",308
000002FC 3D0901                  		MOV.W #0001H, 12H[R0]
000002FF 38rrrr               W  		BRA L87
00000302                         L74:	; bb319
                                 ;     309                 break;
                                 ;     310             default:
                                 ;     311                 enume_mode = USB_NONDEVICE;
                                 		.LINE  "C:\Workspace\e2studio\git\MT01\r_usb_basic\src\driver\host\r_usb_hmanager.c",311
00000302 3D0900                  		MOV.W #0000H, 12H[R0]
00000305 38rrrr               W  		BRA L87
00000308                         L75:	; bb322
00000308 710112                  		ADD #12H, R0, R1
                                 ;     312                 break;
                                 ;     313             }
                                 ;     314             break;
                                 ;     315         /* Set Configuration */
                                 ;     316         case 6:
                                 ;     317             /* Device enumeration function */
                                 ;     318             if( usb_hstd_EnumFunction2(&enume_mode) == USB_YES )
                                 		.LINE  "C:\Workspace\e2studio\git\MT01\r_usb_basic\src\driver\host\r_usb_hmanager.c",318
0000030B 05rrrrrr             A  		BSR _usb_hstd_EnumFunction2
0000030F 6111                    		CMP #01H, R1
00000311 3Brrrr               W  		BNE L87
00000314                         L76:	; bb323
                                 ;     319             {
                                 ;     320                 USB_PRINTF0(" Configured Device\n");
                                 ;     321                 for( md = 0; md < usb_ghstd_DeviceNum[ptr->ip]; md++ )
                                 		.LINE  "C:\Workspace\e2studio\git\MT01\r_usb_basic\src\driver\host\r_usb_hmanager.c",321
00000314 3D0400                  		MOV.W #0000H, 08H[R0]
00000317 38rrrr               W  		BRA L85
0000031A                         L77:	; bb324
                                 ;     322                 {
                                 ;     323                     driver = &usb_ghstd_DeviceDrv[ptr->ip][md];
                                 		.LINE  "C:\Workspace\e2studio\git\MT01\r_usb_basic\src\driver\host\r_usb_hmanager.c",323
0000031A AA09                    		MOV.L 24H[R0], R1
0000031C B991                    		MOVU.W 0CH[R1], R1
0000031E 7611B801                		MUL #01B8H, R1
00000322 FB22rrrrrrrr            		MOV.L #_usb_ghstd_DeviceDrv, R2
00000328 4B12                    		ADD R1, R2
0000032A B901                    		MOVU.W 08H[R0], R1
0000032C 751128                  		MUL #28H, R1
0000032F 4B12                    		ADD R1, R2
00000331 A08A                    		MOV.L R2, 0CH[R0]
00000333                         L78:	; bb324.split
                                 ;     324                     if( usb_ghstd_DeviceAddr[ptr->ip] == driver->devaddr )
                                 		.LINE  "C:\Workspace\e2studio\git\MT01\r_usb_basic\src\driver\host\r_usb_hmanager.c",324
00000333 AA09                    		MOV.L 24H[R0], R1
00000335 B991                    		MOVU.W 0CH[R1], R1
00000337 FBE2rrrrrrrr            		MOV.L #_usb_ghstd_DeviceAddr, R14
0000033D FED1EE                  		MOVU.W [R1,R14], R14
00000340 A889                    		MOV.L 0CH[R0], R1
00000342 06C51E01                		CMP 02H[R1].UW, R14
00000346 21rr                    		BNE L84
00000348                         L79:	; bb335
                                 ;     325                     {
                                 ;     326                         /* Device state */
                                 ;     327                         usb_ghstd_DeviceInfo[ptr->ip][usb_ghstd_DeviceAddr[ptr->ip]][1] = USB_CONFIGURED;
                                 		.LINE  "C:\Workspace\e2studio\git\MT01\r_usb_basic\src\driver\host\r_usb_hmanager.c",327
00000348 AA09                    		MOV.L 24H[R0], R1
0000034A B991                    		MOVU.W 0CH[R1], R1
0000034C FBE2rrrrrrrr            		MOV.L #_usb_ghstd_DeviceAddr, R14
00000352 FED1EE                  		MOVU.W [R1,R14], R14
00000355 7611B000                		MUL #0B0H, R1
00000359 FB22rrrrrrrr            		MOV.L #_usb_ghstd_DeviceInfo, R2
0000035F 4B12                    		ADD R1, R2
00000361 6C4E                    		SHLL #04H, R14
00000363 4BE2                    		ADD R14, R2
00000365 3D2146                  		MOV.W #0046H, 02H[R2]
00000368                         L80:	; bb335.split
                                 ;     328                         /* Device speed */
                                 ;     329                         usb_ghstd_DeviceInfo[ptr->ip][usb_ghstd_DeviceAddr[ptr->ip]][4] = usb_ghstd_DeviceSpeed[ptr->ip];
                                 		.LINE  "C:\Workspace\e2studio\git\MT01\r_usb_basic\src\driver\host\r_usb_hmanager.c",329
00000368 AA09                    		MOV.L 24H[R0], R1
0000036A B991                    		MOVU.W 0CH[R1], R1
0000036C FBE2rrrrrrrr            		MOV.L #_usb_ghstd_DeviceAddr, R14
00000372 FED1EE                  		MOVU.W [R1,R14], R14
00000375 FBF2rrrrrrrr            		MOV.L #_usb_ghstd_DeviceSpeed, R15
0000037B FE51F2                  		MOV.W [R1,R15], R2
0000037E 7611B000                		MUL #0B0H, R1
00000382 FB32rrrrrrrr            		MOV.L #_usb_ghstd_DeviceInfo, R3
00000388 4B13                    		ADD R1, R3
0000038A 6C4E                    		SHLL #04H, R14
0000038C 4BE3                    		ADD R14, R3
0000038E 9132                    		MOV.W R2, 08H[R3]
00000390                         L81:	; bb335.split11
                                 ;     330                         /* Device state */
                                 ;     331                         driver->devstate        = USB_CONFIGURED;
                                 		.LINE  "C:\Workspace\e2studio\git\MT01\r_usb_basic\src\driver\host\r_usb_hmanager.c",331
00000390 A889                    		MOV.L 0CH[R0], R1
00000392 3D1246                  		MOV.W #0046H, 04H[R1]
00000395                         L82:	; bb335.split12
                                 ;     332                         (*driver->devconfig)(ptr, usb_ghstd_DeviceAddr[ptr->ip], (uint16_t)USB_NO_ARG); /* Call Back */
                                 		.LINE  "C:\Workspace\e2studio\git\MT01\r_usb_basic\src\driver\host\r_usb_hmanager.c",332
00000395 AA09                    		MOV.L 24H[R0], R1
00000397 B992                    		MOVU.W 0CH[R1], R2
00000399 FBE2rrrrrrrr            		MOV.L #_usb_ghstd_DeviceAddr, R14
0000039F FED2E2                  		MOVU.W [R2,R14], R2
000003A2 A88B                    		MOV.L 0CH[R0], R3
000003A4 A9B4                    		MOV.L 18H[R3], R4
000003A6 6603                    		MOV.L #00000000H, R3
000003A8 7F14                    		JSR R4
000003AA                         L83:	; bb335.split13
                                 ;     333                         return (USB_COMPLETEPIPESET);
                                 		.LINE  "C:\Workspace\e2studio\git\MT01\r_usb_basic\src\driver\host\r_usb_hmanager.c",333
000003AA 3D030A                  		MOV.W #000AH, 06H[R0]
000003AD 38rrrr               W  		BRA L103
000003B0                         L84:	; bb401
000003B0 9901                    		MOV.W 08H[R0], R1
000003B2 6211                    		ADD #01H, R1
000003B4 9101                    		MOV.W R1, 08H[R0]
000003B6                         L85:	; bb404
                                 		.LINE  "C:\Workspace\e2studio\git\MT01\r_usb_basic\src\driver\host\r_usb_hmanager.c",321
000003B6 AA09                    		MOV.L 24H[R0], R1
000003B8 B991                    		MOVU.W 0CH[R1], R1
000003BA FBE2rrrrrrrr            		MOV.L #_usb_ghstd_DeviceNum, R14
000003C0 FED1EE                  		MOVU.W [R1,R14], R14
000003C3 B901                    		MOVU.W 08H[R0], R1
000003C5 47E1                    		CMP R14, R1
000003C7 28rr                  * 		BLT L77
         38rrrr                  
000003CC                         L86:	; bb417
                                 ;     334                     }
                                 ;     335                 }
                                 ;     336                 enume_mode = USB_COMPLETEPIPESET;
                                 		.LINE  "C:\Workspace\e2studio\git\MT01\r_usb_basic\src\driver\host\r_usb_hmanager.c",336
000003CC 3D090A                  		MOV.W #000AH, 12H[R0]
000003CF                         L87:	; bb425
                                 ;     337             }
                                 ;     338             break;
                                 ;     339 
                                 ;     340         default:
                                 ;     341             break;
                                 ;     342         }
                                 ;     343         usb_ghstd_EnumSeq[ptr->ip]++;
                                 		.LINE  "C:\Workspace\e2studio\git\MT01\r_usb_basic\src\driver\host\r_usb_hmanager.c",343
000003CF AA09                    		MOV.L 24H[R0], R1
000003D1 B991                    		MOVU.W 0CH[R1], R1
000003D3 FBE2rrrrrrrr            		MOV.L #_usb_ghstd_EnumSeq, R14
000003D9 FE51EF                  		MOV.W [R1,R14], R15
000003DC 621F                    		ADD #01H, R15
000003DE FE11EF                  		MOV.W R15, [R1,R14]
000003E1                         L88:	; bb425.split
                                 ;     344         /* Device Enumeration */
                                 ;     345         if( enume_mode == USB_DEVICEENUMERATION )
                                 		.LINE  "C:\Workspace\e2studio\git\MT01\r_usb_basic\src\driver\host\r_usb_hmanager.c",345
000003E1 BA09                    		MOVU.W 12H[R0], R1
000003E3 6131                    		CMP #03H, R1
000003E5 3Brrrr               W  		BNE L102
000003E8                         L89:	; bb434
                                 ;     346         {
                                 ;     347             switch( usb_ghstd_EnumSeq[ptr->ip] )
                                 		.LINE  "C:\Workspace\e2studio\git\MT01\r_usb_basic\src\driver\host\r_usb_hmanager.c",347
000003E8 AA09                    		MOV.L 24H[R0], R1
000003EA B991                    		MOVU.W 0CH[R1], R1
000003EC FBE2rrrrrrrr            		MOV.L #_usb_ghstd_EnumSeq, R14
000003F2 FED1EE                  		MOVU.W [R1,R14], R14
000003F5 616E                    		CMP #06H, R14
000003F7 20rr                    		BEQ L93
000003F9                         L90:	; bb434
000003F9 615E                    		CMP #05H, R14
000003FB 3Arrrr               W  		BEQ L102
000003FE                         L91:	; bb434
000003FE 611E                    		CMP #01H, R14
00000400 21rr                    		BNE L96
00000402                         L92:	; bb442
                                 ;     348             {
                                 ;     349             case 1:
                                 ;     350                 (*usb_ghstd_EnumarationProcess[1])(ptr, (uint16_t)USB_DEVICE_0, usb_ghstd_DeviceAddr[ptr->ip]);
                                 		.LINE  "C:\Workspace\e2studio\git\MT01\r_usb_basic\src\driver\host\r_usb_hmanager.c",350
00000402 AA09                    		MOV.L 24H[R0], R1
00000404 B992                    		MOVU.W 0CH[R1], R2
00000406 FBE2rrrrrrrr            		MOV.L #_usb_ghstd_DeviceAddr, R14
0000040C FED2E3                  		MOVU.W [R2,R14], R3
0000040F FB22rrrrrrrr            		MOV.L #_usb_ghstd_EnumarationProcess, R2
00000415 A82C                    		MOV.L 04H[R2], R4
00000417 6602                    		MOV.L #00000000H, R2
00000419 7F14                    		JSR R4
0000041B 38rrrr               W  		BRA L102
0000041E                         L93:	; bb452
                                 ;     351                 break;
                                 ;     352             case 5:
                                 ;     353                 break;
                                 ;     354             case 6:
                                 ;     355                 descriptor_table = (uint8_t*)usb_ghstd_ConfigurationDescriptor[ptr->ip];
                                 		.LINE  "C:\Workspace\e2studio\git\MT01\r_usb_basic\src\driver\host\r_usb_hmanager.c",355
0000041E AA09                    		MOV.L 24H[R0], R1
00000420 B991                    		MOVU.W 0CH[R1], R1
00000422 6C81                    		SHLL #08H, R1
00000424 FB22rrrrrrrr            		MOV.L #_usb_ghstd_ConfigurationDescriptor, R2
0000042A 4B12                    		ADD R1, R2
0000042C A10A                    		MOV.L R2, 14H[R0]
0000042E                         L94:	; bb452.split
                                 ;     356                 /* Device state */
                                 ;     357                 usb_ghstd_DeviceInfo[ptr->ip][usb_ghstd_DeviceAddr[ptr->ip]][2] = descriptor_table[5];
                                 		.LINE  "C:\Workspace\e2studio\git\MT01\r_usb_basic\src\driver\host\r_usb_hmanager.c",357
0000042E AA09                    		MOV.L 24H[R0], R1
00000430 B991                    		MOVU.W 0CH[R1], R1
00000432 FBE2rrrrrrrr            		MOV.L #_usb_ghstd_DeviceAddr, R14
00000438 FED1EE                  		MOVU.W [R1,R14], R14
0000043B 7611B000                		MUL #0B0H, R1
0000043F FB22rrrrrrrr            		MOV.L #_usb_ghstd_DeviceInfo, R2
00000445 4B12                    		ADD R1, R2
00000447 6C4E                    		SHLL #04H, R14
00000449 4BE2                    		ADD R14, R2
0000044B A909                    		MOV.L 14H[R0], R1
0000044D B119                    		MOVU.B 05H[R1], R1
0000044F 90A1                    		MOV.W R1, 04H[R2]
00000451                         L95:	; bb452.split14
                                 ;     358                 (*usb_ghstd_EnumarationProcess[6])(ptr, usb_ghstd_DeviceAddr[ptr->ip], (uint16_t)(descriptor_table[5]));
                                 		.LINE  "C:\Workspace\e2studio\git\MT01\r_usb_basic\src\driver\host\r_usb_hmanager.c",358
00000451 AA09                    		MOV.L 24H[R0], R1
00000453 B992                    		MOVU.W 0CH[R1], R2
00000455 FBE2rrrrrrrr            		MOV.L #_usb_ghstd_DeviceAddr, R14
0000045B FED2E2                  		MOVU.W [R2,R14], R2
0000045E A90B                    		MOV.L 14H[R0], R3
00000460 B13B                    		MOVU.B 05H[R3], R3
00000462 FB42rrrrrrrr            		MOV.L #_usb_ghstd_EnumarationProcess, R4
00000468 A9C4                    		MOV.L 18H[R4], R4
0000046A 7F14                    		JSR R4
0000046C 38rrrr               W  		BRA L102
0000046F                         L96:	; bb492
                                 ;     359                 break;
                                 ;     360 #ifdef USB_HOST_COMPLIANCE_MODE
                                 ;     361             case 7:
                                 ;     362                 enume_mode = USB_NOTTPL;
                                 ;     363             break;
                                 ;     364 #endif /* USB_HOST_COMPLIANCE_MODE */
                                 ;     365             default:
                                 ;     366                 (*usb_ghstd_EnumarationProcess[usb_ghstd_EnumSeq[ptr->ip]])(ptr, 
                                 		.LINE  "C:\Workspace\e2studio\git\MT01\r_usb_basic\src\driver\host\r_usb_hmanager.c",366
0000046F AA09                    		MOV.L 24H[R0], R1
00000471 B993                    		MOVU.W 0CH[R1], R3
00000473 FBE2rrrrrrrr            		MOV.L #_usb_ghstd_DeviceAddr, R14
00000479 FED3E2                  		MOVU.W [R3,R14], R2
0000047C FBE2rrrrrrrr            		MOV.L #_usb_ghstd_EnumSeq, R14
00000482 FED3E3                  		MOVU.W [R3,R14], R3
00000485 FBE2rrrrrrrr            		MOV.L #_usb_ghstd_EnumarationProcess, R14
0000048B FE63EE                  		MOV.L [R3,R14], R14
0000048E 7F1E                    		JSR R14
00000490 2Err                 B  		BRA L102
00000492                         L97:	; bb522
                                 ;     367                     usb_ghstd_DeviceAddr[ptr->ip], usb_ghstd_EnumSeq[ptr->ip]);
                                 ;     368                 break;
                                 ;     369             }
                                 ;     370         }
                                 ;     371         break;
                                 ;     372     case USB_DATA_ERR:
                                 ;     373         USB_PRINTF0("### Enumeration is stoped(SETUP or DATA-ERROR)\n");
                                 ;     374         usb_hstd_EnumerationErr(usb_ghstd_EnumSeq[ptr->ip]);
                                 		.LINE  "C:\Workspace\e2studio\git\MT01\r_usb_basic\src\driver\host\r_usb_hmanager.c",374
00000492 AA09                    		MOV.L 24H[R0], R1
00000494 B991                    		MOVU.W 0CH[R1], R1
00000496 FBE2rrrrrrrr            		MOV.L #_usb_ghstd_EnumSeq, R14
0000049C FED1E1                  		MOVU.W [R1,R14], R1
0000049F 39rrrr               W  		BSR __$usb_hstd_EnumerationErr
000004A2 2Err                 B  		BRA L102
000004A4                         L98:	; bb529
                                 ;     375         break;
                                 ;     376     case USB_DATA_OVR:
                                 ;     377         USB_PRINTF0("### Enumeration is stoped(receive data over)\n");
                                 ;     378         usb_hstd_EnumerationErr(usb_ghstd_EnumSeq[ptr->ip]);
                                 		.LINE  "C:\Workspace\e2studio\git\MT01\r_usb_basic\src\driver\host\r_usb_hmanager.c",378
000004A4 AA09                    		MOV.L 24H[R0], R1
000004A6 B991                    		MOVU.W 0CH[R1], R1
000004A8 FBE2rrrrrrrr            		MOV.L #_usb_ghstd_EnumSeq, R14
000004AE FED1E1                  		MOVU.W [R1,R14], R1
000004B1 39rrrr               W  		BSR __$usb_hstd_EnumerationErr
000004B4 2Err                 B  		BRA L102
000004B6                         L99:	; bb536
                                 ;     379         break;
                                 ;     380     case USB_DATA_STALL:
                                 ;     381         USB_PRINTF0("### Enumeration is stoped(SETUP or DATA-STALL)\n");
                                 ;     382         usb_hstd_EnumerationErr(usb_ghstd_EnumSeq[ptr->ip]);
                                 		.LINE  "C:\Workspace\e2studio\git\MT01\r_usb_basic\src\driver\host\r_usb_hmanager.c",382
000004B6 AA09                    		MOV.L 24H[R0], R1
000004B8 B991                    		MOVU.W 0CH[R1], R1
000004BA FBE2rrrrrrrr            		MOV.L #_usb_ghstd_EnumSeq, R14
000004C0 FED1E1                  		MOVU.W [R1,R14], R1
000004C3 39rrrr               W  		BSR __$usb_hstd_EnumerationErr
000004C6                         L100:	; bb536.split
                                 ;     383         /* Device enumeration function */
                                 ;     384         usb_hstd_EnumFunction4(&usb_ghstd_EnumSeq[ptr->ip], &enume_mode, usb_ghstd_DeviceAddr[ptr->ip]);
                                 		.LINE  "C:\Workspace\e2studio\git\MT01\r_usb_basic\src\driver\host\r_usb_hmanager.c",384
000004C6 AA09                    		MOV.L 24H[R0], R1
000004C8 B992                    		MOVU.W 0CH[R1], R2
000004CA FBE2rrrrrrrr            		MOV.L #_usb_ghstd_DeviceAddr, R14
000004D0 FED2E3                  		MOVU.W [R2,R14], R3
000004D3 6C12                    		SHLL #01H, R2
000004D5 FB12rrrrrrrr            		MOV.L #_usb_ghstd_EnumSeq, R1
000004DB 4B21                    		ADD R2, R1
000004DD 710212                  		ADD #12H, R0, R2
000004E0 05rrrrrr             A  		BSR _usb_hstd_EnumFunction4
000004E4 2Err                 B  		BRA L102
000004E6                         L101:	; bb554
                                 ;     385         break;
                                 ;     386     default:
                                 ;     387         USB_PRINTF0("### Enumeration is stoped(result error)\n");
                                 ;     388         usb_hstd_EnumerationErr(usb_ghstd_EnumSeq[ptr->ip]);
                                 		.LINE  "C:\Workspace\e2studio\git\MT01\r_usb_basic\src\driver\host\r_usb_hmanager.c",388
000004E6 AA09                    		MOV.L 24H[R0], R1
000004E8 B991                    		MOVU.W 0CH[R1], R1
000004EA FBE2rrrrrrrr            		MOV.L #_usb_ghstd_EnumSeq, R14
000004F0 FED1E1                  		MOVU.W [R1,R14], R1
000004F3 39rrrr               W  		BSR __$usb_hstd_EnumerationErr
000004F6                         L102:	; bb561
                                 ;     389         break;
                                 ;     390     }
                                 ;     391     return (enume_mode);
                                 		.LINE  "C:\Workspace\e2studio\git\MT01\r_usb_basic\src\driver\host\r_usb_hmanager.c",391
000004F6 D5000903                		MOV.W 12H[R0], 06H[R0]
000004FA                         L103:	; bb564
000004FA D5000311                		MOV.W 06H[R0], 22H[R0]
                                 ;     392 }
                                 		.LINE  "C:\Workspace\e2studio\git\MT01\r_usb_basic\src\driver\host\r_usb_hmanager.c",392
000004FE BC09                    		MOVU.W 22H[R0], R1
00000500 670A                    		RTSD #28H
00000502                         __$usb_hstd_EnumerationErr:
                                 		.STACK	__$usb_hstd_EnumerationErr=8
                                 ;     393 /******************************************************************************
                                 ;     394 End of function usb_hstd_Enumeration
                                 ;     395 ******************************************************************************/
                                 ;     396 
                                 ;     397 /******************************************************************************
                                 ;     398 Function Name   : usb_hstd_EnumerationErr
                                 ;     399 Description     : Output error information when enumeration error occurred.
                                 ;     400 Argument        : uint16_t Rnum             : enumeration sequence
                                 ;     401 Return          : none
                                 ;     402 ******************************************************************************/
                                 ;     403 void usb_hstd_EnumerationErr(uint16_t Rnum)
                                 		.LINE  "C:\Workspace\e2studio\git\MT01\r_usb_basic\src\driver\host\r_usb_hmanager.c",403
00000502 6040                    		SUB #04H, R0
00000504 9009                    		MOV.W R1, 02H[R0]
                                 		.LINE  "C:\Workspace\e2studio\git\MT01\r_usb_basic\src\driver\host\r_usb_hmanager.c",420
00000506 6701                    		RTSD #04H
00000508                         __$usb_hstd_ChkDeviceClass:
                                 		.STACK	__$usb_hstd_ChkDeviceClass=80
                                 ;     404 {
                                 ;     405 /* Condition compilation by the difference of useful function */
                                 ;     406 #ifdef USB_DEBUGPRINT_PP
                                 ;     407     switch( Rnum ) 
                                 ;     408     {
                                 ;     409     case 0:     USB_PRINTF0(" Get_DeviceDescrip(8)\n");     break;
                                 ;     410     case 1:     USB_PRINTF0(" Set_Address\n");              break;
                                 ;     411     case 2:     USB_PRINTF0(" Get_DeviceDescrip(18)\n");    break;
                                 ;     412     case 3:     USB_PRINTF0(" Get_ConfigDescrip(9)\n");     break;
                                 ;     413     case 4:     USB_PRINTF0(" Get_ConfigDescrip(xx)\n");    break;
                                 ;     414     /* Device enumeration function */
                                 ;     415     case 5:     usb_hstd_EnumFunction5();                   break;
                                 ;     416     case 6:     USB_PRINTF0(" Set_Configuration\n");        break;
                                 ;     417     default:    break;
                                 ;     418     }
                                 ;     419 #endif  /* USB_DEBUGPRINT_PP */
                                 ;     420 }
                                 ;     421 /******************************************************************************
                                 ;     422 End of function usb_hstd_EnumerationErr
                                 ;     423 ******************************************************************************/
                                 ;     424 
                                 ;     425 /******************************************************************************
                                 ;     426 Function Name   : usb_hstd_ChkDeviceClass
                                 ;     427 Description     : Interface class search
                                 ;     428 Arguments       : USB_UTR_t *ptr : USB system internal structure.
                                 ;     429                 : USB_HCDREG_t *driver      : Class driver
                                 ;     430                 : uint16_t port             : Port no.
                                 ;     431 Return          : uint16_t                  : USB_DONE / USB_ERROR
                                 ;     432 ******************************************************************************/
                                 ;     433 uint16_t usb_hstd_ChkDeviceClass(USB_UTR_t *ptr, USB_HCDREG_t *driver, uint16_t port)
                                 		.LINE  "C:\Workspace\e2studio\git\MT01\r_usb_basic\src\driver\host\r_usb_hmanager.c",433
00000508 7100B4                  		ADD #0FFFFFFB4H, R0
0000050B A481                    		MOV.L R1, 48H[R0]
0000050D A40A                    		MOV.L R2, 44H[R0]
0000050F D70321                  		MOV.W R3, 42H[R0]
                                 ;     434 {
                                 ;     435     uint8_t     *descriptor_table;
                                 ;     436     uint16_t    total_length1;
                                 ;     437     uint16_t    total_length2;
                                 ;     438     uint16_t    result;
                                 ;     439     uint16_t    hub_device;
                                 ;     440     uint16_t    *table[9];
                                 ;     441     uint16_t    tmp4;
                                 ;     442     uint16_t    tmp5;
                                 ;     443     uint16_t    tmp6;
                                 ;     444 #ifdef USB_HOST_COMPLIANCE_MODE
                                 ;     445     uint16_t    vendor_id;
                                 ;     446     uint16_t    product_id;
                                 ;     447     uint16_t    id_check;
                                 ;     448     uint16_t    i;
                                 ;     449 #endif /* USB_HOST_COMPLIANCE_MODE */
                                 ;     450     
                                 ;     451     
                                 ;     452     descriptor_table = (uint8_t*)usb_ghstd_DeviceDescriptor[ptr->ip];
                                 		.LINE  "C:\Workspace\e2studio\git\MT01\r_usb_basic\src\driver\host\r_usb_hmanager.c",452
00000512 AC81                    		MOV.L 48H[R0], R1
00000514 B991                    		MOVU.W 0CH[R1], R1
00000516 751114                  		MUL #14H, R1
00000519 FB22rrrrrrrr            		MOV.L #_usb_ghstd_DeviceDescriptor, R2
0000051F 4B12                    		ADD R1, R2
00000521 A082                    		MOV.L R2, 08H[R0]
00000523                         L106:	; entry.split
                                 ;     453     
                                 ;     454     /* Device class check */
                                 ;     455     tmp4 = descriptor_table[USB_DEV_B_DEVICE_CLASS];
                                 		.LINE  "C:\Workspace\e2studio\git\MT01\r_usb_basic\src\driver\host\r_usb_hmanager.c",455
00000523 A881                    		MOV.L 08H[R0], R1
00000525 B111                    		MOVU.B 04H[R1], R1
00000527 9709                    		MOV.W R1, 3AH[R0]
00000529                         L107:	; entry.split1
                                 ;     456     tmp5 = descriptor_table[USB_DEV_B_DEVICE_SUBCLASS];
                                 		.LINE  "C:\Workspace\e2studio\git\MT01\r_usb_basic\src\driver\host\r_usb_hmanager.c",456
00000529 A881                    		MOV.L 08H[R0], R1
0000052B B119                    		MOVU.B 05H[R1], R1
0000052D 9781                    		MOV.W R1, 3CH[R0]
0000052F                         L108:	; entry.split2
                                 ;     457     tmp6 = descriptor_table[USB_DEV_B_DEVICE_PROTOCOL];
                                 		.LINE  "C:\Workspace\e2studio\git\MT01\r_usb_basic\src\driver\host\r_usb_hmanager.c",457
0000052F A881                    		MOV.L 08H[R0], R1
00000531 B191                    		MOVU.B 06H[R1], R1
00000533 9789                    		MOV.W R1, 3EH[R0]
00000535                         L109:	; entry.split3
                                 ;     458     hub_device = USB_DONE;
                                 		.LINE  "C:\Workspace\e2studio\git\MT01\r_usb_basic\src\driver\host\r_usb_hmanager.c",458
00000535 3D0900                  		MOV.W #0000H, 12H[R0]
00000538                         L110:	; entry.split4
                                 ;     459     if( ((tmp4 == 0xFF) && (tmp5 == 0xFF)) && (tmp6 == 0xFF) )
                                 		.LINE  "C:\Workspace\e2studio\git\MT01\r_usb_basic\src\driver\host\r_usb_hmanager.c",459
00000538 BF09                    		MOVU.W 3AH[R0], R1
0000053A 7551FF                  		CMP #0FFH, R1
0000053D 3Arrrr               W  		BEQ L149
00000540 38rrrr               W  		BRA L151
00000543                         L111:	; bb34
                                 ;     460     {
                                 ;     461         USB_PRINTF0("*** Vendor specific device.\n\n");
                                 ;     462     }
                                 ;     463     else if( ((tmp4 == USB_IFCLS_HUB) && (tmp5 == 0x00)) && (tmp6 == 0x00) )
                                 		.LINE  "C:\Workspace\e2studio\git\MT01\r_usb_basic\src\driver\host\r_usb_hmanager.c",463
00000543 BF09                    		MOVU.W 3AH[R0], R1
00000545 6191                    		CMP #09H, R1
00000547 3Arrrr               W  		BEQ L141
0000054A 38rrrr               W  		BRA L143
0000054D                         L112:	; bb35
                                 ;     464     {
                                 ;     465         USB_PRINTF0("*** Full-Speed HUB device.\n\n");
                                 ;     466         hub_device = USB_FSHUB;
                                 		.LINE  "C:\Workspace\e2studio\git\MT01\r_usb_basic\src\driver\host\r_usb_hmanager.c",466
0000054D 3D0901                  		MOV.W #0001H, 12H[R0]
00000550 38rrrr               W  		BRA L157
00000553                         L113:	; bb37
                                 ;     467     } 
                                 ;     468     else if( ((tmp4 == USB_IFCLS_HUB) && (tmp5 == 0x00)) && (tmp6 == 0x01) )
                                 		.LINE  "C:\Workspace\e2studio\git\MT01\r_usb_basic\src\driver\host\r_usb_hmanager.c",468
00000553 BF09                    		MOVU.W 3AH[R0], R1
00000555 6191                    		CMP #09H, R1
00000557 20rr                    		BEQ L133
00000559 2Err                 B  		BRA L135
0000055B                         L114:	; bb38
                                 ;     469     {
                                 ;     470         USB_PRINTF0("*** High-Speed single TT device.\n\n");
                                 ;     471         hub_device = USB_HSHUBS;
                                 		.LINE  "C:\Workspace\e2studio\git\MT01\r_usb_basic\src\driver\host\r_usb_hmanager.c",471
0000055B 3D0902                  		MOV.W #0002H, 12H[R0]
0000055E 38rrrr               W  		BRA L157
00000561                         L115:	; bb40
                                 ;     472     }
                                 ;     473     else if( ((tmp4 == USB_IFCLS_HUB) && (tmp5 == 0x00)) && (tmp6 == 0x02) )
                                 		.LINE  "C:\Workspace\e2studio\git\MT01\r_usb_basic\src\driver\host\r_usb_hmanager.c",473
00000561 BF09                    		MOVU.W 3AH[R0], R1
00000563 6191                    		CMP #09H, R1
00000565 20rr                    		BEQ L125
00000567 2Err                 B  		BRA L127
00000569                         L116:	; bb41
                                 ;     474     {
                                 ;     475         USB_PRINTF0("*** High-Speed multiple TT device.\n\n");
                                 ;     476         hub_device = USB_HSHUBM;
                                 		.LINE  "C:\Workspace\e2studio\git\MT01\r_usb_basic\src\driver\host\r_usb_hmanager.c",476
00000569 3D0903                  		MOV.W #0003H, 12H[R0]
0000056C 38rrrr               W  		BRA L157
0000056F                         L117:	; bb43
                                 ;     477     }
                                 ;     478     else if( ((tmp4 != 0) || (tmp5 != 0)) || (tmp6 != 0) )
                                 		.LINE  "C:\Workspace\e2studio\git\MT01\r_usb_basic\src\driver\host\r_usb_hmanager.c",478
0000056F BF09                    		MOVU.W 3AH[R0], R1
00000571 6101                    		CMP #00H, R1
00000573 18                   S  		BNE L119
00000574                         L118:	; bb51
00000574 BF81                    		MOVU.W 3CH[R0], R1
00000576 6101                    		CMP #00H, R1
00000578 10                   S  		BEQ L120
00000579                         L119:	; bb57
00000579 F80601                  		MOV.L #00000001H, [R0]
0000057C 08                   S  		BRA L121
0000057D                         L120:	; bb58
0000057D F80600                  		MOV.L #00000000H, [R0]
00000580                         L121:	; bb59
00000580 EC01                    		MOV.L [R0], R1
00000582 6101                    		CMP #00H, R1
00000584 18                   S  		BNE L123
00000585                         L122:	; bb62
00000585 BF89                    		MOVU.W 3EH[R0], R1
00000587 6101                    		CMP #00H, R1
00000589 10                   S  		BEQ L124
0000058A                         L123:	; bb67
0000058A F80601                  		MOV.L #00000001H, [R0]
0000058D 38rrrr               W  		BRA L157
00000590                         L124:	; bb68
00000590 F80600                  		MOV.L #00000000H, [R0]
00000593 38rrrr               W  		BRA L157
00000596                         L125:	; bb79
00000596 BF81                    		MOVU.W 3CH[R0], R1
00000598 6101                    		CMP #00H, R1
0000059A 18                   S  		BNE L127
0000059B                         L126:	; bb84
0000059B F80601                  		MOV.L #00000001H, [R0]
0000059E 08                   S  		BRA L128
0000059F                         L127:	; bb85
0000059F F80600                  		MOV.L #00000000H, [R0]
000005A2                         L128:	; bb86
000005A2 EC01                    		MOV.L [R0], R1
000005A4 6101                    		CMP #00H, R1
000005A6 10                   S  		BEQ L131
000005A7                         L129:	; bb90
000005A7 BF89                    		MOVU.W 3EH[R0], R1
000005A9 6121                    		CMP #02H, R1
000005AB 18                   S  		BNE L131
000005AC                         L130:	; bb95
000005AC F80601                  		MOV.L #00000001H, [R0]
000005AF 08                   S  		BRA L132
000005B0                         L131:	; bb96
000005B0 F80600                  		MOV.L #00000000H, [R0]
000005B3                         L132:	; bb97
000005B3 EC01                    		MOV.L [R0], R1
000005B5 6101                    		CMP #00H, R1
000005B7 21rr                    		BNE L116
000005B9 2Err                 B  		BRA L117
000005BB                         L133:	; bb107
000005BB BF81                    		MOVU.W 3CH[R0], R1
000005BD 6101                    		CMP #00H, R1
000005BF 18                   S  		BNE L135
000005C0                         L134:	; bb112
000005C0 F80601                  		MOV.L #00000001H, [R0]
000005C3 08                   S  		BRA L136
000005C4                         L135:	; bb113
000005C4 F80600                  		MOV.L #00000000H, [R0]
000005C7                         L136:	; bb114
000005C7 EC01                    		MOV.L [R0], R1
000005C9 6101                    		CMP #00H, R1
000005CB 10                   S  		BEQ L139
000005CC                         L137:	; bb118
000005CC BF89                    		MOVU.W 3EH[R0], R1
000005CE 6111                    		CMP #01H, R1
000005D0 18                   S  		BNE L139
000005D1                         L138:	; bb123
000005D1 F80601                  		MOV.L #00000001H, [R0]
000005D4 08                   S  		BRA L140
000005D5                         L139:	; bb124
000005D5 F80600                  		MOV.L #00000000H, [R0]
000005D8                         L140:	; bb125
000005D8 EC01                    		MOV.L [R0], R1
000005DA 6101                    		CMP #00H, R1
000005DC 3Brrrr               W  		BNE L114
000005DF 38rrrr               W  		BRA L115
000005E2                         L141:	; bb135
000005E2 BF81                    		MOVU.W 3CH[R0], R1
000005E4 6101                    		CMP #00H, R1
000005E6 18                   S  		BNE L143
000005E7                         L142:	; bb140
000005E7 F80601                  		MOV.L #00000001H, [R0]
000005EA 08                   S  		BRA L144
000005EB                         L143:	; bb141
000005EB F80600                  		MOV.L #00000000H, [R0]
000005EE                         L144:	; bb142
000005EE EC01                    		MOV.L [R0], R1
000005F0 6101                    		CMP #00H, R1
000005F2 10                   S  		BEQ L147
000005F3                         L145:	; bb146
000005F3 BF89                    		MOVU.W 3EH[R0], R1
000005F5 6101                    		CMP #00H, R1
000005F7 18                   S  		BNE L147
000005F8                         L146:	; bb151
000005F8 F80601                  		MOV.L #00000001H, [R0]
000005FB 08                   S  		BRA L148
000005FC                         L147:	; bb152
000005FC F80600                  		MOV.L #00000000H, [R0]
000005FF                         L148:	; bb153
000005FF EC01                    		MOV.L [R0], R1
00000601 6101                    		CMP #00H, R1
00000603 3Brrrr               W  		BNE L112
00000606 38rrrr               W  		BRA L113
00000609                         L149:	; bb163
00000609 BF81                    		MOVU.W 3CH[R0], R1
0000060B 7551FF                  		CMP #0FFH, R1
0000060E 18                   S  		BNE L151
0000060F                         L150:	; bb168
0000060F F80601                  		MOV.L #00000001H, [R0]
00000612 08                   S  		BRA L152
00000613                         L151:	; bb169
00000613 F80600                  		MOV.L #00000000H, [R0]
00000616                         L152:	; bb170
00000616 EC01                    		MOV.L [R0], R1
00000618 6101                    		CMP #00H, R1
0000061A 20rr                    		BEQ L155
0000061C                         L153:	; bb174
0000061C BF89                    		MOVU.W 3EH[R0], R1
0000061E 7551FF                  		CMP #0FFH, R1
00000621 18                   S  		BNE L155
00000622                         L154:	; bb179
00000622 F80601                  		MOV.L #00000001H, [R0]
00000625 08                   S  		BRA L156
00000626                         L155:	; bb180
00000626 F80600                  		MOV.L #00000000H, [R0]
00000629                         L156:	; bb181
00000629 EC01                    		MOV.L [R0], R1
0000062B 6101                    		CMP #00H, R1
0000062D 3Arrrr               W  		BEQ L111
00000630                         L157:	; bb186
                                 ;     479     {
                                 ;     480         USB_PRINTF0("### Device class information error!\n\n");
                                 ;     481     }
                                 ;     482     else
                                 ;     483     {
                                 ;     484     }
                                 ;     485     
                                 ;     486     
                                 ;     487 #ifdef USB_HOST_COMPLIANCE_MODE
                                 ;     488     id_check = USB_ERROR;
                                 ;     489     for( i = 0; i < driver->tpl[0]; i++ )
                                 ;     490     {
                                 ;     491         vendor_id = (uint16_t)(descriptor_table[USB_DEV_ID_VENDOR_L]
                                 ;     492                   + ((uint16_t)descriptor_table[USB_DEV_ID_VENDOR_H] << 8));
                                 ;     493         
                                 ;     494         if( (driver->tpl[(i * 2) + 2] == USB_NOVENDOR) || (driver->tpl[(i * 2) + 2] == vendor_id) )
                                 ;     495         {
                                 ;     496             product_id = (uint16_t)(descriptor_table[USB_DEV_ID_PRODUCT_L]
                                 ;     497                        + ((uint16_t)descriptor_table[USB_DEV_ID_PRODUCT_H] << 8));
                                 ;     498             
                                 ;     499             if( (driver->tpl[(i * 2) + 3] == USB_NOPRODUCT) || (driver->tpl[(i * 2) + 3] == product_id) )
                                 ;     500             {
                                 ;     501                 id_check = USB_DONE;
                                 ;     502                 USB_COMPLIANCE_DISP(ptr, USB_COMP_TPL, USB_NO_ARG);
                                 ;     503                 USB_COMPLIANCE_DISP(ptr, USB_COMP_VID, vendor_id);
                                 ;     504                 USB_COMPLIANCE_DISP(ptr, USB_COMP_PID, product_id);
                                 ;     505             }
                                 ;     506         }
                                 ;     507     }
                                 ;     508     
                                 ;     509     if( id_check == USB_ERROR )
                                 ;     510     {
                                 ;     511         USB_PRINTF0("### Not support device\n");
                                 ;     512         if( descriptor_table[4] == USB_IFCLS_HUB )
                                 ;     513         {
                                 ;     514             USB_COMPLIANCE_DISP(ptr, USB_COMP_HUB, vendor_id);
                                 ;     515         }
                                 ;     516         else
                                 ;     517         {
                                 ;     518             USB_COMPLIANCE_DISP(ptr, USB_COMP_NOTTPL, vendor_id);
                                 ;     519         }
                                 ;     520         
                                 ;     521         return USB_ERROR;
                                 ;     522     }
                                 ;     523 #endif /* USB_HOST_COMPLIANCE_MODE */
                                 ;     524     
                                 ;     525     
                                 ;     526     descriptor_table = (uint8_t*)usb_ghstd_ConfigurationDescriptor[ptr->ip];
                                 		.LINE  "C:\Workspace\e2studio\git\MT01\r_usb_basic\src\driver\host\r_usb_hmanager.c",526
00000630 AC81                    		MOV.L 48H[R0], R1
00000632 B991                    		MOVU.W 0CH[R1], R1
00000634 6C81                    		SHLL #08H, R1
00000636 FB22rrrrrrrr            		MOV.L #_usb_ghstd_ConfigurationDescriptor, R2
0000063C 4B12                    		ADD R1, R2
0000063E A082                    		MOV.L R2, 08H[R0]
00000640                         L158:	; bb186.split
                                 ;     527     total_length1 = 0;
                                 		.LINE  "C:\Workspace\e2studio\git\MT01\r_usb_basic\src\driver\host\r_usb_hmanager.c",527
00000640 3D0600                  		MOV.W #0000H, 0CH[R0]
00000643                         L159:	; bb186.split5
                                 ;     528     total_length2 = (uint16_t)(descriptor_table[USB_DEV_W_TOTAL_LENGTH_L]
                                 		.LINE  "C:\Workspace\e2studio\git\MT01\r_usb_basic\src\driver\host\r_usb_hmanager.c",528
00000643 A881                    		MOV.L 08H[R0], R1
00000645 B09A                    		MOVU.B 03H[R1], R2
00000647 6C82                    		SHLL #08H, R2
00000649 551202                  		OR 02H[R1].UB, R2
0000064C 918A                    		MOV.W R2, 0EH[R0]
0000064E                         L160:	; bb186.split6
                                 ;     529                   + ((uint16_t)descriptor_table[USB_DEV_W_TOTAL_LENGTH_H] << 8));
                                 ;     530     
                                 ;     531     if( total_length2 > USB_CONFIGSIZE )
                                 		.LINE  "C:\Workspace\e2studio\git\MT01\r_usb_basic\src\driver\host\r_usb_hmanager.c",531
0000064E B989                    		MOVU.W 0EH[R0], R1
00000650 76010101                		CMP #0101H, R1
00000654 22rr                  * 		BLTU L180
         38rrrr                  
00000659                         L161:	; bb207
                                 ;     532     {
                                 ;     533         total_length2 = USB_CONFIGSIZE;
                                 		.LINE  "C:\Workspace\e2studio\git\MT01\r_usb_basic\src\driver\host\r_usb_hmanager.c",533
00000659 F909070001              		MOV.W #0100H, 0EH[R0]
0000065E 38rrrr               W  		BRA L180
00000661                         L162:	; bb214
                                 ;     534     }
                                 ;     535 
                                 ;     536     /* Search within configuration total-length */
                                 ;     537     while( total_length1 < total_length2 )
                                 ;     538     {
                                 ;     539         switch( descriptor_table[total_length1 + 1] )
                                 		.LINE  "C:\Workspace\e2studio\git\MT01\r_usb_basic\src\driver\host\r_usb_hmanager.c",539
00000661 B981                    		MOVU.W 0CH[R0], R1
00000663 06890102                		ADD 08H[R0].L, R1
00000667 B019                    		MOVU.B 01H[R1], R1
00000669 6141                    		CMP #04H, R1
0000066B 20rr                    		BEQ L165
0000066D                         L163:	; bb214
0000066D 6121                    		CMP #02H, R1
0000066F 3Brrrr               W  		BNE L178
00000672                         L164:	; bb222
                                 ;     540         {
                                 ;     541         /* Configuration Descriptor ? */
                                 ;     542         case USB_DT_CONFIGURATION:
                                 ;     543             table[1] = (uint16_t*)&descriptor_table[total_length1];
                                 		.LINE  "C:\Workspace\e2studio\git\MT01\r_usb_basic\src\driver\host\r_usb_hmanager.c",543
00000672 A881                    		MOV.L 08H[R0], R1
00000674 06C90106                		ADD 0CH[R0].UW, R1
00000678 A181                    		MOV.L R1, 18H[R0]
0000067A 38rrrr               W  		BRA L178
0000067D                         L165:	; bb231
                                 ;     544             break;
                                 ;     545         /* Interface Descriptor ? */
                                 ;     546         case USB_DT_INTERFACE:
                                 ;     547             if( driver->ifclass == (uint16_t)descriptor_table[total_length1 + 5] )
                                 		.LINE  "C:\Workspace\e2studio\git\MT01\r_usb_basic\src\driver\host\r_usb_hmanager.c",547
0000067D AC09                    		MOV.L 44H[R0], R1
0000067F B899                    		MOVU.W 06H[R1], R1
00000681 B982                    		MOVU.W 0CH[R0], R2
00000683 06890202                		ADD 08H[R0].L, R2
00000687 452105                  		CMP 05H[R2].UB, R1
0000068A 3Brrrr               W  		BNE L178
0000068D                         L166:	; bb232
                                 ;     548             {
                                 ;     549                     result = USB_ERROR;
                                 		.LINE  "C:\Workspace\e2studio\git\MT01\r_usb_basic\src\driver\host\r_usb_hmanager.c",549
0000068D F90908FFFF              		MOV.W #0FFFFH, 10H[R0]
00000692                         L167:	; bb232.split
                                 ;     550                     table[0]    = (uint16_t*)&usb_ghstd_DeviceDescriptor[ptr->ip];
                                 		.LINE  "C:\Workspace\e2studio\git\MT01\r_usb_basic\src\driver\host\r_usb_hmanager.c",550
00000692 AC81                    		MOV.L 48H[R0], R1
00000694 B991                    		MOVU.W 0CH[R1], R1
00000696 751114                  		MUL #14H, R1
00000699 FB22rrrrrrrr            		MOV.L #_usb_ghstd_DeviceDescriptor, R2
0000069F 4B12                    		ADD R1, R2
000006A1 A10A                    		MOV.L R2, 14H[R0]
000006A3                         L168:	; bb232.split7
                                 ;     551                     table[2]    = (uint16_t*)&descriptor_table[total_length1];
                                 		.LINE  "C:\Workspace\e2studio\git\MT01\r_usb_basic\src\driver\host\r_usb_hmanager.c",551
000006A3 A881                    		MOV.L 08H[R0], R1
000006A5 06C90106                		ADD 0CH[R0].UW, R1
000006A9 A189                    		MOV.L R1, 1CH[R0]
000006AB                         L169:	; bb232.split8
000006AB 710110                  		ADD #10H, R0, R1
                                 ;     552                     table[3]    = &result;
                                 		.LINE  "C:\Workspace\e2studio\git\MT01\r_usb_basic\src\driver\host\r_usb_hmanager.c",552
000006AE A201                    		MOV.L R1, 20H[R0]
000006B0                         L170:	; bb232.split9
000006B0 710112                  		ADD #12H, R0, R1
                                 ;     553                     table[4]    = &hub_device;
                                 		.LINE  "C:\Workspace\e2studio\git\MT01\r_usb_basic\src\driver\host\r_usb_hmanager.c",553
000006B3 A209                    		MOV.L R1, 24H[R0]
000006B5                         L171:	; bb232.split10
000006B5 710142                  		ADD #42H, R0, R1
                                 ;     554                     table[5]    = &port;
                                 		.LINE  "C:\Workspace\e2studio\git\MT01\r_usb_basic\src\driver\host\r_usb_hmanager.c",554
000006B8 A281                    		MOV.L R1, 28H[R0]
000006BA                         L172:	; bb232.split11
                                 ;     555                     table[6]    = &usb_ghstd_DeviceSpeed[ptr->ip];
                                 		.LINE  "C:\Workspace\e2studio\git\MT01\r_usb_basic\src\driver\host\r_usb_hmanager.c",555
000006BA AC81                    		MOV.L 48H[R0], R1
000006BC B991                    		MOVU.W 0CH[R1], R1
000006BE 6C11                    		SHLL #01H, R1
000006C0 FB22rrrrrrrr            		MOV.L #_usb_ghstd_DeviceSpeed, R2
000006C6 4B12                    		ADD R1, R2
000006C8 A28A                    		MOV.L R2, 2CH[R0]
000006CA                         L173:	; bb232.split12
                                 ;     556                     table[7]    = &usb_ghstd_DeviceAddr[ptr->ip];
                                 		.LINE  "C:\Workspace\e2studio\git\MT01\r_usb_basic\src\driver\host\r_usb_hmanager.c",556
000006CA AC81                    		MOV.L 48H[R0], R1
000006CC B991                    		MOVU.W 0CH[R1], R1
000006CE 6C11                    		SHLL #01H, R1
000006D0 FB22rrrrrrrr            		MOV.L #_usb_ghstd_DeviceAddr, R2
000006D6 4B12                    		ADD R1, R2
000006D8 A302                    		MOV.L R2, 30H[R0]
000006DA                         L174:	; bb232.split13
                                 ;     557                     table[8]    = (uint16_t*)driver->pipetbl;
                                 		.LINE  "C:\Workspace\e2studio\git\MT01\r_usb_basic\src\driver\host\r_usb_hmanager.c",557
000006DA AC09                    		MOV.L 44H[R0], R1
000006DC E510030D                		MOV.L 0CH[R1], 34H[R0]
000006E0                         L175:	; bb232.split14
                                 ;     558                     (*driver->classcheck)(ptr, (uint16_t**)&table);
                                 		.LINE  "C:\Workspace\e2studio\git\MT01\r_usb_basic\src\driver\host\r_usb_hmanager.c",558
000006E0 AC09                    		MOV.L 44H[R0], R1
000006E2 A91B                    		MOV.L 14H[R1], R3
000006E4 AC81                    		MOV.L 48H[R0], R1
000006E6 710214                  		ADD #14H, R0, R2
000006E9 7F13                    		JSR R3
000006EB                         L176:	; bb232.split15
                                 ;     559                     /* Interface Class */
                                 ;     560                     usb_ghstd_DeviceInfo[ptr->ip][usb_ghstd_DeviceAddr[ptr->ip]][3]
                                 		.LINE  "C:\Workspace\e2studio\git\MT01\r_usb_basic\src\driver\host\r_usb_hmanager.c",560
000006EB AC81                    		MOV.L 48H[R0], R1
000006ED B991                    		MOVU.W 0CH[R1], R1
000006EF FBE2rrrrrrrr            		MOV.L #_usb_ghstd_DeviceAddr, R14
000006F5 FED1EE                  		MOVU.W [R1,R14], R14
000006F8 7611B000                		MUL #0B0H, R1
000006FC FB22rrrrrrrr            		MOV.L #_usb_ghstd_DeviceInfo, R2
00000702 4B12                    		ADD R1, R2
00000704 6C4E                    		SHLL #04H, R14
00000706 4BE2                    		ADD R14, R2
00000708 B981                    		MOVU.W 0CH[R0], R1
0000070A 06890102                		ADD 08H[R0].L, R1
0000070E B119                    		MOVU.B 05H[R1], R1
00000710 90A9                    		MOV.W R1, 06H[R2]
00000712                         L177:	; bb232.split16
                                 ;     561                         = descriptor_table[total_length1 + 5];
                                 ;     562                     return result;
                                 		.LINE  "C:\Workspace\e2studio\git\MT01\r_usb_basic\src\driver\host\r_usb_hmanager.c",562
00000712 D5000803                		MOV.W 10H[R0], 06H[R0]
00000716 2Err                 B  		BRA L182
00000718                         L178:	; bb320
                                 ;     563             }
                                 ;     564 /*          USB_PRINTF2("*** Interface class is 0x%02x (not 0x%02x)\n", 
                                 ;     565                             descriptor_table[total_length1 + 5], driver->ifclass);*/
                                 ;     566             break;
                                 ;     567         default:
                                 ;     568             break;
                                 ;     569         }
                                 ;     570         total_length1 += descriptor_table[total_length1];
                                 		.LINE  "C:\Workspace\e2studio\git\MT01\r_usb_basic\src\driver\host\r_usb_hmanager.c",570
00000718 B981                    		MOVU.W 0CH[R0], R1
0000071A EF1E                    		MOV.L R1, R14
0000071C 06890E02                		ADD 08H[R0].L, R14
00000720 48E1                    		ADD [R14].UB, R1
00000722 9181                    		MOV.W R1, 0CH[R0]
00000724                         L179:	; bb320.split
                                 ;     571         if( descriptor_table[total_length1] == 0 )
                                 		.LINE  "C:\Workspace\e2studio\git\MT01\r_usb_basic\src\driver\host\r_usb_hmanager.c",571
00000724 B981                    		MOVU.W 0CH[R0], R1
00000726 A882                    		MOV.L 08H[R0], R2
00000728 FEC21E                  		MOVU.B [R2,R1], R14
0000072B 610E                    		CMP #00H, R14
0000072D 20rr                    		BEQ L181
0000072F                         L180:	; bb344
                                 		.LINE  "C:\Workspace\e2studio\git\MT01\r_usb_basic\src\driver\host\r_usb_hmanager.c",537
0000072F B981                    		MOVU.W 0CH[R0], R1
00000731 06C50107                		CMP 0EH[R0].UW, R1
00000735 28rr                  * 		BLT L162
         38rrrr                  
0000073A                         L181:	; bb353
                                 ;     572         {
                                 ;     573             break;
                                 ;     574         }
                                 ;     575     }
                                 ;     576     return USB_ERROR;
                                 		.LINE  "C:\Workspace\e2studio\git\MT01\r_usb_basic\src\driver\host\r_usb_hmanager.c",576
0000073A F90903FFFF              		MOV.W #0FFFFH, 06H[R0]
0000073F                         L182:	; bb355
0000073F D5000320                		MOV.W 06H[R0], 40H[R0]
                                 ;     577 }
                                 		.LINE  "C:\Workspace\e2studio\git\MT01\r_usb_basic\src\driver\host\r_usb_hmanager.c",577
00000743 5D0120                  		MOVU.W 40H[R0], R1
00000746 6713                    		RTSD #4CH
00000748                         _usb_hstd_NotifAtorDetach:
                                 		.STACK	_usb_hstd_NotifAtorDetach=12
                                 ;     578 /******************************************************************************
                                 ;     579 End of function usb_hstd_ChkDeviceClass
                                 ;     580 ******************************************************************************/
                                 ;     581 
                                 ;     582 /******************************************************************************
                                 ;     583 Function Name   : usb_hstd_NotifAtorDetach
                                 ;     584 Description     : Notify MGR (manager) task that attach or detach occurred.
                                 ;     585 Arguments       : USB_UTR_t *ptr : USB system internal structure.
                                 ;     586                 : uint16_t result   : Result.
                                 ;     587                 : uint16_t port     : Port no.
                                 ;     588 Return          : none
                                 ;     589 ******************************************************************************/
                                 ;     590 void usb_hstd_NotifAtorDetach(USB_UTR_t *ptr, uint16_t result, uint16_t port)
                                 		.LINE  "C:\Workspace\e2studio\git\MT01\r_usb_basic\src\driver\host\r_usb_hmanager.c",590
00000748 6080                    		SUB #08H, R0
0000074A A009                    		MOV.L R1, 04H[R0]
0000074C 900A                    		MOV.W R2, 02H[R0]
0000074E D303                    		MOV.W R3, [R0]
                                 ;     591 {
                                 ;     592     usb_hstd_MgrSndMbx(ptr, (uint16_t)USB_MSG_MGR_AORDETACH, port, result);
                                 		.LINE  "C:\Workspace\e2studio\git\MT01\r_usb_basic\src\driver\host\r_usb_hmanager.c",592
00000750 B80C                    		MOVU.W 02H[R0], R4
00000752 5C03                    		MOVU.W [R0], R3
00000754 A809                    		MOV.L 04H[R0], R1
00000756 FB2A2101                		MOV.L #00000121H, R2
0000075A 05rrrrrr             A  		BSR _usb_hstd_MgrSndMbx
0000075E 6702                    		RTSD #08H
00000760                         _usb_hstd_OvcrNotifiation:
                                 		.STACK	_usb_hstd_OvcrNotifiation=12
                                 ;     593 }
                                 ;     594 /******************************************************************************
                                 ;     595 End of function usb_hstd_NotifAtorDetach
                                 ;     596 ******************************************************************************/
                                 ;     597 
                                 ;     598 /******************************************************************************
                                 ;     599 Function Name   : usb_hstd_OvcrNotifiation
                                 ;     600 Description     : Notify MGR (manager) task that overcurrent was generated
                                 ;     601 Argument        : uint16_t port     : Port no.
                                 ;     602 Return          : none
                                 ;     603 ******************************************************************************/
                                 ;     604 void usb_hstd_OvcrNotifiation(USB_UTR_t *ptr, uint16_t port)
                                 		.LINE  "C:\Workspace\e2studio\git\MT01\r_usb_basic\src\driver\host\r_usb_hmanager.c",604
00000760 6080                    		SUB #08H, R0
00000762 A009                    		MOV.L R1, 04H[R0]
00000764 900A                    		MOV.W R2, 02H[R0]
                                 ;     605 {
                                 ;     606     usb_hstd_MgrSndMbx(ptr, (uint16_t)USB_MSG_MGR_OVERCURRENT, port, (uint16_t)0u);
                                 		.LINE  "C:\Workspace\e2studio\git\MT01\r_usb_basic\src\driver\host\r_usb_hmanager.c",606
00000766 B80B                    		MOVU.W 02H[R0], R3
00000768 A809                    		MOV.L 04H[R0], R1
0000076A 6604                    		MOV.L #00000000H, R4
0000076C FB2A2201                		MOV.L #00000122H, R2
00000770 05rrrrrr             A  		BSR _usb_hstd_MgrSndMbx
00000774 6702                    		RTSD #08H
00000776                         _usb_hstd_StatusResult:
                                 		.STACK	_usb_hstd_StatusResult=12
                                 ;     607 }
                                 ;     608 /******************************************************************************
                                 ;     609 End of function usb_hstd_OvcrNotifiation
                                 ;     610 ******************************************************************************/
                                 ;     611 
                                 ;     612 /******************************************************************************
                                 ;     613 Function Name   : usb_hstd_StatusResult
                                 ;     614 Description     : This is a callback as a result of calling 
                                 ;     615                 : R_usb_hstd_ChangeDeviceState. This notifies the MGR (manager) 
                                 ;     616                 : task that the change of USB Device status completed.
                                 ;     617 Arguments       : USB_UTR_t *ptr : USB system internal structure.
                                 ;     618                 : uint16_t port     : Port no.
                                 ;     619                 : uint16_t result   : Result.
                                 ;     620 Return          : none
                                 ;     621 ******************************************************************************/
                                 ;     622 void usb_hstd_StatusResult(USB_UTR_t *ptr, uint16_t port, uint16_t result)
                                 		.LINE  "C:\Workspace\e2studio\git\MT01\r_usb_basic\src\driver\host\r_usb_hmanager.c",622
00000776 6080                    		SUB #08H, R0
00000778 A009                    		MOV.L R1, 04H[R0]
0000077A 900A                    		MOV.W R2, 02H[R0]
0000077C D303                    		MOV.W R3, [R0]
                                 ;     623 {
                                 ;     624     usb_hstd_MgrSndMbx(ptr, (uint16_t)USB_MSG_MGR_STATUSRESULT, port, result);
                                 		.LINE  "C:\Workspace\e2studio\git\MT01\r_usb_basic\src\driver\host\r_usb_hmanager.c",624
0000077E 5C04                    		MOVU.W [R0], R4
00000780 B80B                    		MOVU.W 02H[R0], R3
00000782 A809                    		MOV.L 04H[R0], R1
00000784 FB2A2301                		MOV.L #00000123H, R2
00000788 05rrrrrr             A  		BSR _usb_hstd_MgrSndMbx
0000078C 6702                    		RTSD #08H
0000078E                         _usb_hstd_SubmitResult:
                                 		.STACK	_usb_hstd_SubmitResult=12
                                 ;     625 }
                                 ;     626 /******************************************************************************
                                 ;     627 End of function usb_hstd_StatusResult
                                 ;     628 ******************************************************************************/
                                 ;     629 
                                 ;     630 /******************************************************************************
                                 ;     631 Function Name   : usb_hstd_SubmitResult
                                 ;     632 Description     : Callback after completion of a standard request.
                                 ;     633 Argument        : uint16_t *utr_table   : Message.
                                 ;     634 Return          : none
                                 ;     635 ******************************************************************************/
                                 ;     636 void usb_hstd_SubmitResult(USB_UTR_t *ptr, uint16_t data1, uint16_t data2)
                                 		.LINE  "C:\Workspace\e2studio\git\MT01\r_usb_basic\src\driver\host\r_usb_hmanager.c",636
0000078E 6080                    		SUB #08H, R0
00000790 A009                    		MOV.L R1, 04H[R0]
00000792 900A                    		MOV.W R2, 02H[R0]
00000794 D303                    		MOV.W R3, [R0]
                                 ;     637 {
                                 ;     638     usb_hstd_MgrSndMbx(ptr, (uint16_t)USB_MSG_MGR_SUBMITRESULT, ptr->keyword, ptr->status);
                                 		.LINE  "C:\Workspace\e2studio\git\MT01\r_usb_basic\src\driver\host\r_usb_hmanager.c",638
00000796 A809                    		MOV.L 04H[R0], R1
00000798 BC14                    		MOVU.W 20H[R1], R4
0000079A B89B                    		MOVU.W 06H[R1], R3
0000079C FB2A2401                		MOV.L #00000124H, R2
000007A0 05rrrrrr             A  		BSR _usb_hstd_MgrSndMbx
000007A4 6702                    		RTSD #08H
000007A6                         _usb_hstd_TransferEndResult:
                                 		.STACK	_usb_hstd_TransferEndResult=12
                                 ;     639 }
                                 ;     640 /******************************************************************************
                                 ;     641 End of function usb_hstd_SubmitResult
                                 ;     642 ******************************************************************************/
                                 ;     643 
                                 ;     644 
                                 ;     645 /******************************************************************************
                                 ;     646 Function Name   : usb_hstd_TransferEndResult
                                 ;     647 Description     : Notify the MGR (manager) task that force-termination of data 
                                 ;     648                 : transfer completed.
                                 ;     649 Arguments       : USB_UTR_t *ptr : USB system internal structure.
                                 ;     650                 : uint16_t Result   : Transfer result
                                 ;     651                 : uint16_t Pipe             : Pipe No
                                 ;     652 Return          : none
                                 ;     653 ******************************************************************************/
                                 ;     654 void usb_hstd_TransferEndResult(USB_UTR_t *ptr, uint16_t result, uint16_t pipe)
                                 		.LINE  "C:\Workspace\e2studio\git\MT01\r_usb_basic\src\driver\host\r_usb_hmanager.c",654
000007A6 6080                    		SUB #08H, R0
000007A8 A009                    		MOV.L R1, 04H[R0]
000007AA 900A                    		MOV.W R2, 02H[R0]
000007AC D303                    		MOV.W R3, [R0]
                                 ;     655 {
                                 ;     656     usb_hstd_MgrSndMbx(ptr, (uint16_t)USB_MSG_MGR_TRANSENDRESULT, pipe, result);
                                 		.LINE  "C:\Workspace\e2studio\git\MT01\r_usb_basic\src\driver\host\r_usb_hmanager.c",656
000007AE B80C                    		MOVU.W 02H[R0], R4
000007B0 5C03                    		MOVU.W [R0], R3
000007B2 A809                    		MOV.L 04H[R0], R1
000007B4 FB2A2501                		MOV.L #00000125H, R2
000007B8 05rrrrrr             A  		BSR _usb_hstd_MgrSndMbx
000007BC 6702                    		RTSD #08H
000007BE                         _usb_hstd_EnumGetDescriptor:
                                 		.STACK	_usb_hstd_EnumGetDescriptor=16
                                 ;     657 }
                                 ;     658 /******************************************************************************
                                 ;     659 End of function usb_hstd_TransferEndResult
                                 ;     660 ******************************************************************************/
                                 ;     661 
                                 ;     662 /******************************************************************************
                                 ;     663 Function Name   : usb_hstd_EnumGetDescriptor
                                 ;     664 Description     : Send GetDescriptor to the connected USB device.
                                 ;     665 Argument        : uint16_t addr             : Device Address
                                 ;     666                 : uint16_t cnt_value        : Enumeration sequence
                                 ;     667 Return          : none
                                 ;     668 ******************************************************************************/
                                 ;     669 void usb_hstd_EnumGetDescriptor(USB_UTR_t *ptr, uint16_t addr, uint16_t cnt_value)
                                 		.LINE  "C:\Workspace\e2studio\git\MT01\r_usb_basic\src\driver\host\r_usb_hmanager.c",669
000007BE 60C0                    		SUB #0CH, R0
000007C0 A081                    		MOV.L R1, 08H[R0]
000007C2 908A                    		MOV.W R2, 06H[R0]
000007C4 9083                    		MOV.W R3, 04H[R0]
                                 ;     670 {
                                 ;     671     uint8_t         *data_table;
                                 ;     672 
                                 ;     673     switch( cnt_value )
                                 		.LINE  "C:\Workspace\e2studio\git\MT01\r_usb_basic\src\driver\host\r_usb_hmanager.c",673
000007C6 B881                    		MOVU.W 04H[R0], R1
000007C8 6121                    		CMP #02H, R1
000007CA 23rr                    		BLTU L193
000007CC                         L189:	; entry
000007CC 6121                    		CMP #02H, R1
000007CE 3Arrrr               W  		BEQ L200
000007D1                         L190:	; entry
000007D1 6131                    		CMP #03H, R1
000007D3 3Arrrr               W  		BEQ L207
000007D6                         L191:	; entry
000007D6 6141                    		CMP #04H, R1
000007D8 3Arrrr               W  		BEQ L212
000007DB                         L192:	; entry
000007DB 6151                    		CMP #05H, R1
000007DD 3Brrrr               W  		BNE L230
000007E0                         L193:	; bb
                                 ;     674     {
                                 ;     675     case 0:
                                 ;     676         /* continue */
                                 ;     677     case 1:
                                 ;     678         /* continue */
                                 ;     679     case 5:
                                 ;     680         usb_shstd_StdRequest[ptr->ip][0] = USB_GET_DESCRIPTOR | USB_DEV_TO_HOST | USB_STANDARD | USB_DEVICE;
                                 		.LINE  "C:\Workspace\e2studio\git\MT01\r_usb_basic\src\driver\host\r_usb_hmanager.c",680
000007E0 A881                    		MOV.L 08H[R0], R1
000007E2 B991                    		MOVU.W 0CH[R1], R1
000007E4 63A1                    		MUL #0AH, R1
000007E6 FBE2rrrrrrrr            		MOV.L #_usb_shstd_StdRequest, R14
000007EC 4B1E                    		ADD R1, R14
000007EE F8E98006                		MOV.W #0680H, [R14]
000007F2                         L194:	; bb.split
                                 ;     681         usb_shstd_StdRequest[ptr->ip][1] = (uint16_t)USB_DEV_DESCRIPTOR;
                                 		.LINE  "C:\Workspace\e2studio\git\MT01\r_usb_basic\src\driver\host\r_usb_hmanager.c",681
000007F2 A881                    		MOV.L 08H[R0], R1
000007F4 B991                    		MOVU.W 0CH[R1], R1
000007F6 63A1                    		MUL #0AH, R1
000007F8 FBE2rrrrrrrr            		MOV.L #_usb_shstd_StdRequest, R14
000007FE 4B1E                    		ADD R1, R14
00000800 F9E9010001              		MOV.W #0100H, 02H[R14]
00000805                         L195:	; bb.split1
                                 ;     682         usb_shstd_StdRequest[ptr->ip][2] = (uint16_t)0x0000;
                                 		.LINE  "C:\Workspace\e2studio\git\MT01\r_usb_basic\src\driver\host\r_usb_hmanager.c",682
00000805 A881                    		MOV.L 08H[R0], R1
00000807 B991                    		MOVU.W 0CH[R1], R1
00000809 63A1                    		MUL #0AH, R1
0000080B FB22rrrrrrrr            		MOV.L #_usb_shstd_StdRequest, R2
00000811 4B12                    		ADD R1, R2
00000813 3D2200                  		MOV.W #0000H, 04H[R2]
00000816                         L196:	; bb.split2
                                 ;     683         usb_shstd_StdRequest[ptr->ip][3] = (uint16_t)0x0040;
                                 		.LINE  "C:\Workspace\e2studio\git\MT01\r_usb_basic\src\driver\host\r_usb_hmanager.c",683
00000816 A881                    		MOV.L 08H[R0], R1
00000818 B991                    		MOVU.W 0CH[R1], R1
0000081A 63A1                    		MUL #0AH, R1
0000081C FB22rrrrrrrr            		MOV.L #_usb_shstd_StdRequest, R2
00000822 4B12                    		ADD R1, R2
00000824 3D2340                  		MOV.W #0040H, 06H[R2]
00000827                         L197:	; bb.split3
                                 ;     684         if( usb_shstd_StdRequest[ptr->ip][3] > USB_DEVICESIZE )
                                 		.LINE  "C:\Workspace\e2studio\git\MT01\r_usb_basic\src\driver\host\r_usb_hmanager.c",684
00000827 A881                    		MOV.L 08H[R0], R1
00000829 B991                    		MOVU.W 0CH[R1], R1
0000082B 63A1                    		MUL #0AH, R1
0000082D FB22rrrrrrrr            		MOV.L #_usb_shstd_StdRequest, R2
00000833 4B12                    		ADD R1, R2
00000835 B8A9                    		MOVU.W 06H[R2], R1
00000837 755115                  		CMP #15H, R1
0000083A 23rr                    		BLTU L199
0000083C                         L198:	; bb35
                                 ;     685         {
                                 ;     686             usb_shstd_StdRequest[ptr->ip][3] = USB_DEVICESIZE;
                                 		.LINE  "C:\Workspace\e2studio\git\MT01\r_usb_basic\src\driver\host\r_usb_hmanager.c",686
0000083C A881                    		MOV.L 08H[R0], R1
0000083E B991                    		MOVU.W 0CH[R1], R1
00000840 63A1                    		MUL #0AH, R1
00000842 FB22rrrrrrrr            		MOV.L #_usb_shstd_StdRequest, R2
00000848 4B12                    		ADD R1, R2
0000084A 3D2314                  		MOV.W #0014H, 06H[R2]
0000084D                         L199:	; bb54
                                 ;     687         }
                                 ;     688         usb_shstd_StdReqMsg[ptr->ip].tranadr = usb_ghstd_DeviceDescriptor[ptr->ip];
                                 		.LINE  "C:\Workspace\e2studio\git\MT01\r_usb_basic\src\driver\host\r_usb_hmanager.c",688
0000084D A881                    		MOV.L 08H[R0], R1
0000084F B991                    		MOVU.W 0CH[R1], R1
00000851 EF1E                    		MOV.L R1, R14
00000853 751E2C                  		MUL #2CH, R14
00000856 FB22rrrrrrrr            		MOV.L #_usb_shstd_StdReqMsg, R2
0000085C 4BE2                    		ADD R14, R2
0000085E 751114                  		MUL #14H, R1
00000861 FB32rrrrrrrr            		MOV.L #_usb_ghstd_DeviceDescriptor, R3
00000867 4B13                    		ADD R1, R3
00000869 A12B                    		MOV.L R3, 14H[R2]
0000086B 38rrrr               W  		BRA L220
0000086E                         L200:	; bb68
                                 ;     689         break;
                                 ;     690     case 2:
                                 ;     691         usb_shstd_StdRequest[ptr->ip][0] = USB_GET_DESCRIPTOR | USB_DEV_TO_HOST | USB_STANDARD | USB_DEVICE;
                                 		.LINE  "C:\Workspace\e2studio\git\MT01\r_usb_basic\src\driver\host\r_usb_hmanager.c",691
0000086E A881                    		MOV.L 08H[R0], R1
00000870 B991                    		MOVU.W 0CH[R1], R1
00000872 63A1                    		MUL #0AH, R1
00000874 FBE2rrrrrrrr            		MOV.L #_usb_shstd_StdRequest, R14
0000087A 4B1E                    		ADD R1, R14
0000087C F8E98006                		MOV.W #0680H, [R14]
00000880                         L201:	; bb68.split
                                 ;     692         usb_shstd_StdRequest[ptr->ip][1] = (uint16_t)USB_DEV_DESCRIPTOR;
                                 		.LINE  "C:\Workspace\e2studio\git\MT01\r_usb_basic\src\driver\host\r_usb_hmanager.c",692
00000880 A881                    		MOV.L 08H[R0], R1
00000882 B991                    		MOVU.W 0CH[R1], R1
00000884 63A1                    		MUL #0AH, R1
00000886 FBE2rrrrrrrr            		MOV.L #_usb_shstd_StdRequest, R14
0000088C 4B1E                    		ADD R1, R14
0000088E F9E9010001              		MOV.W #0100H, 02H[R14]
00000893                         L202:	; bb68.split4
                                 ;     693         usb_shstd_StdRequest[ptr->ip][2] = (uint16_t)0x0000;
                                 		.LINE  "C:\Workspace\e2studio\git\MT01\r_usb_basic\src\driver\host\r_usb_hmanager.c",693
00000893 A881                    		MOV.L 08H[R0], R1
00000895 B991                    		MOVU.W 0CH[R1], R1
00000897 63A1                    		MUL #0AH, R1
00000899 FB22rrrrrrrr            		MOV.L #_usb_shstd_StdRequest, R2
0000089F 4B12                    		ADD R1, R2
000008A1 3D2200                  		MOV.W #0000H, 04H[R2]
000008A4                         L203:	; bb68.split5
                                 ;     694         usb_shstd_StdRequest[ptr->ip][3] = (uint16_t)0x0012;
                                 		.LINE  "C:\Workspace\e2studio\git\MT01\r_usb_basic\src\driver\host\r_usb_hmanager.c",694
000008A4 A881                    		MOV.L 08H[R0], R1
000008A6 B991                    		MOVU.W 0CH[R1], R1
000008A8 63A1                    		MUL #0AH, R1
000008AA FB22rrrrrrrr            		MOV.L #_usb_shstd_StdRequest, R2
000008B0 4B12                    		ADD R1, R2
000008B2 3D2312                  		MOV.W #0012H, 06H[R2]
000008B5                         L204:	; bb68.split6
                                 ;     695         if( usb_shstd_StdRequest[ptr->ip][3] > USB_DEVICESIZE )
                                 		.LINE  "C:\Workspace\e2studio\git\MT01\r_usb_basic\src\driver\host\r_usb_hmanager.c",695
000008B5 A881                    		MOV.L 08H[R0], R1
000008B7 B991                    		MOVU.W 0CH[R1], R1
000008B9 63A1                    		MUL #0AH, R1
000008BB FB22rrrrrrrr            		MOV.L #_usb_shstd_StdRequest, R2
000008C1 4B12                    		ADD R1, R2
000008C3 B8A9                    		MOVU.W 06H[R2], R1
000008C5 755115                  		CMP #15H, R1
000008C8 23rr                    		BLTU L206
000008CA                         L205:	; bb99
                                 ;     696         {
                                 ;     697             usb_shstd_StdRequest[ptr->ip][3] = USB_DEVICESIZE;
                                 		.LINE  "C:\Workspace\e2studio\git\MT01\r_usb_basic\src\driver\host\r_usb_hmanager.c",697
000008CA A881                    		MOV.L 08H[R0], R1
000008CC B991                    		MOVU.W 0CH[R1], R1
000008CE 63A1                    		MUL #0AH, R1
000008D0 FB22rrrrrrrr            		MOV.L #_usb_shstd_StdRequest, R2
000008D6 4B12                    		ADD R1, R2
000008D8 3D2314                  		MOV.W #0014H, 06H[R2]
000008DB                         L206:	; bb119
                                 ;     698         }
                                 ;     699         usb_shstd_StdReqMsg[ptr->ip].tranadr = usb_ghstd_DeviceDescriptor[ptr->ip];
                                 		.LINE  "C:\Workspace\e2studio\git\MT01\r_usb_basic\src\driver\host\r_usb_hmanager.c",699
000008DB A881                    		MOV.L 08H[R0], R1
000008DD B991                    		MOVU.W 0CH[R1], R1
000008DF EF1E                    		MOV.L R1, R14
000008E1 751E2C                  		MUL #2CH, R14
000008E4 FB22rrrrrrrr            		MOV.L #_usb_shstd_StdReqMsg, R2
000008EA 4BE2                    		ADD R14, R2
000008EC 751114                  		MUL #14H, R1
000008EF FB32rrrrrrrr            		MOV.L #_usb_ghstd_DeviceDescriptor, R3
000008F5 4B13                    		ADD R1, R3
000008F7 A12B                    		MOV.L R3, 14H[R2]
000008F9 38rrrr               W  		BRA L220
000008FC                         L207:	; bb133
                                 ;     700         break;
                                 ;     701     case 3:
                                 ;     702         usb_shstd_StdRequest[ptr->ip][0] = USB_GET_DESCRIPTOR | USB_DEV_TO_HOST | USB_STANDARD | USB_DEVICE;
                                 		.LINE  "C:\Workspace\e2studio\git\MT01\r_usb_basic\src\driver\host\r_usb_hmanager.c",702
000008FC A881                    		MOV.L 08H[R0], R1
000008FE B991                    		MOVU.W 0CH[R1], R1
00000900 63A1                    		MUL #0AH, R1
00000902 FBE2rrrrrrrr            		MOV.L #_usb_shstd_StdRequest, R14
00000908 4B1E                    		ADD R1, R14
0000090A F8E98006                		MOV.W #0680H, [R14]
0000090E                         L208:	; bb133.split
                                 ;     703         usb_shstd_StdRequest[ptr->ip][1] = (uint16_t)USB_CONF_DESCRIPTOR;
                                 		.LINE  "C:\Workspace\e2studio\git\MT01\r_usb_basic\src\driver\host\r_usb_hmanager.c",703
0000090E A881                    		MOV.L 08H[R0], R1
00000910 B991                    		MOVU.W 0CH[R1], R1
00000912 63A1                    		MUL #0AH, R1
00000914 FBE2rrrrrrrr            		MOV.L #_usb_shstd_StdRequest, R14
0000091A 4B1E                    		ADD R1, R14
0000091C F9E9010002              		MOV.W #0200H, 02H[R14]
00000921                         L209:	; bb133.split7
                                 ;     704         usb_shstd_StdRequest[ptr->ip][2] = (uint16_t)0x0000;
                                 		.LINE  "C:\Workspace\e2studio\git\MT01\r_usb_basic\src\driver\host\r_usb_hmanager.c",704
00000921 A881                    		MOV.L 08H[R0], R1
00000923 B991                    		MOVU.W 0CH[R1], R1
00000925 63A1                    		MUL #0AH, R1
00000927 FB22rrrrrrrr            		MOV.L #_usb_shstd_StdRequest, R2
0000092D 4B12                    		ADD R1, R2
0000092F 3D2200                  		MOV.W #0000H, 04H[R2]
00000932                         L210:	; bb133.split8
                                 ;     705         usb_shstd_StdRequest[ptr->ip][3] = (uint16_t)0x0009;
                                 		.LINE  "C:\Workspace\e2studio\git\MT01\r_usb_basic\src\driver\host\r_usb_hmanager.c",705
00000932 A881                    		MOV.L 08H[R0], R1
00000934 B991                    		MOVU.W 0CH[R1], R1
00000936 63A1                    		MUL #0AH, R1
00000938 FB22rrrrrrrr            		MOV.L #_usb_shstd_StdRequest, R2
0000093E 4B12                    		ADD R1, R2
00000940 3D2309                  		MOV.W #0009H, 06H[R2]
00000943                         L211:	; bb133.split9
                                 ;     706         usb_shstd_StdReqMsg[ptr->ip].tranadr = usb_ghstd_ConfigurationDescriptor[ptr->ip];
                                 		.LINE  "C:\Workspace\e2studio\git\MT01\r_usb_basic\src\driver\host\r_usb_hmanager.c",706
00000943 A881                    		MOV.L 08H[R0], R1
00000945 B991                    		MOVU.W 0CH[R1], R1
00000947 EF1E                    		MOV.L R1, R14
00000949 751E2C                  		MUL #2CH, R14
0000094C FB22rrrrrrrr            		MOV.L #_usb_shstd_StdReqMsg, R2
00000952 4BE2                    		ADD R14, R2
00000954 6C81                    		SHLL #08H, R1
00000956 FB32rrrrrrrr            		MOV.L #_usb_ghstd_ConfigurationDescriptor, R3
0000095C 4B13                    		ADD R1, R3
0000095E A12B                    		MOV.L R3, 14H[R2]
00000960 38rrrr               W  		BRA L220
00000963                         L212:	; bb175
                                 ;     707         break;
                                 ;     708     case 4:
                                 ;     709         data_table = (uint8_t*)usb_ghstd_ConfigurationDescriptor[ptr->ip];
                                 		.LINE  "C:\Workspace\e2studio\git\MT01\r_usb_basic\src\driver\host\r_usb_hmanager.c",709
00000963 A881                    		MOV.L 08H[R0], R1
00000965 B991                    		MOVU.W 0CH[R1], R1
00000967 6C81                    		SHLL #08H, R1
00000969 FB22rrrrrrrr            		MOV.L #_usb_ghstd_ConfigurationDescriptor, R2
0000096F 4B12                    		ADD R1, R2
00000971 E302                    		MOV.L R2, [R0]
00000973                         L213:	; bb175.split
                                 ;     710         usb_shstd_StdRequest[ptr->ip][0] = USB_GET_DESCRIPTOR | USB_DEV_TO_HOST | USB_STANDARD | USB_DEVICE;
                                 		.LINE  "C:\Workspace\e2studio\git\MT01\r_usb_basic\src\driver\host\r_usb_hmanager.c",710
00000973 A881                    		MOV.L 08H[R0], R1
00000975 B991                    		MOVU.W 0CH[R1], R1
00000977 63A1                    		MUL #0AH, R1
00000979 FBE2rrrrrrrr            		MOV.L #_usb_shstd_StdRequest, R14
0000097F 4B1E                    		ADD R1, R14
00000981 F8E98006                		MOV.W #0680H, [R14]
00000985                         L214:	; bb175.split10
                                 ;     711         usb_shstd_StdRequest[ptr->ip][1] = (uint16_t)USB_CONF_DESCRIPTOR;
                                 		.LINE  "C:\Workspace\e2studio\git\MT01\r_usb_basic\src\driver\host\r_usb_hmanager.c",711
00000985 A881                    		MOV.L 08H[R0], R1
00000987 B991                    		MOVU.W 0CH[R1], R1
00000989 63A1                    		MUL #0AH, R1
0000098B FBE2rrrrrrrr            		MOV.L #_usb_shstd_StdRequest, R14
00000991 4B1E                    		ADD R1, R14
00000993 F9E9010002              		MOV.W #0200H, 02H[R14]
00000998                         L215:	; bb175.split11
                                 ;     712         usb_shstd_StdRequest[ptr->ip][2] = (uint16_t)0x0000;
                                 		.LINE  "C:\Workspace\e2studio\git\MT01\r_usb_basic\src\driver\host\r_usb_hmanager.c",712
00000998 A881                    		MOV.L 08H[R0], R1
0000099A B991                    		MOVU.W 0CH[R1], R1
0000099C 63A1                    		MUL #0AH, R1
0000099E FB22rrrrrrrr            		MOV.L #_usb_shstd_StdRequest, R2
000009A4 4B12                    		ADD R1, R2
000009A6 3D2200                  		MOV.W #0000H, 04H[R2]
000009A9                         L216:	; bb175.split12
                                 ;     713         usb_shstd_StdRequest[ptr->ip][3] = (uint16_t)(((uint16_t)data_table[3] << 8) + (uint16_t)data_table[2]);
                                 		.LINE  "C:\Workspace\e2studio\git\MT01\r_usb_basic\src\driver\host\r_usb_hmanager.c",713
000009A9 A881                    		MOV.L 08H[R0], R1
000009AB B991                    		MOVU.W 0CH[R1], R1
000009AD 63A1                    		MUL #0AH, R1
000009AF FB22rrrrrrrr            		MOV.L #_usb_shstd_StdRequest, R2
000009B5 4B12                    		ADD R1, R2
000009B7 EC01                    		MOV.L [R0], R1
000009B9 B09B                    		MOVU.B 03H[R1], R3
000009BB 6C83                    		SHLL #08H, R3
000009BD 551302                  		OR 02H[R1].UB, R3
000009C0 90AB                    		MOV.W R3, 06H[R2]
000009C2                         L217:	; bb175.split13
                                 ;     714         if( usb_shstd_StdRequest[ptr->ip][3] > USB_CONFIGSIZE )
                                 		.LINE  "C:\Workspace\e2studio\git\MT01\r_usb_basic\src\driver\host\r_usb_hmanager.c",714
000009C2 A881                    		MOV.L 08H[R0], R1
000009C4 B991                    		MOVU.W 0CH[R1], R1
000009C6 63A1                    		MUL #0AH, R1
000009C8 FB22rrrrrrrr            		MOV.L #_usb_shstd_StdRequest, R2
000009CE 4B12                    		ADD R1, R2
000009D0 B8A9                    		MOVU.W 06H[R2], R1
000009D2 76010101                		CMP #0101H, R1
000009D6 23rr                    		BLTU L219
000009D8                         L218:	; bb225
                                 ;     715         {
                                 ;     716             usb_shstd_StdRequest[ptr->ip][3] = USB_CONFIGSIZE;
                                 		.LINE  "C:\Workspace\e2studio\git\MT01\r_usb_basic\src\driver\host\r_usb_hmanager.c",716
000009D8 A881                    		MOV.L 08H[R0], R1
000009DA B991                    		MOVU.W 0CH[R1], R1
000009DC 63A1                    		MUL #0AH, R1
000009DE FBE2rrrrrrrr            		MOV.L #_usb_shstd_StdRequest, R14
000009E4 4B1E                    		ADD R1, R14
000009E6 F9E9030001              		MOV.W #0100H, 06H[R14]
000009EB                         L219:	; bb245
                                 ;     717             USB_PRINTF0("***WARNING Descriptor size over !\n");
                                 ;     718         }
                                 ;     719         usb_shstd_StdReqMsg[ptr->ip].tranadr = usb_ghstd_ConfigurationDescriptor[ptr->ip];
                                 		.LINE  "C:\Workspace\e2studio\git\MT01\r_usb_basic\src\driver\host\r_usb_hmanager.c",719
000009EB A881                    		MOV.L 08H[R0], R1
000009ED B991                    		MOVU.W 0CH[R1], R1
000009EF EF1E                    		MOV.L R1, R14
000009F1 751E2C                  		MUL #2CH, R14
000009F4 FB22rrrrrrrr            		MOV.L #_usb_shstd_StdReqMsg, R2
000009FA 4BE2                    		ADD R14, R2
000009FC 6C81                    		SHLL #08H, R1
000009FE FB32rrrrrrrr            		MOV.L #_usb_ghstd_ConfigurationDescriptor, R3
00000A04 4B13                    		ADD R1, R3
00000A06 A12B                    		MOV.L R3, 14H[R2]
00000A08                         L220:	; bb261
                                 ;     720         break;
                                 ;     721     default:
                                 ;     722         return;
                                 ;     723         break;
                                 ;     724     }
                                 ;     725     usb_shstd_StdRequest[ptr->ip][4] = addr;
                                 		.LINE  "C:\Workspace\e2studio\git\MT01\r_usb_basic\src\driver\host\r_usb_hmanager.c",725
00000A08 A881                    		MOV.L 08H[R0], R1
00000A0A B991                    		MOVU.W 0CH[R1], R1
00000A0C 63A1                    		MUL #0AH, R1
00000A0E FB22rrrrrrrr            		MOV.L #_usb_shstd_StdRequest, R2
00000A14 4B12                    		ADD R1, R2
00000A16 D5020304                		MOV.W 06H[R0], 08H[R2]
00000A1A                         L221:	; bb261.split
                                 ;     726     usb_shstd_StdReqMsg[ptr->ip].keyword     = (uint16_t)USB_PIPE0;
                                 		.LINE  "C:\Workspace\e2studio\git\MT01\r_usb_basic\src\driver\host\r_usb_hmanager.c",726
00000A1A A881                    		MOV.L 08H[R0], R1
00000A1C B991                    		MOVU.W 0CH[R1], R1
00000A1E 75112C                  		MUL #2CH, R1
00000A21 FB22rrrrrrrr            		MOV.L #_usb_shstd_StdReqMsg, R2
00000A27 4B12                    		ADD R1, R2
00000A29 3D2300                  		MOV.W #0000H, 06H[R2]
00000A2C                         L222:	; bb261.split14
                                 ;     727     usb_shstd_StdReqMsg[ptr->ip].tranlen     = (uint32_t)usb_shstd_StdRequest[ptr->ip][3];
                                 		.LINE  "C:\Workspace\e2studio\git\MT01\r_usb_basic\src\driver\host\r_usb_hmanager.c",727
00000A2C A881                    		MOV.L 08H[R0], R1
00000A2E B991                    		MOVU.W 0CH[R1], R1
00000A30 EF1E                    		MOV.L R1, R14
00000A32 751E2C                  		MUL #2CH, R14
00000A35 FB22rrrrrrrr            		MOV.L #_usb_shstd_StdReqMsg, R2
00000A3B 4BE2                    		ADD R14, R2
00000A3D 63A1                    		MUL #0AH, R1
00000A3F FB32rrrrrrrr            		MOV.L #_usb_shstd_StdRequest, R3
00000A45 4B13                    		ADD R1, R3
00000A47 B8B9                    		MOVU.W 06H[R3], R1
00000A49 A1A1                    		MOV.L R1, 18H[R2]
00000A4B                         L223:	; bb261.split15
                                 ;     728     usb_shstd_StdReqMsg[ptr->ip].setup       = usb_shstd_StdRequest[ptr->ip];
                                 		.LINE  "C:\Workspace\e2studio\git\MT01\r_usb_basic\src\driver\host\r_usb_hmanager.c",728
00000A4B A881                    		MOV.L 08H[R0], R1
00000A4D B991                    		MOVU.W 0CH[R1], R1
00000A4F EF1E                    		MOV.L R1, R14
00000A51 751E2C                  		MUL #2CH, R14
00000A54 FB22rrrrrrrr            		MOV.L #_usb_shstd_StdReqMsg, R2
00000A5A 4BE2                    		ADD R14, R2
00000A5C 63A1                    		MUL #0AH, R1
00000A5E FB32rrrrrrrr            		MOV.L #_usb_shstd_StdRequest, R3
00000A64 4B13                    		ADD R1, R3
00000A66 A1AB                    		MOV.L R3, 1CH[R2]
00000A68                         L224:	; bb261.split16
                                 ;     729     usb_shstd_StdReqMsg[ptr->ip].status      = USB_DATA_NONE;
                                 		.LINE  "C:\Workspace\e2studio\git\MT01\r_usb_basic\src\driver\host\r_usb_hmanager.c",729
00000A68 A881                    		MOV.L 08H[R0], R1
00000A6A B991                    		MOVU.W 0CH[R1], R1
00000A6C 75112C                  		MUL #2CH, R1
00000A6F FB22rrrrrrrr            		MOV.L #_usb_shstd_StdReqMsg, R2
00000A75 4B12                    		ADD R1, R2
00000A77 3DA001                  		MOV.W #0001H, 20H[R2]
00000A7A                         L225:	; bb261.split17
                                 ;     730     usb_shstd_StdReqMsg[ptr->ip].complete    = (USB_CB_t)&usb_hstd_SubmitResult;
                                 		.LINE  "C:\Workspace\e2studio\git\MT01\r_usb_basic\src\driver\host\r_usb_hmanager.c",730
00000A7A A881                    		MOV.L 08H[R0], R1
00000A7C B991                    		MOVU.W 0CH[R1], R1
00000A7E 75112C                  		MUL #2CH, R1
00000A81 FB22rrrrrrrr            		MOV.L #_usb_shstd_StdReqMsg, R2
00000A87 4B12                    		ADD R1, R2
00000A89 FB12rrrrrrrr            		MOV.L #_usb_hstd_SubmitResult, R1
00000A8F A121                    		MOV.L R1, 10H[R2]
00000A91                         L226:	; bb261.split18
                                 ;     731     usb_shstd_StdReqMsg[ptr->ip].segment     = USB_TRAN_END;
                                 		.LINE  "C:\Workspace\e2studio\git\MT01\r_usb_basic\src\driver\host\r_usb_hmanager.c",731
00000A91 A881                    		MOV.L 08H[R0], R1
00000A93 B991                    		MOVU.W 0CH[R1], R1
00000A95 75112C                  		MUL #2CH, R1
00000A98 FBE2rrrrrrrr            		MOV.L #_usb_shstd_StdReqMsg, R14
00000A9E 4B1E                    		ADD R1, R14
00000AA0 F9E42580                		MOV.B #80H, 25H[R14]
00000AA4                         L227:	; bb261.split19
                                 ;     732 
                                 ;     733     usb_shstd_StdReqMsg[ptr->ip].ipp         = ptr->ipp;
                                 		.LINE  "C:\Workspace\e2studio\git\MT01\r_usb_basic\src\driver\host\r_usb_hmanager.c",733
00000AA4 A881                    		MOV.L 08H[R0], R1
00000AA6 B992                    		MOVU.W 0CH[R1], R2
00000AA8 75122C                  		MUL #2CH, R2
00000AAB FBE2rrrrrrrr            		MOV.L #_usb_shstd_StdReqMsg, R14
00000AB1 4B2E                    		ADD R2, R14
00000AB3 E51E0202                		MOV.L 08H[R1], 08H[R14]
00000AB7                         L228:	; bb261.split20
                                 ;     734     usb_shstd_StdReqMsg[ptr->ip].ip          = ptr->ip;
                                 		.LINE  "C:\Workspace\e2studio\git\MT01\r_usb_basic\src\driver\host\r_usb_hmanager.c",734
00000AB7 A881                    		MOV.L 08H[R0], R1
00000AB9 B991                    		MOVU.W 0CH[R1], R1
00000ABB EF1E                    		MOV.L R1, R14
00000ABD 751E2C                  		MUL #2CH, R14
00000AC0 FB22rrrrrrrr            		MOV.L #_usb_shstd_StdReqMsg, R2
00000AC6 4BE2                    		ADD R14, R2
00000AC8 91A1                    		MOV.W R1, 0CH[R2]
00000ACA                         L229:	; bb261.split21
                                 ;     735 
                                 ;     736     usb_hstd_TransferStart(&usb_shstd_StdReqMsg[ptr->ip]);
                                 		.LINE  "C:\Workspace\e2studio\git\MT01\r_usb_basic\src\driver\host\r_usb_hmanager.c",736
00000ACA A881                    		MOV.L 08H[R0], R1
00000ACC B992                    		MOVU.W 0CH[R1], R2
00000ACE 75122C                  		MUL #2CH, R2
00000AD1 FB12rrrrrrrr            		MOV.L #_usb_shstd_StdReqMsg, R1
00000AD7 4B21                    		ADD R2, R1
00000AD9 05rrrrrr             A  		BSR _usb_hstd_TransferStart
00000ADD 6703                    		RTSD #0CH
00000ADF                         L230:	; return
                                 ;     737 }
                                 		.LINE  "C:\Workspace\e2studio\git\MT01\r_usb_basic\src\driver\host\r_usb_hmanager.c",737
00000ADF 6703                    		RTSD #0CH
00000AE1                         _usb_hstd_EnumSetAddress:
                                 		.STACK	_usb_hstd_EnumSetAddress=12
                                 ;     738 /******************************************************************************
                                 ;     739 End of function usb_hstd_EnumGetDescriptor
                                 ;     740 ******************************************************************************/
                                 ;     741 
                                 ;     742 /******************************************************************************
                                 ;     743 Function Name   : usb_hstd_EnumSetAddress
                                 ;     744 Description     : Send SetAddress to the connected USB device.
                                 ;     745 Arguments       : USB_UTR_t *ptr : USB system internal structure.
                                 ;     746                 : uint16_t addr     : Device Address.
                                 ;     747                 : uint16_t setaddr  : New address.
                                 ;     748 Return          : none
                                 ;     749 ******************************************************************************/
                                 ;     750 void usb_hstd_EnumSetAddress(USB_UTR_t *ptr, uint16_t addr, uint16_t setaddr)
                                 		.LINE  "C:\Workspace\e2studio\git\MT01\r_usb_basic\src\driver\host\r_usb_hmanager.c",750
00000AE1 6080                    		SUB #08H, R0
00000AE3 A009                    		MOV.L R1, 04H[R0]
00000AE5 900A                    		MOV.W R2, 02H[R0]
00000AE7 D303                    		MOV.W R3, [R0]
                                 ;     751 {
                                 ;     752     usb_shstd_StdRequest[ptr->ip][0] = USB_SET_ADDRESS | USB_HOST_TO_DEV | USB_STANDARD | USB_DEVICE;
                                 		.LINE  "C:\Workspace\e2studio\git\MT01\r_usb_basic\src\driver\host\r_usb_hmanager.c",752
00000AE9 A809                    		MOV.L 04H[R0], R1
00000AEB B991                    		MOVU.W 0CH[R1], R1
00000AED 63A1                    		MUL #0AH, R1
00000AEF FBE2rrrrrrrr            		MOV.L #_usb_shstd_StdRequest, R14
00000AF5 4B1E                    		ADD R1, R14
00000AF7 F8E90005                		MOV.W #0500H, [R14]
00000AFB                         L232:	; entry.split
                                 ;     753     usb_shstd_StdRequest[ptr->ip][1] = setaddr;
                                 		.LINE  "C:\Workspace\e2studio\git\MT01\r_usb_basic\src\driver\host\r_usb_hmanager.c",753
00000AFB A809                    		MOV.L 04H[R0], R1
00000AFD B991                    		MOVU.W 0CH[R1], R1
00000AFF 63A1                    		MUL #0AH, R1
00000B01 FB22rrrrrrrr            		MOV.L #_usb_shstd_StdRequest, R2
00000B07 4B12                    		ADD R1, R2
00000B09 D40201                  		MOV.W [R0], 02H[R2]
00000B0C                         L233:	; entry.split1
                                 ;     754     usb_shstd_StdRequest[ptr->ip][2] = (uint16_t)0x0000;
                                 		.LINE  "C:\Workspace\e2studio\git\MT01\r_usb_basic\src\driver\host\r_usb_hmanager.c",754
00000B0C A809                    		MOV.L 04H[R0], R1
00000B0E B991                    		MOVU.W 0CH[R1], R1
00000B10 63A1                    		MUL #0AH, R1
00000B12 FB22rrrrrrrr            		MOV.L #_usb_shstd_StdRequest, R2
00000B18 4B12                    		ADD R1, R2
00000B1A 3D2200                  		MOV.W #0000H, 04H[R2]
00000B1D                         L234:	; entry.split2
                                 ;     755     usb_shstd_StdRequest[ptr->ip][3] = (uint16_t)0x0000;
                                 		.LINE  "C:\Workspace\e2studio\git\MT01\r_usb_basic\src\driver\host\r_usb_hmanager.c",755
00000B1D A809                    		MOV.L 04H[R0], R1
00000B1F B991                    		MOVU.W 0CH[R1], R1
00000B21 63A1                    		MUL #0AH, R1
00000B23 FB22rrrrrrrr            		MOV.L #_usb_shstd_StdRequest, R2
00000B29 4B12                    		ADD R1, R2
00000B2B 3D2300                  		MOV.W #0000H, 06H[R2]
00000B2E                         L235:	; entry.split3
                                 ;     756     usb_shstd_StdRequest[ptr->ip][4] = addr;
                                 		.LINE  "C:\Workspace\e2studio\git\MT01\r_usb_basic\src\driver\host\r_usb_hmanager.c",756
00000B2E A809                    		MOV.L 04H[R0], R1
00000B30 B991                    		MOVU.W 0CH[R1], R1
00000B32 63A1                    		MUL #0AH, R1
00000B34 FB22rrrrrrrr            		MOV.L #_usb_shstd_StdRequest, R2
00000B3A 4B12                    		ADD R1, R2
00000B3C D5020104                		MOV.W 02H[R0], 08H[R2]
00000B40                         L236:	; entry.split4
                                 ;     757     usb_shstd_StdReqMsg[ptr->ip].keyword     = (uint16_t)USB_PIPE0;
                                 		.LINE  "C:\Workspace\e2studio\git\MT01\r_usb_basic\src\driver\host\r_usb_hmanager.c",757
00000B40 A809                    		MOV.L 04H[R0], R1
00000B42 B991                    		MOVU.W 0CH[R1], R1
00000B44 75112C                  		MUL #2CH, R1
00000B47 FB22rrrrrrrr            		MOV.L #_usb_shstd_StdReqMsg, R2
00000B4D 4B12                    		ADD R1, R2
00000B4F 3D2300                  		MOV.W #0000H, 06H[R2]
00000B52                         L237:	; entry.split5
                                 ;     758     usb_shstd_StdReqMsg[ptr->ip].tranadr     = (void *)&usb_shstd_DummyData;
                                 		.LINE  "C:\Workspace\e2studio\git\MT01\r_usb_basic\src\driver\host\r_usb_hmanager.c",758
00000B52 A809                    		MOV.L 04H[R0], R1
00000B54 B991                    		MOVU.W 0CH[R1], R1
00000B56 75112C                  		MUL #2CH, R1
00000B59 FB22rrrrrrrr            		MOV.L #_usb_shstd_StdReqMsg, R2
00000B5F 4B12                    		ADD R1, R2
00000B61 FB12rrrrrrrr            		MOV.L #__$usb_shstd_DummyData, R1
00000B67 A129                    		MOV.L R1, 14H[R2]
00000B69                         L238:	; entry.split6
                                 ;     759     usb_shstd_StdReqMsg[ptr->ip].tranlen     = (uint32_t)usb_shstd_StdRequest[ptr->ip][3];
                                 		.LINE  "C:\Workspace\e2studio\git\MT01\r_usb_basic\src\driver\host\r_usb_hmanager.c",759
00000B69 A809                    		MOV.L 04H[R0], R1
00000B6B B991                    		MOVU.W 0CH[R1], R1
00000B6D EF1E                    		MOV.L R1, R14
00000B6F 751E2C                  		MUL #2CH, R14
00000B72 FB22rrrrrrrr            		MOV.L #_usb_shstd_StdReqMsg, R2
00000B78 4BE2                    		ADD R14, R2
00000B7A 63A1                    		MUL #0AH, R1
00000B7C FB32rrrrrrrr            		MOV.L #_usb_shstd_StdRequest, R3
00000B82 4B13                    		ADD R1, R3
00000B84 B8B9                    		MOVU.W 06H[R3], R1
00000B86 A1A1                    		MOV.L R1, 18H[R2]
00000B88                         L239:	; entry.split7
                                 ;     760     usb_shstd_StdReqMsg[ptr->ip].setup       = usb_shstd_StdRequest[ptr->ip];
                                 		.LINE  "C:\Workspace\e2studio\git\MT01\r_usb_basic\src\driver\host\r_usb_hmanager.c",760
00000B88 A809                    		MOV.L 04H[R0], R1
00000B8A B991                    		MOVU.W 0CH[R1], R1
00000B8C EF1E                    		MOV.L R1, R14
00000B8E 751E2C                  		MUL #2CH, R14
00000B91 FB22rrrrrrrr            		MOV.L #_usb_shstd_StdReqMsg, R2
00000B97 4BE2                    		ADD R14, R2
00000B99 63A1                    		MUL #0AH, R1
00000B9B FB32rrrrrrrr            		MOV.L #_usb_shstd_StdRequest, R3
00000BA1 4B13                    		ADD R1, R3
00000BA3 A1AB                    		MOV.L R3, 1CH[R2]
00000BA5                         L240:	; entry.split8
                                 ;     761     usb_shstd_StdReqMsg[ptr->ip].status      = USB_DATA_NONE;
                                 		.LINE  "C:\Workspace\e2studio\git\MT01\r_usb_basic\src\driver\host\r_usb_hmanager.c",761
00000BA5 A809                    		MOV.L 04H[R0], R1
00000BA7 B991                    		MOVU.W 0CH[R1], R1
00000BA9 75112C                  		MUL #2CH, R1
00000BAC FB22rrrrrrrr            		MOV.L #_usb_shstd_StdReqMsg, R2
00000BB2 4B12                    		ADD R1, R2
00000BB4 3DA001                  		MOV.W #0001H, 20H[R2]
00000BB7                         L241:	; entry.split9
                                 ;     762     usb_shstd_StdReqMsg[ptr->ip].complete    = (USB_CB_t)&usb_hstd_SubmitResult;
                                 		.LINE  "C:\Workspace\e2studio\git\MT01\r_usb_basic\src\driver\host\r_usb_hmanager.c",762
00000BB7 A809                    		MOV.L 04H[R0], R1
00000BB9 B991                    		MOVU.W 0CH[R1], R1
00000BBB 75112C                  		MUL #2CH, R1
00000BBE FB22rrrrrrrr            		MOV.L #_usb_shstd_StdReqMsg, R2
00000BC4 4B12                    		ADD R1, R2
00000BC6 FB12rrrrrrrr            		MOV.L #_usb_hstd_SubmitResult, R1
00000BCC A121                    		MOV.L R1, 10H[R2]
00000BCE                         L242:	; entry.split10
                                 ;     763     usb_shstd_StdReqMsg[ptr->ip].segment     = USB_TRAN_END;
                                 		.LINE  "C:\Workspace\e2studio\git\MT01\r_usb_basic\src\driver\host\r_usb_hmanager.c",763
00000BCE A809                    		MOV.L 04H[R0], R1
00000BD0 B991                    		MOVU.W 0CH[R1], R1
00000BD2 75112C                  		MUL #2CH, R1
00000BD5 FBE2rrrrrrrr            		MOV.L #_usb_shstd_StdReqMsg, R14
00000BDB 4B1E                    		ADD R1, R14
00000BDD F9E42580                		MOV.B #80H, 25H[R14]
00000BE1                         L243:	; entry.split11
                                 ;     764 
                                 ;     765     usb_shstd_StdReqMsg[ptr->ip].ipp         = ptr->ipp;
                                 		.LINE  "C:\Workspace\e2studio\git\MT01\r_usb_basic\src\driver\host\r_usb_hmanager.c",765
00000BE1 A809                    		MOV.L 04H[R0], R1
00000BE3 B992                    		MOVU.W 0CH[R1], R2
00000BE5 75122C                  		MUL #2CH, R2
00000BE8 FBE2rrrrrrrr            		MOV.L #_usb_shstd_StdReqMsg, R14
00000BEE 4B2E                    		ADD R2, R14
00000BF0 E51E0202                		MOV.L 08H[R1], 08H[R14]
00000BF4                         L244:	; entry.split12
                                 ;     766     usb_shstd_StdReqMsg[ptr->ip].ip          = ptr->ip;
                                 		.LINE  "C:\Workspace\e2studio\git\MT01\r_usb_basic\src\driver\host\r_usb_hmanager.c",766
00000BF4 A809                    		MOV.L 04H[R0], R1
00000BF6 B991                    		MOVU.W 0CH[R1], R1
00000BF8 EF1E                    		MOV.L R1, R14
00000BFA 751E2C                  		MUL #2CH, R14
00000BFD FB22rrrrrrrr            		MOV.L #_usb_shstd_StdReqMsg, R2
00000C03 4BE2                    		ADD R14, R2
00000C05 91A1                    		MOV.W R1, 0CH[R2]
00000C07                         L245:	; entry.split13
                                 ;     767 
                                 ;     768     usb_hstd_TransferStart(&usb_shstd_StdReqMsg[ptr->ip]);
                                 		.LINE  "C:\Workspace\e2studio\git\MT01\r_usb_basic\src\driver\host\r_usb_hmanager.c",768
00000C07 A809                    		MOV.L 04H[R0], R1
00000C09 B992                    		MOVU.W 0CH[R1], R2
00000C0B 75122C                  		MUL #2CH, R2
00000C0E FB12rrrrrrrr            		MOV.L #_usb_shstd_StdReqMsg, R1
00000C14 4B21                    		ADD R2, R1
00000C16 05rrrrrr             A  		BSR _usb_hstd_TransferStart
00000C1A 6702                    		RTSD #08H
00000C1C                         _usb_hstd_EnumSetConfiguration:
                                 		.STACK	_usb_hstd_EnumSetConfiguration=12
                                 ;     769 }
                                 ;     770 /******************************************************************************
                                 ;     771 End of function usb_hstd_EnumSetAddress
                                 ;     772 ******************************************************************************/
                                 ;     773 
                                 ;     774 /******************************************************************************
                                 ;     775 Function Name   : usb_hstd_EnumSetConfiguration
                                 ;     776 Description     : Send SetConfiguration to the connected USB device.
                                 ;     777 Argument        : uint16_t addr     : Device Address.
                                 ;     778                 : uint16_t confnum  : Configuration number.
                                 ;     779 Return          : none
                                 ;     780 ******************************************************************************/
                                 ;     781 void usb_hstd_EnumSetConfiguration(USB_UTR_t *ptr, uint16_t addr, uint16_t confnum)
                                 		.LINE  "C:\Workspace\e2studio\git\MT01\r_usb_basic\src\driver\host\r_usb_hmanager.c",781
00000C1C 6080                    		SUB #08H, R0
00000C1E A009                    		MOV.L R1, 04H[R0]
00000C20 900A                    		MOV.W R2, 02H[R0]
00000C22 D303                    		MOV.W R3, [R0]
                                 ;     782 {
                                 ;     783     usb_shstd_StdRequest[ptr->ip][0] = USB_SET_CONFIGURATION | USB_HOST_TO_DEV | USB_STANDARD | USB_DEVICE;
                                 		.LINE  "C:\Workspace\e2studio\git\MT01\r_usb_basic\src\driver\host\r_usb_hmanager.c",783
00000C24 A809                    		MOV.L 04H[R0], R1
00000C26 B991                    		MOVU.W 0CH[R1], R1
00000C28 63A1                    		MUL #0AH, R1
00000C2A FBE2rrrrrrrr            		MOV.L #_usb_shstd_StdRequest, R14
00000C30 4B1E                    		ADD R1, R14
00000C32 F8E90009                		MOV.W #0900H, [R14]
00000C36                         L247:	; entry.split
                                 ;     784     usb_shstd_StdRequest[ptr->ip][1] = confnum;
                                 		.LINE  "C:\Workspace\e2studio\git\MT01\r_usb_basic\src\driver\host\r_usb_hmanager.c",784
00000C36 A809                    		MOV.L 04H[R0], R1
00000C38 B991                    		MOVU.W 0CH[R1], R1
00000C3A 63A1                    		MUL #0AH, R1
00000C3C FB22rrrrrrrr            		MOV.L #_usb_shstd_StdRequest, R2
00000C42 4B12                    		ADD R1, R2
00000C44 D40201                  		MOV.W [R0], 02H[R2]
00000C47                         L248:	; entry.split1
                                 ;     785     usb_shstd_StdRequest[ptr->ip][2] = (uint16_t)0x0000;
                                 		.LINE  "C:\Workspace\e2studio\git\MT01\r_usb_basic\src\driver\host\r_usb_hmanager.c",785
00000C47 A809                    		MOV.L 04H[R0], R1
00000C49 B991                    		MOVU.W 0CH[R1], R1
00000C4B 63A1                    		MUL #0AH, R1
00000C4D FB22rrrrrrrr            		MOV.L #_usb_shstd_StdRequest, R2
00000C53 4B12                    		ADD R1, R2
00000C55 3D2200                  		MOV.W #0000H, 04H[R2]
00000C58                         L249:	; entry.split2
                                 ;     786     usb_shstd_StdRequest[ptr->ip][3] = (uint16_t)0x0000;
                                 		.LINE  "C:\Workspace\e2studio\git\MT01\r_usb_basic\src\driver\host\r_usb_hmanager.c",786
00000C58 A809                    		MOV.L 04H[R0], R1
00000C5A B991                    		MOVU.W 0CH[R1], R1
00000C5C 63A1                    		MUL #0AH, R1
00000C5E FB22rrrrrrrr            		MOV.L #_usb_shstd_StdRequest, R2
00000C64 4B12                    		ADD R1, R2
00000C66 3D2300                  		MOV.W #0000H, 06H[R2]
00000C69                         L250:	; entry.split3
                                 ;     787     usb_shstd_StdRequest[ptr->ip][4] = addr;
                                 		.LINE  "C:\Workspace\e2studio\git\MT01\r_usb_basic\src\driver\host\r_usb_hmanager.c",787
00000C69 A809                    		MOV.L 04H[R0], R1
00000C6B B991                    		MOVU.W 0CH[R1], R1
00000C6D 63A1                    		MUL #0AH, R1
00000C6F FB22rrrrrrrr            		MOV.L #_usb_shstd_StdRequest, R2
00000C75 4B12                    		ADD R1, R2
00000C77 D5020104                		MOV.W 02H[R0], 08H[R2]
00000C7B                         L251:	; entry.split4
                                 ;     788     usb_shstd_StdReqMsg[ptr->ip].keyword     = (uint16_t)USB_PIPE0;
                                 		.LINE  "C:\Workspace\e2studio\git\MT01\r_usb_basic\src\driver\host\r_usb_hmanager.c",788
00000C7B A809                    		MOV.L 04H[R0], R1
00000C7D B991                    		MOVU.W 0CH[R1], R1
00000C7F 75112C                  		MUL #2CH, R1
00000C82 FB22rrrrrrrr            		MOV.L #_usb_shstd_StdReqMsg, R2
00000C88 4B12                    		ADD R1, R2
00000C8A 3D2300                  		MOV.W #0000H, 06H[R2]
00000C8D                         L252:	; entry.split5
                                 ;     789     usb_shstd_StdReqMsg[ptr->ip].tranadr     = (void *)&usb_shstd_DummyData;
                                 		.LINE  "C:\Workspace\e2studio\git\MT01\r_usb_basic\src\driver\host\r_usb_hmanager.c",789
00000C8D A809                    		MOV.L 04H[R0], R1
00000C8F B991                    		MOVU.W 0CH[R1], R1
00000C91 75112C                  		MUL #2CH, R1
00000C94 FB22rrrrrrrr            		MOV.L #_usb_shstd_StdReqMsg, R2
00000C9A 4B12                    		ADD R1, R2
00000C9C FB12rrrrrrrr            		MOV.L #__$usb_shstd_DummyData, R1
00000CA2 A129                    		MOV.L R1, 14H[R2]
00000CA4                         L253:	; entry.split6
                                 ;     790     usb_shstd_StdReqMsg[ptr->ip].tranlen     = (uint32_t)usb_shstd_StdRequest[ptr->ip][3];
                                 		.LINE  "C:\Workspace\e2studio\git\MT01\r_usb_basic\src\driver\host\r_usb_hmanager.c",790
00000CA4 A809                    		MOV.L 04H[R0], R1
00000CA6 B991                    		MOVU.W 0CH[R1], R1
00000CA8 EF1E                    		MOV.L R1, R14
00000CAA 751E2C                  		MUL #2CH, R14
00000CAD FB22rrrrrrrr            		MOV.L #_usb_shstd_StdReqMsg, R2
00000CB3 4BE2                    		ADD R14, R2
00000CB5 63A1                    		MUL #0AH, R1
00000CB7 FB32rrrrrrrr            		MOV.L #_usb_shstd_StdRequest, R3
00000CBD 4B13                    		ADD R1, R3
00000CBF B8B9                    		MOVU.W 06H[R3], R1
00000CC1 A1A1                    		MOV.L R1, 18H[R2]
00000CC3                         L254:	; entry.split7
                                 ;     791     usb_shstd_StdReqMsg[ptr->ip].setup       = usb_shstd_StdRequest[ptr->ip];
                                 		.LINE  "C:\Workspace\e2studio\git\MT01\r_usb_basic\src\driver\host\r_usb_hmanager.c",791
00000CC3 A809                    		MOV.L 04H[R0], R1
00000CC5 B991                    		MOVU.W 0CH[R1], R1
00000CC7 EF1E                    		MOV.L R1, R14
00000CC9 751E2C                  		MUL #2CH, R14
00000CCC FB22rrrrrrrr            		MOV.L #_usb_shstd_StdReqMsg, R2
00000CD2 4BE2                    		ADD R14, R2
00000CD4 63A1                    		MUL #0AH, R1
00000CD6 FB32rrrrrrrr            		MOV.L #_usb_shstd_StdRequest, R3
00000CDC 4B13                    		ADD R1, R3
00000CDE A1AB                    		MOV.L R3, 1CH[R2]
00000CE0                         L255:	; entry.split8
                                 ;     792     usb_shstd_StdReqMsg[ptr->ip].status      = USB_DATA_NONE;
                                 		.LINE  "C:\Workspace\e2studio\git\MT01\r_usb_basic\src\driver\host\r_usb_hmanager.c",792
00000CE0 A809                    		MOV.L 04H[R0], R1
00000CE2 B991                    		MOVU.W 0CH[R1], R1
00000CE4 75112C                  		MUL #2CH, R1
00000CE7 FB22rrrrrrrr            		MOV.L #_usb_shstd_StdReqMsg, R2
00000CED 4B12                    		ADD R1, R2
00000CEF 3DA001                  		MOV.W #0001H, 20H[R2]
00000CF2                         L256:	; entry.split9
                                 ;     793     usb_shstd_StdReqMsg[ptr->ip].complete    = (USB_CB_t)&usb_hstd_SubmitResult;
                                 		.LINE  "C:\Workspace\e2studio\git\MT01\r_usb_basic\src\driver\host\r_usb_hmanager.c",793
00000CF2 A809                    		MOV.L 04H[R0], R1
00000CF4 B991                    		MOVU.W 0CH[R1], R1
00000CF6 75112C                  		MUL #2CH, R1
00000CF9 FB22rrrrrrrr            		MOV.L #_usb_shstd_StdReqMsg, R2
00000CFF 4B12                    		ADD R1, R2
00000D01 FB12rrrrrrrr            		MOV.L #_usb_hstd_SubmitResult, R1
00000D07 A121                    		MOV.L R1, 10H[R2]
00000D09                         L257:	; entry.split10
                                 ;     794     usb_shstd_StdReqMsg[ptr->ip].segment     = USB_TRAN_END;
                                 		.LINE  "C:\Workspace\e2studio\git\MT01\r_usb_basic\src\driver\host\r_usb_hmanager.c",794
00000D09 A809                    		MOV.L 04H[R0], R1
00000D0B B991                    		MOVU.W 0CH[R1], R1
00000D0D 75112C                  		MUL #2CH, R1
00000D10 FBE2rrrrrrrr            		MOV.L #_usb_shstd_StdReqMsg, R14
00000D16 4B1E                    		ADD R1, R14
00000D18 F9E42580                		MOV.B #80H, 25H[R14]
00000D1C                         L258:	; entry.split11
                                 ;     795 
                                 ;     796     usb_shstd_StdReqMsg[ptr->ip].ipp         = ptr->ipp;
                                 		.LINE  "C:\Workspace\e2studio\git\MT01\r_usb_basic\src\driver\host\r_usb_hmanager.c",796
00000D1C A809                    		MOV.L 04H[R0], R1
00000D1E B992                    		MOVU.W 0CH[R1], R2
00000D20 75122C                  		MUL #2CH, R2
00000D23 FBE2rrrrrrrr            		MOV.L #_usb_shstd_StdReqMsg, R14
00000D29 4B2E                    		ADD R2, R14
00000D2B E51E0202                		MOV.L 08H[R1], 08H[R14]
00000D2F                         L259:	; entry.split12
                                 ;     797     usb_shstd_StdReqMsg[ptr->ip].ip          = ptr->ip;
                                 		.LINE  "C:\Workspace\e2studio\git\MT01\r_usb_basic\src\driver\host\r_usb_hmanager.c",797
00000D2F A809                    		MOV.L 04H[R0], R1
00000D31 B991                    		MOVU.W 0CH[R1], R1
00000D33 EF1E                    		MOV.L R1, R14
00000D35 751E2C                  		MUL #2CH, R14
00000D38 FB22rrrrrrrr            		MOV.L #_usb_shstd_StdReqMsg, R2
00000D3E 4BE2                    		ADD R14, R2
00000D40 91A1                    		MOV.W R1, 0CH[R2]
00000D42                         L260:	; entry.split13
                                 ;     798 
                                 ;     799     usb_hstd_TransferStart(&usb_shstd_StdReqMsg[ptr->ip]);
                                 		.LINE  "C:\Workspace\e2studio\git\MT01\r_usb_basic\src\driver\host\r_usb_hmanager.c",799
00000D42 A809                    		MOV.L 04H[R0], R1
00000D44 B992                    		MOVU.W 0CH[R1], R2
00000D46 75122C                  		MUL #2CH, R2
00000D49 FB12rrrrrrrr            		MOV.L #_usb_shstd_StdReqMsg, R1
00000D4F 4B21                    		ADD R2, R1
00000D51 05rrrrrr             A  		BSR _usb_hstd_TransferStart
00000D55 6702                    		RTSD #08H
00000D57                         _usb_hstd_EnumDummyRequest:
                                 		.STACK	_usb_hstd_EnumDummyRequest=12
                                 ;     800 }
                                 ;     801 /******************************************************************************
                                 ;     802 End of function usb_hstd_EnumSetConfiguration
                                 ;     803 ******************************************************************************/
                                 ;     804 
                                 ;     805 /******************************************************************************
                                 ;     806 Function Name   : usb_hstd_EnumDummyRequest
                                 ;     807 Description     : Dummy function.
                                 ;     808 Argument        : uint16_t addr             : Device Address
                                 ;     809                 : uint16_t cnt_value        : Enumeration Sequence
                                 ;     810 Return          : none
                                 ;     811 ******************************************************************************/
                                 ;     812 void usb_hstd_EnumDummyRequest(USB_UTR_t *ptr, uint16_t addr, uint16_t cnt_value)
                                 		.LINE  "C:\Workspace\e2studio\git\MT01\r_usb_basic\src\driver\host\r_usb_hmanager.c",812
00000D57 6080                    		SUB #08H, R0
00000D59 A009                    		MOV.L R1, 04H[R0]
00000D5B 900A                    		MOV.W R2, 02H[R0]
00000D5D D303                    		MOV.W R3, [R0]
                                 		.LINE  "C:\Workspace\e2studio\git\MT01\r_usb_basic\src\driver\host\r_usb_hmanager.c",814
00000D5F 6702                    		RTSD #08H
00000D61                         _usb_hstd_MgrSuspend:
                                 		.STACK	_usb_hstd_MgrSuspend=20
                                 ;     813 {
                                 ;     814 }
                                 ;     815 /******************************************************************************
                                 ;     816 End of function usb_hstd_EnumDummyRequest
                                 ;     817 ******************************************************************************/
                                 ;     818 
                                 ;     819 /******************************************************************************
                                 ;     820 Function Name   : usb_hstd_MgrSuspend
                                 ;     821 Description     : Suspend request
                                 ;     822 Argument        : uint16_t info     : Info for release of memory block.
                                 ;     823 Return          : none
                                 ;     824 ******************************************************************************/
                                 ;     825 void usb_hstd_MgrSuspend(USB_UTR_t *ptr, uint16_t info)
                                 		.LINE  "C:\Workspace\e2studio\git\MT01\r_usb_basic\src\driver\host\r_usb_hmanager.c",825
00000D61 7100F0                  		ADD #0FFFFFFF0H, R0
00000D64 A089                    		MOV.L R1, 0CH[R0]
00000D66 910A                    		MOV.W R2, 0AH[R0]
                                 ;     826 {
                                 ;     827     uint16_t        rootport, devaddr, devsel;
                                 ;     828     uint16_t        j;
                                 ;     829 
                                 ;     830     devaddr     = usb_shstd_MgrMsg[ptr->ip]->keyword;
                                 		.LINE  "C:\Workspace\e2studio\git\MT01\r_usb_basic\src\driver\host\r_usb_hmanager.c",830
00000D68 A889                    		MOV.L 0CH[R0], R1
00000D6A B991                    		MOVU.W 0CH[R1], R1
00000D6C FBE2rrrrrrrr            		MOV.L #__$usb_shstd_MgrMsg, R14
00000D72 FE61E1                  		MOV.L [R1,R14], R1
00000D75 D5100302                		MOV.W 06H[R1], 04H[R0]
00000D79                         L263:	; entry.split
                                 ;     831     devsel      = (uint16_t)(devaddr << USB_DEVADDRBIT);
                                 		.LINE  "C:\Workspace\e2studio\git\MT01\r_usb_basic\src\driver\host\r_usb_hmanager.c",831
00000D79 9881                    		MOV.W 04H[R0], R1
00000D7B 6CC1                    		SHLL #0CH, R1
00000D7D 9089                    		MOV.W R1, 06H[R0]
00000D7F                         L264:	; entry.split1
                                 ;     832     /* Get root port number from device addr */
                                 ;     833     rootport    = usb_hstd_GetRootport(ptr, devsel);
                                 		.LINE  "C:\Workspace\e2studio\git\MT01\r_usb_basic\src\driver\host\r_usb_hmanager.c",833
00000D7F B88A                    		MOVU.W 06H[R0], R2
00000D81 A889                    		MOV.L 0CH[R0], R1
00000D83 05rrrrrr             A  		BSR _usb_hstd_GetRootport
00000D87 9009                    		MOV.W R1, 02H[R0]
00000D89                         L265:	; entry.split2
                                 ;     834 
                                 ;     835     if( usb_hstd_ChkDevAddr(ptr, devsel, rootport) != USB_NOCONNECT )
                                 		.LINE  "C:\Workspace\e2studio\git\MT01\r_usb_basic\src\driver\host\r_usb_hmanager.c",835
00000D89 B80B                    		MOVU.W 02H[R0], R3
00000D8B B88A                    		MOVU.W 06H[R0], R2
00000D8D A889                    		MOV.L 0CH[R0], R1
00000D8F 05rrrrrr             A  		BSR _usb_hstd_ChkDevAddr
00000D93 6101                    		CMP #00H, R1
00000D95 20rr                    		BEQ L276
00000D97                         L266:	; bb21
                                 ;     836     {
                                 ;     837         /* PIPE suspend */
                                 ;     838         for( j = USB_MIN_PIPE_NO; j <= USB_MAX_PIPE_NO; j++ )
                                 		.LINE  "C:\Workspace\e2studio\git\MT01\r_usb_basic\src\driver\host\r_usb_hmanager.c",838
00000D97 3D0401                  		MOV.W #0001H, 08H[R0]
00000D9A 2Err                 B  		BRA L272
00000D9C                         L267:	; bb23
                                 ;     839         {
                                 ;     840             /* Agreement device address */
                                 ;     841             if( usb_cstd_GetDevsel(ptr, j) == devsel )
                                 		.LINE  "C:\Workspace\e2studio\git\MT01\r_usb_basic\src\driver\host\r_usb_hmanager.c",841
00000D9C B902                    		MOVU.W 08H[R0], R2
00000D9E 05rrrrrr             A  		BSR _usb_cstd_GetDevsel
00000DA2 06C50103                		CMP 06H[R0].UW, R1
00000DA6 21rr                    		BNE L271
00000DA8                         L268:	; bb25
                                 ;     842             {
                                 ;     843                 /* PID=BUF ? */
                                 ;     844                 if( usb_cstd_GetPid(ptr, j) == USB_PID_BUF )
                                 		.LINE  "C:\Workspace\e2studio\git\MT01\r_usb_basic\src\driver\host\r_usb_hmanager.c",844
00000DA8 B902                    		MOVU.W 08H[R0], R2
00000DAA A889                    		MOV.L 0CH[R0], R1
00000DAC 05rrrrrr             A  		BSR _usb_cstd_GetPid
00000DB0 6111                    		CMP #01H, R1
00000DB2 21rr                    		BNE L271
00000DB4                         L269:	; bb26
                                 ;     845                 {
                                 ;     846                     usb_cstd_SetNak(ptr, j);
                                 		.LINE  "C:\Workspace\e2studio\git\MT01\r_usb_basic\src\driver\host\r_usb_hmanager.c",846
00000DB4 B902                    		MOVU.W 08H[R0], R2
00000DB6 A889                    		MOV.L 0CH[R0], R1
00000DB8 05rrrrrr             A  		BSR _usb_cstd_SetNak
00000DBC                         L270:	; bb26.split
                                 ;     847                     usb_ghstd_SuspendPipe[ptr->ip][j] = USB_SUSPENDED;
                                 		.LINE  "C:\Workspace\e2studio\git\MT01\r_usb_basic\src\driver\host\r_usb_hmanager.c",847
00000DBC A889                    		MOV.L 0CH[R0], R1
00000DBE B991                    		MOVU.W 0CH[R1], R1
00000DC0 751114                  		MUL #14H, R1
00000DC3 FBE2rrrrrrrr            		MOV.L #_usb_ghstd_SuspendPipe, R14
00000DC9 4B1E                    		ADD R1, R14
00000DCB 754F50                  		MOV.L #00000050H, R15
00000DCE B901                    		MOVU.W 08H[R0], R1
00000DD0 FE11EF                  		MOV.W R15, [R1,R14]
00000DD3                         L271:	; bb54
00000DD3 9901                    		MOV.W 08H[R0], R1
00000DD5 6211                    		ADD #01H, R1
00000DD7 9101                    		MOV.W R1, 08H[R0]
00000DD9                         L272:	; bb57
                                 		.LINE  "C:\Workspace\e2studio\git\MT01\r_usb_basic\src\driver\host\r_usb_hmanager.c",838
00000DD9 B901                    		MOVU.W 08H[R0], R1
00000DDB 61A1                    		CMP #0AH, R1
00000DDD A889                    		MOV.L 0CH[R0], R1
00000DDF 23rr                    		BLTU L267
00000DE1                         L273:	; bb63
                                 ;     848                 }
                                 ;     849             }
                                 ;     850         }
                                 ;     851         usb_shstd_SuspendSeq[ptr->ip]=0;
                                 		.LINE  "C:\Workspace\e2studio\git\MT01\r_usb_basic\src\driver\host\r_usb_hmanager.c",851
00000DE1 B991                    		MOVU.W 0CH[R1], R1
00000DE3 FBE2rrrrrrrr            		MOV.L #__$usb_shstd_SuspendSeq, R14
00000DE9 660F                    		MOV.L #00000000H, R15
00000DEB FE11EF                  		MOV.W R15, [R1,R14]
00000DEE                         L274:	; bb63.split
                                 ;     852         usb_hstd_SuspCont(ptr, (uint16_t)devaddr, (uint16_t)rootport);
                                 		.LINE  "C:\Workspace\e2studio\git\MT01\r_usb_basic\src\driver\host\r_usb_hmanager.c",852
00000DEE B80B                    		MOVU.W 02H[R0], R3
00000DF0 B882                    		MOVU.W 04H[R0], R2
00000DF2 A889                    		MOV.L 0CH[R0], R1
00000DF4 39rrrr               W  		BSR __$usb_hstd_SuspCont
00000DF7                         L275:	; bb63.split3
                                 ;     853         usb_ghstd_MgrMode[ptr->ip][rootport] = USB_SUSPENDED_PROCESS;
                                 		.LINE  "C:\Workspace\e2studio\git\MT01\r_usb_basic\src\driver\host\r_usb_hmanager.c",853
00000DF7 A889                    		MOV.L 0CH[R0], R1
00000DF9 B991                    		MOVU.W 0CH[R1], R1
00000DFB 6C21                    		SHLL #02H, R1
00000DFD FBE2rrrrrrrr            		MOV.L #_usb_ghstd_MgrMode, R14
00000E03 4B1E                    		ADD R1, R14
00000E05 754F66                  		MOV.L #00000066H, R15
00000E08 B809                    		MOVU.W 02H[R0], R1
00000E0A FE11EF                  		MOV.W R15, [R1,R14]
00000E0D                         L276:	; bb89
                                 ;     854     }
                                 ;     855     usb_hstd_MgrRelMpl(ptr,info);
                                 		.LINE  "C:\Workspace\e2studio\git\MT01\r_usb_basic\src\driver\host\r_usb_hmanager.c",855
00000E0D B90A                    		MOVU.W 0AH[R0], R2
00000E0F A889                    		MOV.L 0CH[R0], R1
00000E11 39rrrr               W  		BSR _usb_hstd_MgrRelMpl
00000E14 6704                    		RTSD #10H
00000E16                         _usb_hstd_DeviceStateControl:
                                 		.STACK	_usb_hstd_DeviceStateControl=12
                                 ;     856 }
                                 ;     857 /******************************************************************************
                                 ;     858 End of function usb_hstd_MgrSuspend
                                 ;     859 ******************************************************************************/
                                 ;     860 
                                 ;     861 /******************************************************************************
                                 ;     862 Function Name   : usb_hstd_DeviceStateControl
                                 ;     863 Description     : Setup a call to the function usb_hstd_ChangeDeviceState to re-
                                 ;     864                 : quest the connected USB Device to change status.
                                 ;     865 Arguments       : USB_UTR_t *ptr : USB system internal structure.
                                 ;     866                 : uint16_t devaddr      : Device address.
                                 ;     867                 : uint16_t msginfo      : Request type.
                                 ;     868 Return          : none
                                 ;     869 ******************************************************************************/
                                 ;     870 void usb_hstd_DeviceStateControl(USB_UTR_t *ptr, uint16_t devaddr, uint16_t msginfo)
                                 		.LINE  "C:\Workspace\e2studio\git\MT01\r_usb_basic\src\driver\host\r_usb_hmanager.c",870
00000E16 6080                    		SUB #08H, R0
00000E18 A009                    		MOV.L R1, 04H[R0]
00000E1A 900A                    		MOV.W R2, 02H[R0]
00000E1C D303                    		MOV.W R3, [R0]
                                 ;     871 {
                                 ;     872     switch( devaddr )
                                 		.LINE  "C:\Workspace\e2studio\git\MT01\r_usb_basic\src\driver\host\r_usb_hmanager.c",872
00000E1E B809                    		MOVU.W 02H[R0], R1
00000E20 6101                    		CMP #00H, R1
00000E22 20rr                    		BEQ L281
00000E24                         L278:	; entry
00000E24 6111                    		CMP #01H, R1
00000E26 21rr                    		BNE L280
00000E28                         L279:	; bb5
                                 ;     873     {
                                 ;     874     case 0:
                                 ;     875         USB_PRINTF0("### usbd_message device address error\n");
                                 ;     876         break;
                                 ;     877     case USB_DEVICEADDR:
                                 ;     878         usb_hstd_ChangeDeviceState(ptr, &usb_hstd_StatusResult, msginfo, (uint16_t)USB_PORT0);
                                 		.LINE  "C:\Workspace\e2studio\git\MT01\r_usb_basic\src\driver\host\r_usb_hmanager.c",878
00000E28 5C03                    		MOVU.W [R0], R3
00000E2A A809                    		MOV.L 04H[R0], R1
00000E2C 6604                    		MOV.L #00000000H, R4
00000E2E FB22rrrrrrrr            		MOV.L #_usb_hstd_StatusResult, R2
00000E34 05rrrrrr             A  		BSR _usb_hstd_ChangeDeviceState
00000E38 6702                    		RTSD #08H
00000E3A                         L280:	; bb10
                                 ;     879         break;
                                 ;     880 /* Condition compilation by the difference of the devices */
                                 ;     881 #if USB_PORTSEL_PP == USB_2PORT_PP
                                 ;     882     case (USB_DEVICEADDR + 1u):
                                 ;     883         usb_hstd_ChangeDeviceState(ptr, &usb_hstd_StatusResult, msginfo, (uint16_t)USB_PORT1);
                                 ;     884         break;
                                 ;     885 #endif  /* USB_PORTSEL_PP == USB_2PORT_PP */
                                 ;     886     default:
                                 ;     887         if( USB_HUBDPADDR <= devaddr )
                                 		.LINE  "C:\Workspace\e2studio\git\MT01\r_usb_basic\src\driver\host\r_usb_hmanager.c",887
00000E3A 6702                    		RTSD #08H
00000E3C                         L281:	; return
                                 ;     888         {
                                 ;     889         }
                                 ;     890         break;
                                 ;     891     }
                                 ;     892 }
                                 		.LINE  "C:\Workspace\e2studio\git\MT01\r_usb_basic\src\driver\host\r_usb_hmanager.c",892
00000E3C 6702                    		RTSD #08H
00000E3E                         _usb_hstd_DeviceStateControl2:
                                 		.STACK	_usb_hstd_DeviceStateControl2=20
                                 ;     893 /******************************************************************************
                                 ;     894 End of function usb_hstd_DeviceStateControl
                                 ;     895 ******************************************************************************/
                                 ;     896 
                                 ;     897 /******************************************************************************
                                 ;     898 Function Name   : usb_hstd_DeviceStateControl2
                                 ;     899 Description     : Setup a call to the function usb_hstd_ChangeDeviceState to re-
                                 ;     900                 : quest the connected USB Device to change status.
                                 ;     901 Arguments       : USB_UTR_t *ptr : USB system internal structure.
                                 ;     902                 : USB_CB_t complete         : Callback function Pointer
                                 ;     903                 : uint16_t devaddr          : Device address
                                 ;     904                 : uint16_t msginfo          : Request type for HCD
                                 ;     905                 : uint16_t mgr_msginfo      : Request type for MGR
                                 ;     906 Return          : none
                                 ;     907 ******************************************************************************/
                                 ;     908 void usb_hstd_DeviceStateControl2(  USB_UTR_t *ptr, USB_CB_t complete, 
                                 		.LINE  "C:\Workspace\e2studio\git\MT01\r_usb_basic\src\driver\host\r_usb_hmanager.c",908
00000E3E 7100F0                  		ADD #0FFFFFFF0H, R0
00000E41 A089                    		MOV.L R1, 0CH[R0]
00000E43 A082                    		MOV.L R2, 08H[R0]
00000E45 908B                    		MOV.W R3, 06H[R0]
00000E47 9084                    		MOV.W R4, 04H[R0]
00000E49 D5000A01                		MOV.W 14H[R0], 02H[R0]
                                 ;     909                                     uint16_t devaddr, uint16_t msginfo,
                                 ;     910                                     uint16_t mgr_msginfo)
                                 ;     911 {
                                 ;     912     usb_shstd_mgr_callback[ptr->ip] = complete;
                                 		.LINE  "C:\Workspace\e2studio\git\MT01\r_usb_basic\src\driver\host\r_usb_hmanager.c",912
00000E4D A889                    		MOV.L 0CH[R0], R1
00000E4F B991                    		MOVU.W 0CH[R1], R1
00000E51 FBE2rrrrrrrr            		MOV.L #__$usb_shstd_mgr_callback, R14
00000E57 A882                    		MOV.L 08H[R0], R2
00000E59 FE21E2                  		MOV.L R2, [R1,R14]
00000E5C                         L283:	; entry.split
                                 ;     913     usb_shstd_mgr_msginfo[ptr->ip] = mgr_msginfo;
                                 		.LINE  "C:\Workspace\e2studio\git\MT01\r_usb_basic\src\driver\host\r_usb_hmanager.c",913
00000E5C A889                    		MOV.L 0CH[R0], R1
00000E5E B991                    		MOVU.W 0CH[R1], R1
00000E60 FBE2rrrrrrrr            		MOV.L #__$usb_shstd_mgr_msginfo, R14
00000E66 980A                    		MOV.W 02H[R0], R2
00000E68 FE11E2                  		MOV.W R2, [R1,R14]
00000E6B                         L284:	; entry.split1
                                 ;     914     usb_hstd_DeviceStateControl(ptr, devaddr, msginfo);
                                 		.LINE  "C:\Workspace\e2studio\git\MT01\r_usb_basic\src\driver\host\r_usb_hmanager.c",914
00000E6B B883                    		MOVU.W 04H[R0], R3
00000E6D B88A                    		MOVU.W 06H[R0], R2
00000E6F A889                    		MOV.L 0CH[R0], R1
00000E71 39rrrr               W  		BSR _usb_hstd_DeviceStateControl
00000E74 6704                    		RTSD #10H
00000E76                         _usb_hstd_MgrReset:
                                 		.STACK	_usb_hstd_MgrReset=12
                                 ;     915 }
                                 ;     916 /******************************************************************************
                                 ;     917 End of function usb_hstd_DeviceStateControl2
                                 ;     918 ******************************************************************************/
                                 ;     919 
                                 ;     920 /******************************************************************************
                                 ;     921 Function Name   : usb_hstd_MgrReset
                                 ;     922 Description     : Request HCD (Host Control Driver) to do a USB bus reset.
                                 ;     923 Argument        : uint16_t devaddr      : Device address.
                                 ;     924 Return          : none
                                 ;     925 ******************************************************************************/
                                 ;     926 void usb_hstd_MgrReset(USB_UTR_t *ptr, uint16_t addr)
                                 		.LINE  "C:\Workspace\e2studio\git\MT01\r_usb_basic\src\driver\host\r_usb_hmanager.c",926
00000E76 6080                    		SUB #08H, R0
00000E78 A009                    		MOV.L R1, 04H[R0]
00000E7A 900A                    		MOV.W R2, 02H[R0]
                                 ;     927 {
                                 ;     928     usb_hstd_DeviceStateControl(ptr, addr, (uint16_t)USB_MSG_HCD_USBRESET);
                                 		.LINE  "C:\Workspace\e2studio\git\MT01\r_usb_basic\src\driver\host\r_usb_hmanager.c",928
00000E7C B80A                    		MOVU.W 02H[R0], R2
00000E7E A809                    		MOV.L 04H[R0], R1
00000E80 FB3A0301                		MOV.L #00000103H, R3
00000E84 39rrrr               W  		BSR _usb_hstd_DeviceStateControl
00000E87                         L286:	; entry.split
                                 ;     929     if( addr == USB_DEVICEADDR )
                                 		.LINE  "C:\Workspace\e2studio\git\MT01\r_usb_basic\src\driver\host\r_usb_hmanager.c",929
00000E87 B809                    		MOVU.W 02H[R0], R1
00000E89 6111                    		CMP #01H, R1
00000E8B 21rr                    		BNE L288
00000E8D                         L287:	; bb4
                                 ;     930     {
                                 ;     931         usb_ghstd_MgrMode[ptr->ip][USB_PORT0] = USB_DEFAULT;
                                 		.LINE  "C:\Workspace\e2studio\git\MT01\r_usb_basic\src\driver\host\r_usb_hmanager.c",931
00000E8D A809                    		MOV.L 04H[R0], R1
00000E8F B991                    		MOVU.W 0CH[R1], R1
00000E91 6C21                    		SHLL #02H, R1
00000E93 FBE2rrrrrrrr            		MOV.L #_usb_ghstd_MgrMode, R14
00000E99 4B1E                    		ADD R1, R14
00000E9B F8E528                  		MOV.W #0028H, [R14]
00000E9E 6702                    		RTSD #08H
00000EA0                         L288:	; return
                                 ;     932     }
                                 ;     933 /* Condition compilation by the difference of the devices */
                                 ;     934 #if USB_PORTSEL_PP == USB_2PORT_PP
                                 ;     935     else if( addr == (USB_DEVICEADDR + 1u) )
                                 ;     936     {
                                 ;     937         usb_ghstd_MgrMode[ptr->ip][USB_PORT1] = USB_DEFAULT;
                                 ;     938     }
                                 ;     939 #endif  /* USB_PORTSEL_PP == USB_2PORT_PP */
                                 ;     940     else
                                 ;     941     {
                                 ;     942     }
                                 ;     943 }
                                 		.LINE  "C:\Workspace\e2studio\git\MT01\r_usb_basic\src\driver\host\r_usb_hmanager.c",943
00000EA0 6702                    		RTSD #08H
00000EA2                         _usb_hstd_MgrResume:
                                 		.STACK	_usb_hstd_MgrResume=16
                                 ;     944 /******************************************************************************
                                 ;     945 End of function usb_hstd_MgrReset
                                 ;     946 ******************************************************************************/
                                 ;     947 
                                 ;     948 /******************************************************************************
                                 ;     949 Function Name   : usb_hstd_MgrResume
                                 ;     950 Description     : Request HCD (Host Control Device) to send RESUME signal.
                                 ;     951 Argument        : uint16_t info : Information.
                                 ;     952 Return          : none
                                 ;     953 ******************************************************************************/
                                 ;     954 void usb_hstd_MgrResume(USB_UTR_t *ptr, uint16_t info)
                                 		.LINE  "C:\Workspace\e2studio\git\MT01\r_usb_basic\src\driver\host\r_usb_hmanager.c",954
00000EA2 60C0                    		SUB #0CH, R0
00000EA4 A081                    		MOV.L R1, 08H[R0]
00000EA6 908A                    		MOV.W R2, 06H[R0]
                                 ;     955 {
                                 ;     956     uint16_t        rootport, devaddr, devsel;
                                 ;     957 
                                 ;     958     devaddr     = usb_shstd_MgrMsg[ptr->ip]->keyword;
                                 		.LINE  "C:\Workspace\e2studio\git\MT01\r_usb_basic\src\driver\host\r_usb_hmanager.c",958
00000EA8 A881                    		MOV.L 08H[R0], R1
00000EAA B991                    		MOVU.W 0CH[R1], R1
00000EAC FBE2rrrrrrrr            		MOV.L #__$usb_shstd_MgrMsg, R14
00000EB2 FE61E1                  		MOV.L [R1,R14], R1
00000EB5 D5100301                		MOV.W 06H[R1], 02H[R0]
00000EB9                         L290:	; entry.split
                                 ;     959     devsel      = (uint16_t)(devaddr << USB_DEVADDRBIT);
                                 		.LINE  "C:\Workspace\e2studio\git\MT01\r_usb_basic\src\driver\host\r_usb_hmanager.c",959
00000EB9 9809                    		MOV.W 02H[R0], R1
00000EBB 6CC1                    		SHLL #0CH, R1
00000EBD 9081                    		MOV.W R1, 04H[R0]
00000EBF                         L291:	; entry.split1
                                 ;     960     /* Get root port number from device addr */
                                 ;     961     rootport    = usb_hstd_GetRootport(ptr, devsel);
                                 		.LINE  "C:\Workspace\e2studio\git\MT01\r_usb_basic\src\driver\host\r_usb_hmanager.c",961
00000EBF B882                    		MOVU.W 04H[R0], R2
00000EC1 A881                    		MOV.L 08H[R0], R1
00000EC3 05rrrrrr             A  		BSR _usb_hstd_GetRootport
00000EC7 D301                    		MOV.W R1, [R0]
00000EC9                         L292:	; entry.split2
                                 ;     962     if( usb_hstd_ChkDevAddr(ptr, devsel, rootport) != USB_NOCONNECT )
                                 		.LINE  "C:\Workspace\e2studio\git\MT01\r_usb_basic\src\driver\host\r_usb_hmanager.c",962
00000EC9 5C03                    		MOVU.W [R0], R3
00000ECB B882                    		MOVU.W 04H[R0], R2
00000ECD A881                    		MOV.L 08H[R0], R1
00000ECF 05rrrrrr             A  		BSR _usb_hstd_ChkDevAddr
00000ED3 6101                    		CMP #00H, R1
00000ED5 20rr                    		BEQ L296
00000ED7                         L293:	; bb20
                                 ;     963     {
                                 ;     964         /* Device resume */
                                 ;     965         usb_hstd_DeviceStateControl(ptr, devaddr, usb_shstd_MgrMsg[ptr->ip]->msginfo);
                                 		.LINE  "C:\Workspace\e2studio\git\MT01\r_usb_basic\src\driver\host\r_usb_hmanager.c",965
00000ED7 A881                    		MOV.L 08H[R0], R1
00000ED9 B992                    		MOVU.W 0CH[R1], R2
00000EDB FBE2rrrrrrrr            		MOV.L #__$usb_shstd_MgrMsg, R14
00000EE1 FE62E2                  		MOV.L [R2,R14], R2
00000EE4 B8A3                    		MOVU.W 04H[R2], R3
00000EE6 B80A                    		MOVU.W 02H[R0], R2
00000EE8 39rrrr               W  		BSR _usb_hstd_DeviceStateControl
00000EEB                         L294:	; bb20.split
                                 ;     966         usb_ghstd_MgrMode[ptr->ip][rootport] = USB_RESUME_PROCESS;
                                 		.LINE  "C:\Workspace\e2studio\git\MT01\r_usb_basic\src\driver\host\r_usb_hmanager.c",966
00000EEB A881                    		MOV.L 08H[R0], R1
00000EED B991                    		MOVU.W 0CH[R1], R1
00000EEF 6C21                    		SHLL #02H, R1
00000EF1 FBE2rrrrrrrr            		MOV.L #_usb_ghstd_MgrMode, R14
00000EF7 4B1E                    		ADD R1, R14
00000EF9 754F67                  		MOV.L #00000067H, R15
00000EFC 5C01                    		MOVU.W [R0], R1
00000EFE FE11EF                  		MOV.W R15, [R1,R14]
00000F01                         L295:	; bb20.split3
                                 ;     967         usb_shstd_ResumeSeq[ptr->ip] = 0;
                                 		.LINE  "C:\Workspace\e2studio\git\MT01\r_usb_basic\src\driver\host\r_usb_hmanager.c",967
00000F01 A881                    		MOV.L 08H[R0], R1
00000F03 B991                    		MOVU.W 0CH[R1], R1
00000F05 FBE2rrrrrrrr            		MOV.L #__$usb_shstd_ResumeSeq, R14
00000F0B 660F                    		MOV.L #00000000H, R15
00000F0D FE11EF                  		MOV.W R15, [R1,R14]
00000F10                         L296:	; bb52
                                 ;     968     }
                                 ;     969     usb_hstd_MgrRelMpl(ptr,info);
                                 		.LINE  "C:\Workspace\e2studio\git\MT01\r_usb_basic\src\driver\host\r_usb_hmanager.c",969
00000F10 B88A                    		MOVU.W 06H[R0], R2
00000F12 A881                    		MOV.L 08H[R0], R1
00000F14 39rrrr               W  		BSR _usb_hstd_MgrRelMpl
00000F17 6703                    		RTSD #0CH
00000F19                         __$usb_hstd_SuspCont:
                                 		.STACK	__$usb_hstd_SuspCont=16
                                 ;     970 }
                                 ;     971 /******************************************************************************
                                 ;     972 End of function usb_hstd_MgrResume
                                 ;     973 ******************************************************************************/
                                 ;     974 
                                 ;     975 /******************************************************************************
                                 ;     976 Function Name   : usb_hstd_SuspCont
                                 ;     977 Description     : Suspend the connected USB Device (Function for nonOS)
                                 ;     978 Arguments       : USB_UTR_t *ptr : USB system internal structure.
                                 ;     979                 : uint16_t devaddr          : Device Address
                                 ;     980                 : uint16_t rootport         : Port no.
                                 ;     981 Return          : none
                                 ;     982 ******************************************************************************/
                                 ;     983 void usb_hstd_SuspCont(USB_UTR_t *ptr, uint16_t devaddr, uint16_t rootport)
                                 		.LINE  "C:\Workspace\e2studio\git\MT01\r_usb_basic\src\driver\host\r_usb_hmanager.c",983
00000F19 60C0                    		SUB #0CH, R0
00000F1B A081                    		MOV.L R1, 08H[R0]
00000F1D 908A                    		MOV.W R2, 06H[R0]
00000F1F 9083                    		MOV.W R3, 04H[R0]
                                 ;     984 {
                                 ;     985     uint16_t        checkerr;
                                 ;     986     
                                 ;     987     checkerr    = usb_shstd_MgrMsg[ptr->ip]->result;
                                 		.LINE  "C:\Workspace\e2studio\git\MT01\r_usb_basic\src\driver\host\r_usb_hmanager.c",987
00000F21 A881                    		MOV.L 08H[R0], R1
00000F23 B991                    		MOVU.W 0CH[R1], R1
00000F25 FBE2rrrrrrrr            		MOV.L #__$usb_shstd_MgrMsg, R14
00000F2B FE61E1                  		MOV.L [R1,R14], R1
00000F2E D5100701                		MOV.W 0EH[R1], 02H[R0]
00000F32                         L298:	; entry.split
                                 ;     988 
                                 ;     989     switch(usb_shstd_SuspendSeq[ptr->ip])
                                 		.LINE  "C:\Workspace\e2studio\git\MT01\r_usb_basic\src\driver\host\r_usb_hmanager.c",989
00000F32 A881                    		MOV.L 08H[R0], R1
00000F34 B991                    		MOVU.W 0CH[R1], R1
00000F36 FBE2rrrrrrrr            		MOV.L #__$usb_shstd_SuspendSeq, R14
00000F3C FED1EE                  		MOVU.W [R1,R14], R14
00000F3F 612E                    		CMP #02H, R14
00000F41 3Arrrr               W  		BEQ L309
00000F44                         L299:	; entry.split
00000F44 611E                    		CMP #01H, R14
00000F46 20rr                    		BEQ L303
00000F48                         L300:	; entry.split
00000F48 610E                    		CMP #00H, R14
00000F4A 3Brrrr               W  		BNE L312
00000F4D                         L301:	; bb
                                 ;     990     {
                                 ;     991     case    0:
                                 ;     992         usb_hstd_GetConfigDesc(ptr, devaddr, (uint16_t)0x09, (USB_CB_t)&usb_hstd_SubmitResult);
                                 		.LINE  "C:\Workspace\e2studio\git\MT01\r_usb_basic\src\driver\host\r_usb_hmanager.c",992
00000F4D B88A                    		MOVU.W 06H[R0], R2
00000F4F A881                    		MOV.L 08H[R0], R1
00000F51 FB42rrrrrrrr            		MOV.L #_usb_hstd_SubmitResult, R4
00000F57 6693                    		MOV.L #00000009H, R3
00000F59 39rrrr               W  		BSR _usb_hstd_GetConfigDesc
00000F5C                         L302:	; bb.split
                                 ;     993         usb_shstd_SuspendSeq[ptr->ip]++;
                                 		.LINE  "C:\Workspace\e2studio\git\MT01\r_usb_basic\src\driver\host\r_usb_hmanager.c",993
00000F5C A881                    		MOV.L 08H[R0], R1
00000F5E B991                    		MOVU.W 0CH[R1], R1
00000F60 FBE2rrrrrrrr            		MOV.L #__$usb_shstd_SuspendSeq, R14
00000F66 FE51EF                  		MOV.W [R1,R14], R15
00000F69 621F                    		ADD #01H, R15
00000F6B FE11EF                  		MOV.W R15, [R1,R14]
00000F6E 6703                    		RTSD #0CH
00000F70                         L303:	; bb30
                                 ;     994         break;
                                 ;     995     case    1:
                                 ;     996         if (usb_hstd_StdReqCheck(checkerr) == USB_DONE)
                                 		.LINE  "C:\Workspace\e2studio\git\MT01\r_usb_basic\src\driver\host\r_usb_hmanager.c",996
00000F70 B809                    		MOVU.W 02H[R0], R1
00000F72 39rrrr               W  		BSR _usb_hstd_StdReqCheck
00000F75 6101                    		CMP #00H, R1
00000F77 21rr                    		BNE L312
00000F79                         L304:	; bb32
                                 ;     997         {
                                 ;     998             if( usb_hstd_ChkRemote(ptr) == USB_YES )
                                 		.LINE  "C:\Workspace\e2studio\git\MT01\r_usb_basic\src\driver\host\r_usb_hmanager.c",998
00000F79 A881                    		MOV.L 08H[R0], R1
00000F7B 39rrrr               W  		BSR __$usb_hstd_ChkRemote
00000F7E 6111                    		CMP #01H, R1
00000F80 988A                    		MOV.W 06H[R0], R2
00000F82 A881                    		MOV.L 08H[R0], R1
00000F84 21rr                    		BNE L307
00000F86                         L305:	; bb33
                                 ;     999             {
                                 ;    1000                 usb_hstd_SetFeature(ptr, devaddr, (uint16_t)0xFF, (USB_CB_t)&usb_hstd_SubmitResult);
                                 		.LINE  "C:\Workspace\e2studio\git\MT01\r_usb_basic\src\driver\host\r_usb_hmanager.c",1000
00000F86 5F22                    		MOVU.W R2, R2
00000F88 FB42rrrrrrrr            		MOV.L #_usb_hstd_SubmitResult, R4
00000F8E 7543FF                  		MOV.L #000000FFH, R3
00000F91 39rrrr               W  		BSR _usb_hstd_SetFeature
00000F94                         L306:	; bb33.split
                                 ;    1001                 usb_shstd_SuspendSeq[ptr->ip]++;
                                 		.LINE  "C:\Workspace\e2studio\git\MT01\r_usb_basic\src\driver\host\r_usb_hmanager.c",1001
00000F94 A882                    		MOV.L 08H[R0], R2
00000F96 B9A2                    		MOVU.W 0CH[R2], R2
00000F98 FBE2rrrrrrrr            		MOV.L #__$usb_shstd_SuspendSeq, R14
00000F9E FE52EF                  		MOV.W [R2,R14], R15
00000FA1 621F                    		ADD #01H, R15
00000FA3 FE12EF                  		MOV.W R15, [R2,R14]
00000FA6 6703                    		RTSD #0CH
00000FA8                         L307:	; bb44
                                 ;    1002             }
                                 ;    1003             else
                                 ;    1004             {
                                 ;    1005                 USB_PRINTF0("### Remote wakeup disable\n");
                                 ;    1006                 usb_hstd_DeviceStateControl(ptr, devaddr, (uint16_t)USB_MSG_HCD_REMOTE);
                                 		.LINE  "C:\Workspace\e2studio\git\MT01\r_usb_basic\src\driver\host\r_usb_hmanager.c",1006
00000FA8 5F22                    		MOVU.W R2, R2
00000FAA FB3A0601                		MOV.L #00000106H, R3
00000FAE 39rrrr               W  		BSR _usb_hstd_DeviceStateControl
00000FB1                         L308:	; bb44.split
                                 ;    1007                 usb_ghstd_MgrMode[ptr->ip][rootport]    = USB_SUSPENDED;
                                 		.LINE  "C:\Workspace\e2studio\git\MT01\r_usb_basic\src\driver\host\r_usb_hmanager.c",1007
00000FB1 A881                    		MOV.L 08H[R0], R1
00000FB3 B991                    		MOVU.W 0CH[R1], R1
00000FB5 6C21                    		SHLL #02H, R1
00000FB7 FBE2rrrrrrrr            		MOV.L #_usb_ghstd_MgrMode, R14
00000FBD 4B1E                    		ADD R1, R14
00000FBF 754F50                  		MOV.L #00000050H, R15
00000FC2 B881                    		MOVU.W 04H[R0], R1
00000FC4 FE11EF                  		MOV.W R15, [R1,R14]
00000FC7 6703                    		RTSD #0CH
00000FC9                         L309:	; bb70
                                 ;    1008             }
                                 ;    1009         }
                                 ;    1010         break;
                                 ;    1011     case    2:
                                 ;    1012         if(usb_hstd_StdReqCheck(checkerr) == USB_DONE)
                                 		.LINE  "C:\Workspace\e2studio\git\MT01\r_usb_basic\src\driver\host\r_usb_hmanager.c",1012
00000FC9 B809                    		MOVU.W 02H[R0], R1
00000FCB 39rrrr               W  		BSR _usb_hstd_StdReqCheck
00000FCE 6101                    		CMP #00H, R1
00000FD0 21rr                    		BNE L312
00000FD2                         L310:	; bb71
                                 ;    1013         {
                                 ;    1014             usb_hstd_DeviceStateControl(ptr, devaddr, (uint16_t)USB_MSG_HCD_REMOTE);
                                 		.LINE  "C:\Workspace\e2studio\git\MT01\r_usb_basic\src\driver\host\r_usb_hmanager.c",1014
00000FD2 B88A                    		MOVU.W 06H[R0], R2
00000FD4 A881                    		MOV.L 08H[R0], R1
00000FD6 FB3A0601                		MOV.L #00000106H, R3
00000FDA 39rrrr               W  		BSR _usb_hstd_DeviceStateControl
00000FDD                         L311:	; bb71.split
                                 ;    1015             usb_ghstd_MgrMode[ptr->ip][rootport]    = USB_SUSPENDED;
                                 		.LINE  "C:\Workspace\e2studio\git\MT01\r_usb_basic\src\driver\host\r_usb_hmanager.c",1015
00000FDD A881                    		MOV.L 08H[R0], R1
00000FDF B991                    		MOVU.W 0CH[R1], R1
00000FE1 6C21                    		SHLL #02H, R1
00000FE3 FBE2rrrrrrrr            		MOV.L #_usb_ghstd_MgrMode, R14
00000FE9 4B1E                    		ADD R1, R14
00000FEB 754F50                  		MOV.L #00000050H, R15
00000FEE B881                    		MOVU.W 04H[R0], R1
00000FF0 FE11EF                  		MOV.W R15, [R1,R14]
00000FF3 6703                    		RTSD #0CH
00000FF5                         L312:	; return
                                 ;    1016         }
                                 ;    1017         break;
                                 ;    1018     default:
                                 ;    1019         break;
                                 ;    1020     }
                                 ;    1021 }
                                 		.LINE  "C:\Workspace\e2studio\git\MT01\r_usb_basic\src\driver\host\r_usb_hmanager.c",1021
00000FF5 6703                    		RTSD #0CH
00000FF7                         __$usb_hstd_ResuCont:
                                 		.STACK	__$usb_hstd_ResuCont=28
                                 ;    1022 /******************************************************************************
                                 ;    1023 End of function usb_hstd_SuspCont
                                 ;    1024 ******************************************************************************/
                                 ;    1025 
                                 ;    1026 /******************************************************************************
                                 ;    1027 Function Name   : usb_hstd_ResuCont
                                 ;    1028 Description     : Resume the connected USB Device (Function for nonOS)
                                 ;    1029 Argument        : uint16_t devaddr          : Device Address
                                 ;    1030                 : uint16_t rootport         : Port no.
                                 ;    1031 Return          : none
                                 ;    1032 ******************************************************************************/
                                 ;    1033 void usb_hstd_ResuCont(USB_UTR_t *ptr, uint16_t devaddr, uint16_t rootport)
                                 		.LINE  "C:\Workspace\e2studio\git\MT01\r_usb_basic\src\driver\host\r_usb_hmanager.c",1033
00000FF7 7100E8                  		ADD #0FFFFFFE8H, R0
00000FFA A109                    		MOV.L R1, 14H[R0]
00000FFC 920A                    		MOV.W R2, 12H[R0]
00000FFE 9203                    		MOV.W R3, 10H[R0]
                                 ;    1034 {
                                 ;    1035     uint16_t            devsel;
                                 ;    1036     uint16_t            j,md;
                                 ;    1037     USB_HCDREG_t        *driver;
                                 ;    1038     uint16_t            checkerr;
                                 ;    1039 
                                 ;    1040     devsel      = (uint16_t)(devaddr << USB_DEVADDRBIT);
                                 		.LINE  "C:\Workspace\e2studio\git\MT01\r_usb_basic\src\driver\host\r_usb_hmanager.c",1040
00001000 9A09                    		MOV.W 12H[R0], R1
00001002 6CC1                    		SHLL #0CH, R1
00001004 9009                    		MOV.W R1, 02H[R0]
00001006                         L314:	; entry.split
                                 ;    1041     checkerr    = usb_shstd_MgrMsg[ptr->ip]->result;
                                 		.LINE  "C:\Workspace\e2studio\git\MT01\r_usb_basic\src\driver\host\r_usb_hmanager.c",1041
00001006 A909                    		MOV.L 14H[R0], R1
00001008 B991                    		MOVU.W 0CH[R1], R1
0000100A FBE2rrrrrrrr            		MOV.L #__$usb_shstd_MgrMsg, R14
00001010 FE61E1                  		MOV.L [R1,R14], R1
00001013 D5100707                		MOV.W 0EH[R1], 0EH[R0]
00001017                         L315:	; entry.split1
                                 ;    1042     
                                 ;    1043     switch(usb_shstd_ResumeSeq[ptr->ip])
                                 		.LINE  "C:\Workspace\e2studio\git\MT01\r_usb_basic\src\driver\host\r_usb_hmanager.c",1043
00001017 A909                    		MOV.L 14H[R0], R1
00001019 B991                    		MOVU.W 0CH[R1], R1
0000101B FBE2rrrrrrrr            		MOV.L #__$usb_shstd_ResumeSeq, R14
00001021 FED1EE                  		MOVU.W [R1,R14], R14
00001024 612E                    		CMP #02H, R14
00001026 20rr                    		BEQ L325
00001028                         L316:	; entry.split1
00001028 611E                    		CMP #01H, R14
0000102A 20rr                    		BEQ L320
0000102C                         L317:	; entry.split1
0000102C 610E                    		CMP #00H, R14
0000102E 3Brrrr               W  		BNE L327
00001031                         L318:	; bb
                                 ;    1044     {
                                 ;    1045     case    0:
                                 ;    1046         usb_hstd_GetConfigDesc(ptr, devaddr, (uint16_t)0x09, (USB_CB_t)&usb_hstd_SubmitResult);
                                 		.LINE  "C:\Workspace\e2studio\git\MT01\r_usb_basic\src\driver\host\r_usb_hmanager.c",1046
00001031 BA0A                    		MOVU.W 12H[R0], R2
00001033 A909                    		MOV.L 14H[R0], R1
00001035 FB42rrrrrrrr            		MOV.L #_usb_hstd_SubmitResult, R4
0000103B 6693                    		MOV.L #00000009H, R3
0000103D 39rrrr               W  		BSR _usb_hstd_GetConfigDesc
00001040                         L319:	; bb.split
                                 ;    1047         usb_shstd_ResumeSeq[ptr->ip]++;
                                 		.LINE  "C:\Workspace\e2studio\git\MT01\r_usb_basic\src\driver\host\r_usb_hmanager.c",1047
00001040 A909                    		MOV.L 14H[R0], R1
00001042 B991                    		MOVU.W 0CH[R1], R1
00001044 FBE2rrrrrrrr            		MOV.L #__$usb_shstd_ResumeSeq, R14
0000104A FE51EF                  		MOV.W [R1,R14], R15
0000104D 621F                    		ADD #01H, R15
0000104F FE11EF                  		MOV.W R15, [R1,R14]
00001052 2Err                 B  		BRA L327
00001054                         L320:	; bb38
                                 ;    1048         break;
                                 ;    1049     case    1:
                                 ;    1050         if(usb_hstd_StdReqCheck(checkerr) == USB_DONE)
                                 		.LINE  "C:\Workspace\e2studio\git\MT01\r_usb_basic\src\driver\host\r_usb_hmanager.c",1050
00001054 B989                    		MOVU.W 0EH[R0], R1
00001056 39rrrr               W  		BSR _usb_hstd_StdReqCheck
00001059 6101                    		CMP #00H, R1
0000105B 21rr                    		BNE L327
0000105D                         L321:	; bb40
                                 ;    1051         {
                                 ;    1052             if( usb_hstd_ChkRemote(ptr) == USB_YES )
                                 		.LINE  "C:\Workspace\e2studio\git\MT01\r_usb_basic\src\driver\host\r_usb_hmanager.c",1052
0000105D A909                    		MOV.L 14H[R0], R1
0000105F 39rrrr               W  		BSR __$usb_hstd_ChkRemote
00001062 6111                    		CMP #01H, R1
00001064 A909                    		MOV.L 14H[R0], R1
00001066 21rr                    		BNE L324
00001068                         L322:	; bb41
                                 ;    1053             {
                                 ;    1054                 usb_hstd_ClearFeature(ptr, devaddr, (uint16_t)0xFF, (USB_CB_t)&usb_hstd_SubmitResult);
                                 		.LINE  "C:\Workspace\e2studio\git\MT01\r_usb_basic\src\driver\host\r_usb_hmanager.c",1054
00001068 BA0A                    		MOVU.W 12H[R0], R2
0000106A FB42rrrrrrrr            		MOV.L #_usb_hstd_SubmitResult, R4
00001070 7543FF                  		MOV.L #000000FFH, R3
00001073 05rrrrrr             A  		BSR _usb_hstd_ClearFeature
00001077                         L323:	; bb41.split
                                 ;    1055                 usb_shstd_ResumeSeq[ptr->ip]++;
                                 		.LINE  "C:\Workspace\e2studio\git\MT01\r_usb_basic\src\driver\host\r_usb_hmanager.c",1055
00001077 A909                    		MOV.L 14H[R0], R1
00001079 B991                    		MOVU.W 0CH[R1], R1
0000107B FBE2rrrrrrrr            		MOV.L #__$usb_shstd_ResumeSeq, R14
00001081 FE51EF                  		MOV.W [R1,R14], R15
00001084 621F                    		ADD #01H, R15
00001086 FE11EF                  		MOV.W R15, [R1,R14]
00001089 2Err                 B  		BRA L327
0000108B                         L324:	; bb52
                                 ;    1056             }
                                 ;    1057             else
                                 ;    1058             {
                                 ;    1059                 usb_ghstd_MgrMode[ptr->ip][rootport] = USB_CONFIGURED;
                                 		.LINE  "C:\Workspace\e2studio\git\MT01\r_usb_basic\src\driver\host\r_usb_hmanager.c",1059
0000108B B991                    		MOVU.W 0CH[R1], R1
0000108D 6C21                    		SHLL #02H, R1
0000108F FBE2rrrrrrrr            		MOV.L #_usb_ghstd_MgrMode, R14
00001095 4B1E                    		ADD R1, R14
00001097 754F46                  		MOV.L #00000046H, R15
0000109A BA01                    		MOVU.W 10H[R0], R1
0000109C FE11EF                  		MOV.W R15, [R1,R14]
0000109F 2Err                 B  		BRA L327
000010A1                         L325:	; bb76
                                 ;    1060             }
                                 ;    1061         }
                                 ;    1062         break;
                                 ;    1063     case    2:
                                 ;    1064         if(usb_hstd_StdReqCheck(checkerr) == USB_DONE)
                                 		.LINE  "C:\Workspace\e2studio\git\MT01\r_usb_basic\src\driver\host\r_usb_hmanager.c",1064
000010A1 B989                    		MOVU.W 0EH[R0], R1
000010A3 39rrrr               W  		BSR _usb_hstd_StdReqCheck
000010A6 6101                    		CMP #00H, R1
000010A8 21rr                    		BNE L327
000010AA                         L326:	; bb77
                                 ;    1065         {
                                 ;    1066             usb_ghstd_MgrMode[ptr->ip][rootport] = USB_CONFIGURED;
                                 		.LINE  "C:\Workspace\e2studio\git\MT01\r_usb_basic\src\driver\host\r_usb_hmanager.c",1066
000010AA A909                    		MOV.L 14H[R0], R1
000010AC B991                    		MOVU.W 0CH[R1], R1
000010AE 6C21                    		SHLL #02H, R1
000010B0 FBE2rrrrrrrr            		MOV.L #_usb_ghstd_MgrMode, R14
000010B6 4B1E                    		ADD R1, R14
000010B8 754F46                  		MOV.L #00000046H, R15
000010BB BA01                    		MOVU.W 10H[R0], R1
000010BD FE11EF                  		MOV.W R15, [R1,R14]
000010C0                         L327:	; bb96
                                 ;    1067         }
                                 ;    1068         break;
                                 ;    1069     default:
                                 ;    1070         break;
                                 ;    1071     }
                                 ;    1072     
                                 ;    1073     if( usb_ghstd_MgrMode[ptr->ip][rootport] == USB_CONFIGURED )
                                 		.LINE  "C:\Workspace\e2studio\git\MT01\r_usb_basic\src\driver\host\r_usb_hmanager.c",1073
000010C0 A909                    		MOV.L 14H[R0], R1
000010C2 B991                    		MOVU.W 0CH[R1], R1
000010C4 6C21                    		SHLL #02H, R1
000010C6 FBE2rrrrrrrr            		MOV.L #_usb_ghstd_MgrMode, R14
000010CC 4B1E                    		ADD R1, R14
000010CE BA01                    		MOVU.W 10H[R0], R1
000010D0 FED1EE                  		MOVU.W [R1,R14], R14
000010D3 755E46                  		CMP #46H, R14
000010D6 3Brrrr               W  		BNE L345
000010D9                         L328:	; bb97
                                 ;    1074     {
                                 ;    1075         /* PIPE resume */
                                 ;    1076         for( j = USB_MIN_PIPE_NO; j <= USB_MAX_PIPE_NO; j++ )
                                 		.LINE  "C:\Workspace\e2studio\git\MT01\r_usb_basic\src\driver\host\r_usb_hmanager.c",1076
000010D9 3D0201                  		MOV.W #0001H, 04H[R0]
000010DC 2Err                 B  		BRA L334
000010DE                         L329:	; bb99
                                 ;    1077         {
                                 ;    1078             /* Agreement device address */
                                 ;    1079             if(usb_cstd_GetDeviceAddress(ptr, j) == devsel)
                                 		.LINE  "C:\Workspace\e2studio\git\MT01\r_usb_basic\src\driver\host\r_usb_hmanager.c",1079
000010DE B882                    		MOVU.W 04H[R0], R2
000010E0 A909                    		MOV.L 14H[R0], R1
000010E2 05rrrrrr             A  		BSR _usb_cstd_GetDeviceAddress
000010E6 06C50101                		CMP 02H[R0].UW, R1
000010EA 21rr                    		BNE L333
000010EC                         L330:	; bb101
                                 ;    1080             {
                                 ;    1081                 if(usb_ghstd_SuspendPipe[ptr->ip][j] == USB_SUSPENDED)
                                 		.LINE  "C:\Workspace\e2studio\git\MT01\r_usb_basic\src\driver\host\r_usb_hmanager.c",1081
000010EC A909                    		MOV.L 14H[R0], R1
000010EE B991                    		MOVU.W 0CH[R1], R1
000010F0 751114                  		MUL #14H, R1
000010F3 FBE2rrrrrrrr            		MOV.L #_usb_ghstd_SuspendPipe, R14
000010F9 4B1E                    		ADD R1, R14
000010FB B881                    		MOVU.W 04H[R0], R1
000010FD FED1EE                  		MOVU.W [R1,R14], R14
00001100 755E50                  		CMP #50H, R14
00001103 21rr                    		BNE L333
00001105                         L331:	; bb102
                                 ;    1082                 {
                                 ;    1083                     usb_cstd_SetBuf(ptr, j);
                                 		.LINE  "C:\Workspace\e2studio\git\MT01\r_usb_basic\src\driver\host\r_usb_hmanager.c",1083
00001105 B882                    		MOVU.W 04H[R0], R2
00001107 A909                    		MOV.L 14H[R0], R1
00001109 05rrrrrr             A  		BSR _usb_cstd_SetBuf
0000110D                         L332:	; bb102.split
                                 ;    1084                     usb_ghstd_SuspendPipe[ptr->ip][j] = USB_DONE;
                                 		.LINE  "C:\Workspace\e2studio\git\MT01\r_usb_basic\src\driver\host\r_usb_hmanager.c",1084
0000110D A909                    		MOV.L 14H[R0], R1
0000110F B991                    		MOVU.W 0CH[R1], R1
00001111 751114                  		MUL #14H, R1
00001114 FBE2rrrrrrrr            		MOV.L #_usb_ghstd_SuspendPipe, R14
0000111A 4B1E                    		ADD R1, R14
0000111C 660F                    		MOV.L #00000000H, R15
0000111E B881                    		MOVU.W 04H[R0], R1
00001120 FE11EF                  		MOV.W R15, [R1,R14]
00001123                         L333:	; bb138
00001123 9881                    		MOV.W 04H[R0], R1
00001125 6211                    		ADD #01H, R1
00001127 9081                    		MOV.W R1, 04H[R0]
00001129                         L334:	; bb141
                                 		.LINE  "C:\Workspace\e2studio\git\MT01\r_usb_basic\src\driver\host\r_usb_hmanager.c",1076
00001129 B881                    		MOVU.W 04H[R0], R1
0000112B 61A1                    		CMP #0AH, R1
0000112D 23rr                    		BLTU L329
0000112F                         L335:	; bb147
                                 ;    1085                 }
                                 ;    1086             }
                                 ;    1087         }
                                 ;    1088 
                                 ;    1089         for(md = 0; md < usb_ghstd_DeviceNum[ptr->ip]; md++)
                                 		.LINE  "C:\Workspace\e2studio\git\MT01\r_usb_basic\src\driver\host\r_usb_hmanager.c",1089
0000112F 3D0300                  		MOV.W #0000H, 06H[R0]
00001132 2Err                 B  		BRA L344
00001134                         L336:	; bb148
                                 ;    1090         {
                                 ;    1091             driver  = &usb_ghstd_DeviceDrv[ptr->ip][md];
                                 		.LINE  "C:\Workspace\e2studio\git\MT01\r_usb_basic\src\driver\host\r_usb_hmanager.c",1091
00001134 A909                    		MOV.L 14H[R0], R1
00001136 B991                    		MOVU.W 0CH[R1], R1
00001138 7611B801                		MUL #01B8H, R1
0000113C FB22rrrrrrrr            		MOV.L #_usb_ghstd_DeviceDrv, R2
00001142 4B12                    		ADD R1, R2
00001144 B889                    		MOVU.W 06H[R0], R1
00001146 751128                  		MUL #28H, R1
00001149 4B12                    		ADD R1, R2
0000114B A082                    		MOV.L R2, 08H[R0]
0000114D                         L337:	; bb148.split
                                 ;    1092             if(driver->devaddr == (rootport+USB_DEVICEADDR))
                                 		.LINE  "C:\Workspace\e2studio\git\MT01\r_usb_basic\src\driver\host\r_usb_hmanager.c",1092
0000114D A881                    		MOV.L 08H[R0], R1
0000114F B819                    		MOVU.W 02H[R1], R1
00001151 BA02                    		MOVU.W 10H[R0], R2
00001153 6212                    		ADD #01H, R2
00001155 4721                    		CMP R2, R1
00001157 21rr                    		BNE L343
00001159                         L338:	; bb159
                                 ;    1093             {
                                 ;    1094                 (*driver->devresume)(ptr, driver->devaddr, (uint16_t)USB_NO_ARG);
                                 		.LINE  "C:\Workspace\e2studio\git\MT01\r_usb_basic\src\driver\host\r_usb_hmanager.c",1094
00001159 A881                    		MOV.L 08H[R0], R1
0000115B B81A                    		MOVU.W 02H[R1], R2
0000115D AA1C                    		MOV.L 24H[R1], R4
0000115F A909                    		MOV.L 14H[R0], R1
00001161 6603                    		MOV.L #00000000H, R3
00001163 7F14                    		JSR R4
00001165                         L339:	; bb159.split
                                 ;    1095                 /* Device state */
                                 ;    1096                 usb_ghstd_DeviceInfo[ptr->ip][driver->devaddr][1] = USB_CONFIGURED;
                                 		.LINE  "C:\Workspace\e2studio\git\MT01\r_usb_basic\src\driver\host\r_usb_hmanager.c",1096
00001165 A909                    		MOV.L 14H[R0], R1
00001167 B991                    		MOVU.W 0CH[R1], R1
00001169 7611B000                		MUL #0B0H, R1
0000116D FB22rrrrrrrr            		MOV.L #_usb_ghstd_DeviceInfo, R2
00001173 4B12                    		ADD R1, R2
00001175 A881                    		MOV.L 08H[R0], R1
00001177 B819                    		MOVU.W 02H[R1], R1
00001179 6C41                    		SHLL #04H, R1
0000117B 4B12                    		ADD R1, R2
0000117D 3D2146                  		MOV.W #0046H, 02H[R2]
00001180                         L340:	; bb159.split2
                                 ;    1097 
                                 ;    1098                 if( usb_shstd_mgr_msginfo[ptr->ip] == USB_DO_GLOBAL_RESUME )
                                 		.LINE  "C:\Workspace\e2studio\git\MT01\r_usb_basic\src\driver\host\r_usb_hmanager.c",1098
00001180 A909                    		MOV.L 14H[R0], R1
00001182 B991                    		MOVU.W 0CH[R1], R1
00001184 FBE2rrrrrrrr            		MOV.L #__$usb_shstd_mgr_msginfo, R14
0000118A FED1EE                  		MOVU.W [R1,R14], R14
0000118D 760E0702                		CMP #0207H, R14
00001191 18                   S  		BNE L342
00001192                         L341:	; bb181
                                 ;    1099                 {
                                 ;    1100                     usb_hstd_mgr_chgdevst_cb(ptr, rootport);
                                 		.LINE  "C:\Workspace\e2studio\git\MT01\r_usb_basic\src\driver\host\r_usb_hmanager.c",1100
00001192 BA02                    		MOVU.W 10H[R0], R2
00001194 A909                    		MOV.L 14H[R0], R1
00001196 39rrrr               W  		BSR __$usb_hstd_mgr_chgdevst_cb
00001199                         L342:	; bb194
                                 ;    1101                 }
                                 ;    1102 
                                 ;    1103                 /* Device state */
                                 ;    1104                 driver->devstate = USB_CONFIGURED;
                                 		.LINE  "C:\Workspace\e2studio\git\MT01\r_usb_basic\src\driver\host\r_usb_hmanager.c",1104
00001199 A881                    		MOV.L 08H[R0], R1
0000119B 3D1246                  		MOV.W #0046H, 04H[R1]
0000119E                         L343:	; bb207
0000119E 9889                    		MOV.W 06H[R0], R1
000011A0 6211                    		ADD #01H, R1
000011A2 9089                    		MOV.W R1, 06H[R0]
000011A4                         L344:	; bb210
                                 		.LINE  "C:\Workspace\e2studio\git\MT01\r_usb_basic\src\driver\host\r_usb_hmanager.c",1089
000011A4 A909                    		MOV.L 14H[R0], R1
000011A6 B991                    		MOVU.W 0CH[R1], R1
000011A8 FBE2rrrrrrrr            		MOV.L #_usb_ghstd_DeviceNum, R14
000011AE FED1EE                  		MOVU.W [R1,R14], R14
000011B1 B889                    		MOVU.W 06H[R0], R1
000011B3 47E1                    		CMP R14, R1
000011B5 28rr                  * 		BLT L336
         38rrrr                  
000011BA                         L345:	; return
                                 ;    1105             }
                                 ;    1106         }
                                 ;    1107     }
                                 ;    1108 }
                                 		.LINE  "C:\Workspace\e2studio\git\MT01\r_usb_basic\src\driver\host\r_usb_hmanager.c",1108
000011BA 6706                    		RTSD #18H
000011BC                         __$usb_hstd_ChkRemote:
                                 		.STACK	__$usb_hstd_ChkRemote=12
                                 ;    1109 /******************************************************************************
                                 ;    1110 End of function usb_hstd_ResuCont
                                 ;    1111 ******************************************************************************/
                                 ;    1112 
                                 ;    1113 
                                 ;    1114 /******************************************************************************
                                 ;    1115 Function Name   : usb_hstd_ChkRemote
                                 ;    1116 Description     : check remote
                                 ;    1117 Arguments       : none
                                 ;    1118 Return value    : uint16_t                  : error info
                                 ;    1119 ******************************************************************************/
                                 ;    1120 uint16_t usb_hstd_ChkRemote(USB_UTR_t *ptr)
                                 		.LINE  "C:\Workspace\e2studio\git\MT01\r_usb_basic\src\driver\host\r_usb_hmanager.c",1120
000011BC 6080                    		SUB #08H, R0
000011BE A009                    		MOV.L R1, 04H[R0]
                                 ;    1121 {
                                 ;    1122     if( (usb_ghstd_ClassData[ptr->ip][7] & USB_CF_RWUPON) != (uint8_t)0 )
                                 		.LINE  "C:\Workspace\e2studio\git\MT01\r_usb_basic\src\driver\host\r_usb_hmanager.c",1122
000011C0 B991                    		MOVU.W 0CH[R1], R1
000011C2 6C91                    		SHLL #09H, R1
000011C4 FBE2rrrrrrrr            		MOV.L #_usb_ghstd_ClassData, R14
000011CA 4B1E                    		ADD R1, R14
000011CC F5E507                  		BTST #05H, 07H[R14].B
000011CF 10                   S  		BEQ L348
000011D0                         L347:	; bb2
                                 ;    1123     {
                                 ;    1124         return USB_YES;
                                 		.LINE  "C:\Workspace\e2studio\git\MT01\r_usb_basic\src\driver\host\r_usb_hmanager.c",1124
000011D0 F80501                  		MOV.W #0001H, [R0]
000011D3 08                   S  		BRA L349
000011D4                         L348:	; bb16
                                 ;    1125     }
                                 ;    1126     return USB_NO;
                                 		.LINE  "C:\Workspace\e2studio\git\MT01\r_usb_basic\src\driver\host\r_usb_hmanager.c",1126
000011D4 F80500                  		MOV.W #0000H, [R0]
000011D7                         L349:	; bb18
000011D7 D40001                  		MOV.W [R0], 02H[R0]
                                 ;    1127 }
                                 		.LINE  "C:\Workspace\e2studio\git\MT01\r_usb_basic\src\driver\host\r_usb_hmanager.c",1127
000011DA B809                    		MOVU.W 02H[R0], R1
000011DC 6702                    		RTSD #08H
000011DE                         __$usb_hstd_CmdSubmit:
                                 		.STACK	__$usb_hstd_CmdSubmit=16
                                 ;    1128 /******************************************************************************
                                 ;    1129 End of function usb_hstd_ChkRemote
                                 ;    1130 ******************************************************************************/
                                 ;    1131 
                                 ;    1132 
                                 ;    1133 /* Condition compilation by the difference of IP */
                                 ;    1134 /******************************************************************************
                                 ;    1135 Function Name   : usb_hstd_CmdSubmit
                                 ;    1136 Description     : command submit
                                 ;    1137 Arguments       : USB_CB_t complete         : callback info
                                 ;    1138 Return value    : uint16_t                  : USB_DONE
                                 ;    1139 ******************************************************************************/
                                 ;    1140 uint16_t usb_hstd_CmdSubmit(USB_UTR_t *ptr, USB_CB_t complete)
                                 		.LINE  "C:\Workspace\e2studio\git\MT01\r_usb_basic\src\driver\host\r_usb_hmanager.c",1140
000011DE 60C0                    		SUB #0CH, R0
000011E0 A081                    		MOV.L R1, 08H[R0]
000011E2 A00A                    		MOV.L R2, 04H[R0]
                                 ;    1141 {
                                 ;    1142     usb_ghstd_ClassControl[ptr->ip].tranadr = (void*)usb_ghstd_ClassData[ptr->ip];
                                 		.LINE  "C:\Workspace\e2studio\git\MT01\r_usb_basic\src\driver\host\r_usb_hmanager.c",1142
000011E4 A881                    		MOV.L 08H[R0], R1
000011E6 B991                    		MOVU.W 0CH[R1], R1
000011E8 EF1E                    		MOV.L R1, R14
000011EA 751E2C                  		MUL #2CH, R14
000011ED FB22rrrrrrrr            		MOV.L #_usb_ghstd_ClassControl, R2
000011F3 4BE2                    		ADD R14, R2
000011F5 6C91                    		SHLL #09H, R1
000011F7 FB32rrrrrrrr            		MOV.L #_usb_ghstd_ClassData, R3
000011FD 4B13                    		ADD R1, R3
000011FF A12B                    		MOV.L R3, 14H[R2]
00001201                         L351:	; entry.split
                                 ;    1143     usb_ghstd_ClassControl[ptr->ip].complete    = complete;
                                 		.LINE  "C:\Workspace\e2studio\git\MT01\r_usb_basic\src\driver\host\r_usb_hmanager.c",1143
00001201 A881                    		MOV.L 08H[R0], R1
00001203 B991                    		MOVU.W 0CH[R1], R1
00001205 75112C                  		MUL #2CH, R1
00001208 FB22rrrrrrrr            		MOV.L #_usb_ghstd_ClassControl, R2
0000120E 4B12                    		ADD R1, R2
00001210 E5020104                		MOV.L 04H[R0], 10H[R2]
00001214                         L352:	; entry.split1
                                 ;    1144     usb_ghstd_ClassControl[ptr->ip].tranlen = (uint32_t)usb_ghstd_ClassRequest[ptr->ip][3];
                                 		.LINE  "C:\Workspace\e2studio\git\MT01\r_usb_basic\src\driver\host\r_usb_hmanager.c",1144
00001214 A881                    		MOV.L 08H[R0], R1
00001216 B991                    		MOVU.W 0CH[R1], R1
00001218 EF1E                    		MOV.L R1, R14
0000121A 751E2C                  		MUL #2CH, R14
0000121D FB22rrrrrrrr            		MOV.L #_usb_ghstd_ClassControl, R2
00001223 4BE2                    		ADD R14, R2
00001225 63A1                    		MUL #0AH, R1
00001227 FB32rrrrrrrr            		MOV.L #_usb_ghstd_ClassRequest, R3
0000122D 4B13                    		ADD R1, R3
0000122F B8B9                    		MOVU.W 06H[R3], R1
00001231 A1A1                    		MOV.L R1, 18H[R2]
00001233                         L353:	; entry.split2
                                 ;    1145     usb_ghstd_ClassControl[ptr->ip].keyword = USB_PIPE0;
                                 		.LINE  "C:\Workspace\e2studio\git\MT01\r_usb_basic\src\driver\host\r_usb_hmanager.c",1145
00001233 A881                    		MOV.L 08H[R0], R1
00001235 B991                    		MOVU.W 0CH[R1], R1
00001237 75112C                  		MUL #2CH, R1
0000123A FB22rrrrrrrr            		MOV.L #_usb_ghstd_ClassControl, R2
00001240 4B12                    		ADD R1, R2
00001242 3D2300                  		MOV.W #0000H, 06H[R2]
00001245                         L354:	; entry.split3
                                 ;    1146     usb_ghstd_ClassControl[ptr->ip].setup   = usb_ghstd_ClassRequest[ptr->ip];
                                 		.LINE  "C:\Workspace\e2studio\git\MT01\r_usb_basic\src\driver\host\r_usb_hmanager.c",1146
00001245 A881                    		MOV.L 08H[R0], R1
00001247 B991                    		MOVU.W 0CH[R1], R1
00001249 EF1E                    		MOV.L R1, R14
0000124B 751E2C                  		MUL #2CH, R14
0000124E FB22rrrrrrrr            		MOV.L #_usb_ghstd_ClassControl, R2
00001254 4BE2                    		ADD R14, R2
00001256 63A1                    		MUL #0AH, R1
00001258 FB32rrrrrrrr            		MOV.L #_usb_ghstd_ClassRequest, R3
0000125E 4B13                    		ADD R1, R3
00001260 A1AB                    		MOV.L R3, 1CH[R2]
00001262                         L355:	; entry.split4
                                 ;    1147     usb_ghstd_ClassControl[ptr->ip].segment = USB_TRAN_END;
                                 		.LINE  "C:\Workspace\e2studio\git\MT01\r_usb_basic\src\driver\host\r_usb_hmanager.c",1147
00001262 A881                    		MOV.L 08H[R0], R1
00001264 B991                    		MOVU.W 0CH[R1], R1
00001266 75112C                  		MUL #2CH, R1
00001269 FBE2rrrrrrrr            		MOV.L #_usb_ghstd_ClassControl, R14
0000126F 4B1E                    		ADD R1, R14
00001271 F9E42580                		MOV.B #80H, 25H[R14]
00001275                         L356:	; entry.split5
                                 ;    1148 
                                 ;    1149     usb_ghstd_ClassControl[ptr->ip].ip = ptr->ip;
                                 		.LINE  "C:\Workspace\e2studio\git\MT01\r_usb_basic\src\driver\host\r_usb_hmanager.c",1149
00001275 A881                    		MOV.L 08H[R0], R1
00001277 B991                    		MOVU.W 0CH[R1], R1
00001279 EF1E                    		MOV.L R1, R14
0000127B 751E2C                  		MUL #2CH, R14
0000127E FB22rrrrrrrr            		MOV.L #_usb_ghstd_ClassControl, R2
00001284 4BE2                    		ADD R14, R2
00001286 91A1                    		MOV.W R1, 0CH[R2]
00001288                         L357:	; entry.split6
                                 ;    1150     usb_ghstd_ClassControl[ptr->ip].ipp = ptr->ipp;
                                 		.LINE  "C:\Workspace\e2studio\git\MT01\r_usb_basic\src\driver\host\r_usb_hmanager.c",1150
00001288 A881                    		MOV.L 08H[R0], R1
0000128A B992                    		MOVU.W 0CH[R1], R2
0000128C 75122C                  		MUL #2CH, R2
0000128F FBE2rrrrrrrr            		MOV.L #_usb_ghstd_ClassControl, R14
00001295 4B2E                    		ADD R2, R14
00001297 E51E0202                		MOV.L 08H[R1], 08H[R14]
0000129B                         L358:	; entry.split7
                                 ;    1151 
                                 ;    1152     usb_hstd_TransferStart(&usb_ghstd_ClassControl[ptr->ip]);
                                 		.LINE  "C:\Workspace\e2studio\git\MT01\r_usb_basic\src\driver\host\r_usb_hmanager.c",1152
0000129B A881                    		MOV.L 08H[R0], R1
0000129D B992                    		MOVU.W 0CH[R1], R2
0000129F 75122C                  		MUL #2CH, R2
000012A2 FB12rrrrrrrr            		MOV.L #_usb_ghstd_ClassControl, R1
000012A8 4B21                    		ADD R2, R1
000012AA 05rrrrrr             A  		BSR _usb_hstd_TransferStart
000012AE                         L359:	; entry.split8
                                 ;    1153     
                                 ;    1154     return USB_DONE;
                                 		.LINE  "C:\Workspace\e2studio\git\MT01\r_usb_basic\src\driver\host\r_usb_hmanager.c",1154
000012AE 3D0100                  		MOV.W #0000H, 02H[R0]
000012B1 9809                    		MOV.W 02H[R0], R1
000012B3                         L360:	; entry.split9
                                 ;    1155 }
                                 		.LINE  "C:\Workspace\e2studio\git\MT01\r_usb_basic\src\driver\host\r_usb_hmanager.c",1155
000012B3 5F11                    		MOVU.W R1, R1
000012B5 6703                    		RTSD #0CH
000012B7                         _usb_hstd_SetFeature:
                                 		.STACK	_usb_hstd_SetFeature=20
                                 ;    1156 /******************************************************************************
                                 ;    1157 End of function usb_hstd_CmdSubmit
                                 ;    1158 ******************************************************************************/
                                 ;    1159 
                                 ;    1160 
                                 ;    1161 /******************************************************************************
                                 ;    1162 Function Name   : usb_hstd_SetFeature
                                 ;    1163 Description     : Set SetFeature
                                 ;    1164 Arguments       : uint16_t addr            : device address
                                 ;    1165                 : uint16_t epnum           : endpoint number
                                 ;    1166                 : USB_CB_t complete        : callback function
                                 ;    1167 Return value    : uint16_t                 : error info
                                 ;    1168 ******************************************************************************/
                                 ;    1169 uint16_t usb_hstd_SetFeature(USB_UTR_t *ptr, uint16_t addr, uint16_t epnum, USB_CB_t complete)
                                 		.LINE  "C:\Workspace\e2studio\git\MT01\r_usb_basic\src\driver\host\r_usb_hmanager.c",1169
000012B7 7100F0                  		ADD #0FFFFFFF0H, R0
000012BA A089                    		MOV.L R1, 0CH[R0]
000012BC 910A                    		MOV.W R2, 0AH[R0]
000012BE 9103                    		MOV.W R3, 08H[R0]
000012C0 A00C                    		MOV.L R4, 04H[R0]
                                 ;    1170 {
                                 ;    1171     if( epnum == 0xFF )
                                 		.LINE  "C:\Workspace\e2studio\git\MT01\r_usb_basic\src\driver\host\r_usb_hmanager.c",1171
000012C2 A889                    		MOV.L 0CH[R0], R1
000012C4 B991                    		MOVU.W 0CH[R1], R1
000012C6 63A1                    		MUL #0AH, R1
000012C8 FBE2rrrrrrrr            		MOV.L #_usb_ghstd_ClassRequest, R14
000012CE 4B1E                    		ADD R1, R14
000012D0 B901                    		MOVU.W 08H[R0], R1
000012D2 7551FF                  		CMP #0FFH, R1
000012D5 21rr                    		BNE L365
000012D7                         L362:	; bb5
                                 ;    1172     {
                                 ;    1173         /* SetFeature(Device) */
                                 ;    1174         usb_ghstd_ClassRequest[ptr->ip][0]   = USB_SET_FEATURE | USB_HOST_TO_DEV | USB_STANDARD | USB_DEVICE;
                                 		.LINE  "C:\Workspace\e2studio\git\MT01\r_usb_basic\src\driver\host\r_usb_hmanager.c",1174
000012D7 F8E90003                		MOV.W #0300H, [R14]
000012DB                         L363:	; bb5.split
                                 ;    1175         usb_ghstd_ClassRequest[ptr->ip][1]   = USB_DEV_REMOTE_WAKEUP;
                                 		.LINE  "C:\Workspace\e2studio\git\MT01\r_usb_basic\src\driver\host\r_usb_hmanager.c",1175
000012DB ED0E03                  		MOV.L 0CH[R0], R14
000012DE 5DEE06                  		MOVU.W 0CH[R14], R14
000012E1 63AE                    		MUL #0AH, R14
000012E3 FB12rrrrrrrr            		MOV.L #_usb_ghstd_ClassRequest, R1
000012E9 4BE1                    		ADD R14, R1
000012EB 3D1101                  		MOV.W #0001H, 02H[R1]
000012EE                         L364:	; bb5.split1
                                 ;    1176         usb_ghstd_ClassRequest[ptr->ip][2]   = (uint16_t)0x0000;
                                 		.LINE  "C:\Workspace\e2studio\git\MT01\r_usb_basic\src\driver\host\r_usb_hmanager.c",1176
000012EE ED0E03                  		MOV.L 0CH[R0], R14
000012F1 5DEE06                  		MOVU.W 0CH[R14], R14
000012F4 63AE                    		MUL #0AH, R14
000012F6 FB12rrrrrrrr            		MOV.L #_usb_ghstd_ClassRequest, R1
000012FC 4BE1                    		ADD R14, R1
000012FE 3D1200                  		MOV.W #0000H, 04H[R1]
00001301 2Err                 B  		BRA L368
00001303                         L365:	; bb27
                                 ;    1177     }
                                 ;    1178     else
                                 ;    1179     {
                                 ;    1180         /* SetFeature(endpoint) */
                                 ;    1181         usb_ghstd_ClassRequest[ptr->ip][0]   = USB_SET_FEATURE | USB_HOST_TO_DEV | USB_STANDARD | USB_ENDPOINT;
                                 		.LINE  "C:\Workspace\e2studio\git\MT01\r_usb_basic\src\driver\host\r_usb_hmanager.c",1181
00001303 F8E90203                		MOV.W #0302H, [R14]
00001307                         L366:	; bb27.split
                                 ;    1182         usb_ghstd_ClassRequest[ptr->ip][1]   = USB_ENDPOINT_HALT;
                                 		.LINE  "C:\Workspace\e2studio\git\MT01\r_usb_basic\src\driver\host\r_usb_hmanager.c",1182
00001307 A889                    		MOV.L 0CH[R0], R1
00001309 B991                    		MOVU.W 0CH[R1], R1
0000130B 63A1                    		MUL #0AH, R1
0000130D FB22rrrrrrrr            		MOV.L #_usb_ghstd_ClassRequest, R2
00001313 4B12                    		ADD R1, R2
00001315 3D2100                  		MOV.W #0000H, 02H[R2]
00001318                         L367:	; bb27.split2
                                 ;    1183         usb_ghstd_ClassRequest[ptr->ip][2]   = epnum;
                                 		.LINE  "C:\Workspace\e2studio\git\MT01\r_usb_basic\src\driver\host\r_usb_hmanager.c",1183
00001318 A889                    		MOV.L 0CH[R0], R1
0000131A B991                    		MOVU.W 0CH[R1], R1
0000131C 63A1                    		MUL #0AH, R1
0000131E FB22rrrrrrrr            		MOV.L #_usb_ghstd_ClassRequest, R2
00001324 4B12                    		ADD R1, R2
00001326 D5020402                		MOV.W 08H[R0], 04H[R2]
0000132A                         L368:	; bb54
                                 ;    1184     }
                                 ;    1185     usb_ghstd_ClassRequest[ptr->ip][3]   = (uint16_t)0x0000;
                                 		.LINE  "C:\Workspace\e2studio\git\MT01\r_usb_basic\src\driver\host\r_usb_hmanager.c",1185
0000132A A889                    		MOV.L 0CH[R0], R1
0000132C B991                    		MOVU.W 0CH[R1], R1
0000132E 63A1                    		MUL #0AH, R1
00001330 FB22rrrrrrrr            		MOV.L #_usb_ghstd_ClassRequest, R2
00001336 4B12                    		ADD R1, R2
00001338 3D2300                  		MOV.W #0000H, 06H[R2]
0000133B                         L369:	; bb54.split
                                 ;    1186     usb_ghstd_ClassRequest[ptr->ip][4]   = addr;
                                 		.LINE  "C:\Workspace\e2studio\git\MT01\r_usb_basic\src\driver\host\r_usb_hmanager.c",1186
0000133B A889                    		MOV.L 0CH[R0], R1
0000133D B991                    		MOVU.W 0CH[R1], R1
0000133F 63A1                    		MUL #0AH, R1
00001341 FB22rrrrrrrr            		MOV.L #_usb_ghstd_ClassRequest, R2
00001347 4B12                    		ADD R1, R2
00001349 D5020504                		MOV.W 0AH[R0], 08H[R2]
0000134D                         L370:	; bb54.split3
                                 ;    1187 
                                 ;    1188     return usb_hstd_CmdSubmit(ptr, complete);
                                 		.LINE  "C:\Workspace\e2studio\git\MT01\r_usb_basic\src\driver\host\r_usb_hmanager.c",1188
0000134D A80A                    		MOV.L 04H[R0], R2
0000134F A889                    		MOV.L 0CH[R0], R1
00001351 39rrrr               W  		BSR __$usb_hstd_CmdSubmit
00001354 9009                    		MOV.W R1, 02H[R0]
00001356 9809                    		MOV.W 02H[R0], R1
00001358                         L371:	; bb54.split4
                                 ;    1189 }
                                 		.LINE  "C:\Workspace\e2studio\git\MT01\r_usb_basic\src\driver\host\r_usb_hmanager.c",1189
00001358 5F11                    		MOVU.W R1, R1
0000135A 6704                    		RTSD #10H
0000135C                         _usb_hstd_GetConfigDesc:
                                 		.STACK	_usb_hstd_GetConfigDesc=20
                                 ;    1190 /******************************************************************************
                                 ;    1191 End of function usb_hstd_SetFeature
                                 ;    1192 ******************************************************************************/
                                 ;    1193 
                                 ;    1194 
                                 ;    1195 /******************************************************************************
                                 ;    1196 Function Name   : usb_hstd_GetConfigDesc
                                 ;    1197 Description     : Set GetConfigurationDescriptor
                                 ;    1198 Arguments       : uint16_t addr            : device address
                                 ;    1199                 : uint16_t length          : descriptor length
                                 ;    1200                 : USB_CB_t complete        : callback function
                                 ;    1201 Return value    : uint16_t                 : error info
                                 ;    1202 ******************************************************************************/
                                 ;    1203 uint16_t usb_hstd_GetConfigDesc(USB_UTR_t *ptr, uint16_t addr, uint16_t length, USB_CB_t complete)
                                 		.LINE  "C:\Workspace\e2studio\git\MT01\r_usb_basic\src\driver\host\r_usb_hmanager.c",1203
0000135C 7100F0                  		ADD #0FFFFFFF0H, R0
0000135F A089                    		MOV.L R1, 0CH[R0]
00001361 910A                    		MOV.W R2, 0AH[R0]
00001363 9103                    		MOV.W R3, 08H[R0]
00001365 A00C                    		MOV.L R4, 04H[R0]
                                 ;    1204 {
                                 ;    1205     uint16_t        i;
                                 ;    1206 
                                 ;    1207     /* Get Configuration Descriptor */
                                 ;    1208     usb_ghstd_ClassRequest[ptr->ip][0]   = USB_GET_DESCRIPTOR | USB_DEV_TO_HOST | USB_STANDARD | USB_DEVICE;
                                 		.LINE  "C:\Workspace\e2studio\git\MT01\r_usb_basic\src\driver\host\r_usb_hmanager.c",1208
00001367 A889                    		MOV.L 0CH[R0], R1
00001369 B991                    		MOVU.W 0CH[R1], R1
0000136B 63A1                    		MUL #0AH, R1
0000136D FBE2rrrrrrrr            		MOV.L #_usb_ghstd_ClassRequest, R14
00001373 4B1E                    		ADD R1, R14
00001375 F8E98006                		MOV.W #0680H, [R14]
00001379                         L373:	; entry.split
                                 ;    1209     usb_ghstd_ClassRequest[ptr->ip][1]   = USB_CONF_DESCRIPTOR;
                                 		.LINE  "C:\Workspace\e2studio\git\MT01\r_usb_basic\src\driver\host\r_usb_hmanager.c",1209
00001379 A889                    		MOV.L 0CH[R0], R1
0000137B B991                    		MOVU.W 0CH[R1], R1
0000137D 63A1                    		MUL #0AH, R1
0000137F FBE2rrrrrrrr            		MOV.L #_usb_ghstd_ClassRequest, R14
00001385 4B1E                    		ADD R1, R14
00001387 F9E9010002              		MOV.W #0200H, 02H[R14]
0000138C                         L374:	; entry.split1
                                 ;    1210     usb_ghstd_ClassRequest[ptr->ip][2]   = (uint16_t)0x0000;
                                 		.LINE  "C:\Workspace\e2studio\git\MT01\r_usb_basic\src\driver\host\r_usb_hmanager.c",1210
0000138C A889                    		MOV.L 0CH[R0], R1
0000138E B991                    		MOVU.W 0CH[R1], R1
00001390 63A1                    		MUL #0AH, R1
00001392 FB22rrrrrrrr            		MOV.L #_usb_ghstd_ClassRequest, R2
00001398 4B12                    		ADD R1, R2
0000139A 3D2200                  		MOV.W #0000H, 04H[R2]
0000139D                         L375:	; entry.split2
                                 ;    1211     usb_ghstd_ClassRequest[ptr->ip][3]   = length;
                                 		.LINE  "C:\Workspace\e2studio\git\MT01\r_usb_basic\src\driver\host\r_usb_hmanager.c",1211
0000139D A889                    		MOV.L 0CH[R0], R1
0000139F B991                    		MOVU.W 0CH[R1], R1
000013A1 63A1                    		MUL #0AH, R1
000013A3 FB22rrrrrrrr            		MOV.L #_usb_ghstd_ClassRequest, R2
000013A9 4B12                    		ADD R1, R2
000013AB D5020403                		MOV.W 08H[R0], 06H[R2]
000013AF                         L376:	; entry.split3
                                 ;    1212     if( usb_ghstd_ClassRequest[ptr->ip][3] > CLSDATASIZE )
                                 		.LINE  "C:\Workspace\e2studio\git\MT01\r_usb_basic\src\driver\host\r_usb_hmanager.c",1212
000013AF A889                    		MOV.L 0CH[R0], R1
000013B1 B991                    		MOVU.W 0CH[R1], R1
000013B3 63A1                    		MUL #0AH, R1
000013B5 FB22rrrrrrrr            		MOV.L #_usb_ghstd_ClassRequest, R2
000013BB 4B12                    		ADD R1, R2
000013BD B8A9                    		MOVU.W 06H[R2], R1
000013BF 76010102                		CMP #0201H, R1
000013C3 29rr                    		BLT L378
000013C5                         L377:	; bb35
                                 ;    1213     {
                                 ;    1214         usb_ghstd_ClassRequest[ptr->ip][3] = (uint16_t)CLSDATASIZE;
                                 		.LINE  "C:\Workspace\e2studio\git\MT01\r_usb_basic\src\driver\host\r_usb_hmanager.c",1214
000013C5 A889                    		MOV.L 0CH[R0], R1
000013C7 B991                    		MOVU.W 0CH[R1], R1
000013C9 63A1                    		MUL #0AH, R1
000013CB FBE2rrrrrrrr            		MOV.L #_usb_ghstd_ClassRequest, R14
000013D1 4B1E                    		ADD R1, R14
000013D3 F9E9030002              		MOV.W #0200H, 06H[R14]
000013D8                         L378:	; bb54
                                 ;    1215         USB_PRINTF0("***WARNING Descriptor size over !\n");
                                 ;    1216     }
                                 ;    1217     usb_ghstd_ClassRequest[ptr->ip][4]   = addr;
                                 		.LINE  "C:\Workspace\e2studio\git\MT01\r_usb_basic\src\driver\host\r_usb_hmanager.c",1217
000013D8 A889                    		MOV.L 0CH[R0], R1
000013DA B991                    		MOVU.W 0CH[R1], R1
000013DC 63A1                    		MUL #0AH, R1
000013DE FB22rrrrrrrr            		MOV.L #_usb_ghstd_ClassRequest, R2
000013E4 4B12                    		ADD R1, R2
000013E6 D5020504                		MOV.W 0AH[R0], 08H[R2]
000013EA                         L379:	; bb54.split
                                 ;    1218 
                                 ;    1219     for( i = 0; i < usb_ghstd_ClassRequest[ptr->ip][3]; i++ )
                                 		.LINE  "C:\Workspace\e2studio\git\MT01\r_usb_basic\src\driver\host\r_usb_hmanager.c",1219
000013EA F80500                  		MOV.W #0000H, [R0]
000013ED 2Err                 B  		BRA L381
000013EF                         L380:	; bb63
                                 ;    1220     {
                                 ;    1221         usb_ghstd_ClassData[ptr->ip][i] = (uint8_t)0xFF;
                                 		.LINE  "C:\Workspace\e2studio\git\MT01\r_usb_basic\src\driver\host\r_usb_hmanager.c",1221
000013EF B991                    		MOVU.W 0CH[R1], R1
000013F1 6C91                    		SHLL #09H, R1
000013F3 FBE2rrrrrrrr            		MOV.L #_usb_ghstd_ClassData, R14
000013F9 4B1E                    		ADD R1, R14
000013FB FBF6FF                  		MOV.L #0FFFFFFFFH, R15
000013FE 5C01                    		MOVU.W [R0], R1
00001400 FE0E1F                  		MOV.B R15, [R14,R1]
00001403 DC01                    		MOV.W [R0], R1
00001405 6211                    		ADD #01H, R1
00001407 D301                    		MOV.W R1, [R0]
00001409                         L381:	; bb75
                                 		.LINE  "C:\Workspace\e2studio\git\MT01\r_usb_basic\src\driver\host\r_usb_hmanager.c",1219
00001409 A889                    		MOV.L 0CH[R0], R1
0000140B B992                    		MOVU.W 0CH[R1], R2
0000140D 63A2                    		MUL #0AH, R2
0000140F FBE2rrrrrrrr            		MOV.L #_usb_ghstd_ClassRequest, R14
00001415 4B2E                    		ADD R2, R14
00001417 5C02                    		MOVU.W [R0], R2
00001419 06C5E203                		CMP 06H[R14].UW, R2
0000141D 29rr                    		BLT L380
0000141F                         L382:	; bb90
                                 ;    1222     }
                                 ;    1223 
                                 ;    1224     return usb_hstd_CmdSubmit(ptr, complete);
                                 		.LINE  "C:\Workspace\e2studio\git\MT01\r_usb_basic\src\driver\host\r_usb_hmanager.c",1224
0000141F A80A                    		MOV.L 04H[R0], R2
00001421 39rrrr               W  		BSR __$usb_hstd_CmdSubmit
00001424 9009                    		MOV.W R1, 02H[R0]
00001426 9809                    		MOV.W 02H[R0], R1
00001428                         L383:	; bb90.split
                                 ;    1225 }
                                 		.LINE  "C:\Workspace\e2studio\git\MT01\r_usb_basic\src\driver\host\r_usb_hmanager.c",1225
00001428 5F11                    		MOVU.W R1, R1
0000142A 6704                    		RTSD #10H
0000142C                         _usb_hstd_StdReqCheck:
                                 		.STACK	_usb_hstd_StdReqCheck=12
                                 ;    1226 /******************************************************************************
                                 ;    1227 End of function usb_hstd_GetConfigDesc
                                 ;    1228 ******************************************************************************/
                                 ;    1229 
                                 ;    1230 
                                 ;    1231 /******************************************************************************
                                 ;    1232 Function Name   : usb_hstd_StdReqCheck
                                 ;    1233 Description     : Sample Standard Request Check
                                 ;    1234 Arguments       : uint16_t errcheck        : error
                                 ;    1235 Return value    : uint16_t                 : error info
                                 ;    1236 ******************************************************************************/
                                 ;    1237 uint16_t usb_hstd_StdReqCheck(uint16_t errcheck)
                                 		.LINE  "C:\Workspace\e2studio\git\MT01\r_usb_basic\src\driver\host\r_usb_hmanager.c",1237
0000142C 6080                    		SUB #08H, R0
0000142E 9089                    		MOV.W R1, 06H[R0]
                                 ;    1238 {
                                 ;    1239     if( errcheck == USB_DATA_TMO )
                                 		.LINE  "C:\Workspace\e2studio\git\MT01\r_usb_basic\src\driver\host\r_usb_hmanager.c",1239
00001430 6191                    		CMP #09H, R1
00001432 18                   S  		BNE L386
00001433                         L385:	; bb2
                                 ;    1240     {
                                 ;    1241         USB_PRINTF0("*** Standard Request Timeout error !\n");
                                 ;    1242         return  USB_ERROR;
                                 		.LINE  "C:\Workspace\e2studio\git\MT01\r_usb_basic\src\driver\host\r_usb_hmanager.c",1242
00001433 F90901FFFF              		MOV.W #0FFFFH, 02H[R0]
00001438 2Err                 B  		BRA L391
0000143A                         L386:	; bb5
                                 ;    1243     }
                                 ;    1244     else if( errcheck == USB_DATA_STALL )
                                 		.LINE  "C:\Workspace\e2studio\git\MT01\r_usb_basic\src\driver\host\r_usb_hmanager.c",1244
0000143A B889                    		MOVU.W 06H[R0], R1
0000143C 6161                    		CMP #06H, R1
0000143E 18                   S  		BNE L388
0000143F                         L387:	; bb6
                                 ;    1245     {
                                 ;    1246         USB_PRINTF0("*** Standard Request STALL !\n");
                                 ;    1247         return  USB_ERROR;
                                 		.LINE  "C:\Workspace\e2studio\git\MT01\r_usb_basic\src\driver\host\r_usb_hmanager.c",1247
0000143F F90901FFFF              		MOV.W #0FFFFH, 02H[R0]
00001444 2Err                 B  		BRA L391
00001446                         L388:	; bb9
                                 ;    1248     }
                                 ;    1249     else if( errcheck != USB_CTRL_END )
                                 		.LINE  "C:\Workspace\e2studio\git\MT01\r_usb_basic\src\driver\host\r_usb_hmanager.c",1249
00001446 B889                    		MOVU.W 06H[R0], R1
00001448 6101                    		CMP #00H, R1
0000144A 10                   S  		BEQ L390
0000144B                         L389:	; bb10
                                 ;    1250     {
                                 ;    1251         USB_PRINTF0("*** Standard Request error !\n");
                                 ;    1252         return  USB_ERROR;
                                 		.LINE  "C:\Workspace\e2studio\git\MT01\r_usb_basic\src\driver\host\r_usb_hmanager.c",1252
0000144B F90901FFFF              		MOV.W #0FFFFH, 02H[R0]
00001450 08                   S  		BRA L391
00001451                         L390:	; bb29
                                 ;    1253     }
                                 ;    1254     else
                                 ;    1255     {
                                 ;    1256     }
                                 ;    1257     return  USB_DONE;
                                 		.LINE  "C:\Workspace\e2studio\git\MT01\r_usb_basic\src\driver\host\r_usb_hmanager.c",1257
00001451 3D0100                  		MOV.W #0000H, 02H[R0]
00001454                         L391:	; bb31
00001454 D5000102                		MOV.W 02H[R0], 04H[R0]
                                 ;    1258 }
                                 		.LINE  "C:\Workspace\e2studio\git\MT01\r_usb_basic\src\driver\host\r_usb_hmanager.c",1258
00001458 B881                    		MOVU.W 04H[R0], R1
0000145A 6702                    		RTSD #08H
0000145C                         _usb_hstd_GetStringDesc:
                                 		.STACK	_usb_hstd_GetStringDesc=20
                                 ;    1259 /******************************************************************************
                                 ;    1260 End of function usb_hstd_StdReqCheck
                                 ;    1261 ******************************************************************************/
                                 ;    1262 
                                 ;    1263 
                                 ;    1264 /******************************************************************************
                                 ;    1265 Function Name   : usb_hstd_GetStringDesc
                                 ;    1266 Description     : Set GetDescriptor
                                 ;    1267 Arguments       : uint16_t addr            : device address
                                 ;    1268                 : uint16_t string          : descriptor index
                                 ;    1269                 : USB_CB_t complete        : callback function
                                 ;    1270 Return value    : uint16_t                 : error info
                                 ;    1271 ******************************************************************************/
                                 ;    1272 uint16_t usb_hstd_GetStringDesc(USB_UTR_t *ptr, uint16_t addr, uint16_t string, USB_CB_t complete)
                                 		.LINE  "C:\Workspace\e2studio\git\MT01\r_usb_basic\src\driver\host\r_usb_hmanager.c",1272
0000145C 7100F0                  		ADD #0FFFFFFF0H, R0
0000145F A089                    		MOV.L R1, 0CH[R0]
00001461 910A                    		MOV.W R2, 0AH[R0]
00001463 9103                    		MOV.W R3, 08H[R0]
00001465 A00C                    		MOV.L R4, 04H[R0]
                                 ;    1273 {
                                 ;    1274     uint16_t        i;
                                 ;    1275 
                                 ;    1276     if( string == 0 )
                                 		.LINE  "C:\Workspace\e2studio\git\MT01\r_usb_basic\src\driver\host\r_usb_hmanager.c",1276
00001467 A889                    		MOV.L 0CH[R0], R1
00001469 B991                    		MOVU.W 0CH[R1], R1
0000146B 63A1                    		MUL #0AH, R1
0000146D FB22rrrrrrrr            		MOV.L #_usb_ghstd_ClassRequest, R2
00001473 4B12                    		ADD R1, R2
00001475 B901                    		MOVU.W 08H[R0], R1
00001477 6101                    		CMP #00H, R1
00001479 21rr                    		BNE L395
0000147B                         L393:	; bb6
                                 ;    1277     {
                                 ;    1278         usb_ghstd_ClassRequest[ptr->ip][2] = (uint16_t)0x0000;
                                 		.LINE  "C:\Workspace\e2studio\git\MT01\r_usb_basic\src\driver\host\r_usb_hmanager.c",1278
0000147B 3D2200                  		MOV.W #0000H, 04H[R2]
0000147E                         L394:	; bb6.split
                                 ;    1279         usb_ghstd_ClassRequest[ptr->ip][3] = (uint16_t)0x0004;
                                 		.LINE  "C:\Workspace\e2studio\git\MT01\r_usb_basic\src\driver\host\r_usb_hmanager.c",1279
0000147E A88A                    		MOV.L 0CH[R0], R2
00001480 B9A2                    		MOVU.W 0CH[R2], R2
00001482 63A2                    		MUL #0AH, R2
00001484 FB12rrrrrrrr            		MOV.L #_usb_ghstd_ClassRequest, R1
0000148A 4B21                    		ADD R2, R1
0000148C 3D1304                  		MOV.W #0004H, 06H[R1]
0000148F 2Err                 B  		BRA L398
00001491                         L395:	; bb21
                                 ;    1280     }
                                 ;    1281     else
                                 ;    1282     {
                                 ;    1283         /* Set LanguageID */
                                 ;    1284         usb_ghstd_ClassRequest[ptr->ip][2] = (uint16_t)(usb_ghstd_ClassData[ptr->ip][2]);
                                 		.LINE  "C:\Workspace\e2studio\git\MT01\r_usb_basic\src\driver\host\r_usb_hmanager.c",1284
00001491 A889                    		MOV.L 0CH[R0], R1
00001493 B991                    		MOVU.W 0CH[R1], R1
00001495 6C91                    		SHLL #09H, R1
00001497 FB32rrrrrrrr            		MOV.L #_usb_ghstd_ClassData, R3
0000149D 4B13                    		ADD R1, R3
0000149F B0B1                    		MOVU.B 02H[R3], R1
000014A1 90A1                    		MOV.W R1, 04H[R2]
000014A3                         L396:	; bb21.split
                                 ;    1285         usb_ghstd_ClassRequest[ptr->ip][2] |= (uint16_t)((uint16_t)(usb_ghstd_ClassData[ptr->ip][3]) << 8);
                                 		.LINE  "C:\Workspace\e2studio\git\MT01\r_usb_basic\src\driver\host\r_usb_hmanager.c",1285
000014A3 A889                    		MOV.L 0CH[R0], R1
000014A5 B991                    		MOVU.W 0CH[R1], R1
000014A7 EF1E                    		MOV.L R1, R14
000014A9 63AE                    		MUL #0AH, R14
000014AB FB22rrrrrrrr            		MOV.L #_usb_ghstd_ClassRequest, R2
000014B1 4BE2                    		ADD R14, R2
000014B3 6C91                    		SHLL #09H, R1
000014B5 FB32rrrrrrrr            		MOV.L #_usb_ghstd_ClassData, R3
000014BB 4B13                    		ADD R1, R3
000014BD B0B9                    		MOVU.B 03H[R3], R1
000014BF 6C81                    		SHLL #08H, R1
000014C1 06552102                		OR 04H[R2].W, R1
000014C5 90A1                    		MOV.W R1, 04H[R2]
000014C7                         L397:	; bb21.split1
                                 ;    1286         usb_ghstd_ClassRequest[ptr->ip][3] = (uint16_t)CLSDATASIZE;
                                 		.LINE  "C:\Workspace\e2studio\git\MT01\r_usb_basic\src\driver\host\r_usb_hmanager.c",1286
000014C7 A889                    		MOV.L 0CH[R0], R1
000014C9 B991                    		MOVU.W 0CH[R1], R1
000014CB 63A1                    		MUL #0AH, R1
000014CD FBE2rrrrrrrr            		MOV.L #_usb_ghstd_ClassRequest, R14
000014D3 4B1E                    		ADD R1, R14
000014D5 F9E9030002              		MOV.W #0200H, 06H[R14]
000014DA                         L398:	; bb73
                                 ;    1287     }
                                 ;    1288     usb_ghstd_ClassRequest[ptr->ip][0]   = USB_GET_DESCRIPTOR | USB_DEV_TO_HOST | USB_STANDARD | USB_DEVICE;
                                 		.LINE  "C:\Workspace\e2studio\git\MT01\r_usb_basic\src\driver\host\r_usb_hmanager.c",1288
000014DA A889                    		MOV.L 0CH[R0], R1
000014DC B991                    		MOVU.W 0CH[R1], R1
000014DE 63A1                    		MUL #0AH, R1
000014E0 FBE2rrrrrrrr            		MOV.L #_usb_ghstd_ClassRequest, R14
000014E6 4B1E                    		ADD R1, R14
000014E8 F8E98006                		MOV.W #0680H, [R14]
000014EC                         L399:	; bb73.split
                                 ;    1289     usb_ghstd_ClassRequest[ptr->ip][1]   = (uint16_t)(USB_STRING_DESCRIPTOR + string);
                                 		.LINE  "C:\Workspace\e2studio\git\MT01\r_usb_basic\src\driver\host\r_usb_hmanager.c",1289
000014EC A889                    		MOV.L 0CH[R0], R1
000014EE B991                    		MOVU.W 0CH[R1], R1
000014F0 63A1                    		MUL #0AH, R1
000014F2 FB22rrrrrrrr            		MOV.L #_usb_ghstd_ClassRequest, R2
000014F8 4B12                    		ADD R1, R2
000014FA B901                    		MOVU.W 08H[R0], R1
000014FC 72110003                		ADD #0300H, R1
00001500 9029                    		MOV.W R1, 02H[R2]
00001502                         L400:	; bb73.split2
                                 ;    1290     usb_ghstd_ClassRequest[ptr->ip][4]   = addr;
                                 		.LINE  "C:\Workspace\e2studio\git\MT01\r_usb_basic\src\driver\host\r_usb_hmanager.c",1290
00001502 A889                    		MOV.L 0CH[R0], R1
00001504 B991                    		MOVU.W 0CH[R1], R1
00001506 63A1                    		MUL #0AH, R1
00001508 FB22rrrrrrrr            		MOV.L #_usb_ghstd_ClassRequest, R2
0000150E 4B12                    		ADD R1, R2
00001510 D5020504                		MOV.W 0AH[R0], 08H[R2]
00001514                         L401:	; bb73.split3
                                 ;    1291 
                                 ;    1292     for( i = 0; i < usb_ghstd_ClassRequest[ptr->ip][3]; i++ )
                                 		.LINE  "C:\Workspace\e2studio\git\MT01\r_usb_basic\src\driver\host\r_usb_hmanager.c",1292
00001514 F80500                  		MOV.W #0000H, [R0]
00001517 2Err                 B  		BRA L403
00001519                         L402:	; bb100
                                 ;    1293     {
                                 ;    1294         usb_ghstd_ClassData[ptr->ip][i] = (uint8_t)0xFF;
                                 		.LINE  "C:\Workspace\e2studio\git\MT01\r_usb_basic\src\driver\host\r_usb_hmanager.c",1294
00001519 B991                    		MOVU.W 0CH[R1], R1
0000151B 6C91                    		SHLL #09H, R1
0000151D FBE2rrrrrrrr            		MOV.L #_usb_ghstd_ClassData, R14
00001523 4B1E                    		ADD R1, R14
00001525 FBF6FF                  		MOV.L #0FFFFFFFFH, R15
00001528 5C01                    		MOVU.W [R0], R1
0000152A FE0E1F                  		MOV.B R15, [R14,R1]
0000152D DC01                    		MOV.W [R0], R1
0000152F 6211                    		ADD #01H, R1
00001531 D301                    		MOV.W R1, [R0]
00001533                         L403:	; bb112
                                 		.LINE  "C:\Workspace\e2studio\git\MT01\r_usb_basic\src\driver\host\r_usb_hmanager.c",1292
00001533 A889                    		MOV.L 0CH[R0], R1
00001535 B992                    		MOVU.W 0CH[R1], R2
00001537 63A2                    		MUL #0AH, R2
00001539 FBE2rrrrrrrr            		MOV.L #_usb_ghstd_ClassRequest, R14
0000153F 4B2E                    		ADD R2, R14
00001541 5C02                    		MOVU.W [R0], R2
00001543 06C5E203                		CMP 06H[R14].UW, R2
00001547 29rr                    		BLT L402
00001549                         L404:	; bb127
                                 ;    1295     }
                                 ;    1296 
                                 ;    1297     return usb_hstd_CmdSubmit(ptr, complete);
                                 		.LINE  "C:\Workspace\e2studio\git\MT01\r_usb_basic\src\driver\host\r_usb_hmanager.c",1297
00001549 A80A                    		MOV.L 04H[R0], R2
0000154B 39rrrr               W  		BSR __$usb_hstd_CmdSubmit
0000154E 9009                    		MOV.W R1, 02H[R0]
00001550 9809                    		MOV.W 02H[R0], R1
00001552                         L405:	; bb127.split
                                 ;    1298 }
                                 		.LINE  "C:\Workspace\e2studio\git\MT01\r_usb_basic\src\driver\host\r_usb_hmanager.c",1298
00001552 5F11                    		MOVU.W R1, R1
00001554 6704                    		RTSD #10H
00001556                         _usb_hstd_MgrTask:
                                 		.STACK	_usb_hstd_MgrTask=52
                                 ;    1299 /******************************************************************************
                                 ;    1300 End of function usb_hstd_GetStringDesc
                                 ;    1301 ******************************************************************************/
                                 ;    1302 
                                 ;    1303 
                                 ;    1304 #ifdef USB_HOST_COMPLIANCE_MODE
                                 ;    1305 #ifdef USB_HS_EL_TEST
                                 ;    1306 /******************************************************************************
                                 ;    1307 Function Name   : usb_hstd_ElectricalTestMode
                                 ;    1308 Description     : Host electrical test mode function
                                 ;    1309 Argument        : product_id          : Task Start Code
                                 ;    1310                 : port                : rootport number
                                 ;    1311 Return          : none
                                 ;    1312 ******************************************************************************/
                                 ;    1313 void usb_hstd_ElectricalTestMode(USB_UTR_t *ptr, uint16_t product_id, uint16_t port)
                                 ;    1314 {
                                 ;    1315     uint16_t    brdysts;
                                 ;    1316 
                                 ;    1317 
                                 ;    1318     switch(product_id)
                                 ;    1319     {
                                 ;    1320     case 0x0101:    /* Test_SE0_NAK */
                                 ;    1321         usb_hstd_TestSignal(ptr, port, 3);
                                 ;    1322         while(1);   /* This loops infinitely until it's reset. */
                                 ;    1323         break;
                                 ;    1324     case 0x0102:    /* Test_J */
                                 ;    1325         usb_hstd_TestSignal(ptr, port, 1);
                                 ;    1326         while(1);   /* This loops infinitely until it's reset. */
                                 ;    1327         break;
                                 ;    1328     case 0x0103:    /* Test_K */
                                 ;    1329         usb_hstd_TestSignal(ptr, port, 2);
                                 ;    1330         while(1);   /* This loops infinitely until it's reset. */
                                 ;    1331         break;
                                 ;    1332     case 0x0104:    /* Test_Packet */
                                 ;    1333         usb_hstd_TestSignal(ptr, port, 4);
                                 ;    1334         while(1);   /* This loops infinitely until it's reset. */
                                 ;    1335         break;
                                 ;    1336     case 0x0105:    /* Reserved */
                                 ;    1337         break;
                                 ;    1338     case 0x0106:    /* HS_HOST_PORT_SUSPEND_RESUME */
                                 ;    1339         usb_cpu_DelayXms(15000);  /* wait 15sec */
                                 ;    1340         usb_hstd_TestSuspend(ptr, port);
                                 ;    1341         usb_cpu_DelayXms(15000);  /* wait 15sec */
                                 ;    1342         usb_hstd_TestResume(ptr, port);
                                 ;    1343         break;
                                 ;    1344     case 0x0107:    /* SINGLE_STEP_GET_DEV_DESC */
                                 ;    1345         usb_cpu_DelayXms(15000);  /* wait 15sec */
                                 ;    1346         usb_hreg_write_usbreq(ptr, (USB_GET_DESCRIPTOR | USB_DEV_TO_HOST | USB_STANDARD | USB_DEVICE));
                                 ;    1347         usb_hreg_set_usbval(ptr, USB_DEV_DESCRIPTOR);
                                 ;    1348         usb_hreg_set_usbleng(ptr, 0x0012);
                                 ;    1349         usb_hreg_set_sureq(ptr);
                                 ;    1350         break;
                                 ;    1351     case 0x0108:    /* SINGLE_STEP_GET_DEV_DESC_DATA */
                                 ;    1352         usb_hreg_write_usbreq(ptr, (USB_GET_DESCRIPTOR | USB_DEV_TO_HOST | USB_STANDARD | USB_DEVICE));
                                 ;    1353         usb_hreg_set_usbval(ptr, USB_DEV_DESCRIPTOR);
                                 ;    1354         usb_hreg_set_usbindx(ptr, 0x0000);
                                 ;    1355         usb_hreg_set_usbleng(ptr, 0x0012);
                                 ;    1356         usb_hreg_set_sureq(ptr);
                                 ;    1357         usb_cpu_DelayXms(15000);  /* wait 15sec */
                                 ;    1358 
                                 ;    1359         usb_cstd_SetNak(ptr, USB_PIPE0);
                                 ;    1360         usb_creg_write_dcpcfg(ptr, 0);
                                 ;    1361         usb_creg_rmw_fifosel(ptr, USB_CUSE, (USB_RCNT|USB_PIPE0), (USB_RCNT|USB_ISEL|USB_CURPIPE));
                                 ;    1362         usb_creg_set_bclr(ptr, USB_CUSE);
                                 ;    1363         usb_cstd_SetBuf(ptr,USB_PIPE0);
                                 ;    1364         do
                                 ;    1365         {
                                 ;    1366             brdysts = usb_creg_read_brdysts(ptr);
                                 ;    1367         }while( !(brdysts&USB_BRDY0));
                                 ;    1368         usb_cstd_SetNak(ptr, USB_PIPE0);
                                 ;    1369         usb_creg_set_sqclr(ptr, USB_PIPE0);
                                 ;    1370         usb_creg_set_bclr(ptr, USB_CUSE);
                                 ;    1371         break;
                                 ;    1372     default:
                                 ;    1373         break;
                                 ;    1374     }
                                 ;    1375 }
                                 ;    1376 /******************************************************************************
                                 ;    1377 End of function usb_hstd_ElectricalTestMode
                                 ;    1378 ******************************************************************************/
                                 ;    1379 #endif /* USB_HS_EL_TEST */
                                 ;    1380 #endif /* USB_HOST_COMPLIANCE_MODE */
                                 ;    1381 
                                 ;    1382 #endif  /* (USB_FUNCSEL_USBIP0_PP == USB_HOST_PP) || (USB_FUNCSEL_USBIP1_PP == USB_HOST_PP) */
                                 ;    1383 
                                 ;    1384 /******************************************************************************
                                 ;    1385 Function Name   : usb_hstd_MgrTask
                                 ;    1386 Description     : The host manager (MGR) task.
                                 ;    1387 Argument        : USB_VP_INT stacd          : Task Start Code
                                 ;    1388 Return          : none
                                 ;    1389 ******************************************************************************/
                                 ;    1390 void usb_hstd_MgrTask(USB_VP_INT stacd)
                                 		.LINE  "C:\Workspace\e2studio\git\MT01\r_usb_basic\src\driver\host\r_usb_hmanager.c",1390
00001556 7100D4                  		ADD #0FFFFFFD4H, R0
00001559 A281                    		MOV.L R1, 28H[R0]
0000155B 38rrrr               W  		BRA L572
0000155E                         L407:	; bb19
                                 ;    1391 {
                                 ;    1392 #if (USB_FUNCSEL_USBIP0_PP == USB_HOST_PP) || (USB_FUNCSEL_USBIP1_PP == USB_HOST_PP)
                                 ;    1393     USB_UTR_t       *mess, *ptr;
                                 ;    1394     USB_ER_t        err;
                                 ;    1395     USB_HCDREG_t    *driver;
                                 ;    1396     USB_HCDINFO_t   *hp;
                                 ;    1397     uint16_t        rootport, devaddr, devsel, pipenum, msginfo;
                                 ;    1398     uint16_t        md;
                                 ;    1399     uint16_t        enume_mode; /* Enumeration mode (device state) */
                                 ;    1400     uint16_t        connect_speed;
                                 ;    1401 /* Condition compilation by the difference of the devices */
                                 ;    1402 #if USB_PORTSEL_PP == USB_2PORT_PP
                                 ;    1403     uint16_t        elseport;
                                 ;    1404 #endif  /* USB_PORTSEL_PP == USB_2PORT_PP */
                                 ;    1405 #ifdef FREE_RTOS_PP
                                 ;    1406     for( ;; )
                                 ;    1407     {
                                 ;    1408 #endif
                                 ;    1409     /* Receive message */
                                 ;    1410     err = USB_TRCV_MSG(USB_MGR_MBX, (USB_MSG_t**)&mess, (USB_TM_t)10000);
                                 ;    1411     if ( (err != USB_E_OK) && (err != USB_E_TMOUT) )
                                 ;    1412     {
                                 ;    1413 #ifdef FREE_RTOS_PP
                                 ;    1414         continue;
                                 ;    1415 #else
                                 ;    1416         return;
                                 ;    1417 #endif
                                 ;    1418     }
                                 ;    1419     else
                                 ;    1420     {
                                 ;    1421         usb_shstd_MgrMsg[mess->ip]    = (USB_MGRINFO_t*)mess;
                                 		.LINE  "C:\Workspace\e2studio\git\MT01\r_usb_basic\src\driver\host\r_usb_hmanager.c",1421
0000155E A809                    		MOV.L 04H[R0], R1
00001560 B992                    		MOVU.W 0CH[R1], R2
00001562 FBE2rrrrrrrr            		MOV.L #__$usb_shstd_MgrMsg, R14
00001568 FE22E1                  		MOV.L R1, [R2,R14]
0000156B                         L408:	; bb19.split
                                 ;    1422         rootport    = usb_shstd_MgrMsg[mess->ip]->keyword;
                                 		.LINE  "C:\Workspace\e2studio\git\MT01\r_usb_basic\src\driver\host\r_usb_hmanager.c",1422
0000156B A809                    		MOV.L 04H[R0], R1
0000156D B991                    		MOVU.W 0CH[R1], R1
0000156F FBE2rrrrrrrr            		MOV.L #__$usb_shstd_MgrMsg, R14
00001575 FE61E1                  		MOV.L [R1,R14], R1
00001578 D510030C                		MOV.W 06H[R1], 18H[R0]
0000157C                         L409:	; bb19.split1
                                 ;    1423         devaddr     = usb_shstd_MgrMsg[mess->ip]->keyword;
                                 		.LINE  "C:\Workspace\e2studio\git\MT01\r_usb_basic\src\driver\host\r_usb_hmanager.c",1423
0000157C A809                    		MOV.L 04H[R0], R1
0000157E B991                    		MOVU.W 0CH[R1], R1
00001580 FBE2rrrrrrrr            		MOV.L #__$usb_shstd_MgrMsg, R14
00001586 FE61E1                  		MOV.L [R1,R14], R1
00001589 D510030D                		MOV.W 06H[R1], 1AH[R0]
0000158D                         L410:	; bb19.split2
                                 ;    1424         pipenum     = usb_shstd_MgrMsg[mess->ip]->keyword;
                                 		.LINE  "C:\Workspace\e2studio\git\MT01\r_usb_basic\src\driver\host\r_usb_hmanager.c",1424
0000158D A809                    		MOV.L 04H[R0], R1
0000158F B991                    		MOVU.W 0CH[R1], R1
00001591 FBE2rrrrrrrr            		MOV.L #__$usb_shstd_MgrMsg, R14
00001597 FE61E1                  		MOV.L [R1,R14], R1
0000159A D510030F                		MOV.W 06H[R1], 1EH[R0]
0000159E                         L411:	; bb19.split3
                                 ;    1425         devsel      = (uint16_t)(devaddr << USB_DEVADDRBIT);
                                 		.LINE  "C:\Workspace\e2studio\git\MT01\r_usb_basic\src\driver\host\r_usb_hmanager.c",1425
0000159E 9B09                    		MOV.W 1AH[R0], R1
000015A0 6CC1                    		SHLL #0CH, R1
000015A2 9381                    		MOV.W R1, 1CH[R0]
000015A4                         L412:	; bb19.split4
                                 ;    1426         hp          = (USB_HCDINFO_t*)mess;
                                 		.LINE  "C:\Workspace\e2studio\git\MT01\r_usb_basic\src\driver\host\r_usb_hmanager.c",1426
000015A4 E5000105                		MOV.L 04H[R0], 14H[R0]
000015A8                         L413:	; bb19.split5
                                 ;    1427         ptr         = mess;
                                 		.LINE  "C:\Workspace\e2studio\git\MT01\r_usb_basic\src\driver\host\r_usb_hmanager.c",1427
000015A8 E5000102                		MOV.L 04H[R0], 08H[R0]
000015AC                         L414:	; bb19.split6
                                 ;    1428 
                                 ;    1429         /* Detach is all device */
                                 ;    1430         msginfo = usb_shstd_MgrMsg[ptr->ip]->msginfo;
                                 		.LINE  "C:\Workspace\e2studio\git\MT01\r_usb_basic\src\driver\host\r_usb_hmanager.c",1430
000015AC A881                    		MOV.L 08H[R0], R1
000015AE B991                    		MOVU.W 0CH[R1], R1
000015B0 FBE2rrrrrrrr            		MOV.L #__$usb_shstd_MgrMsg, R14
000015B6 FE61E1                  		MOV.L [R1,R14], R1
000015B9 D5100210                		MOV.W 04H[R1], 20H[R0]
000015BD                         L415:	; bb19.split7
                                 ;    1431         switch( usb_shstd_MgrMsg[ptr->ip]->msginfo )
                                 		.LINE  "C:\Workspace\e2studio\git\MT01\r_usb_basic\src\driver\host\r_usb_hmanager.c",1431
000015BD A881                    		MOV.L 08H[R0], R1
000015BF B991                    		MOVU.W 0CH[R1], R1
000015C1 FBE2rrrrrrrr            		MOV.L #__$usb_shstd_MgrMsg, R14
000015C7 FE61E1                  		MOV.L [R1,R14], R1
000015CA B891                    		MOVU.W 04H[R1], R1
000015CC 76010501                		CMP #0105H, R1
000015D0 3Arrrr               W  		BEQ L562
000015D3                         L416:	; bb19.split7
000015D3 76012101                		CMP #0121H, R1
000015D7 3Arrrr               W  		BEQ L491
000015DA                         L417:	; bb19.split7
000015DA 76012201                		CMP #0122H, R1
000015DE 3Arrrr               W  		BEQ L519
000015E1                         L418:	; bb19.split7
000015E1 76010802                		CMP #0208H, R1
000015E5 3Arrrr               W  		BEQ L564
000015E8                         L419:	; bb19.split7
000015E8 76012401                		CMP #0124H, R1
000015EC 3Arrrr               W  		BEQ L456
000015EF                         L420:	; bb19.split7
000015EF 76010202                		CMP #0202H, R1
000015F3 3Arrrr               W  		BEQ L536
000015F6                         L421:	; bb19.split7
000015F6 76010302                		CMP #0203H, R1
000015FA 3Arrrr               W  		BEQ L541
000015FD                         L422:	; bb19.split7
000015FD 76010402                		CMP #0204H, R1
00001601 3Arrrr               W  		BEQ L546
00001604                         L423:	; bb19.split7
00001604 76010502                		CMP #0205H, R1
00001608 3Arrrr               W  		BEQ L551
0000160B                         L424:	; bb19.split7
0000160B 76010602                		CMP #0206H, R1
0000160F 3Arrrr               W  		BEQ L555
00001612                         L425:	; bb19.split7
00001612 76010702                		CMP #0207H, R1
00001616 3Arrrr               W  		BEQ L558
00001619                         L426:	; bb19.split7
00001619 76012301                		CMP #0123H, R1
0000161D 3Brrrr               W  		BNE L567
00001620                         L427:	; bb73
                                 ;    1432         {
                                 ;    1433         /* USB-bus control (change device state) */
                                 ;    1434         case USB_MSG_MGR_STATUSRESULT:
                                 ;    1435             switch( usb_ghstd_MgrMode[ptr->ip][rootport] )
                                 		.LINE  "C:\Workspace\e2studio\git\MT01\r_usb_basic\src\driver\host\r_usb_hmanager.c",1435
00001620 A881                    		MOV.L 08H[R0], R1
00001622 B991                    		MOVU.W 0CH[R1], R1
00001624 6C21                    		SHLL #02H, R1
00001626 FBE2rrrrrrrr            		MOV.L #_usb_ghstd_MgrMode, R14
0000162C 4B1E                    		ADD R1, R14
0000162E BB01                    		MOVU.W 18H[R0], R1
00001630 FED1EE                  		MOVU.W [R1,R14], R14
00001633 61AE                    		CMP #0AH, R14
00001635 3Arrrr               W  		BEQ L453
00001638                         L428:	; bb73
00001638 755E67                  		CMP #67H, R14
0000163B 3Arrrr               W  		BEQ L452
0000163E                         L429:	; bb73
0000163E 755E50                  		CMP #50H, R14
00001641 3Arrrr               W  		BEQ L442
00001644                         L430:	; bb73
00001644 755E28                  		CMP #28H, R14
00001647 3Brrrr               W  		BNE L455
0000164A                         L431:	; bb85
                                 ;    1436             {
                                 ;    1437             /* End of reset signal */
                                 ;    1438             case USB_DEFAULT:
                                 ;    1439                 usb_ghstd_DeviceSpeed[ptr->ip] = usb_shstd_MgrMsg[ptr->ip]->result;
                                 		.LINE  "C:\Workspace\e2studio\git\MT01\r_usb_basic\src\driver\host\r_usb_hmanager.c",1439
0000164A A881                    		MOV.L 08H[R0], R1
0000164C B991                    		MOVU.W 0CH[R1], R1
0000164E FBE2rrrrrrrr            		MOV.L #__$usb_shstd_MgrMsg, R14
00001654 FE61E2                  		MOV.L [R1,R14], R2
00001657 99AA                    		MOV.W 0EH[R2], R2
00001659 FBE2rrrrrrrr            		MOV.L #_usb_ghstd_DeviceSpeed, R14
0000165F FE11E2                  		MOV.W R2, [R1,R14]
00001662                         L432:	; bb85.split
                                 ;    1440                 /* Set device speed */
                                 ;    1441                 usb_hstd_SetDevAddr(ptr, (uint16_t)USB_DEVICE_0, usb_ghstd_DeviceSpeed[ptr->ip], rootport);
                                 		.LINE  "C:\Workspace\e2studio\git\MT01\r_usb_basic\src\driver\host\r_usb_hmanager.c",1441
00001662 A881                    		MOV.L 08H[R0], R1
00001664 B992                    		MOVU.W 0CH[R1], R2
00001666 FBE2rrrrrrrr            		MOV.L #_usb_ghstd_DeviceSpeed, R14
0000166C FED2E3                  		MOVU.W [R2,R14], R3
0000166F BB04                    		MOVU.W 18H[R0], R4
00001671 6602                    		MOV.L #00000000H, R2
00001673 05rrrrrr             A  		BSR _usb_hstd_SetDevAddr
00001677                         L433:	; bb85.split8
                                 ;    1442                 usb_ghstd_DcpRegister[ptr->ip][0] = (uint16_t)(USB_DEFPACKET + USB_DEVICE_0);
                                 		.LINE  "C:\Workspace\e2studio\git\MT01\r_usb_basic\src\driver\host\r_usb_hmanager.c",1442
00001677 A881                    		MOV.L 08H[R0], R1
00001679 B991                    		MOVU.W 0CH[R1], R1
0000167B 751116                  		MUL #16H, R1
0000167E FBE2rrrrrrrr            		MOV.L #_usb_ghstd_DcpRegister, R14
00001684 4B1E                    		ADD R1, R14
00001686 F8E540                  		MOV.W #0040H, [R14]
00001689                         L434:	; bb85.split9
                                 ;    1443                 usb_ghstd_EnumSeq[ptr->ip] = 0;
                                 		.LINE  "C:\Workspace\e2studio\git\MT01\r_usb_basic\src\driver\host\r_usb_hmanager.c",1443
00001689 A881                    		MOV.L 08H[R0], R1
0000168B B991                    		MOVU.W 0CH[R1], R1
0000168D FBE2rrrrrrrr            		MOV.L #_usb_ghstd_EnumSeq, R14
00001693 660F                    		MOV.L #00000000H, R15
00001695 FE11EF                  		MOV.W R15, [R1,R14]
00001698                         L435:	; bb85.split10
                                 ;    1444                 switch( usb_ghstd_DeviceSpeed[ptr->ip] )
                                 		.LINE  "C:\Workspace\e2studio\git\MT01\r_usb_basic\src\driver\host\r_usb_hmanager.c",1444
00001698 A881                    		MOV.L 08H[R0], R1
0000169A B991                    		MOVU.W 0CH[R1], R1
0000169C FBE2rrrrrrrr            		MOV.L #_usb_ghstd_DeviceSpeed, R14
000016A2 FED1EE                  		MOVU.W [R1,R14], R14
000016A5 755E40                  		CMP #40H, R14
000016A8 20rr                    		BEQ L440
000016AA                         L436:	; bb85.split10
000016AA 755E80                  		CMP #80H, R14
000016AD 20rr                    		BEQ L439
000016AF                         L437:	; bb85.split10
000016AF 755EC0                  		CMP #0C0H, R14
000016B2 21rr                    		BNE L441
000016B4                         L438:	; bb126
                                 ;    1445                 {
                                 ;    1446                 case USB_HSCONNECT: /* Hi Speed Device Connect */
                                 ;    1447                     USB_PRINTF0(" Hi-Speed Device\n");
                                 ;    1448                     (*usb_ghstd_EnumarationProcess[0])(ptr, (uint16_t)USB_DEVICE_0, (uint16_t)0);
                                 		.LINE  "C:\Workspace\e2studio\git\MT01\r_usb_basic\src\driver\host\r_usb_hmanager.c",1448
000016B4 FBE2rrrrrrrr            		MOV.L #_usb_ghstd_EnumarationProcess, R14
000016BA ECEE                    		MOV.L [R14], R14
000016BC A881                    		MOV.L 08H[R0], R1
000016BE 6602                    		MOV.L #00000000H, R2
000016C0 EF23                    		MOV.L R2, R3
000016C2 7F1E                    		JSR R14
000016C4 38rrrr               W  		BRA L455
000016C7                         L439:	; bb129
                                 ;    1449                     break;
                                 ;    1450                 case USB_FSCONNECT: /* Full Speed Device Connect */
                                 ;    1451                     USB_PRINTF0(" Full-Speed Device\n");
                                 ;    1452                     (*usb_ghstd_EnumarationProcess[0])(ptr, (uint16_t)USB_DEVICE_0, (uint16_t)0);
                                 		.LINE  "C:\Workspace\e2studio\git\MT01\r_usb_basic\src\driver\host\r_usb_hmanager.c",1452
000016C7 FBE2rrrrrrrr            		MOV.L #_usb_ghstd_EnumarationProcess, R14
000016CD ECEE                    		MOV.L [R14], R14
000016CF A881                    		MOV.L 08H[R0], R1
000016D1 6602                    		MOV.L #00000000H, R2
000016D3 EF23                    		MOV.L R2, R3
000016D5 7F1E                    		JSR R14
000016D7 38rrrr               W  		BRA L455
000016DA                         L440:	; bb132
                                 ;    1453                     break;
                                 ;    1454                 case USB_LSCONNECT: /* Low Speed Device Connect */
                                 ;    1455                     USB_PRINTF0(" Low-Speed Device\n");
                                 ;    1456                     usb_hstd_LsConnectFunction(ptr);
                                 		.LINE  "C:\Workspace\e2studio\git\MT01\r_usb_basic\src\driver\host\r_usb_hmanager.c",1456
000016DA A881                    		MOV.L 08H[R0], R1
000016DC 05rrrrrr             A  		BSR _usb_hstd_LsConnectFunction
000016E0 38rrrr               W  		BRA L455
000016E3                         L441:	; bb134
                                 ;    1457                     break;
                                 ;    1458                 default:
                                 ;    1459                     USB_PRINTF0(" Device/Detached\n");
                                 ;    1460                     usb_ghstd_MgrMode[ptr->ip][rootport] = USB_DETACHED;
                                 		.LINE  "C:\Workspace\e2studio\git\MT01\r_usb_basic\src\driver\host\r_usb_hmanager.c",1460
000016E3 A881                    		MOV.L 08H[R0], R1
000016E5 B991                    		MOVU.W 0CH[R1], R1
000016E7 6C21                    		SHLL #02H, R1
000016E9 FBE2rrrrrrrr            		MOV.L #_usb_ghstd_MgrMode, R14
000016EF 4B1E                    		ADD R1, R14
000016F1 66AF                    		MOV.L #0000000AH, R15
000016F3 BB01                    		MOVU.W 18H[R0], R1
000016F5 FE11EF                  		MOV.W R15, [R1,R14]
000016F8 38rrrr               W  		BRA L455
000016FB                         L442:	; bb146
                                 ;    1461                     break;
                                 ;    1462                 }
                                 ;    1463                 break;
                                 ;    1464             /* End of resume signal */
                                 ;    1465             case USB_CONFIGURED:
                                 ;    1466                 /* This Resume Sorce is moved to usb_hResuCont() by nonOS */
                                 ;    1467                 break;
                                 ;    1468             /* Start of suspended state */
                                 ;    1469             case USB_SUSPENDED:
                                 ;    1470                 for( md = 0; md < usb_ghstd_DeviceNum[ptr->ip]; md++ )
                                 		.LINE  "C:\Workspace\e2studio\git\MT01\r_usb_basic\src\driver\host\r_usb_hmanager.c",1470
000016FB 3D8100                  		MOV.W #0000H, 22H[R0]
000016FE 2Err                 B  		BRA L451
00001700                         L443:	; bb147
                                 ;    1471                 {
                                 ;    1472                     driver = &usb_ghstd_DeviceDrv[ptr->ip][md];
                                 		.LINE  "C:\Workspace\e2studio\git\MT01\r_usb_basic\src\driver\host\r_usb_hmanager.c",1472
00001700 A881                    		MOV.L 08H[R0], R1
00001702 B991                    		MOVU.W 0CH[R1], R1
00001704 7611B801                		MUL #01B8H, R1
00001708 FB22rrrrrrrr            		MOV.L #_usb_ghstd_DeviceDrv, R2
0000170E 4B12                    		ADD R1, R2
00001710 BC09                    		MOVU.W 22H[R0], R1
00001712 751128                  		MUL #28H, R1
00001715 4B12                    		ADD R1, R2
00001717 A102                    		MOV.L R2, 10H[R0]
00001719                         L444:	; bb147.split
                                 ;    1473                     if( driver->devaddr == (rootport + USB_DEVICEADDR) )
                                 		.LINE  "C:\Workspace\e2studio\git\MT01\r_usb_basic\src\driver\host\r_usb_hmanager.c",1473
00001719 A901                    		MOV.L 10H[R0], R1
0000171B B819                    		MOVU.W 02H[R1], R1
0000171D BB02                    		MOVU.W 18H[R0], R2
0000171F 6212                    		ADD #01H, R2
00001721 4721                    		CMP R2, R1
00001723 21rr                    		BNE L450
00001725                         L445:	; bb158
                                 ;    1474                     {
                                 ;    1475                         (*driver->devsuspend)(ptr, driver->devaddr, (uint16_t)USB_NO_ARG);
                                 		.LINE  "C:\Workspace\e2studio\git\MT01\r_usb_basic\src\driver\host\r_usb_hmanager.c",1475
00001725 A901                    		MOV.L 10H[R0], R1
00001727 B81A                    		MOVU.W 02H[R1], R2
00001729 AA14                    		MOV.L 20H[R1], R4
0000172B A881                    		MOV.L 08H[R0], R1
0000172D 6603                    		MOV.L #00000000H, R3
0000172F 7F14                    		JSR R4
00001731                         L446:	; bb158.split
                                 ;    1476 
                                 ;    1477                         if( usb_shstd_mgr_msginfo[ptr->ip] == USB_DO_GLOBAL_SUSPEND )
                                 		.LINE  "C:\Workspace\e2studio\git\MT01\r_usb_basic\src\driver\host\r_usb_hmanager.c",1477
00001731 A881                    		MOV.L 08H[R0], R1
00001733 B991                    		MOVU.W 0CH[R1], R1
00001735 FBE2rrrrrrrr            		MOV.L #__$usb_shstd_mgr_msginfo, R14
0000173B FED1EE                  		MOVU.W [R1,R14], R14
0000173E 760E0502                		CMP #0205H, R14
00001742 18                   S  		BNE L448
00001743                         L447:	; bb167
                                 ;    1478                         {
                                 ;    1479                             usb_hstd_mgr_chgdevst_cb(ptr, rootport);
                                 		.LINE  "C:\Workspace\e2studio\git\MT01\r_usb_basic\src\driver\host\r_usb_hmanager.c",1479
00001743 BB02                    		MOVU.W 18H[R0], R2
00001745 A881                    		MOV.L 08H[R0], R1
00001747 39rrrr               W  		BSR __$usb_hstd_mgr_chgdevst_cb
0000174A                         L448:	; bb179
                                 ;    1480                         }
                                 ;    1481                         /* Device state */
                                 ;    1482                         usb_ghstd_DeviceInfo[ptr->ip][driver->devaddr][1] = USB_SUSPENDED;
                                 		.LINE  "C:\Workspace\e2studio\git\MT01\r_usb_basic\src\driver\host\r_usb_hmanager.c",1482
0000174A A881                    		MOV.L 08H[R0], R1
0000174C B991                    		MOVU.W 0CH[R1], R1
0000174E 7611B000                		MUL #0B0H, R1
00001752 FB22rrrrrrrr            		MOV.L #_usb_ghstd_DeviceInfo, R2
00001758 4B12                    		ADD R1, R2
0000175A A901                    		MOV.L 10H[R0], R1
0000175C B819                    		MOVU.W 02H[R1], R1
0000175E 6C41                    		SHLL #04H, R1
00001760 4B12                    		ADD R1, R2
00001762 3D2150                  		MOV.W #0050H, 02H[R2]
00001765                         L449:	; bb179.split
                                 ;    1483                         /* Device state */
                                 ;    1484                         driver->devstate = USB_SUSPENDED;
                                 		.LINE  "C:\Workspace\e2studio\git\MT01\r_usb_basic\src\driver\host\r_usb_hmanager.c",1484
00001765 A901                    		MOV.L 10H[R0], R1
00001767 3D1250                  		MOV.W #0050H, 04H[R1]
0000176A                         L450:	; bb205
0000176A 9C09                    		MOV.W 22H[R0], R1
0000176C 6211                    		ADD #01H, R1
0000176E 9409                    		MOV.W R1, 22H[R0]
00001770                         L451:	; bb208
                                 		.LINE  "C:\Workspace\e2studio\git\MT01\r_usb_basic\src\driver\host\r_usb_hmanager.c",1470
00001770 A881                    		MOV.L 08H[R0], R1
00001772 B991                    		MOVU.W 0CH[R1], R1
00001774 FBE2rrrrrrrr            		MOV.L #_usb_ghstd_DeviceNum, R14
0000177A FED1EE                  		MOVU.W [R1,R14], R14
0000177D BC09                    		MOVU.W 22H[R0], R1
0000177F 47E1                    		CMP R14, R1
00001781 28rr                  * 		BLT L443
         38rrrr                  
00001786 2Err                 B  		BRA L455
00001788                         L452:	; bb222
                                 ;    1485                     }
                                 ;    1486                 }
                                 ;    1487                 break;
                                 ;    1488             /* Continue of resume signal */
                                 ;    1489             case    USB_RESUME_PROCESS:
                                 ;    1490                 /* Resume Sequence Number is 0 */
                                 ;    1491                 usb_hstd_ResuCont(ptr, (uint16_t)(USB_DEVICEADDR + rootport), (uint16_t)rootport);
                                 		.LINE  "C:\Workspace\e2studio\git\MT01\r_usb_basic\src\driver\host\r_usb_hmanager.c",1491
00001788 BB03                    		MOVU.W 18H[R0], R3
0000178A A881                    		MOV.L 08H[R0], R1
0000178C 713E01                  		ADD #01H, R3, R14
0000178F 5FE2                    		MOVU.W R14, R2
00001791 39rrrr               W  		BSR __$usb_hstd_ResuCont
00001794 2Err                 B  		BRA L455
00001796                         L453:	; bb229
                                 ;    1492                 break;
                                 ;    1493 
                                 ;    1494             case    USB_DETACHED:
                                 ;    1495                 switch( usb_shstd_mgr_msginfo[ptr->ip] )
                                 		.LINE  "C:\Workspace\e2studio\git\MT01\r_usb_basic\src\driver\host\r_usb_hmanager.c",1495
00001796 A881                    		MOV.L 08H[R0], R1
00001798 B991                    		MOVU.W 0CH[R1], R1
0000179A FBE2rrrrrrrr            		MOV.L #__$usb_shstd_mgr_msginfo, R14
000017A0 FED1EE                  		MOVU.W [R1,R14], R14
000017A3 760E0402                		CMP #0204H, R14
000017A7 18                   S  		BNE L455
000017A8                         L454:	; bb237
                                 ;    1496                 {
                                 ;    1497                 case    USB_PORT_DISABLE:
                                 ;    1498                     usb_hstd_mgr_chgdevst_cb(ptr, rootport);
                                 		.LINE  "C:\Workspace\e2studio\git\MT01\r_usb_basic\src\driver\host\r_usb_hmanager.c",1498
000017A8 BB02                    		MOVU.W 18H[R0], R2
000017AA A881                    		MOV.L 08H[R0], R1
000017AC 39rrrr               W  		BSR __$usb_hstd_mgr_chgdevst_cb
000017AF                         L455:	; bb243
                                 ;    1499                     break;
                                 ;    1500                 default:
                                 ;    1501                     break;
                                 ;    1502                 }
                                 ;    1503                 break;
                                 ;    1504 
                                 ;    1505             default:
                                 ;    1506                 break;
                                 ;    1507             }
                                 ;    1508             usb_hstd_MgrRelMpl(ptr,msginfo);
                                 		.LINE  "C:\Workspace\e2studio\git\MT01\r_usb_basic\src\driver\host\r_usb_hmanager.c",1508
000017AF BC02                    		MOVU.W 20H[R0], R2
000017B1 A881                    		MOV.L 08H[R0], R1
000017B3 39rrrr               W  		BSR _usb_hstd_MgrRelMpl
000017B6 38rrrr               W  		BRA L572
000017B9                         L456:	; bb246
                                 ;    1509             break;
                                 ;    1510 
                                 ;    1511         case USB_MSG_MGR_SUBMITRESULT:
                                 ;    1512             /* Agreement device address */
                                 ;    1513             devsel      = usb_cstd_GetDevsel(ptr, pipenum);
                                 		.LINE  "C:\Workspace\e2studio\git\MT01\r_usb_basic\src\driver\host\r_usb_hmanager.c",1513
000017B9 BB8A                    		MOVU.W 1EH[R0], R2
000017BB A881                    		MOV.L 08H[R0], R1
000017BD 05rrrrrr             A  		BSR _usb_cstd_GetDevsel
000017C1 9381                    		MOV.W R1, 1CH[R0]
000017C3                         L457:	; bb246.split
                                 ;    1514             /* Get root port number from device addr */
                                 ;    1515             rootport    = usb_hstd_GetRootport(ptr, devsel);
                                 		.LINE  "C:\Workspace\e2studio\git\MT01\r_usb_basic\src\driver\host\r_usb_hmanager.c",1515
000017C3 BB82                    		MOVU.W 1CH[R0], R2
000017C5 A881                    		MOV.L 08H[R0], R1
000017C7 05rrrrrr             A  		BSR _usb_hstd_GetRootport
000017CB 9301                    		MOV.W R1, 18H[R0]
000017CD                         L458:	; bb246.split11
                                 ;    1516             switch(usb_ghstd_MgrMode[ptr->ip][rootport])
                                 		.LINE  "C:\Workspace\e2studio\git\MT01\r_usb_basic\src\driver\host\r_usb_hmanager.c",1516
000017CD A881                    		MOV.L 08H[R0], R1
000017CF B991                    		MOVU.W 0CH[R1], R1
000017D1 6C21                    		SHLL #02H, R1
000017D3 FBE2rrrrrrrr            		MOV.L #_usb_ghstd_MgrMode, R14
000017D9 4B1E                    		ADD R1, R14
000017DB BB01                    		MOVU.W 18H[R0], R1
000017DD FED1EE                  		MOVU.W [R1,R14], R14
000017E0 755E28                  		CMP #28H, R14
000017E3 20rr                    		BEQ L463
000017E5                         L459:	; bb246.split11
000017E5 755E66                  		CMP #66H, R14
000017E8 20rr                    		BEQ L462
000017EA                         L460:	; bb246.split11
000017EA 755E67                  		CMP #67H, R14
000017ED 3Brrrr               W  		BNE L490
000017F0                         L461:	; bb264
                                 ;    1517             {
                                 ;    1518             /* Resume */
                                 ;    1519             case    USB_RESUME_PROCESS:
                                 ;    1520                 /* Resume Sequence Number is 1 to 2 */
                                 ;    1521                 usb_hstd_ResuCont(ptr, (uint16_t)(devsel >> USB_DEVADDRBIT), (uint16_t)rootport);
                                 		.LINE  "C:\Workspace\e2studio\git\MT01\r_usb_basic\src\driver\host\r_usb_hmanager.c",1521
000017F0 BB03                    		MOVU.W 18H[R0], R3
000017F2 BB82                    		MOVU.W 1CH[R0], R2
000017F4 A881                    		MOV.L 08H[R0], R1
000017F6 68C2                    		SHLR #0CH, R2
000017F8 39rrrr               W  		BSR __$usb_hstd_ResuCont
000017FB 38rrrr               W  		BRA L490
000017FE                         L462:	; bb271
                                 ;    1522                 break;
                                 ;    1523             /* Suspend */
                                 ;    1524             case    USB_SUSPENDED_PROCESS:
                                 ;    1525                 usb_hstd_SuspCont(ptr, (uint16_t)(devsel >> USB_DEVADDRBIT), (uint16_t)rootport);
                                 		.LINE  "C:\Workspace\e2studio\git\MT01\r_usb_basic\src\driver\host\r_usb_hmanager.c",1525
000017FE BB03                    		MOVU.W 18H[R0], R3
00001800 BB82                    		MOVU.W 1CH[R0], R2
00001802 A881                    		MOV.L 08H[R0], R1
00001804 68C2                    		SHLR #0CH, R2
00001806 39rrrr               W  		BSR __$usb_hstd_SuspCont
00001809 38rrrr               W  		BRA L490
0000180C                         L463:	; bb278
                                 ;    1526                 break;
                                 ;    1527             /* Enumeration */
                                 ;    1528             case    USB_DEFAULT:
                                 ;    1529                 /* Peripheral Device Speed support check */
                                 ;    1530                 connect_speed = usb_hstd_support_speed_check( ptr, rootport );
                                 		.LINE  "C:\Workspace\e2studio\git\MT01\r_usb_basic\src\driver\host\r_usb_hmanager.c",1530
0000180C BB02                    		MOVU.W 18H[R0], R2
0000180E A881                    		MOV.L 08H[R0], R1
00001810 05rrrrrr             A  		BSR _usb_hstd_support_speed_check
00001814 9489                    		MOV.W R1, 26H[R0]
00001816                         L464:	; bb278.split
                                 ;    1531                 if( connect_speed != USB_NOCONNECT )
                                 		.LINE  "C:\Workspace\e2studio\git\MT01\r_usb_basic\src\driver\host\r_usb_hmanager.c",1531
00001816 BC89                    		MOVU.W 26H[R0], R1
00001818 6101                    		CMP #00H, R1
0000181A 3Arrrr               W  		BEQ L490
0000181D                         L465:	; bb283
                                 ;    1532                 {
                                 ;    1533                     enume_mode = usb_hstd_Enumeration(ptr);
                                 		.LINE  "C:\Workspace\e2studio\git\MT01\r_usb_basic\src\driver\host\r_usb_hmanager.c",1533
0000181D A881                    		MOV.L 08H[R0], R1
0000181F 39rrrr               W  		BSR _usb_hstd_Enumeration
00001822 9481                    		MOV.W R1, 24H[R0]
00001824                         L466:	; bb283.split
                                 ;    1534                     switch( enume_mode )
                                 		.LINE  "C:\Workspace\e2studio\git\MT01\r_usb_basic\src\driver\host\r_usb_hmanager.c",1534
00001824 BC81                    		MOVU.W 24H[R0], R1
00001826 61A1                    		CMP #0AH, R1
00001828 3Arrrr               W  		BEQ L483
0000182B                         L467:	; bb283.split
0000182B 6111                    		CMP #01H, R1
0000182D 20rr                    		BEQ L476
0000182F                         L468:	; bb283.split
0000182F 6101                    		CMP #00H, R1
00001831 3Brrrr               W  		BNE L490
00001834                         L469:	; bb288
                                 ;    1535                     {
                                 ;    1536                     /* Detach Mode */
                                 ;    1537                     case USB_NONDEVICE:
                                 ;    1538                         USB_PRINTF1("### Enumeration error (address%d)\n", usb_ghstd_DeviceAddr[ptr->ip]);
                                 ;    1539                         usb_ghstd_MgrMode[ptr->ip][rootport] = USB_DETACHED;
                                 		.LINE  "C:\Workspace\e2studio\git\MT01\r_usb_basic\src\driver\host\r_usb_hmanager.c",1539
00001834 A881                    		MOV.L 08H[R0], R1
00001836 B991                    		MOVU.W 0CH[R1], R1
00001838 6C21                    		SHLL #02H, R1
0000183A FBE2rrrrrrrr            		MOV.L #_usb_ghstd_MgrMode, R14
00001840 4B1E                    		ADD R1, R14
00001842 66AF                    		MOV.L #0000000AH, R15
00001844 BB01                    		MOVU.W 18H[R0], R1
00001846 FE11EF                  		MOV.W R15, [R1,R14]
00001849                         L470:	; bb288.split
                                 ;    1540 
                                 ;    1541                         if( ( usb_shstd_mgr_msginfo[ptr->ip] == USB_DO_RESET_AND_ENUMERATION )
                                 		.LINE  "C:\Workspace\e2studio\git\MT01\r_usb_basic\src\driver\host\r_usb_hmanager.c",1541
00001849 A881                    		MOV.L 08H[R0], R1
0000184B B991                    		MOVU.W 0CH[R1], R1
0000184D FBE2rrrrrrrr            		MOV.L #__$usb_shstd_mgr_msginfo, R14
00001853 FED1EE                  		MOVU.W [R1,R14], R14
00001856 760E0202                		CMP #0202H, R14
0000185A 20rr                    		BEQ L473
0000185C 2Err                 B  		BRA L472
0000185E                         L471:	; bb299
                                 ;    1542                             || ( usb_shstd_mgr_msginfo[ptr->ip] == USB_PORT_ENABLE ) )
                                 ;    1543                         {
                                 ;    1544                             usb_hstd_mgr_chgdevst_cb(ptr, rootport);
                                 		.LINE  "C:\Workspace\e2studio\git\MT01\r_usb_basic\src\driver\host\r_usb_hmanager.c",1544
0000185E BB02                    		MOVU.W 18H[R0], R2
00001860 A881                    		MOV.L 08H[R0], R1
00001862 39rrrr               W  		BSR __$usb_hstd_mgr_chgdevst_cb
00001865 38rrrr               W  		BRA L490
00001868                         L472:	; bb311
00001868 A881                    		MOV.L 08H[R0], R1
0000186A B991                    		MOVU.W 0CH[R1], R1
0000186C FBE2rrrrrrrr            		MOV.L #__$usb_shstd_mgr_msginfo, R14
00001872 FED1EE                  		MOVU.W [R1,R14], R14
00001875 760E0302                		CMP #0203H, R14
00001879 18                   S  		BNE L474
0000187A                         L473:	; bb321
0000187A F80601                  		MOV.L #00000001H, [R0]
0000187D 08                   S  		BRA L475
0000187E                         L474:	; bb322
0000187E F80600                  		MOV.L #00000000H, [R0]
00001881                         L475:	; bb323
00001881 EC01                    		MOV.L [R0], R1
00001883 6101                    		CMP #00H, R1
00001885 21rr                    		BNE L471
00001887 38rrrr               W  		BRA L490
0000188A                         L476:	; bb329
                                 ;    1545                         }
                                 ;    1546                         break;
                                 ;    1547                     /* Detach Mode */
                                 ;    1548                     case USB_NOTTPL:
                                 ;    1549                         USB_PRINTF1("### Not support device (address%d)\n", usb_ghstd_DeviceAddr[ptr->ip]);
                                 ;    1550                         usb_ghstd_MgrMode[ptr->ip][rootport] = USB_DETACHED;
                                 		.LINE  "C:\Workspace\e2studio\git\MT01\r_usb_basic\src\driver\host\r_usb_hmanager.c",1550
0000188A A881                    		MOV.L 08H[R0], R1
0000188C B991                    		MOVU.W 0CH[R1], R1
0000188E 6C21                    		SHLL #02H, R1
00001890 FBE2rrrrrrrr            		MOV.L #_usb_ghstd_MgrMode, R14
00001896 4B1E                    		ADD R1, R14
00001898 66AF                    		MOV.L #0000000AH, R15
0000189A BB01                    		MOVU.W 18H[R0], R1
0000189C FE11EF                  		MOV.W R15, [R1,R14]
0000189F                         L477:	; bb329.split
                                 ;    1551 
                                 ;    1552                         if( ( usb_shstd_mgr_msginfo[ptr->ip] == USB_DO_RESET_AND_ENUMERATION )
                                 		.LINE  "C:\Workspace\e2studio\git\MT01\r_usb_basic\src\driver\host\r_usb_hmanager.c",1552
0000189F A881                    		MOV.L 08H[R0], R1
000018A1 B991                    		MOVU.W 0CH[R1], R1
000018A3 FBE2rrrrrrrr            		MOV.L #__$usb_shstd_mgr_msginfo, R14
000018A9 FED1EE                  		MOVU.W [R1,R14], R14
000018AC 760E0202                		CMP #0202H, R14
000018B0 20rr                    		BEQ L480
000018B2 08                   S  		BRA L479
000018B3                         L478:	; bb340
                                 ;    1553                             || ( usb_shstd_mgr_msginfo[ptr->ip] == USB_PORT_ENABLE ) )
                                 ;    1554                         {
                                 ;    1555                             usb_hstd_mgr_chgdevst_cb(ptr, rootport);
                                 		.LINE  "C:\Workspace\e2studio\git\MT01\r_usb_basic\src\driver\host\r_usb_hmanager.c",1555
000018B3 BB02                    		MOVU.W 18H[R0], R2
000018B5 A881                    		MOV.L 08H[R0], R1
000018B7 39rrrr               W  		BSR __$usb_hstd_mgr_chgdevst_cb
000018BA 2Err                 B  		BRA L490
000018BC                         L479:	; bb352
000018BC A881                    		MOV.L 08H[R0], R1
000018BE B991                    		MOVU.W 0CH[R1], R1
000018C0 FBE2rrrrrrrr            		MOV.L #__$usb_shstd_mgr_msginfo, R14
000018C6 FED1EE                  		MOVU.W [R1,R14], R14
000018C9 760E0302                		CMP #0203H, R14
000018CD 18                   S  		BNE L481
000018CE                         L480:	; bb362
000018CE F80601                  		MOV.L #00000001H, [R0]
000018D1 08                   S  		BRA L482
000018D2                         L481:	; bb363
000018D2 F80600                  		MOV.L #00000000H, [R0]
000018D5                         L482:	; bb364
000018D5 EC01                    		MOV.L [R0], R1
000018D7 6101                    		CMP #00H, R1
000018D9 21rr                    		BNE L478
000018DB 2Err                 B  		BRA L490
000018DD                         L483:	; bb370
                                 ;    1556                         }
                                 ;    1557                         break;
                                 ;    1558                     case USB_COMPLETEPIPESET:
                                 ;    1559                         usb_ghstd_MgrMode[ptr->ip][rootport] = USB_CONFIGURED;
                                 		.LINE  "C:\Workspace\e2studio\git\MT01\r_usb_basic\src\driver\host\r_usb_hmanager.c",1559
000018DD A881                    		MOV.L 08H[R0], R1
000018DF B991                    		MOVU.W 0CH[R1], R1
000018E1 6C21                    		SHLL #02H, R1
000018E3 FBE2rrrrrrrr            		MOV.L #_usb_ghstd_MgrMode, R14
000018E9 4B1E                    		ADD R1, R14
000018EB 754F46                  		MOV.L #00000046H, R15
000018EE BB01                    		MOVU.W 18H[R0], R1
000018F0 FE11EF                  		MOV.W R15, [R1,R14]
000018F3                         L484:	; bb370.split
                                 ;    1560 
                                 ;    1561                         if( ( usb_shstd_mgr_msginfo[ptr->ip] == USB_DO_RESET_AND_ENUMERATION )
                                 		.LINE  "C:\Workspace\e2studio\git\MT01\r_usb_basic\src\driver\host\r_usb_hmanager.c",1561
000018F3 A881                    		MOV.L 08H[R0], R1
000018F5 B991                    		MOVU.W 0CH[R1], R1
000018F7 FBE2rrrrrrrr            		MOV.L #__$usb_shstd_mgr_msginfo, R14
000018FD FED1EE                  		MOVU.W [R1,R14], R14
00001900 760E0202                		CMP #0202H, R14
00001904 20rr                    		BEQ L487
00001906 08                   S  		BRA L486
00001907                         L485:	; bb381
                                 ;    1562                             || ( usb_shstd_mgr_msginfo[ptr->ip] == USB_PORT_ENABLE ) )
                                 ;    1563                         {
                                 ;    1564                             usb_hstd_mgr_chgdevst_cb(ptr, rootport);
                                 		.LINE  "C:\Workspace\e2studio\git\MT01\r_usb_basic\src\driver\host\r_usb_hmanager.c",1564
00001907 BB02                    		MOVU.W 18H[R0], R2
00001909 A881                    		MOV.L 08H[R0], R1
0000190B 39rrrr               W  		BSR __$usb_hstd_mgr_chgdevst_cb
0000190E 2Err                 B  		BRA L490
00001910                         L486:	; bb393
00001910 A881                    		MOV.L 08H[R0], R1
00001912 B991                    		MOVU.W 0CH[R1], R1
00001914 FBE2rrrrrrrr            		MOV.L #__$usb_shstd_mgr_msginfo, R14
0000191A FED1EE                  		MOVU.W [R1,R14], R14
0000191D 760E0302                		CMP #0203H, R14
00001921 18                   S  		BNE L488
00001922                         L487:	; bb403
00001922 F80601                  		MOV.L #00000001H, [R0]
00001925 08                   S  		BRA L489
00001926                         L488:	; bb404
00001926 F80600                  		MOV.L #00000000H, [R0]
00001929                         L489:	; bb405
00001929 EC01                    		MOV.L [R0], R1
0000192B 6101                    		CMP #00H, R1
0000192D 21rr                    		BNE L485
0000192F                         L490:	; bb420
                                 ;    1565                         }
                                 ;    1566                         break;
                                 ;    1567                     default:
                                 ;    1568                         break;
                                 ;    1569                     }
                                 ;    1570                 }
                                 ;    1571                 break;
                                 ;    1572             default:
                                 ;    1573                 break;
                                 ;    1574             }
                                 ;    1575             usb_hstd_MgrRelMpl(ptr,msginfo);
                                 		.LINE  "C:\Workspace\e2studio\git\MT01\r_usb_basic\src\driver\host\r_usb_hmanager.c",1575
0000192F BC02                    		MOVU.W 20H[R0], R2
00001931 A881                    		MOV.L 08H[R0], R1
00001933 39rrrr               W  		BSR _usb_hstd_MgrRelMpl
00001936 38rrrr               W  		BRA L572
00001939                         L491:	; bb423
                                 ;    1576             break;
                                 ;    1577         case USB_MSG_MGR_AORDETACH:
                                 ;    1578             switch( usb_shstd_MgrMsg[ptr->ip]->result )
                                 		.LINE  "C:\Workspace\e2studio\git\MT01\r_usb_basic\src\driver\host\r_usb_hmanager.c",1578
00001939 A881                    		MOV.L 08H[R0], R1
0000193B B991                    		MOVU.W 0CH[R1], R1
0000193D FBE2rrrrrrrr            		MOV.L #__$usb_shstd_MgrMsg, R14
00001943 FE61E1                  		MOV.L [R1,R14], R1
00001946 B999                    		MOVU.W 0EH[R1], R1
00001948 711EBF                  		ADD #0FFFFFFBFH, R1, R14
0000194B 612E                    		CMP #02H, R14
0000194D 22rr                  * 		BLTU L510
         38rrrr                  
00001952                         L492:	; bb423
00001952 755143                  		CMP #43H, R1
00001955 3Brrrr               W  		BNE L518
00001958                         L493:	; bb433
                                 ;    1579             {
                                 ;    1580             case USB_DETACH:
                                 ;    1581 #ifdef USB_HOST_COMPLIANCE_MODE
                                 ;    1582                 USB_COMPLIANCE_DISP(ptr, USB_COMP_DETACH, USB_NO_ARG);
                                 ;    1583 #endif /* USB_HOST_COMPLIANCE_MODE */
                                 ;    1584                 USB_PRINTF1(" [Detach Device port%d] \n", rootport);
                                 ;    1585                 usb_ghstd_MgrMode[ptr->ip][rootport] = USB_DETACHED;
                                 		.LINE  "C:\Workspace\e2studio\git\MT01\r_usb_basic\src\driver\host\r_usb_hmanager.c",1585
00001958 A881                    		MOV.L 08H[R0], R1
0000195A B991                    		MOVU.W 0CH[R1], R1
0000195C 6C21                    		SHLL #02H, R1
0000195E FBE2rrrrrrrr            		MOV.L #_usb_ghstd_MgrMode, R14
00001964 4B1E                    		ADD R1, R14
00001966 66AF                    		MOV.L #0000000AH, R15
00001968 BB01                    		MOVU.W 18H[R0], R1
0000196A FE11EF                  		MOV.W R15, [R1,R14]
0000196D                         L494:	; bb433.split
                                 ;    1586                 usb_ghstd_DeviceSpeed[ptr->ip] = USB_NOCONNECT;
                                 		.LINE  "C:\Workspace\e2studio\git\MT01\r_usb_basic\src\driver\host\r_usb_hmanager.c",1586
0000196D A881                    		MOV.L 08H[R0], R1
0000196F B991                    		MOVU.W 0CH[R1], R1
00001971 FBE2rrrrrrrr            		MOV.L #_usb_ghstd_DeviceSpeed, R14
00001977 660F                    		MOV.L #00000000H, R15
00001979 FE11EF                  		MOV.W R15, [R1,R14]
0000197C                         L495:	; bb433.split12
                                 ;    1587 
                                 ;    1588                 for( md = 0; md < usb_ghstd_DeviceNum[ptr->ip]; md++ )
                                 		.LINE  "C:\Workspace\e2studio\git\MT01\r_usb_basic\src\driver\host\r_usb_hmanager.c",1588
0000197C 3D8100                  		MOV.W #0000H, 22H[R0]
0000197F 38rrrr               W  		BRA L508
00001982                         L496:	; bb448
                                 ;    1589                 {
                                 ;    1590                     driver = &usb_ghstd_DeviceDrv[ptr->ip][md];
                                 		.LINE  "C:\Workspace\e2studio\git\MT01\r_usb_basic\src\driver\host\r_usb_hmanager.c",1590
00001982 B991                    		MOVU.W 0CH[R1], R1
00001984 7611B801                		MUL #01B8H, R1
00001988 FB22rrrrrrrr            		MOV.L #_usb_ghstd_DeviceDrv, R2
0000198E 4B12                    		ADD R1, R2
00001990 BC09                    		MOVU.W 22H[R0], R1
00001992 751128                  		MUL #28H, R1
00001995 4B12                    		ADD R1, R2
00001997 A102                    		MOV.L R2, 10H[R0]
00001999                         L497:	; bb448.split
                                 ;    1591                     if( driver->devaddr == (rootport + USB_DEVICEADDR) )
                                 		.LINE  "C:\Workspace\e2studio\git\MT01\r_usb_basic\src\driver\host\r_usb_hmanager.c",1591
00001999 A901                    		MOV.L 10H[R0], R1
0000199B B819                    		MOVU.W 02H[R1], R1
0000199D BB02                    		MOVU.W 18H[R0], R2
0000199F 6212                    		ADD #01H, R2
000019A1 4721                    		CMP R2, R1
000019A3 3Brrrr               W  		BNE L507
000019A6                         L498:	; bb459
                                 ;    1592                     {
                                 ;    1593                         (*driver->devdetach)(ptr, driver->devaddr, (uint16_t)USB_NO_ARG);
                                 		.LINE  "C:\Workspace\e2studio\git\MT01\r_usb_basic\src\driver\host\r_usb_hmanager.c",1593
000019A6 A901                    		MOV.L 10H[R0], R1
000019A8 B81A                    		MOVU.W 02H[R1], R2
000019AA A99C                    		MOV.L 1CH[R1], R4
000019AC A881                    		MOV.L 08H[R0], R1
000019AE 6603                    		MOV.L #00000000H, R3
000019B0 7F14                    		JSR R4
000019B2                         L499:	; bb459.split
                                 ;    1594                         /* Root port */
                                 ;    1595                         usb_ghstd_DeviceInfo[ptr->ip][driver->devaddr][0] = USB_NOPORT;
                                 		.LINE  "C:\Workspace\e2studio\git\MT01\r_usb_basic\src\driver\host\r_usb_hmanager.c",1595
000019B2 A881                    		MOV.L 08H[R0], R1
000019B4 B991                    		MOVU.W 0CH[R1], R1
000019B6 7611B000                		MUL #0B0H, R1
000019BA FBE2rrrrrrrr            		MOV.L #_usb_ghstd_DeviceInfo, R14
000019C0 4B1E                    		ADD R1, R14
000019C2 A901                    		MOV.L 10H[R0], R1
000019C4 B819                    		MOVU.W 02H[R1], R1
000019C6 6C41                    		SHLL #04H, R1
000019C8 4B1E                    		ADD R1, R14
000019CA F8E9FFFF                		MOV.W #0FFFFH, [R14]
000019CE                         L500:	; bb459.split13
                                 ;    1596                         /* Device state */
                                 ;    1597                         usb_ghstd_DeviceInfo[ptr->ip][driver->devaddr][1] = USB_DETACHED;
                                 		.LINE  "C:\Workspace\e2studio\git\MT01\r_usb_basic\src\driver\host\r_usb_hmanager.c",1597
000019CE A881                    		MOV.L 08H[R0], R1
000019D0 B991                    		MOVU.W 0CH[R1], R1
000019D2 7611B000                		MUL #0B0H, R1
000019D6 FB22rrrrrrrr            		MOV.L #_usb_ghstd_DeviceInfo, R2
000019DC 4B12                    		ADD R1, R2
000019DE A901                    		MOV.L 10H[R0], R1
000019E0 B819                    		MOVU.W 02H[R1], R1
000019E2 6C41                    		SHLL #04H, R1
000019E4 4B12                    		ADD R1, R2
000019E6 3D210A                  		MOV.W #000AH, 02H[R2]
000019E9                         L501:	; bb459.split14
                                 ;    1598                         /* Not configured */
                                 ;    1599                         usb_ghstd_DeviceInfo[ptr->ip][driver->devaddr][2] = (uint16_t)0;
                                 		.LINE  "C:\Workspace\e2studio\git\MT01\r_usb_basic\src\driver\host\r_usb_hmanager.c",1599
000019E9 A881                    		MOV.L 08H[R0], R1
000019EB B991                    		MOVU.W 0CH[R1], R1
000019ED 7611B000                		MUL #0B0H, R1
000019F1 FB22rrrrrrrr            		MOV.L #_usb_ghstd_DeviceInfo, R2
000019F7 4B12                    		ADD R1, R2
000019F9 A901                    		MOV.L 10H[R0], R1
000019FB B819                    		MOVU.W 02H[R1], R1
000019FD 6C41                    		SHLL #04H, R1
000019FF 4B12                    		ADD R1, R2
00001A01 3D2200                  		MOV.W #0000H, 04H[R2]
00001A04                         L502:	; bb459.split15
                                 ;    1600                         /* Interface Class : NO class */
                                 ;    1601                         usb_ghstd_DeviceInfo[ptr->ip][driver->devaddr][3] = (uint16_t)USB_IFCLS_NOT;
                                 		.LINE  "C:\Workspace\e2studio\git\MT01\r_usb_basic\src\driver\host\r_usb_hmanager.c",1601
00001A04 A881                    		MOV.L 08H[R0], R1
00001A06 B991                    		MOVU.W 0CH[R1], R1
00001A08 7611B000                		MUL #0B0H, R1
00001A0C FB22rrrrrrrr            		MOV.L #_usb_ghstd_DeviceInfo, R2
00001A12 4B12                    		ADD R1, R2
00001A14 A901                    		MOV.L 10H[R0], R1
00001A16 B819                    		MOVU.W 02H[R1], R1
00001A18 6C41                    		SHLL #04H, R1
00001A1A 4B12                    		ADD R1, R2
00001A1C 3D2300                  		MOV.W #0000H, 06H[R2]
00001A1F                         L503:	; bb459.split16
                                 ;    1602                         /* No connect */
                                 ;    1603                         usb_ghstd_DeviceInfo[ptr->ip][driver->devaddr][4] = (uint16_t)USB_NOCONNECT;
                                 		.LINE  "C:\Workspace\e2studio\git\MT01\r_usb_basic\src\driver\host\r_usb_hmanager.c",1603
00001A1F A881                    		MOV.L 08H[R0], R1
00001A21 B991                    		MOVU.W 0CH[R1], R1
00001A23 7611B000                		MUL #0B0H, R1
00001A27 FB22rrrrrrrr            		MOV.L #_usb_ghstd_DeviceInfo, R2
00001A2D 4B12                    		ADD R1, R2
00001A2F A901                    		MOV.L 10H[R0], R1
00001A31 B819                    		MOVU.W 02H[R1], R1
00001A33 6C41                    		SHLL #04H, R1
00001A35 4B12                    		ADD R1, R2
00001A37 3D2400                  		MOV.W #0000H, 08H[R2]
00001A3A                         L504:	; bb459.split17
                                 ;    1604                         
                                 ;    1605                         /* Root port */
                                 ;    1606                         driver->rootport    = USB_NOPORT;
                                 		.LINE  "C:\Workspace\e2studio\git\MT01\r_usb_basic\src\driver\host\r_usb_hmanager.c",1606
00001A3A A901                    		MOV.L 10H[R0], R1
00001A3C F819FFFF                		MOV.W #0FFFFH, [R1]
00001A40                         L505:	; bb459.split18
                                 ;    1607                         /* Device address */
                                 ;    1608                         driver->devaddr     = USB_NODEVICE;
                                 		.LINE  "C:\Workspace\e2studio\git\MT01\r_usb_basic\src\driver\host\r_usb_hmanager.c",1608
00001A40 A901                    		MOV.L 10H[R0], R1
00001A42 F9190100F0              		MOV.W #0F000H, 02H[R1]
00001A47                         L506:	; bb459.split19
                                 ;    1609                         /* Device state */
                                 ;    1610                         driver->devstate    = USB_DETACHED;
                                 		.LINE  "C:\Workspace\e2studio\git\MT01\r_usb_basic\src\driver\host\r_usb_hmanager.c",1610
00001A47 A901                    		MOV.L 10H[R0], R1
00001A49 3D120A                  		MOV.W #000AH, 04H[R1]
00001A4C                         L507:	; bb548
00001A4C 9C09                    		MOV.W 22H[R0], R1
00001A4E 6211                    		ADD #01H, R1
00001A50 9409                    		MOV.W R1, 22H[R0]
00001A52                         L508:	; bb551
                                 		.LINE  "C:\Workspace\e2studio\git\MT01\r_usb_basic\src\driver\host\r_usb_hmanager.c",1588
00001A52 A881                    		MOV.L 08H[R0], R1
00001A54 B992                    		MOVU.W 0CH[R1], R2
00001A56 FBE2rrrrrrrr            		MOV.L #_usb_ghstd_DeviceNum, R14
00001A5C FED2EE                  		MOVU.W [R2,R14], R14
00001A5F BC0A                    		MOVU.W 22H[R0], R2
00001A61 47E2                    		CMP R14, R2
00001A63 28rr                  * 		BLT L496
         38rrrr                  
00001A68                         L509:	; bb564
                                 ;    1611                     }
                                 ;    1612                 }
                                 ;    1613                 usb_hstd_MgrRelMpl(ptr,msginfo);
                                 		.LINE  "C:\Workspace\e2studio\git\MT01\r_usb_basic\src\driver\host\r_usb_hmanager.c",1613
00001A68 BC02                    		MOVU.W 20H[R0], R2
00001A6A 39rrrr               W  		BSR _usb_hstd_MgrRelMpl
00001A6D 38rrrr               W  		BRA L572
00001A70                         L510:	; bb568
                                 ;    1614                 break;
                                 ;    1615             case USB_ATTACHL:
                                 ;    1616                 /* continue */
                                 ;    1617             case USB_ATTACHF:
                                 ;    1618 #ifdef USB_HOST_COMPLIANCE_MODE
                                 ;    1619                 USB_COMPLIANCE_DISP(ptr, USB_COMP_ATTACH, USB_NO_ARG);
                                 ;    1620 #endif /* USB_HOST_COMPLIANCE_MODE */
                                 ;    1621 /* Condition compilation by the difference of the devices */
                                 ;    1622 #if USB_PORTSEL_PP == USB_2PORT_PP
                                 ;    1623                 elseport = 0;
                                 ;    1624                 if( rootport == 0 )
                                 ;    1625                 {
                                 ;    1626                     elseport = 1;
                                 ;    1627                 }
                                 ;    1628                 if( usb_ghstd_MgrMode[ptr->ip][elseport] == USB_DEFAULT )
                                 ;    1629                 {
                                 ;    1630                     /* 2ms wait */
                                 ;    1631                     usb_cpu_DelayXms((uint16_t)2);
                                 ;    1632 /* Enumeration wait setting--------------- */
                                 ;    1633                     if(usb_ghstd_EnuWait[ptr->ip] != (uint8_t)USB_MGR_TSK)
                                 ;    1634                     {
                                 ;    1635                         usb_shstd_MgrMsg[ptr->ip]->msginfo = USB_MSG_CLS_WAIT;
                                 ;    1636                         usb_shstd_MgrMsg[ptr->ip]->keyword = rootport;
                                 ;    1637                         err = USB_SND_MSG( usb_ghstd_EnuWait[ptr->ip], (USB_MSG_t*)usb_shstd_MgrMsg[ptr->ip] );
                                 ;    1638                     }
                                 ;    1639                     else
                                 ;    1640                     {
                                 ;    1641                         err = USB_SND_MSG(USB_MGR_MBX, (USB_MSG_t*)usb_shstd_MgrMsg[ptr->ip]);
                                 ;    1642                     }
                                 ;    1643 /* Enumeration wait setting end------------ */
                                 ;    1644                     if( err != USB_E_OK )
                                 ;    1645                     {
                                 ;    1646                         USB_PRINTF1("### hMgrTask snd_msg error (%ld)\n", err);
                                 ;    1647                     }
                                 ;    1648                 }
                                 ;    1649                 else if( usb_ghstd_MgrMode[ptr->ip][rootport] == USB_DETACHED )
                                 ;    1650                 {
                                 ;    1651                     /* enumeration wait setting */
                                 ;    1652                     usb_ghstd_EnuWait[ptr->ip] = (uint8_t)USB_MGR_TSK;
                                 ;    1653                     usb_ghstd_DeviceAddr[ptr->ip] = (uint16_t)(rootport + USB_DEVICEADDR);
                                 ;    1654                     if( USB_MAXDEVADDR < usb_ghstd_DeviceAddr[ptr->ip] )
                                 ;    1655                     {
                                 ;    1656                         /* For port1 */
                                 ;    1657                         USB_PRINTF0("Device address error\n");
                                 ;    1658                     }
                                 ;    1659                     else
                                 ;    1660                     {
                                 ;    1661                         usb_ghstd_MgrMode[ptr->ip][rootport] = USB_DEFAULT;
                                 ;    1662 #ifdef USB_HOST_BC_ENABLE
                                 ;    1663                         if(USB_BC_SUPPORT_IP == ptr->ip)
                                 ;    1664                         {
                                 ;    1665                             /* Call Back */
                                 ;    1666                             USB_BC_ATTACH(ptr, usb_ghstd_DeviceAddr[ptr->ip], (uint16_t)g_usb_hstd_bc[ptr->ip].state);
                                 ;    1667                         }
                                 ;    1668                         else
                                 ;    1669                         {
                                 ;    1670                             USB_BC_ATTACH(ptr, usb_ghstd_DeviceAddr[ptr->ip], (uint16_t)USB_NOT_BC);
                                 ;    1671                         }
                                 ;    1672 #endif /* USB_HOST_BC_ENABLE */
                                 ;    1673                         usb_hstd_AttachFunction();
                                 ;    1674                         usb_hstd_MgrReset(ptr, usb_ghstd_DeviceAddr[ptr->ip]);
                                 ;    1675                     }
                                 ;    1676                     usb_hstd_MgrRelMpl(ptr,msginfo);
                                 ;    1677                 }
                                 ;    1678 #else   /* USB_PORTSEL_PP == USB_2PORT_PP */
                                 ;    1679                 if( usb_ghstd_MgrMode[ptr->ip][rootport] == USB_DETACHED )
                                 		.LINE  "C:\Workspace\e2studio\git\MT01\r_usb_basic\src\driver\host\r_usb_hmanager.c",1679
00001A70 A881                    		MOV.L 08H[R0], R1
00001A72 B991                    		MOVU.W 0CH[R1], R1
00001A74 FDC21E                  		SHLL #02H, R1, R14
00001A77 FBF2rrrrrrrr            		MOV.L #_usb_ghstd_MgrMode, R15
00001A7D 4BEF                    		ADD R14, R15
00001A7F BB02                    		MOVU.W 18H[R0], R2
00001A81 FED2FE                  		MOVU.W [R2,R15], R14
00001A84 FBF2rrrrrrrr            		MOV.L #_usb_ghstd_EnuWait, R15
00001A8A 6625                    		MOV.L #00000002H, R5
00001A8C FE0F15                  		MOV.B R5, [R15,R1]
00001A8F 61AE                    		CMP #0AH, R14
00001A91 A881                    		MOV.L 08H[R0], R1
00001A93 21rr                    		BNE L517
00001A95                         L511:	; bb569.split
                                 ;    1680                 {
                                 ;    1681                     /* enumeration wait setting */
                                 ;    1682                     usb_ghstd_EnuWait[ptr->ip] = (uint8_t)USB_MGR_TSK;
                                 ;    1683                     usb_ghstd_DeviceAddr[ptr->ip] = (uint16_t)(rootport + USB_DEVICEADDR);
                                 		.LINE  "C:\Workspace\e2studio\git\MT01\r_usb_basic\src\driver\host\r_usb_hmanager.c",1683
00001A95 BB02                    		MOVU.W 18H[R0], R2
00001A97 6212                    		ADD #01H, R2
00001A99 B991                    		MOVU.W 0CH[R1], R1
00001A9B FBE2rrrrrrrr            		MOV.L #_usb_ghstd_DeviceAddr, R14
00001AA1 FE11E2                  		MOV.W R2, [R1,R14]
00001AA4                         L512:	; bb569.split20
                                 ;    1684                     if( USB_MAXDEVADDR < usb_ghstd_DeviceAddr[ptr->ip] )
                                 		.LINE  "C:\Workspace\e2studio\git\MT01\r_usb_basic\src\driver\host\r_usb_hmanager.c",1684
00001AA4 A881                    		MOV.L 08H[R0], R1
00001AA6 B991                    		MOVU.W 0CH[R1], R1
00001AA8 FBE2rrrrrrrr            		MOV.L #_usb_ghstd_DeviceAddr, R14
00001AAE FED1EE                  		MOVU.W [R1,R14], R14
00001AB1 61AE                    		CMP #0AH, R14
00001AB3 24rr                    		BGTU L516
00001AB5                         L513:	; bb586
                                 ;    1685                     {
                                 ;    1686                         /* For port1 */
                                 ;    1687                         USB_PRINTF0("Device address error\n");
                                 ;    1688                     }
                                 ;    1689                     else
                                 ;    1690                     {
                                 ;    1691                         usb_ghstd_MgrMode[ptr->ip][rootport] = USB_DEFAULT;
                                 		.LINE  "C:\Workspace\e2studio\git\MT01\r_usb_basic\src\driver\host\r_usb_hmanager.c",1691
00001AB5 A881                    		MOV.L 08H[R0], R1
00001AB7 B991                    		MOVU.W 0CH[R1], R1
00001AB9 6C21                    		SHLL #02H, R1
00001ABB FBE2rrrrrrrr            		MOV.L #_usb_ghstd_MgrMode, R14
00001AC1 4B1E                    		ADD R1, R14
00001AC3 754F28                  		MOV.L #00000028H, R15
00001AC6 BB01                    		MOVU.W 18H[R0], R1
00001AC8 FE11EF                  		MOV.W R15, [R1,R14]
00001ACB                         L514:	; bb586.split
                                 ;    1692 
                                 ;    1693 #ifdef USB_HOST_BC_ENABLE
                                 ;    1694                          /* Call Back */
                                 ;    1695                          USB_BC_ATTACH(ptr, usb_ghstd_DeviceAddr[ptr->ip], (uint16_t)g_usb_hstd_bc[ptr->ip].state);
                                 ;    1696 #endif /* USB_HOST_BC_ENABLE */
                                 ;    1697                         usb_hstd_AttachFunction();
                                 		.LINE  "C:\Workspace\e2studio\git\MT01\r_usb_basic\src\driver\host\r_usb_hmanager.c",1697
00001ACB 05rrrrrr             A  		BSR _usb_hstd_AttachFunction
00001ACF                         L515:	; bb586.split21
                                 ;    1698                         usb_hstd_MgrReset(ptr, usb_ghstd_DeviceAddr[ptr->ip]);
                                 		.LINE  "C:\Workspace\e2studio\git\MT01\r_usb_basic\src\driver\host\r_usb_hmanager.c",1698
00001ACF A881                    		MOV.L 08H[R0], R1
00001AD1 B992                    		MOVU.W 0CH[R1], R2
00001AD3 FBE2rrrrrrrr            		MOV.L #_usb_ghstd_DeviceAddr, R14
00001AD9 FED2E2                  		MOVU.W [R2,R14], R2
00001ADC 39rrrr               W  		BSR _usb_hstd_MgrReset
00001ADF                         L516:	; bb613
                                 ;    1699                     }
                                 ;    1700                     usb_hstd_MgrRelMpl(ptr,msginfo);
                                 		.LINE  "C:\Workspace\e2studio\git\MT01\r_usb_basic\src\driver\host\r_usb_hmanager.c",1700
00001ADF BC02                    		MOVU.W 20H[R0], R2
00001AE1 A881                    		MOV.L 08H[R0], R1
00001AE3 39rrrr               W  		BSR _usb_hstd_MgrRelMpl
00001AE6 38rrrr               W  		BRA L572
00001AE9                         L517:	; bb616.split
                                 ;    1701                 }
                                 ;    1702 #endif  /* USB_PORTSEL_PP == USB_2PORT_PP */
                                 ;    1703                 else
                                 ;    1704                 {
                                 ;    1705                     /* enumeration wait setting */
                                 ;    1706                     usb_ghstd_EnuWait[ptr->ip] = (uint8_t)USB_MGR_TSK;  
                                 ;    1707                     usb_hstd_MgrRelMpl(ptr,msginfo);
                                 		.LINE  "C:\Workspace\e2studio\git\MT01\r_usb_basic\src\driver\host\r_usb_hmanager.c",1707
00001AE9 BC02                    		MOVU.W 20H[R0], R2
00001AEB 39rrrr               W  		BSR _usb_hstd_MgrRelMpl
00001AEE 38rrrr               W  		BRA L572
00001AF1                         L518:	; bb639
                                 ;    1708                 }
                                 ;    1709                 break;
                                 ;    1710             default:
                                 ;    1711                 usb_hstd_MgrRelMpl(ptr,msginfo);
                                 		.LINE  "C:\Workspace\e2studio\git\MT01\r_usb_basic\src\driver\host\r_usb_hmanager.c",1711
00001AF1 BC02                    		MOVU.W 20H[R0], R2
00001AF3 A881                    		MOV.L 08H[R0], R1
00001AF5 39rrrr               W  		BSR _usb_hstd_MgrRelMpl
00001AF8 38rrrr               W  		BRA L572
00001AFB                         L519:	; bb643
                                 ;    1712                 break;
                                 ;    1713             }
                                 ;    1714             break;
                                 ;    1715         case USB_MSG_MGR_OVERCURRENT:
                                 ;    1716             USB_PRINTF0(" Please detach device \n ");
                                 ;    1717             USB_PRINTF1("VBUS off port%d\n", rootport);
                                 ;    1718             usb_hstd_VbusControl(ptr, rootport, (uint16_t)USB_VBOFF);
                                 		.LINE  "C:\Workspace\e2studio\git\MT01\r_usb_basic\src\driver\host\r_usb_hmanager.c",1718
00001AFB BB02                    		MOVU.W 18H[R0], R2
00001AFD A881                    		MOV.L 08H[R0], R1
00001AFF 6613                    		MOV.L #00000001H, R3
00001B01 05rrrrrr             A  		BSR _usb_hstd_VbusControl
00001B05                         L520:	; bb643.split
                                 ;    1719             usb_ghstd_MgrMode[ptr->ip][rootport] = USB_DEFAULT;
                                 		.LINE  "C:\Workspace\e2studio\git\MT01\r_usb_basic\src\driver\host\r_usb_hmanager.c",1719
00001B05 A881                    		MOV.L 08H[R0], R1
00001B07 B991                    		MOVU.W 0CH[R1], R1
00001B09 6C21                    		SHLL #02H, R1
00001B0B FBE2rrrrrrrr            		MOV.L #_usb_ghstd_MgrMode, R14
00001B11 4B1E                    		ADD R1, R14
00001B13 754F28                  		MOV.L #00000028H, R15
00001B16 BB01                    		MOVU.W 18H[R0], R1
00001B18 FE11EF                  		MOV.W R15, [R1,R14]
00001B1B                         L521:	; bb643.split22
                                 ;    1720             for( md = 0; md < usb_ghstd_DeviceNum[ptr->ip]; md++ )
                                 		.LINE  "C:\Workspace\e2studio\git\MT01\r_usb_basic\src\driver\host\r_usb_hmanager.c",1720
00001B1B 3D8100                  		MOV.W #0000H, 22H[R0]
00001B1E 38rrrr               W  		BRA L534
00001B21                         L522:	; bb655
                                 ;    1721             {
                                 ;    1722                 driver = &usb_ghstd_DeviceDrv[ptr->ip][md];
                                 		.LINE  "C:\Workspace\e2studio\git\MT01\r_usb_basic\src\driver\host\r_usb_hmanager.c",1722
00001B21 B991                    		MOVU.W 0CH[R1], R1
00001B23 7611B801                		MUL #01B8H, R1
00001B27 FB22rrrrrrrr            		MOV.L #_usb_ghstd_DeviceDrv, R2
00001B2D 4B12                    		ADD R1, R2
00001B2F BC09                    		MOVU.W 22H[R0], R1
00001B31 751128                  		MUL #28H, R1
00001B34 4B12                    		ADD R1, R2
00001B36 A102                    		MOV.L R2, 10H[R0]
00001B38                         L523:	; bb655.split
                                 ;    1723                 if( driver->rootport == rootport )
                                 		.LINE  "C:\Workspace\e2studio\git\MT01\r_usb_basic\src\driver\host\r_usb_hmanager.c",1723
00001B38 A901                    		MOV.L 10H[R0], R1
00001B3A 5C1E                    		MOVU.W [R1], R14
00001B3C 06C50E0C                		CMP 18H[R0].UW, R14
00001B40 3Brrrr               W  		BNE L533
00001B43                         L524:	; bb666
                                 ;    1724                 {
                                 ;    1725                     USB_OVERCURRENT(ptr, rootport, (uint16_t)USB_NO_ARG);
                                 		.LINE  "C:\Workspace\e2studio\git\MT01\r_usb_basic\src\driver\host\r_usb_hmanager.c",1725
00001B43 BB02                    		MOVU.W 18H[R0], R2
00001B45 A881                    		MOV.L 08H[R0], R1
00001B47 6603                    		MOV.L #00000000H, R3
00001B49 05rrrrrr             A  		BSR _usb_cstd_DummyFunction
00001B4D                         L525:	; bb666.split
                                 ;    1726                     /* Root port */
                                 ;    1727                     usb_ghstd_DeviceInfo[ptr->ip][driver->devaddr][0] = USB_NOPORT;
                                 		.LINE  "C:\Workspace\e2studio\git\MT01\r_usb_basic\src\driver\host\r_usb_hmanager.c",1727
00001B4D A881                    		MOV.L 08H[R0], R1
00001B4F B991                    		MOVU.W 0CH[R1], R1
00001B51 7611B000                		MUL #0B0H, R1
00001B55 FBE2rrrrrrrr            		MOV.L #_usb_ghstd_DeviceInfo, R14
00001B5B 4B1E                    		ADD R1, R14
00001B5D A901                    		MOV.L 10H[R0], R1
00001B5F B819                    		MOVU.W 02H[R1], R1
00001B61 6C41                    		SHLL #04H, R1
00001B63 4B1E                    		ADD R1, R14
00001B65 F8E9FFFF                		MOV.W #0FFFFH, [R14]
00001B69                         L526:	; bb666.split23
                                 ;    1728                     /* Device state */
                                 ;    1729                     usb_ghstd_DeviceInfo[ptr->ip][driver->devaddr][1] = USB_DETACHED;   
                                 		.LINE  "C:\Workspace\e2studio\git\MT01\r_usb_basic\src\driver\host\r_usb_hmanager.c",1729
00001B69 A881                    		MOV.L 08H[R0], R1
00001B6B B991                    		MOVU.W 0CH[R1], R1
00001B6D 7611B000                		MUL #0B0H, R1
00001B71 FB22rrrrrrrr            		MOV.L #_usb_ghstd_DeviceInfo, R2
00001B77 4B12                    		ADD R1, R2
00001B79 A901                    		MOV.L 10H[R0], R1
00001B7B B819                    		MOVU.W 02H[R1], R1
00001B7D 6C41                    		SHLL #04H, R1
00001B7F 4B12                    		ADD R1, R2
00001B81 3D210A                  		MOV.W #000AH, 02H[R2]
00001B84                         L527:	; bb666.split24
                                 ;    1730                     /* Not configured */
                                 ;    1731                     usb_ghstd_DeviceInfo[ptr->ip][driver->devaddr][2] = (uint16_t)0;    
                                 		.LINE  "C:\Workspace\e2studio\git\MT01\r_usb_basic\src\driver\host\r_usb_hmanager.c",1731
00001B84 A881                    		MOV.L 08H[R0], R1
00001B86 B991                    		MOVU.W 0CH[R1], R1
00001B88 7611B000                		MUL #0B0H, R1
00001B8C FB22rrrrrrrr            		MOV.L #_usb_ghstd_DeviceInfo, R2
00001B92 4B12                    		ADD R1, R2
00001B94 A901                    		MOV.L 10H[R0], R1
00001B96 B819                    		MOVU.W 02H[R1], R1
00001B98 6C41                    		SHLL #04H, R1
00001B9A 4B12                    		ADD R1, R2
00001B9C 3D2200                  		MOV.W #0000H, 04H[R2]
00001B9F                         L528:	; bb666.split25
                                 ;    1732                     /* Interface Class : NO class */
                                 ;    1733                     usb_ghstd_DeviceInfo[ptr->ip][driver->devaddr][3] = (uint16_t)USB_IFCLS_NOT;
                                 		.LINE  "C:\Workspace\e2studio\git\MT01\r_usb_basic\src\driver\host\r_usb_hmanager.c",1733
00001B9F A881                    		MOV.L 08H[R0], R1
00001BA1 B991                    		MOVU.W 0CH[R1], R1
00001BA3 7611B000                		MUL #0B0H, R1
00001BA7 FB22rrrrrrrr            		MOV.L #_usb_ghstd_DeviceInfo, R2
00001BAD 4B12                    		ADD R1, R2
00001BAF A901                    		MOV.L 10H[R0], R1
00001BB1 B819                    		MOVU.W 02H[R1], R1
00001BB3 6C41                    		SHLL #04H, R1
00001BB5 4B12                    		ADD R1, R2
00001BB7 3D2300                  		MOV.W #0000H, 06H[R2]
00001BBA                         L529:	; bb666.split26
                                 ;    1734                     /* No connect */
                                 ;    1735                     usb_ghstd_DeviceInfo[ptr->ip][driver->devaddr][4] = (uint16_t)USB_NOCONNECT;
                                 		.LINE  "C:\Workspace\e2studio\git\MT01\r_usb_basic\src\driver\host\r_usb_hmanager.c",1735
00001BBA A881                    		MOV.L 08H[R0], R1
00001BBC B991                    		MOVU.W 0CH[R1], R1
00001BBE 7611B000                		MUL #0B0H, R1
00001BC2 FB22rrrrrrrr            		MOV.L #_usb_ghstd_DeviceInfo, R2
00001BC8 4B12                    		ADD R1, R2
00001BCA A901                    		MOV.L 10H[R0], R1
00001BCC B819                    		MOVU.W 02H[R1], R1
00001BCE 6C41                    		SHLL #04H, R1
00001BD0 4B12                    		ADD R1, R2
00001BD2 3D2400                  		MOV.W #0000H, 08H[R2]
00001BD5                         L530:	; bb666.split27
                                 ;    1736                     
                                 ;    1737                     /* Root port */
                                 ;    1738                     driver->rootport    = USB_NOPORT;
                                 		.LINE  "C:\Workspace\e2studio\git\MT01\r_usb_basic\src\driver\host\r_usb_hmanager.c",1738
00001BD5 A901                    		MOV.L 10H[R0], R1
00001BD7 F819FFFF                		MOV.W #0FFFFH, [R1]
00001BDB                         L531:	; bb666.split28
                                 ;    1739                     /* Device address */
                                 ;    1740                     driver->devaddr     = USB_NODEVICE;
                                 		.LINE  "C:\Workspace\e2studio\git\MT01\r_usb_basic\src\driver\host\r_usb_hmanager.c",1740
00001BDB A901                    		MOV.L 10H[R0], R1
00001BDD F9190100F0              		MOV.W #0F000H, 02H[R1]
00001BE2                         L532:	; bb666.split29
                                 ;    1741                     /* Device state */
                                 ;    1742                     driver->devstate    = USB_DETACHED;
                                 		.LINE  "C:\Workspace\e2studio\git\MT01\r_usb_basic\src\driver\host\r_usb_hmanager.c",1742
00001BE2 A901                    		MOV.L 10H[R0], R1
00001BE4 3D120A                  		MOV.W #000AH, 04H[R1]
00001BE7                         L533:	; bb749
00001BE7 9C09                    		MOV.W 22H[R0], R1
00001BE9 6211                    		ADD #01H, R1
00001BEB 9409                    		MOV.W R1, 22H[R0]
00001BED                         L534:	; bb752
                                 		.LINE  "C:\Workspace\e2studio\git\MT01\r_usb_basic\src\driver\host\r_usb_hmanager.c",1720
00001BED A881                    		MOV.L 08H[R0], R1
00001BEF B992                    		MOVU.W 0CH[R1], R2
00001BF1 FBE2rrrrrrrr            		MOV.L #_usb_ghstd_DeviceNum, R14
00001BF7 FED2EE                  		MOVU.W [R2,R14], R14
00001BFA BC0A                    		MOVU.W 22H[R0], R2
00001BFC 47E2                    		CMP R14, R2
00001BFE 28rr                  * 		BLT L522
         38rrrr                  
00001C03                         L535:	; bb765
                                 ;    1743                 }
                                 ;    1744             }
                                 ;    1745             usb_hstd_MgrRelMpl(ptr,msginfo);
                                 		.LINE  "C:\Workspace\e2studio\git\MT01\r_usb_basic\src\driver\host\r_usb_hmanager.c",1745
00001C03 BC02                    		MOVU.W 20H[R0], R2
00001C05 39rrrr               W  		BSR _usb_hstd_MgrRelMpl
00001C08 38rrrr               W  		BRA L572
00001C0B                         L536:	; bb768
                                 ;    1746             break;
                                 ;    1747 
                                 ;    1748         /* USB_MSG_HCD_ATTACH */
                                 ;    1749         case USB_DO_RESET_AND_ENUMERATION:
                                 ;    1750             ptr->msginfo = USB_MSG_HCD_ATTACH_MGR;
                                 		.LINE  "C:\Workspace\e2studio\git\MT01\r_usb_basic\src\driver\host\r_usb_hmanager.c",1750
00001C0B A881                    		MOV.L 08H[R0], R1
00001C0D F919020B01              		MOV.W #010BH, 04H[R1]
00001C12                         L537:	; bb768.split
                                 ;    1751 
                                 ;    1752             if( devaddr == USB_DEVICEADDR )
                                 		.LINE  "C:\Workspace\e2studio\git\MT01\r_usb_basic\src\driver\host\r_usb_hmanager.c",1752
00001C12 BB09                    		MOVU.W 1AH[R0], R1
00001C14 6111                    		CMP #01H, R1
00001C16 21rr                    		BNE L539
00001C18                         L538:	; bb772
                                 ;    1753             {
                                 ;    1754                 usb_ghstd_MgrMode[ptr->ip][USB_PORT0] = USB_DETACHED;
                                 		.LINE  "C:\Workspace\e2studio\git\MT01\r_usb_basic\src\driver\host\r_usb_hmanager.c",1754
00001C18 A881                    		MOV.L 08H[R0], R1
00001C1A B991                    		MOVU.W 0CH[R1], R1
00001C1C 6C21                    		SHLL #02H, R1
00001C1E FBE2rrrrrrrr            		MOV.L #_usb_ghstd_MgrMode, R14
00001C24 4B1E                    		ADD R1, R14
00001C26 F8E50A                  		MOV.W #000AH, [R14]
00001C29                         L539:	; bb786
                                 ;    1755             }
                                 ;    1756 /* Condition compilation by the difference of the devices */
                                 ;    1757 #if USB_PORTSEL_PP == USB_2PORT_PP
                                 ;    1758             else if( devaddr == (USB_DEVICEADDR + 1u) )
                                 ;    1759             {
                                 ;    1760                 usb_ghstd_MgrMode[ptr->ip][USB_PORT1] = USB_DETACHED;
                                 ;    1761             }
                                 ;    1762 #endif  /* USB_PORTSEL_PP == USB_2PORT_PP */
                                 ;    1763             else
                                 ;    1764             {
                                 ;    1765             }
                                 ;    1766 
                                 ;    1767             usb_hstd_DeviceStateControl2(ptr, hp->complete, devaddr, ptr->msginfo, msginfo);
                                 		.LINE  "C:\Workspace\e2studio\git\MT01\r_usb_basic\src\driver\host\r_usb_hmanager.c",1767
00001C29 A881                    		MOV.L 08H[R0], R1
00001C2B B894                    		MOVU.W 04H[R1], R4
00001C2D A90A                    		MOV.L 14H[R0], R2
00001C2F A922                    		MOV.L 10H[R2], R2
00001C31 9C05                    		MOV.W 20H[R0], R5
00001C33 BB0B                    		MOVU.W 1AH[R0], R3
00001C35 6040                    		SUB #04H, R0
00001C37 D305                    		MOV.W R5, [R0]
00001C39 39rrrr               W  		BSR _usb_hstd_DeviceStateControl2
00001C3C 6240                    		ADD #04H, R0
00001C3E                         L540:	; bb786.split
                                 ;    1768             usb_hstd_MgrRelMpl(ptr,msginfo);
                                 		.LINE  "C:\Workspace\e2studio\git\MT01\r_usb_basic\src\driver\host\r_usb_hmanager.c",1768
00001C3E BC02                    		MOVU.W 20H[R0], R2
00001C40 A881                    		MOV.L 08H[R0], R1
00001C42 39rrrr               W  		BSR _usb_hstd_MgrRelMpl
00001C45 38rrrr               W  		BRA L572
00001C48                         L541:	; bb798
                                 ;    1769             break;
                                 ;    1770 
                                 ;    1771         /* USB_MSG_HCD_VBON */
                                 ;    1772         case USB_PORT_ENABLE:
                                 ;    1773             ptr->msginfo = USB_MSG_HCD_VBON;
                                 		.LINE  "C:\Workspace\e2studio\git\MT01\r_usb_basic\src\driver\host\r_usb_hmanager.c",1773
00001C48 A881                    		MOV.L 08H[R0], R1
00001C4A F919020701              		MOV.W #0107H, 04H[R1]
00001C4F                         L542:	; bb798.split
                                 ;    1774             if( devaddr == USB_DEVICEADDR )
                                 		.LINE  "C:\Workspace\e2studio\git\MT01\r_usb_basic\src\driver\host\r_usb_hmanager.c",1774
00001C4F BB09                    		MOVU.W 1AH[R0], R1
00001C51 6111                    		CMP #01H, R1
00001C53 21rr                    		BNE L544
00001C55                         L543:	; bb802
                                 ;    1775             {
                                 ;    1776                 usb_ghstd_MgrMode[ptr->ip][USB_PORT0] = USB_DETACHED;
                                 		.LINE  "C:\Workspace\e2studio\git\MT01\r_usb_basic\src\driver\host\r_usb_hmanager.c",1776
00001C55 A881                    		MOV.L 08H[R0], R1
00001C57 B991                    		MOVU.W 0CH[R1], R1
00001C59 6C21                    		SHLL #02H, R1
00001C5B FBE2rrrrrrrr            		MOV.L #_usb_ghstd_MgrMode, R14
00001C61 4B1E                    		ADD R1, R14
00001C63 F8E50A                  		MOV.W #000AH, [R14]
00001C66                         L544:	; bb816
                                 ;    1777             }
                                 ;    1778 /* Condition compilation by the difference of the devices */
                                 ;    1779 #if USB_PORTSEL_PP == USB_2PORT_PP
                                 ;    1780             else if( devaddr == (USB_DEVICEADDR + 1u) )
                                 ;    1781             {
                                 ;    1782                 usb_ghstd_MgrMode[ptr->ip][USB_PORT1] = USB_DETACHED;
                                 ;    1783             }
                                 ;    1784 #endif  /* USB_PORTSEL_PP == USB_2PORT_PP */
                                 ;    1785             else
                                 ;    1786             {
                                 ;    1787             }
                                 ;    1788             usb_hstd_DeviceStateControl2(ptr, hp->complete, devaddr, ptr->msginfo, msginfo);
                                 		.LINE  "C:\Workspace\e2studio\git\MT01\r_usb_basic\src\driver\host\r_usb_hmanager.c",1788
00001C66 A881                    		MOV.L 08H[R0], R1
00001C68 B894                    		MOVU.W 04H[R1], R4
00001C6A A90A                    		MOV.L 14H[R0], R2
00001C6C A922                    		MOV.L 10H[R2], R2
00001C6E 9C05                    		MOV.W 20H[R0], R5
00001C70 BB0B                    		MOVU.W 1AH[R0], R3
00001C72 6040                    		SUB #04H, R0
00001C74 D305                    		MOV.W R5, [R0]
00001C76 39rrrr               W  		BSR _usb_hstd_DeviceStateControl2
00001C79 6240                    		ADD #04H, R0
00001C7B                         L545:	; bb816.split
                                 ;    1789             usb_hstd_MgrRelMpl(ptr,msginfo);
                                 		.LINE  "C:\Workspace\e2studio\git\MT01\r_usb_basic\src\driver\host\r_usb_hmanager.c",1789
00001C7B BC02                    		MOVU.W 20H[R0], R2
00001C7D A881                    		MOV.L 08H[R0], R1
00001C7F 39rrrr               W  		BSR _usb_hstd_MgrRelMpl
00001C82 38rrrr               W  		BRA L572
00001C85                         L546:	; bb828
                                 ;    1790             break;
                                 ;    1791 
                                 ;    1792         /* USB_MSG_HCD_VBOFF */
                                 ;    1793         case USB_PORT_DISABLE:
                                 ;    1794             /* VBUS is off at the time of the abnormalities in a device */
                                 ;    1795             ptr->msginfo = USB_MSG_HCD_VBOFF;
                                 		.LINE  "C:\Workspace\e2studio\git\MT01\r_usb_basic\src\driver\host\r_usb_hmanager.c",1795
00001C85 A881                    		MOV.L 08H[R0], R1
00001C87 F919020801              		MOV.W #0108H, 04H[R1]
00001C8C                         L547:	; bb828.split
                                 ;    1796             if( devaddr == USB_DEVICEADDR )
                                 		.LINE  "C:\Workspace\e2studio\git\MT01\r_usb_basic\src\driver\host\r_usb_hmanager.c",1796
00001C8C BB09                    		MOVU.W 1AH[R0], R1
00001C8E 6111                    		CMP #01H, R1
00001C90 21rr                    		BNE L549
00001C92                         L548:	; bb832
                                 ;    1797             {
                                 ;    1798                 usb_ghstd_MgrMode[ptr->ip][USB_PORT0] = USB_DETACHED;
                                 		.LINE  "C:\Workspace\e2studio\git\MT01\r_usb_basic\src\driver\host\r_usb_hmanager.c",1798
00001C92 A881                    		MOV.L 08H[R0], R1
00001C94 B991                    		MOVU.W 0CH[R1], R1
00001C96 6C21                    		SHLL #02H, R1
00001C98 FBE2rrrrrrrr            		MOV.L #_usb_ghstd_MgrMode, R14
00001C9E 4B1E                    		ADD R1, R14
00001CA0 F8E50A                  		MOV.W #000AH, [R14]
00001CA3                         L549:	; bb846
                                 ;    1799             }
                                 ;    1800 /* Condition compilation by the difference of the devices */
                                 ;    1801 #if USB_PORTSEL_PP == USB_2PORT_PP
                                 ;    1802             else if( devaddr == (USB_DEVICEADDR + 1u) )
                                 ;    1803             {
                                 ;    1804                 usb_ghstd_MgrMode[ptr->ip][USB_PORT1] = USB_DETACHED;
                                 ;    1805             }
                                 ;    1806 #endif  /* USB_PORTSEL_PP == USB_2PORT_PP */
                                 ;    1807             else
                                 ;    1808             {
                                 ;    1809             }
                                 ;    1810             usb_hstd_DeviceStateControl2(ptr, hp->complete, devaddr, ptr->msginfo, msginfo);
                                 		.LINE  "C:\Workspace\e2studio\git\MT01\r_usb_basic\src\driver\host\r_usb_hmanager.c",1810
00001CA3 A881                    		MOV.L 08H[R0], R1
00001CA5 B894                    		MOVU.W 04H[R1], R4
00001CA7 A90A                    		MOV.L 14H[R0], R2
00001CA9 A922                    		MOV.L 10H[R2], R2
00001CAB 9C05                    		MOV.W 20H[R0], R5
00001CAD BB0B                    		MOVU.W 1AH[R0], R3
00001CAF 6040                    		SUB #04H, R0
00001CB1 D305                    		MOV.W R5, [R0]
00001CB3 39rrrr               W  		BSR _usb_hstd_DeviceStateControl2
00001CB6 6240                    		ADD #04H, R0
00001CB8                         L550:	; bb846.split
                                 ;    1811             usb_hstd_MgrRelMpl(ptr,msginfo);
                                 		.LINE  "C:\Workspace\e2studio\git\MT01\r_usb_basic\src\driver\host\r_usb_hmanager.c",1811
00001CB8 BC02                    		MOVU.W 20H[R0], R2
00001CBA A881                    		MOV.L 08H[R0], R1
00001CBC 39rrrr               W  		BSR _usb_hstd_MgrRelMpl
00001CBF 38rrrr               W  		BRA L572
00001CC2                         L551:	; bb858
                                 ;    1812             break;
                                 ;    1813 
                                 ;    1814         /* USB_MSG_HCD_SUSPEND */
                                 ;    1815         case USB_DO_GLOBAL_SUSPEND:
                                 ;    1816             ptr->msginfo = USB_MSG_HCD_REMOTE;
                                 		.LINE  "C:\Workspace\e2studio\git\MT01\r_usb_basic\src\driver\host\r_usb_hmanager.c",1816
00001CC2 A881                    		MOV.L 08H[R0], R1
00001CC4 F919020601              		MOV.W #0106H, 04H[R1]
00001CC9                         L552:	; bb858.split
                                 ;    1817             usb_shstd_mgr_callback[ptr->ip] = hp->complete;
                                 		.LINE  "C:\Workspace\e2studio\git\MT01\r_usb_basic\src\driver\host\r_usb_hmanager.c",1817
00001CC9 A909                    		MOV.L 14H[R0], R1
00001CCB A911                    		MOV.L 10H[R1], R1
00001CCD A882                    		MOV.L 08H[R0], R2
00001CCF B9A2                    		MOVU.W 0CH[R2], R2
00001CD1 FBE2rrrrrrrr            		MOV.L #__$usb_shstd_mgr_callback, R14
00001CD7 FE22E1                  		MOV.L R1, [R2,R14]
00001CDA                         L553:	; bb858.split30
                                 ;    1818             usb_shstd_mgr_msginfo[ptr->ip] = msginfo;
                                 		.LINE  "C:\Workspace\e2studio\git\MT01\r_usb_basic\src\driver\host\r_usb_hmanager.c",1818
00001CDA A881                    		MOV.L 08H[R0], R1
00001CDC B991                    		MOVU.W 0CH[R1], R1
00001CDE FBE2rrrrrrrr            		MOV.L #__$usb_shstd_mgr_msginfo, R14
00001CE4 9C02                    		MOV.W 20H[R0], R2
00001CE6 FE11E2                  		MOV.W R2, [R1,R14]
00001CE9                         L554:	; bb858.split31
                                 ;    1819             usb_hstd_MgrSuspend(ptr, msginfo);
                                 		.LINE  "C:\Workspace\e2studio\git\MT01\r_usb_basic\src\driver\host\r_usb_hmanager.c",1819
00001CE9 BC02                    		MOVU.W 20H[R0], R2
00001CEB A881                    		MOV.L 08H[R0], R1
00001CED 39rrrr               W  		BSR _usb_hstd_MgrSuspend
00001CF0 38rrrr               W  		BRA L572
00001CF3                         L555:	; bb877
                                 ;    1820             break;
                                 ;    1821 
                                 ;    1822         /* USB_MSG_HCD_SUSPEND */
                                 ;    1823         case USB_DO_SELECTIVE_SUSPEND:
                                 ;    1824             ptr->msginfo = USB_MSG_HCD_REMOTE;
                                 		.LINE  "C:\Workspace\e2studio\git\MT01\r_usb_basic\src\driver\host\r_usb_hmanager.c",1824
00001CF3 A881                    		MOV.L 08H[R0], R1
00001CF5 F919020601              		MOV.W #0106H, 04H[R1]
00001CFA                         L556:	; bb877.split
                                 ;    1825             usb_hstd_MgrSuspend(ptr, msginfo);
                                 		.LINE  "C:\Workspace\e2studio\git\MT01\r_usb_basic\src\driver\host\r_usb_hmanager.c",1825
00001CFA BC02                    		MOVU.W 20H[R0], R2
00001CFC A881                    		MOV.L 08H[R0], R1
00001CFE 39rrrr               W  		BSR _usb_hstd_MgrSuspend
00001D01                         L557:	; bb877.split32
                                 ;    1826             usb_hstd_DeviceStateControl2(ptr, hp->complete, devaddr, ptr->msginfo, msginfo);
                                 		.LINE  "C:\Workspace\e2studio\git\MT01\r_usb_basic\src\driver\host\r_usb_hmanager.c",1826
00001D01 A881                    		MOV.L 08H[R0], R1
00001D03 B894                    		MOVU.W 04H[R1], R4
00001D05 A90A                    		MOV.L 14H[R0], R2
00001D07 A922                    		MOV.L 10H[R2], R2
00001D09 9C05                    		MOV.W 20H[R0], R5
00001D0B BB0B                    		MOVU.W 1AH[R0], R3
00001D0D 6040                    		SUB #04H, R0
00001D0F D305                    		MOV.W R5, [R0]
00001D11 39rrrr               W  		BSR _usb_hstd_DeviceStateControl2
00001D14 6240                    		ADD #04H, R0
00001D16 38rrrr               W  		BRA L572
00001D19                         L558:	; bb891
                                 ;    1827             break;
                                 ;    1828 
                                 ;    1829         /* USB_MSG_HCD_RESUME */
                                 ;    1830         case USB_DO_GLOBAL_RESUME:
                                 ;    1831             ptr->msginfo = USB_MSG_HCD_RESUME;
                                 		.LINE  "C:\Workspace\e2studio\git\MT01\r_usb_basic\src\driver\host\r_usb_hmanager.c",1831
00001D19 A881                    		MOV.L 08H[R0], R1
00001D1B F919020501              		MOV.W #0105H, 04H[R1]
00001D20                         L559:	; bb891.split
                                 ;    1832             usb_shstd_mgr_callback[ptr->ip] = hp->complete;
                                 		.LINE  "C:\Workspace\e2studio\git\MT01\r_usb_basic\src\driver\host\r_usb_hmanager.c",1832
00001D20 A909                    		MOV.L 14H[R0], R1
00001D22 A911                    		MOV.L 10H[R1], R1
00001D24 A882                    		MOV.L 08H[R0], R2
00001D26 B9A2                    		MOVU.W 0CH[R2], R2
00001D28 FBE2rrrrrrrr            		MOV.L #__$usb_shstd_mgr_callback, R14
00001D2E FE22E1                  		MOV.L R1, [R2,R14]
00001D31                         L560:	; bb891.split33
                                 ;    1833             usb_shstd_mgr_msginfo[ptr->ip] = msginfo;
                                 		.LINE  "C:\Workspace\e2studio\git\MT01\r_usb_basic\src\driver\host\r_usb_hmanager.c",1833
00001D31 A881                    		MOV.L 08H[R0], R1
00001D33 B991                    		MOVU.W 0CH[R1], R1
00001D35 FBE2rrrrrrrr            		MOV.L #__$usb_shstd_mgr_msginfo, R14
00001D3B 9C02                    		MOV.W 20H[R0], R2
00001D3D FE11E2                  		MOV.W R2, [R1,R14]
00001D40                         L561:	; bb891.split34
                                 ;    1834             usb_hstd_MgrResume(ptr, msginfo);
                                 		.LINE  "C:\Workspace\e2studio\git\MT01\r_usb_basic\src\driver\host\r_usb_hmanager.c",1834
00001D40 BC02                    		MOVU.W 20H[R0], R2
00001D42 A881                    		MOV.L 08H[R0], R1
00001D44 39rrrr               W  		BSR _usb_hstd_MgrResume
00001D47 2Err                 B  		BRA L572
00001D49                         L562:	; bb910
                                 ;    1835             break;
                                 ;    1836 
                                 ;    1837         /* USB_MSG_HCD_RESUME */
                                 ;    1838         case USB_MSG_HCD_RESUME:
                                 ;    1839             usb_shstd_mgr_msginfo[ptr->ip] = msginfo;
                                 		.LINE  "C:\Workspace\e2studio\git\MT01\r_usb_basic\src\driver\host\r_usb_hmanager.c",1839
00001D49 A881                    		MOV.L 08H[R0], R1
00001D4B B991                    		MOVU.W 0CH[R1], R1
00001D4D FBE2rrrrrrrr            		MOV.L #__$usb_shstd_mgr_msginfo, R14
00001D53 9C02                    		MOV.W 20H[R0], R2
00001D55 FE11E2                  		MOV.W R2, [R1,R14]
00001D58                         L563:	; bb910.split
                                 ;    1840             usb_hstd_MgrResume(ptr, msginfo);
                                 		.LINE  "C:\Workspace\e2studio\git\MT01\r_usb_basic\src\driver\host\r_usb_hmanager.c",1840
00001D58 BC02                    		MOVU.W 20H[R0], R2
00001D5A A881                    		MOV.L 08H[R0], R1
00001D5C 39rrrr               W  		BSR _usb_hstd_MgrResume
00001D5F 2Err                 B  		BRA L572
00001D61                         L564:	; bb919
                                 ;    1841             break;
                                 ;    1842 
                                 ;    1843         /* USB_MSG_HCD_RESUME */
                                 ;    1844         case USB_DO_SELECTIVE_RESUME:
                                 ;    1845             ptr->msginfo = USB_MSG_HCD_RESUME;
                                 		.LINE  "C:\Workspace\e2studio\git\MT01\r_usb_basic\src\driver\host\r_usb_hmanager.c",1845
00001D61 A881                    		MOV.L 08H[R0], R1
00001D63 F919020501              		MOV.W #0105H, 04H[R1]
00001D68                         L565:	; bb919.split
                                 ;    1846             usb_hstd_MgrResume(ptr, msginfo);
                                 		.LINE  "C:\Workspace\e2studio\git\MT01\r_usb_basic\src\driver\host\r_usb_hmanager.c",1846
00001D68 BC02                    		MOVU.W 20H[R0], R2
00001D6A A881                    		MOV.L 08H[R0], R1
00001D6C 39rrrr               W  		BSR _usb_hstd_MgrResume
00001D6F                         L566:	; bb919.split35
                                 ;    1847             usb_hstd_DeviceStateControl2(ptr, hp->complete, devaddr, ptr->msginfo, msginfo);
                                 		.LINE  "C:\Workspace\e2studio\git\MT01\r_usb_basic\src\driver\host\r_usb_hmanager.c",1847
00001D6F A881                    		MOV.L 08H[R0], R1
00001D71 B894                    		MOVU.W 04H[R1], R4
00001D73 A90A                    		MOV.L 14H[R0], R2
00001D75 A922                    		MOV.L 10H[R2], R2
00001D77 9C05                    		MOV.W 20H[R0], R5
00001D79 BB0B                    		MOVU.W 1AH[R0], R3
00001D7B 6040                    		SUB #04H, R0
00001D7D D305                    		MOV.W R5, [R0]
00001D7F 39rrrr               W  		BSR _usb_hstd_DeviceStateControl2
00001D82 6240                    		ADD #04H, R0
00001D84 2Err                 B  		BRA L572
00001D86                         L567:	; bb933
                                 ;    1848             break;
                                 ;    1849 
                                 ;    1850         default:
                                 ;    1851             usb_hstd_MgrRelMpl(ptr,msginfo);
                                 		.LINE  "C:\Workspace\e2studio\git\MT01\r_usb_basic\src\driver\host\r_usb_hmanager.c",1851
00001D86 BC02                    		MOVU.W 20H[R0], R2
00001D88 A881                    		MOV.L 08H[R0], R1
00001D8A 39rrrr               W  		BSR _usb_hstd_MgrRelMpl
00001D8D 2Err                 B  		BRA L572
00001D8F                         L568:	; bb940
00001D8F A889                    		MOV.L 0CH[R0], R1
00001D91 7501CE                  		CMP #0FFFFFFCEH, R1
00001D94 10                   S  		BEQ L570
00001D95                         L569:	; bb944
00001D95 F80601                  		MOV.L #00000001H, [R0]
00001D98 08                   S  		BRA L571
00001D99                         L570:	; bb945
00001D99 F80600                  		MOV.L #00000000H, [R0]
00001D9C                         L571:	; bb946
00001D9C EC01                    		MOV.L [R0], R1
00001D9E 6101                    		CMP #00H, R1
00001DA0 3Arrrr               W  		BEQ L407
00001DA3                         L572:	; bb953.split
00001DA3 FB3A1027                		MOV.L #00002710H, R3
00001DA7 710204                  		ADD #04H, R0, R2
00001DAA 6621                    		MOV.L #00000002H, R1
                                 		.LINE  "C:\Workspace\e2studio\git\MT01\r_usb_basic\src\driver\host\r_usb_hmanager.c",1410
00001DAC 05rrrrrr             A  		BSR _usb_cstd_RecMsg
00001DB0 A089                    		MOV.L R1, 0CH[R0]
00001DB2                         L573:	; bb953.split36
                                 		.LINE  "C:\Workspace\e2studio\git\MT01\r_usb_basic\src\driver\host\r_usb_hmanager.c",1411
00001DB2 A889                    		MOV.L 0CH[R0], R1
00001DB4 6101                    		CMP #00H, R1
00001DB6 21rr                    		BNE L568
00001DB8 2Err                 B  		BRA L570
                                 ;    1852             break;
                                 ;    1853         }
                                 ;    1854     }
                                 ;    1855 #ifdef FREE_RTOS_PP
                                 ;    1856     }
                                 ;    1857 #endif
                                 ;    1858 #endif  /* (USB_FUNCSEL_USBIP0_PP == USB_HOST_PP) || (USB_FUNCSEL_USBIP1_PP == USB_HOST_PP) */
                                 ;    1859 }
                                 ;    1860 /******************************************************************************
                                 ;    1861 End of function usb_hstd_MgrTask
                                 ;    1862 ******************************************************************************/
                                 ;    1863 
                                 ;    1864 
                                 ;    1865 /******************************************************************************
                                 ;    1866 End  Of File
                                 ;    1867 ******************************************************************************/
                                 		.SECTION	D,ROMDATA,ALIGN=4
00000000                         _usb_ghstd_EnumarationProcess:
00000000 rrrrrrrr                		.lword	_usb_hstd_EnumGetDescriptor
00000004 rrrrrrrr                		.lword	_usb_hstd_EnumSetAddress
00000008 rrrrrrrr                		.lword	_usb_hstd_EnumGetDescriptor
0000000C rrrrrrrr                		.lword	_usb_hstd_EnumGetDescriptor
00000010 rrrrrrrr                		.lword	_usb_hstd_EnumGetDescriptor
00000014 rrrrrrrr                		.lword	_usb_hstd_EnumGetDescriptor
00000018 rrrrrrrr                		.lword	_usb_hstd_EnumSetConfiguration
0000001C rrrrrrrr                		.lword	_usb_hstd_EnumDummyRequest
                                 		.SECTION	D_2,ROMDATA,ALIGN=2
00000000                         __$usb_shstd_mgr_msginfo:
00000000 00                      		.byte	0
00000001 00                      		.byte	0
00000002 00                      		.byte	0
00000003 00                      		.byte	0
00000004                         __$usb_shstd_SuspendSeq:
00000004 00                      		.byte	0
00000005 00                      		.byte	0
00000006 00                      		.byte	0
00000007 00                      		.byte	0
00000008                         __$usb_shstd_ResumeSeq:
00000008 00                      		.byte	0
00000009 00                      		.byte	0
0000000A 00                      		.byte	0
0000000B 00                      		.byte	0
                                 		.SECTION	B,DATA,ALIGN=4
00000000                         _usb_shstd_StdReqMsg:
00000000(00000058H)              		.blkl	22
00000058                         __$usb_shstd_MgrMsg:
00000058(00000008H)              		.blkl	2
00000060                         __$usb_shstd_mgr_callback:
00000060(00000008H)              		.blkl	2
00000068                         _usb_ghstd_ClassControl:
00000068(00000058H)              		.blkl	22
                                 		.SECTION	B_2,DATA,ALIGN=2
00000000                         _usb_ghstd_EnumSeq:
00000000(00000004H)              		.blkw	2
00000004                         _usb_ghstd_DeviceDescriptor:
00000004(00000028H)              		.blkw	20
0000002C                         _usb_ghstd_ConfigurationDescriptor:
0000002C(00000200H)              		.blkw	256
0000022C                         _usb_ghstd_SuspendPipe:
0000022C(00000028H)              		.blkw	20
00000254                         _usb_ghstd_CheckEnuResult:
00000254(00000004H)              		.blkw	2
00000258                         _usb_shstd_StdRequest:
00000258(00000014H)              		.blkw	10
0000026C                         __$usb_shstd_DummyData:
0000026C(00000002H)              		.blkw	1
0000026E                         __$usb_shstd_RegPointer:
0000026E(00000004H)              		.blkw	2
00000272                         _usb_ghstd_ClassRequest:
00000272(00000014H)              		.blkw	10
                                 		.SECTION	B_1,DATA
00000000                         _usb_ghstd_EnuWait:
00000000(00000002H)              		.blkb	2
00000002                         _usb_ghstd_ClassData:
00000002(00000400H)              		.blkb	1024
                                 		.END

Information List

TOTAL ERROR(S)    00000
TOTAL WARNING(S)  00000
TOTAL LINE(S)     05876   LINES

Section List

Attr         Size               Name
CODE     0000007610(00001DBAH)  P
ROMDATA  0000000032(00000020H)  D
ROMDATA  0000000012(0000000CH)  D_2
DATA     0000000192(000000C0H)  B
DATA     0000000646(00000286H)  B_2
DATA     0000001026(00000402H)  B_1

Cpu Type

-ISA=RXV1 -FPU

Command Parameter

-subcommand=C:\Users\LAFONS~1\AppData\Local\Temp\$ccrx99\$ccrx\r_usb_hmanager.src.cmd
    -nologo
    -isa=rxv1
    -fpu
    -show=conditionals,definitions,expansions
    -define=__RXV1=1
    -fint_register=0
    -debug
    -endian=little
-listfile=C:\Workspace\e2studio\git\MT01\Mobile_build\r_usb_hmanager.lst
-output=C:\Workspace\e2studio\git\MT01\Mobile_build\r_usb_basic\src\driver\host\r_usb_hmanager.obj
