* RX FAMILY ASSEMBLER V2.03.00.01 [24 Oct 2014] *  SOURCE LIST  Thu Mar 09 14:18:35 2017

LOC.     OBJ.              0XMDA SOURCE STATEMENT

                                 ;RX Family C/C++ Compiler (V2.03.00.03 [04 Dec 2014])  09-Mar-2017 14:18:34
                                 
                                 ;*** CPU TYPE ***
                                 
                                 ;-ISA=RXV1
                                 
                                 ;*** COMMAND PARAMETER ***
                                 
                                 ;-output=src=config.src
                                 ;-lang=c99
                                 ;-include=C:\PROGRA~2\Renesas\RX\2_3_0/include,C:\Workspace\e2studio\git\MT01_master\r_lvd_rx,C:\Workspace\e2studio\git\MT01_master\r_lvd_rx\src,C:/Workspace/e2studio/
                                 ;-debug
                                 ;-show=source,conditionals,definitions,expansions
                                 ;-listfile=config.lst
                                 ;-isa=rxv1
                                 ;-optimize=0
                                 ;-fpu
                                 ;-alias=noansi
                                 ;-nologo
                                 ;-nomessage
                                 ;-define=__RX,COMPACTAXP=1,EASYMAK=0,MOBILE=0,FREE_RTOS_PP
                                 ;config.c
                                 
                                 		.glb	_global_string_buf
                                 		.glb	_cfgArray
                                 		.glb	_cfg
                                 		.glb	_js
                                 		.glb	_configVarParMaq
                                 		.glb	_g_maq
                                 		.glb	_nvStr
                                 		.glb	_nvl
                                 		.glb	_nv_set
                                 		.glb	_nv_index_max
                                 		.glb	_nv_get
                                 		.glb	_nv_print
                                 		.glb	_nv_persist
                                 		.glb	_nv_index_lt_groups
                                 		.glb	_write_persistent_value
                                 		.glb	_config_init
                                 		.glb	_cm_set_units_mode
                                 		.glb	_nv_index_is_single
                                 		.glb	_sr_init_status_report
                                 		.glb	_rpt_print_initializing_message
                                 		.glb	_set_defaults
                                 		.glb	_config_init_assertions
                                 		.glb	_help_defa
                                 		.glb	_config_test_assertions
                                 		.glb	_get_nul
                                 		.glb	_get_ui8
                                 		.glb	_get_int
                                 		.glb	_get_data
                                 		.glb	_get_flt
                                 		.glb	_set_nul
                                 		.glb	_set_ui8
                                 		.glb	_set_01
                                 		.glb	_set_012
                                 		.glb	_set_0123
                                 		.glb	_set_int
                                 		.glb	_set_data
                                 		.glb	_set_flt
                                 		.glb	_get_grp
                                 		.glb	_set_grp
                                 		.glb	_nv_group_is_prefixed
                                 		.glb	_nv_get_index
                                 		.glb	_nv_get_type
                                 		.glb	_nv_get_nvObj
                                 		.glb	_nv_reset_nv
                                 		.glb	_nv_reset_nv_list
                                 		.glb	_nv_copy_string
                                 		.glb	_nv_add_object
                                 		.glb	_nv_add_integer
                                 		.glb	_nv_add_data
                                 		.glb	_nv_add_float
                                 		.glb	_nv_add_string
                                 		.glb	_nv_add_conditional_message
                                 		.glb	_nv_print_list
                                 		.glb	_json_print_list
                                 		.glb	_text_print_list
                                 		.glb	_nv_dump_nv
                                 		.glb	_printf
                                 ;LineNo. C-SOURCE STATEMENT
                                 
                                 		.SECTION	P,CODE
00000000                         _nv_set:
                                 		.STACK	_nv_set=16
                                 ;       1 /*
                                 ;       2  * config.c - application independent configuration handling
                                 ;       3  * This file is part of the TinyG project
                                 ;       4  *
                                 ;       5  * Copyright (c) 2010 - 2015 Alden S. Hart, Jr.
                                 ;       6  *
                                 ;       7  * This file ("the software") is free software: you can redistribute it and/or modify
                                 ;       8  * it under the terms of the GNU General Public License, version 2 as published by the
                                 ;       9  * Free Software Foundation. You should have received a copy of the GNU General Public
                                 ;      10  * License, version 2 along with the software.  If not, see <http://www.gnu.org/licenses/>.
                                 ;      11  *
                                 ;      12  * As a special exception, you may use this file as part of a software library without
                                 ;      13  * restriction. Specifically, if other files instantiate templates or use macros or
                                 ;      14  * inline functions from this file, or you compile this file and link it with  other
                                 ;      15  * files to produce an executable, this file does not by itself cause the resulting
                                 ;      16  * executable to be covered by the GNU General Public License. This exception does not
                                 ;      17  * however invalidate any other reasons why the executable file might be covered by the
                                 ;      18  * GNU General Public License.
                                 ;      19  *
                                 ;      20  * THE SOFTWARE IS DISTRIBUTED IN THE HOPE THAT IT WILL BE USEFUL, BUT WITHOUT ANY
                                 ;      21  * WARRANTY OF ANY KIND, EXPRESS OR IMPLIED, INCLUDING BUT NOT LIMITED TO THE WARRANTIES
                                 ;      22  * OF MERCHANTABILITY, FITNESS FOR A PARTICULAR PURPOSE AND NONINFRINGEMENT. IN NO EVENT
                                 ;      23  * SHALL THE AUTHORS OR COPYRIGHT HOLDERS BE LIABLE FOR ANY CLAIM, DAMAGES OR OTHER
                                 ;      24  * LIABILITY, WHETHER IN AN ACTION OF CONTRACT, TORT OR OTHERWISE, ARISING FROM, OUT OF
                                 ;      25  * OR IN CONNECTION WITH THE SOFTWARE OR THE USE OR OTHER DEALINGS IN THE SOFTWARE.
                                 ;      26  */
                                 ;      27 /*
                                 ;      28  *	See config.h for a Config system overview and a bunch of details.
                                 ;      29  */
                                 ;      30 
                                 ;      31 #include "tinyg.h"		// #1
                                 ;      32 #include "config.h"		// #2
                                 ;      33 #include "report.h"
                                 ;      34 #include "controller.h"
                                 ;      35 #include "canonical_machine.h"
                                 ;      36 #include "json_parser.h"
                                 ;      37 #include "text_parser.h"
                                 ;      38 #include "persistence.h"
                                 ;      39 #include "hardware.h"
                                 ;      40 #include "settings.h"
                                 ;      41 #include "help.h"
                                 ;      42 #include "util.h"
                                 ;      43 #include "xio.h"
                                 ;      44 #include "eeprom.h"
                                 ;      45 
                                 ;      46 #ifdef __cplusplus
                                 ;      47 extern "C"{
                                 ;      48 #endif
                                 ;      49 
                                 ;      50 static void _set_defa(nvObj_t *nv);
                                 ;      51 static void _config_maq(maq_st lmaq, nvObj_t *nv);
                                 ;      52 
                                 ;      53 /***********************************************************************************
                                 ;      54  **** STRUCTURE ALLOCATIONS ********************************************************
                                 ;      55  ***********************************************************************************/
                                 ;      56 
                                 ;      57 nvStr_t nvStr;
                                 ;      58 nvList_t nvl;
                                 ;      59 
                                 ;      60 /***********************************************************************************
                                 ;      61  **** CODE *************************************************************************
                                 ;      62  ***********************************************************************************/
                                 ;      63 /* Primary access points to functions bound to text mode / JSON functions
                                 ;      64  * These gatekeeper functions check index ranges so others don't have to
                                 ;      65  *
                                 ;      66  * nv_set() 	- Write a value or invoke a function - operates on single valued elements or groups
                                 ;      67  * nv_get() 	- Build a nvObj with the values from the target & return the value
                                 ;      68  *			   	  Populate nv body with single valued elements or groups (iterates)
                                 ;      69  * nv_print()	- Output a formatted string for the value.
                                 ;      70  * nv_persist() - persist value to non-volatile storage. Takes special cases into account
                                 ;      71  *
                                 ;      72  *	!!!! NOTE: nv_persist() cannot be called from an interrupt on the AVR due to the AVR1008 EEPROM workaround
                                 ;      73  */
                                 ;      74 stat_t nv_set(nvObj_t *nv)
                                 		.LINE  "C:\Workspace\e2studio\git\MT01_master\src\cnc\config.c",74
00000000 7EA6                    		PUSH.L R6
00000002 6080                    		SUB #08H, R0
00000004 A009                    		MOV.L R1, 04H[R0]
                                 ;      75 {
                                 ;      76 	if (nv->index >= nv_index_max())
                                 		.LINE  "C:\Workspace\e2studio\git\MT01_master\src\cnc\config.c",76
00000006 B916                    		MOVU.W 08H[R1], R6
00000008 05rrrrrr             A  		BSR _nv_index_max
0000000C 4761                    		CMP R6, R1
0000000E 2Arr                    		BGT L39
00000010                         L38:	; bb2
                                 ;      77         return(STAT_INTERNAL_RANGE_ERROR);
                                 		.LINE  "C:\Workspace\e2studio\git\MT01_master\src\cnc\config.c",77
00000010 3C0215                  		MOV.B #15H, 02H[R0]
00000013 2Err                 B  		BRA L40
00000015                         L39:	; bb12
                                 ;      78 	return (((fptrCmd)GET_TABLE_WORD(set))(nv));
                                 		.LINE  "C:\Workspace\e2studio\git\MT01_master\src\cnc\config.c",78
00000015 A809                    		MOV.L 04H[R0], R1
00000017 B912                    		MOVU.W 08H[R1], R2
00000019 6C52                    		SHLL #05H, R2
0000001B FB32rrrrrrrr            		MOV.L #_cfgArray, R3
00000021 4B23                    		ADD R2, R3
00000023 A93A                    		MOV.L 14H[R3], R2
00000025 7F12                    		JSR R2
00000027 8081                    		MOV.B R1, 02H[R0]
00000029                         L40:	; bb23
00000029 C5000203                		MOV.B 02H[R0], 03H[R0]
                                 ;      79 }
                                 		.LINE  "C:\Workspace\e2studio\git\MT01_master\src\cnc\config.c",79
0000002D B089                    		MOVU.B 03H[R0], R1
0000002F 3F6603                  		RTSD #0CH, R6-R6
00000032                         _nv_get:
                                 		.STACK	_nv_get=16
                                 ;      80 
                                 ;      81 stat_t nv_get(nvObj_t *nv)
                                 		.LINE  "C:\Workspace\e2studio\git\MT01_master\src\cnc\config.c",81
00000032 7EA6                    		PUSH.L R6
00000034 6080                    		SUB #08H, R0
00000036 A009                    		MOV.L R1, 04H[R0]
                                 ;      82 {
                                 ;      83 	if (nv->index >= nv_index_max())
                                 		.LINE  "C:\Workspace\e2studio\git\MT01_master\src\cnc\config.c",83
00000038 B916                    		MOVU.W 08H[R1], R6
0000003A 05rrrrrr             A  		BSR _nv_index_max
0000003E 4761                    		CMP R6, R1
00000040 2Arr                    		BGT L43
00000042                         L42:	; bb2
                                 ;      84         return(STAT_INTERNAL_RANGE_ERROR);
                                 		.LINE  "C:\Workspace\e2studio\git\MT01_master\src\cnc\config.c",84
00000042 3C0215                  		MOV.B #15H, 02H[R0]
00000045 2Err                 B  		BRA L44
00000047                         L43:	; bb12
                                 ;      85 	return (((fptrCmd)GET_TABLE_WORD(get))(nv));
                                 		.LINE  "C:\Workspace\e2studio\git\MT01_master\src\cnc\config.c",85
00000047 A809                    		MOV.L 04H[R0], R1
00000049 B912                    		MOVU.W 08H[R1], R2
0000004B 6C52                    		SHLL #05H, R2
0000004D FB32rrrrrrrr            		MOV.L #_cfgArray, R3
00000053 4B23                    		ADD R2, R3
00000055 A932                    		MOV.L 10H[R3], R2
00000057 7F12                    		JSR R2
00000059 8081                    		MOV.B R1, 02H[R0]
0000005B                         L44:	; bb23
0000005B C5000203                		MOV.B 02H[R0], 03H[R0]
                                 ;      86 }
                                 		.LINE  "C:\Workspace\e2studio\git\MT01_master\src\cnc\config.c",86
0000005F B089                    		MOVU.B 03H[R0], R1
00000061 3F6603                  		RTSD #0CH, R6-R6
00000064                         _nv_print:
                                 		.STACK	_nv_print=12
                                 ;      87 
                                 ;      88 void nv_print(nvObj_t *nv)
                                 		.LINE  "C:\Workspace\e2studio\git\MT01_master\src\cnc\config.c",88
00000064 7EA6                    		PUSH.L R6
00000066 6040                    		SUB #04H, R0
00000068 E301                    		MOV.L R1, [R0]
                                 ;      89 {
                                 ;      90 	if (nv->index >= nv_index_max()) return;
                                 		.LINE  "C:\Workspace\e2studio\git\MT01_master\src\cnc\config.c",90
0000006A B916                    		MOVU.W 08H[R1], R6
0000006C 05rrrrrr             A  		BSR _nv_index_max
00000070 4761                    		CMP R6, R1
00000072 2Brr                    		BLE L47
00000074                         L46:	; bb11
                                 ;      91 	((fptrCmd)GET_TABLE_WORD(print))(nv);
                                 		.LINE  "C:\Workspace\e2studio\git\MT01_master\src\cnc\config.c",91
00000074 EC01                    		MOV.L [R0], R1
00000076 B912                    		MOVU.W 08H[R1], R2
00000078 6C52                    		SHLL #05H, R2
0000007A FB32rrrrrrrr            		MOV.L #_cfgArray, R3
00000080 4B23                    		ADD R2, R3
00000082 A8BA                    		MOV.L 0CH[R3], R2
00000084 7F12                    		JSR R2
00000086 3F6602                  		RTSD #08H, R6-R6
00000089                         L47:	; return
                                 ;      92 }
                                 		.LINE  "C:\Workspace\e2studio\git\MT01_master\src\cnc\config.c",92
00000089 3F6602                  		RTSD #08H, R6-R6
0000008C                         _nv_persist:
                                 		.STACK	_nv_persist=12
                                 ;      93 
                                 ;      94 stat_t nv_persist(nvObj_t *nv)	// nv_persist() cannot be called from an interrupt on the AVR due to the AVR1008 EEPROM workaround
                                 		.LINE  "C:\Workspace\e2studio\git\MT01_master\src\cnc\config.c",94
0000008C 6080                    		SUB #08H, R0
0000008E A009                    		MOV.L R1, 04H[R0]
                                 ;      95 {
                                 ;      96 #ifndef __DISABLE_PERSISTENCE	// cutout for faster simulation in test
                                 ;      97 	if (nv_index_lt_groups(nv->index) == false)
                                 		.LINE  "C:\Workspace\e2studio\git\MT01_master\src\cnc\config.c",97
00000090 B911                    		MOVU.W 08H[R1], R1
00000092 05rrrrrr             A  		BSR _nv_index_lt_groups
00000096 6101                    		CMP #00H, R1
00000098 18                   S  		BNE L50
00000099                         L49:	; bb2
                                 ;      98         return(STAT_INTERNAL_RANGE_ERROR);
                                 		.LINE  "C:\Workspace\e2studio\git\MT01_master\src\cnc\config.c",98
00000099 3C0215                  		MOV.B #15H, 02H[R0]
0000009C 2Err                 B  		BRA L53
0000009E                         L50:	; bb12
                                 ;      99 	if (GET_TABLE_BYTE(flags) & F_PERSIST)
                                 		.LINE  "C:\Workspace\e2studio\git\MT01_master\src\cnc\config.c",99
0000009E A809                    		MOV.L 04H[R0], R1
000000A0 B911                    		MOVU.W 08H[R1], R1
000000A2 6C51                    		SHLL #05H, R1
000000A4 FBE2rrrrrrrr            		MOV.L #_cfgArray, R14
000000AA 4B1E                    		ADD R1, R14
000000AC F5E10A                  		BTST #01H, 0AH[R14].B
000000AF 10                   S  		BEQ L52
000000B0                         L51:	; bb13
                                 ;     100         return(write_persistent_value(nv));
                                 		.LINE  "C:\Workspace\e2studio\git\MT01_master\src\cnc\config.c",100
000000B0 A809                    		MOV.L 04H[R0], R1
000000B2 05rrrrrr             A  		BSR _write_persistent_value
000000B6 8081                    		MOV.B R1, 02H[R0]
000000B8 08                   S  		BRA L53
000000B9                         L52:	; bb29
                                 ;     101 #endif
                                 ;     102 	return (STAT_OK);
                                 		.LINE  "C:\Workspace\e2studio\git\MT01_master\src\cnc\config.c",102
000000B9 3C0200                  		MOV.B #00H, 02H[R0]
000000BC                         L53:	; bb31
000000BC C5000203                		MOV.B 02H[R0], 03H[R0]
                                 ;     103 }
                                 		.LINE  "C:\Workspace\e2studio\git\MT01_master\src\cnc\config.c",103
000000C0 B089                    		MOVU.B 03H[R0], R1
000000C2 6702                    		RTSD #08H
000000C4                         _config_init:
                                 		.STACK	_config_init=28
                                 ;     104 
                                 ;     105 /************************************************************************************
                                 ;     106  * config_init() - called once on hard reset
                                 ;     107  *
                                 ;     108  * Performs one of 2 actions:
                                 ;     109  *	(1) if persistence is set up or out-of-rev load RAM and NVM with settings.h defaults
                                 ;     110  *	(2) if persistence is set up and at current config version use NVM data for config
                                 ;     111  *
                                 ;     112  *	You can assume the cfg struct has been zeroed by a hard reset.
                                 ;     113  *	Do not clear it as the version and build numbers have already been set by tg_init()
                                 ;     114  *
                                 ;     115  * NOTE: Config assertions are handled from the controller
                                 ;     116  */
                                 ;     117 void config_init()
                                 		.LINE  "C:\Workspace\e2studio\git\MT01_master\src\cnc\config.c",117
000000C4 7EA6                    		PUSH.L R6
000000C6 7100EC                  		ADD #0FFFFFFECH, R0
                                 ;     118 {
                                 ;     119 	nvObj_t *nv = nv_reset_nv_list();
                                 		.LINE  "C:\Workspace\e2studio\git\MT01_master\src\cnc\config.c",119
000000C9 39rrrr               W  		BSR _nv_reset_nv_list
000000CC E301                    		MOV.L R1, [R0]
000000CE                         L55:	; entry.split
                                 ;     120 	char *P_str_axis[3] = {"x","y", "z"};
                                 		.LINE  "C:\Workspace\e2studio\git\MT01_master\src\cnc\config.c",120
000000CE FBE2rrrrrrrr            		MOV.L #_L13, R14
000000D4 E4E001                  		MOV.L [R14], 04H[R0]
000000D7 E5E00102                		MOV.L 04H[R14], 08H[R0]
000000DB E5E00203                		MOV.L 08H[R14], 0CH[R0]
000000DF                         L56:	; entry.split1
                                 ;     121 	config_init_assertions();
                                 		.LINE  "C:\Workspace\e2studio\git\MT01_master\src\cnc\config.c",121
000000DF 39rrrr               W  		BSR _config_init_assertions
000000E2                         L57:	; entry.split2
                                 ;     122 
                                 ;     123 #ifdef __ARM
                                 ;     124 // ++++ The following code is offered until persistence is implemented.
                                 ;     125 // ++++ Then you can use the AVR code (or something like it)
                                 ;     126 	cfg.comm_mode = JSON_MODE;					// initial value until EEPROM is read
                                 ;     127 	_set_defa(nv);
                                 ;     128 #endif
                                 ;     129 #ifdef __AVR
                                 ;     130 	cm_set_units_mode(MILLIMETERS);				// must do inits in millimeter mode
                                 ;     131 	nv->index = 0;								// this will read the first record in NVM
                                 ;     132 
                                 ;     133 	read_persistent_value(nv);
                                 ;     134 	if (nv->value != cs.fw_build) {				// case (1) NVM is not setup or not in revision
                                 ;     135 //	if (fp_NE(nv->value, cs.fw_build)) {
                                 ;     136 		_set_defa(nv);
                                 ;     137 	} else {									// case (2) NVM is setup and in revision
                                 ;     138 		rpt_print_loading_configs_message();
                                 ;     139 		for (nv->index=0; nv_index_is_single(nv->index); nv->index++) {
                                 ;     140 			if (GET_TABLE_BYTE(flags) & F_INITIALIZE) {
                                 ;     141 				strncpy_P(nv->token, cfgArray[nv->index].token, TOKEN_LEN);	// read the token from the array
                                 ;     142 				read_persistent_value(nv);
                                 ;     143 				nv_set(nv);
                                 ;     144 			}
                                 ;     145 		}
                                 ;     146 		sr_init_status_report();
                                 ;     147 	}
                                 ;     148 #endif
                                 ;     149 #ifdef __RX
                                 ;     150 // ++++ The following code is offered until persistence is implemented.
                                 ;     151 // ++++ Then you can use the AVR code (or something like it)
                                 ;     152 	cfg.comm_mode = TEXT_MODE;					// initial value until EEPROM is read
                                 		.LINE  "C:\Workspace\e2studio\git\MT01_master\src\cnc\config.c",152
000000E2 FB12rrrrrrrr            		MOV.L #_cfg, R1
000000E8 3C1200                  		MOV.B #00H, 02H[R1]
000000EB                         L58:	; entry.split3
                                 ;     153 	_set_defa(nv);
                                 		.LINE  "C:\Workspace\e2studio\git\MT01_master\src\cnc\config.c",153
000000EB EC01                    		MOV.L [R0], R1
000000ED 39rrrr               W  		BSR __$_set_defa
000000F0                         L59:	; entry.split4
                                 ;     154 	_config_maq(g_maq,nv);
                                 		.LINE  "C:\Workspace\e2studio\git\MT01_master\src\cnc\config.c",154
000000F0 FB12rrrrrrrr            		MOV.L #_g_maq, R1
000000F6 A81A                    		MOV.L 04H[R1], R2
000000F8 EC11                    		MOV.L [R1], R1
000000FA EC03                    		MOV.L [R0], R3
000000FC 39rrrr               W  		BSR __$_config_maq
000000FF                         L60:	; entry.split5
                                 ;     155 	for (uint8_t i = 0; i < 3; i++ )
                                 		.LINE  "C:\Workspace\e2studio\git\MT01_master\src\cnc\config.c",155
000000FF 3C8000                  		MOV.B #00H, 10H[R0]
00000102 2Err                 B  		BRA L66
00000104                         L61:	; bb
00000104 710E04                  		ADD #04H, R0, R14
                                 ;     156 	{
                                 ;     157 		nv->index = nv_get_index(P_str_axis[i], "vm");
                                 		.LINE  "C:\Workspace\e2studio\git\MT01_master\src\cnc\config.c",157
00000107 B401                    		MOVU.B 10H[R0], R1
00000109 FE61E1                  		MOV.L [R1,R14], R1
0000010C EC06                    		MOV.L [R0], R6
0000010E FB22rrrrrrrr            		MOV.L #_L14, R2
00000114 39rrrr               W  		BSR _nv_get_index
00000117 9161                    		MOV.W R1, 08H[R6]
00000119                         L62:	; bb.split
                                 ;     158 		nv->value = configVarParMaq[CFG_PAR_MAQ_VEL_X + i];
                                 		.LINE  "C:\Workspace\e2studio\git\MT01_master\src\cnc\config.c",158
00000119 B401                    		MOVU.B 10H[R0], R1
0000011B 6C21                    		SHLL #02H, R1
0000011D FBE2rrrrrrrr            		MOV.L #_configVarParMaq, R14
00000123 4BE1                    		ADD R14, R1
00000125 EC02                    		MOV.L [R0], R2
00000127 E5120504                		MOV.L 14H[R1], 10H[R2]
0000012B                         L63:	; bb.split6
                                 ;     159 		strncpy_P(nv->token, cfgArray[nv->index].token, TOKEN_LEN);
                                 		.LINE  "C:\Workspace\e2studio\git\MT01_master\src\cnc\config.c",159
0000012B EC04                    		MOV.L [R0], R4
0000012D B941                    		MOVU.W 08H[R4], R1
0000012F 6C51                    		SHLL #05H, R1
00000131 FB22rrrrrrrr            		MOV.L #_cfgArray, R2
00000137 4B12                    		ADD R1, R2
00000139 6242                    		ADD #04H, R2
0000013B 714118                  		ADD #18H, R4, R1
0000013E 6653                    		MOV.L #00000005H, R3
00000140 7F87                    		SMOVU
00000142 71441D                  		ADD #1DH, R4
00000145 EF41                    		MOV.L R4, R1
00000147 4331                    		SUB R3, R1
00000149 6602                    		MOV.L #00000000H, R2
0000014B 7F88                    		SSTR.B
0000014D                         L64:	; bb.split7
                                 ;     160 		nv_set(nv);
                                 		.LINE  "C:\Workspace\e2studio\git\MT01_master\src\cnc\config.c",160
0000014D EC01                    		MOV.L [R0], R1
0000014F 39rrrr               W  		BSR _nv_set
00000152                         L65:	; bb.split8
                                 ;     161 		nv_persist(nv);
                                 		.LINE  "C:\Workspace\e2studio\git\MT01_master\src\cnc\config.c",161
00000152 EC01                    		MOV.L [R0], R1
00000154 39rrrr               W  		BSR _nv_persist
00000157 B401                    		MOVU.B 10H[R0], R1
00000159 6211                    		ADD #01H, R1
0000015B 8401                    		MOV.B R1, 10H[R0]
0000015D                         L66:	; bb49
                                 		.LINE  "C:\Workspace\e2studio\git\MT01_master\src\cnc\config.c",155
0000015D B401                    		MOVU.B 10H[R0], R1
0000015F 6131                    		CMP #03H, R1
00000161 29rr                    		BLT L61
00000163                         L67:	; bb54
                                 ;     162 	}
                                 ;     163 
                                 ;     164 	for (uint8_t i = 0; i < 3; i++ )
                                 		.LINE  "C:\Workspace\e2studio\git\MT01_master\src\cnc\config.c",164
00000163 3C8100                  		MOV.B #00H, 11H[R0]
00000166 2Err                 B  		BRA L73
00000168                         L68:	; bb55
00000168 710E04                  		ADD #04H, R0, R14
                                 ;     165 	{
                                 ;     166 		nv->index = nv_get_index(P_str_axis[i], "fr");
                                 		.LINE  "C:\Workspace\e2studio\git\MT01_master\src\cnc\config.c",166
0000016B B409                    		MOVU.B 11H[R0], R1
0000016D FE61E1                  		MOV.L [R1,R14], R1
00000170 EC06                    		MOV.L [R0], R6
00000172 FB22rrrrrrrr            		MOV.L #_L15, R2
00000178 39rrrr               W  		BSR _nv_get_index
0000017B 9161                    		MOV.W R1, 08H[R6]
0000017D                         L69:	; bb55.split
                                 ;     167 		nv->value = configVarParMaq[CFG_PAR_MAQ_VEL_X + i];
                                 		.LINE  "C:\Workspace\e2studio\git\MT01_master\src\cnc\config.c",167
0000017D B409                    		MOVU.B 11H[R0], R1
0000017F 6C21                    		SHLL #02H, R1
00000181 FBE2rrrrrrrr            		MOV.L #_configVarParMaq, R14
00000187 4BE1                    		ADD R14, R1
00000189 EC02                    		MOV.L [R0], R2
0000018B E5120504                		MOV.L 14H[R1], 10H[R2]
0000018F                         L70:	; bb55.split9
                                 ;     168 		strncpy_P(nv->token, cfgArray[nv->index].token, TOKEN_LEN);
                                 		.LINE  "C:\Workspace\e2studio\git\MT01_master\src\cnc\config.c",168
0000018F EC04                    		MOV.L [R0], R4
00000191 B941                    		MOVU.W 08H[R4], R1
00000193 6C51                    		SHLL #05H, R1
00000195 FB22rrrrrrrr            		MOV.L #_cfgArray, R2
0000019B 4B12                    		ADD R1, R2
0000019D 6242                    		ADD #04H, R2
0000019F 714118                  		ADD #18H, R4, R1
000001A2 6653                    		MOV.L #00000005H, R3
000001A4 7F87                    		SMOVU
000001A6 71441D                  		ADD #1DH, R4
000001A9 EF41                    		MOV.L R4, R1
000001AB 4331                    		SUB R3, R1
000001AD 6602                    		MOV.L #00000000H, R2
000001AF 7F88                    		SSTR.B
000001B1                         L71:	; bb55.split10
                                 ;     169 		nv_set(nv);
                                 		.LINE  "C:\Workspace\e2studio\git\MT01_master\src\cnc\config.c",169
000001B1 EC01                    		MOV.L [R0], R1
000001B3 39rrrr               W  		BSR _nv_set
000001B6                         L72:	; bb55.split11
                                 ;     170 		nv_persist(nv);
                                 		.LINE  "C:\Workspace\e2studio\git\MT01_master\src\cnc\config.c",170
000001B6 EC01                    		MOV.L [R0], R1
000001B8 39rrrr               W  		BSR _nv_persist
000001BB B409                    		MOVU.B 11H[R0], R1
000001BD 6211                    		ADD #01H, R1
000001BF 8409                    		MOV.B R1, 11H[R0]
000001C1                         L73:	; bb87
                                 		.LINE  "C:\Workspace\e2studio\git\MT01_master\src\cnc\config.c",164
000001C1 B409                    		MOVU.B 11H[R0], R1
000001C3 6131                    		CMP #03H, R1
000001C5 29rr                    		BLT L68
000001C7                         L74:	; bb93
                                 ;     171 	}
                                 ;     172 
                                 ;     173 	for (uint8_t i = 0; i < 2; i++ )
                                 		.LINE  "C:\Workspace\e2studio\git\MT01_master\src\cnc\config.c",173
000001C7 3C8200                  		MOV.B #00H, 12H[R0]
000001CA 2Err                 B  		BRA L80
000001CC                         L75:	; bb94
000001CC 710E04                  		ADD #04H, R0, R14
                                 ;     174 	{
                                 ;     175 		nv->index = nv_get_index(P_str_axis[i], "jm");
                                 		.LINE  "C:\Workspace\e2studio\git\MT01_master\src\cnc\config.c",175
000001CF B481                    		MOVU.B 12H[R0], R1
000001D1 FE61E1                  		MOV.L [R1,R14], R1
000001D4 EC06                    		MOV.L [R0], R6
000001D6 FB22rrrrrrrr            		MOV.L #_L16, R2
000001DC 39rrrr               W  		BSR _nv_get_index
000001DF 9161                    		MOV.W R1, 08H[R6]
000001E1                         L76:	; bb94.split
                                 ;     176 		nv->value = configVarParMaq[CFG_PAR_MAQ_JERK_X + i];
                                 		.LINE  "C:\Workspace\e2studio\git\MT01_master\src\cnc\config.c",176
000001E1 B481                    		MOVU.B 12H[R0], R1
000001E3 6C21                    		SHLL #02H, R1
000001E5 FBE2rrrrrrrr            		MOV.L #_configVarParMaq, R14
000001EB 4BE1                    		ADD R14, R1
000001ED EC02                    		MOV.L [R0], R2
000001EF E5120304                		MOV.L 0CH[R1], 10H[R2]
000001F3                         L77:	; bb94.split12
                                 ;     177 		strncpy_P(nv->token, cfgArray[nv->index].token, TOKEN_LEN);
                                 		.LINE  "C:\Workspace\e2studio\git\MT01_master\src\cnc\config.c",177
000001F3 EC04                    		MOV.L [R0], R4
000001F5 B941                    		MOVU.W 08H[R4], R1
000001F7 6C51                    		SHLL #05H, R1
000001F9 FB22rrrrrrrr            		MOV.L #_cfgArray, R2
000001FF 4B12                    		ADD R1, R2
00000201 6242                    		ADD #04H, R2
00000203 714118                  		ADD #18H, R4, R1
00000206 6653                    		MOV.L #00000005H, R3
00000208 7F87                    		SMOVU
0000020A 71441D                  		ADD #1DH, R4
0000020D EF41                    		MOV.L R4, R1
0000020F 4331                    		SUB R3, R1
00000211 6602                    		MOV.L #00000000H, R2
00000213 7F88                    		SSTR.B
00000215                         L78:	; bb94.split13
                                 ;     178 		nv_set(nv);
                                 		.LINE  "C:\Workspace\e2studio\git\MT01_master\src\cnc\config.c",178
00000215 EC01                    		MOV.L [R0], R1
00000217 39rrrr               W  		BSR _nv_set
0000021A                         L79:	; bb94.split14
                                 ;     179 		nv_persist(nv);
                                 		.LINE  "C:\Workspace\e2studio\git\MT01_master\src\cnc\config.c",179
0000021A EC01                    		MOV.L [R0], R1
0000021C 39rrrr               W  		BSR _nv_persist
0000021F B481                    		MOVU.B 12H[R0], R1
00000221 6211                    		ADD #01H, R1
00000223 8481                    		MOV.B R1, 12H[R0]
00000225                         L80:	; bb126
                                 		.LINE  "C:\Workspace\e2studio\git\MT01_master\src\cnc\config.c",173
00000225 B481                    		MOVU.B 12H[R0], R1
00000227 6121                    		CMP #02H, R1
00000229 29rr                    		BLT L75
0000022B                         L81:	; bb132
                                 ;     180 	}
                                 ;     181 
                                 ;     182 	for (uint8_t i = 0; i < 3; i++ )
                                 		.LINE  "C:\Workspace\e2studio\git\MT01_master\src\cnc\config.c",182
0000022B 3C8300                  		MOV.B #00H, 13H[R0]
0000022E 2Err                 B  		BRA L87
00000230                         L82:	; bb133
00000230 710E04                  		ADD #04H, R0, R14
                                 ;     183 	{
                                 ;     184 		nv->index = nv_get_index(P_str_axis[i], "jd");
                                 		.LINE  "C:\Workspace\e2studio\git\MT01_master\src\cnc\config.c",184
00000233 B489                    		MOVU.B 13H[R0], R1
00000235 FE61E1                  		MOV.L [R1,R14], R1
00000238 FB22rrrrrrrr            		MOV.L #_L17, R2
0000023E 39rrrr               W  		BSR _nv_get_index
00000241 9161                    		MOV.W R1, 08H[R6]
00000243                         L83:	; bb133.split
                                 ;     185 		nv->value = configVarParMaq[CFG_PAR_MAQ_JUNCTION_DEV];
                                 		.LINE  "C:\Workspace\e2studio\git\MT01_master\src\cnc\config.c",185
00000243 FBE2rrrrrrrr            		MOV.L #_configVarParMaq, R14
00000249 EC06                    		MOV.L [R0], R6
0000024B E5E60804                		MOV.L 20H[R14], 10H[R6]
0000024F                         L84:	; bb133.split15
                                 ;     186 		strncpy_P(nv->token, cfgArray[nv->index].token, TOKEN_LEN);
                                 		.LINE  "C:\Workspace\e2studio\git\MT01_master\src\cnc\config.c",186
0000024F EC06                    		MOV.L [R0], R6
00000251 B961                    		MOVU.W 08H[R6], R1
00000253 6C51                    		SHLL #05H, R1
00000255 FB22rrrrrrrr            		MOV.L #_cfgArray, R2
0000025B 4B12                    		ADD R1, R2
0000025D 6242                    		ADD #04H, R2
0000025F 716118                  		ADD #18H, R6, R1
00000262 6653                    		MOV.L #00000005H, R3
00000264 7F87                    		SMOVU
00000266 71661D                  		ADD #1DH, R6
00000269 EF61                    		MOV.L R6, R1
0000026B 4331                    		SUB R3, R1
0000026D 6602                    		MOV.L #00000000H, R2
0000026F 7F88                    		SSTR.B
00000271                         L85:	; bb133.split16
                                 ;     187 		nv_set(nv);
                                 		.LINE  "C:\Workspace\e2studio\git\MT01_master\src\cnc\config.c",187
00000271 EC01                    		MOV.L [R0], R1
00000273 39rrrr               W  		BSR _nv_set
00000276                         L86:	; bb133.split17
                                 ;     188 		nv_persist(nv);
                                 		.LINE  "C:\Workspace\e2studio\git\MT01_master\src\cnc\config.c",188
00000276 EC01                    		MOV.L [R0], R1
00000278 39rrrr               W  		BSR _nv_persist
0000027B B48E                    		MOVU.B 13H[R0], R6
0000027D 6216                    		ADD #01H, R6
0000027F 848E                    		MOV.B R6, 13H[R0]
00000281                         L87:	; bb161
                                 		.LINE  "C:\Workspace\e2studio\git\MT01_master\src\cnc\config.c",182
00000281 B48E                    		MOVU.B 13H[R0], R6
00000283 6136                    		CMP #03H, R6
00000285 EC06                    		MOV.L [R0], R6
00000287 29rr                    		BLT L82
00000289                         L88:	; bb167
                                 ;     189 	}
                                 ;     190 
                                 ;     191 	nv->index = nv_get_index("", "ja");
                                 		.LINE  "C:\Workspace\e2studio\git\MT01_master\src\cnc\config.c",191
00000289 FB22rrrrrrrr            		MOV.L #_L19, R2
0000028F FB12rrrrrrrr            		MOV.L #_L18, R1
00000295 39rrrr               W  		BSR _nv_get_index
00000298 9161                    		MOV.W R1, 08H[R6]
0000029A                         L89:	; bb167.split
                                 ;     192 	nv->value = configVarParMaq[CFG_PAR_MAQ_JUNCTION_ACEL];
                                 		.LINE  "C:\Workspace\e2studio\git\MT01_master\src\cnc\config.c",192
0000029A FBE2rrrrrrrr            		MOV.L #_configVarParMaq, R14
000002A0 EC01                    		MOV.L [R0], R1
000002A2 E5E10904                		MOV.L 24H[R14], 10H[R1]
000002A6                         L90:	; bb167.split18
                                 ;     193 	strncpy_P(nv->token, cfgArray[nv->index].token, TOKEN_LEN);
                                 		.LINE  "C:\Workspace\e2studio\git\MT01_master\src\cnc\config.c",193
000002A6 EC04                    		MOV.L [R0], R4
000002A8 B941                    		MOVU.W 08H[R4], R1
000002AA 6C51                    		SHLL #05H, R1
000002AC FB22rrrrrrrr            		MOV.L #_cfgArray, R2
000002B2 4B12                    		ADD R1, R2
000002B4 6242                    		ADD #04H, R2
000002B6 714118                  		ADD #18H, R4, R1
000002B9 6653                    		MOV.L #00000005H, R3
000002BB 7F87                    		SMOVU
000002BD 71441D                  		ADD #1DH, R4
000002C0 EF41                    		MOV.L R4, R1
000002C2 4331                    		SUB R3, R1
000002C4 6602                    		MOV.L #00000000H, R2
000002C6 7F88                    		SSTR.B
000002C8                         L91:	; bb167.split19
                                 ;     194 	nv_set(nv);
                                 		.LINE  "C:\Workspace\e2studio\git\MT01_master\src\cnc\config.c",194
000002C8 EC01                    		MOV.L [R0], R1
000002CA 39rrrr               W  		BSR _nv_set
000002CD                         L92:	; bb167.split20
                                 ;     195 	nv_persist(nv);
                                 		.LINE  "C:\Workspace\e2studio\git\MT01_master\src\cnc\config.c",195
000002CD EC01                    		MOV.L [R0], R1
000002CF 39rrrr               W  		BSR _nv_persist
000002D2                         L93:	; bb167.split21
                                 ;     196 
                                 ;     197 	nv->index = nv_get_index("2", "tr");
                                 		.LINE  "C:\Workspace\e2studio\git\MT01_master\src\cnc\config.c",197
000002D2 EC06                    		MOV.L [R0], R6
000002D4 FB22rrrrrrrr            		MOV.L #_L21, R2
000002DA FB12rrrrrrrr            		MOV.L #_L20, R1
000002E0 39rrrr               W  		BSR _nv_get_index
000002E3 9161                    		MOV.W R1, 08H[R6]
000002E5                         L94:	; bb167.split22
                                 ;     198 	nv->value = configVarParMaq[CFG_PAR_MAQ_EIXO_Y];
                                 		.LINE  "C:\Workspace\e2studio\git\MT01_master\src\cnc\config.c",198
000002E5 FBE2rrrrrrrr            		MOV.L #_configVarParMaq, R14
000002EB EC01                    		MOV.L [R0], R1
000002ED E5E10204                		MOV.L 08H[R14], 10H[R1]
000002F1                         L95:	; bb167.split23
                                 ;     199 	strncpy_P(nv->token, cfgArray[nv->index].token, TOKEN_LEN);
                                 		.LINE  "C:\Workspace\e2studio\git\MT01_master\src\cnc\config.c",199
000002F1 EC04                    		MOV.L [R0], R4
000002F3 B941                    		MOVU.W 08H[R4], R1
000002F5 6C51                    		SHLL #05H, R1
000002F7 FB22rrrrrrrr            		MOV.L #_cfgArray, R2
000002FD 4B12                    		ADD R1, R2
000002FF 6242                    		ADD #04H, R2
00000301 714118                  		ADD #18H, R4, R1
00000304 6653                    		MOV.L #00000005H, R3
00000306 7F87                    		SMOVU
00000308 71441D                  		ADD #1DH, R4
0000030B EF41                    		MOV.L R4, R1
0000030D 4331                    		SUB R3, R1
0000030F 6602                    		MOV.L #00000000H, R2
00000311 7F88                    		SSTR.B
00000313                         L96:	; bb167.split24
                                 ;     200 	nv_set(nv);
                                 		.LINE  "C:\Workspace\e2studio\git\MT01_master\src\cnc\config.c",200
00000313 EC01                    		MOV.L [R0], R1
00000315 39rrrr               W  		BSR _nv_set
00000318                         L97:	; bb167.split25
                                 ;     201 	nv_persist(nv);
                                 		.LINE  "C:\Workspace\e2studio\git\MT01_master\src\cnc\config.c",201
00000318 EC01                    		MOV.L [R0], R1
0000031A 39rrrr               W  		BSR _nv_persist
0000031D                         L98:	; bb167.split26
                                 ;     202 
                                 ;     203 	nv->index = nv_get_index("3", "tr");
                                 		.LINE  "C:\Workspace\e2studio\git\MT01_master\src\cnc\config.c",203
0000031D EC06                    		MOV.L [R0], R6
0000031F FB22rrrrrrrr            		MOV.L #_L21, R2
00000325 FB12rrrrrrrr            		MOV.L #_L22, R1
0000032B 39rrrr               W  		BSR _nv_get_index
0000032E 9161                    		MOV.W R1, 08H[R6]
00000330                         L99:	; bb167.split27
                                 ;     204 	nv->value = configVarParMaq[CFG_PAR_MAQ_EIXO_X1];
                                 		.LINE  "C:\Workspace\e2studio\git\MT01_master\src\cnc\config.c",204
00000330 FBE2rrrrrrrr            		MOV.L #_configVarParMaq, R14
00000336 EC01                    		MOV.L [R0], R1
00000338 E4E104                  		MOV.L [R14], 10H[R1]
0000033B                         L100:	; bb167.split28
                                 ;     205 	strncpy_P(nv->token, cfgArray[nv->index].token, TOKEN_LEN);
                                 		.LINE  "C:\Workspace\e2studio\git\MT01_master\src\cnc\config.c",205
0000033B EC04                    		MOV.L [R0], R4
0000033D B941                    		MOVU.W 08H[R4], R1
0000033F 6C51                    		SHLL #05H, R1
00000341 FB22rrrrrrrr            		MOV.L #_cfgArray, R2
00000347 4B12                    		ADD R1, R2
00000349 6242                    		ADD #04H, R2
0000034B 714118                  		ADD #18H, R4, R1
0000034E 6653                    		MOV.L #00000005H, R3
00000350 7F87                    		SMOVU
00000352 71441D                  		ADD #1DH, R4
00000355 EF41                    		MOV.L R4, R1
00000357 4331                    		SUB R3, R1
00000359 6602                    		MOV.L #00000000H, R2
0000035B 7F88                    		SSTR.B
0000035D                         L101:	; bb167.split29
                                 ;     206 	nv_set(nv);
                                 		.LINE  "C:\Workspace\e2studio\git\MT01_master\src\cnc\config.c",206
0000035D EC01                    		MOV.L [R0], R1
0000035F 39rrrr               W  		BSR _nv_set
00000362                         L102:	; bb167.split30
                                 ;     207 	nv_persist(nv);
                                 		.LINE  "C:\Workspace\e2studio\git\MT01_master\src\cnc\config.c",207
00000362 EC01                    		MOV.L [R0], R1
00000364 39rrrr               W  		BSR _nv_persist
00000367                         L103:	; bb167.split31
                                 ;     208 
                                 ;     209 	nv->index = nv_get_index("4", "tr");
                                 		.LINE  "C:\Workspace\e2studio\git\MT01_master\src\cnc\config.c",209
00000367 EC06                    		MOV.L [R0], R6
00000369 FB22rrrrrrrr            		MOV.L #_L21, R2
0000036F FB12rrrrrrrr            		MOV.L #_L23, R1
00000375 39rrrr               W  		BSR _nv_get_index
00000378 9161                    		MOV.W R1, 08H[R6]
0000037A                         L104:	; bb167.split32
                                 ;     210 	nv->value = configVarParMaq[CFG_PAR_MAQ_EIXO_X2];
                                 		.LINE  "C:\Workspace\e2studio\git\MT01_master\src\cnc\config.c",210
0000037A FBE2rrrrrrrr            		MOV.L #_configVarParMaq, R14
00000380 EC01                    		MOV.L [R0], R1
00000382 E5E10104                		MOV.L 04H[R14], 10H[R1]
00000386                         L105:	; bb167.split33
                                 ;     211 	strncpy_P(nv->token, cfgArray[nv->index].token, TOKEN_LEN);
                                 		.LINE  "C:\Workspace\e2studio\git\MT01_master\src\cnc\config.c",211
00000386 EC04                    		MOV.L [R0], R4
00000388 B941                    		MOVU.W 08H[R4], R1
0000038A 6C51                    		SHLL #05H, R1
0000038C FB22rrrrrrrr            		MOV.L #_cfgArray, R2
00000392 4B12                    		ADD R1, R2
00000394 6242                    		ADD #04H, R2
00000396 714118                  		ADD #18H, R4, R1
00000399 6653                    		MOV.L #00000005H, R3
0000039B 7F87                    		SMOVU
0000039D 71441D                  		ADD #1DH, R4
000003A0 EF41                    		MOV.L R4, R1
000003A2 4331                    		SUB R3, R1
000003A4 6602                    		MOV.L #00000000H, R2
000003A6 7F88                    		SSTR.B
000003A8                         L106:	; bb167.split34
                                 ;     212 	nv_set(nv);
                                 		.LINE  "C:\Workspace\e2studio\git\MT01_master\src\cnc\config.c",212
000003A8 EC01                    		MOV.L [R0], R1
000003AA 39rrrr               W  		BSR _nv_set
000003AD                         L107:	; bb167.split35
                                 ;     213 	nv_persist(nv);
                                 		.LINE  "C:\Workspace\e2studio\git\MT01_master\src\cnc\config.c",213
000003AD EC01                    		MOV.L [R0], R1
000003AF 39rrrr               W  		BSR _nv_persist
000003B2 3F6606                  		RTSD #18H, R6-R6
000003B5                         __$_config_maq:
                                 		.STACK	__$_config_maq=20
                                 ;     214 
                                 ;     215 #endif
                                 ;     216 }
                                 ;     217 
                                 ;     218 static void _config_maq(maq_st lmaq, nvObj_t *nv)
                                 		.LINE  "C:\Workspace\e2studio\git\MT01_master\src\cnc\config.c",218
000003B5 7EA6                    		PUSH.L R6
000003B7 60C0                    		SUB #0CH, R0
000003B9 A009                    		MOV.L R1, 04H[R0]
000003BB A082                    		MOV.L R2, 08H[R0]
000003BD E303                    		MOV.L R3, [R0]
                                 ;     219 {
                                 ;     220 	switch (lmaq.model)
                                 		.LINE  "C:\Workspace\e2studio\git\MT01_master\src\cnc\config.c",220
000003BF A809                    		MOV.L 04H[R0], R1
000003C1 6111                    		CMP #01H, R1
000003C3 3Arrrr               W  		BEQ L176
000003C6                         L109:	; entry
000003C6 6121                    		CMP #02H, R1
000003C8 3Arrrr               W  		BEQ L241
000003CB                         L110:	; entry
000003CB 6131                    		CMP #03H, R1
000003CD 3Brrrr               W  		BNE L308
000003D0                         L111:	; bb
                                 ;     221 	{
                                 ;     222 		case EASYMAK_MAQ:
                                 ;     223 			/*****************************************************************************************************/
                                 ;     224 				nv->index = nv_get_index("1", "ma");
                                 		.LINE  "C:\Workspace\e2studio\git\MT01_master\src\cnc\config.c",224
000003D0 EC06                    		MOV.L [R0], R6
000003D2 FB22rrrrrrrr            		MOV.L #_L25, R2
000003D8 FB12rrrrrrrr            		MOV.L #_L24, R1
000003DE 39rrrr               W  		BSR _nv_get_index
000003E1 9161                    		MOV.W R1, 08H[R6]
000003E3                         L112:	; bb.split
                                 ;     225 				nv->value = M1_MOTOR_MAP_EM;
                                 		.LINE  "C:\Workspace\e2studio\git\MT01_master\src\cnc\config.c",225
000003E3 EC01                    		MOV.L [R0], R1
000003E5 F9120400000040          		MOV.L #40000000H, 10H[R1]
000003EC                         L113:	; bb.split1
                                 ;     226 				strncpy_P(nv->token, cfgArray[nv->index].token, TOKEN_LEN);
                                 		.LINE  "C:\Workspace\e2studio\git\MT01_master\src\cnc\config.c",226
000003EC EC04                    		MOV.L [R0], R4
000003EE B941                    		MOVU.W 08H[R4], R1
000003F0 6C51                    		SHLL #05H, R1
000003F2 FB22rrrrrrrr            		MOV.L #_cfgArray, R2
000003F8 4B12                    		ADD R1, R2
000003FA 6242                    		ADD #04H, R2
000003FC 714118                  		ADD #18H, R4, R1
000003FF 6653                    		MOV.L #00000005H, R3
00000401 7F87                    		SMOVU
00000403 71441D                  		ADD #1DH, R4
00000406 EF41                    		MOV.L R4, R1
00000408 4331                    		SUB R3, R1
0000040A 6602                    		MOV.L #00000000H, R2
0000040C 7F88                    		SSTR.B
0000040E                         L114:	; bb.split2
                                 ;     227 				nv_set(nv);
                                 		.LINE  "C:\Workspace\e2studio\git\MT01_master\src\cnc\config.c",227
0000040E EC01                    		MOV.L [R0], R1
00000410 39rrrr               W  		BSR _nv_set
00000413                         L115:	; bb.split3
                                 ;     228 				nv_persist(nv);
                                 		.LINE  "C:\Workspace\e2studio\git\MT01_master\src\cnc\config.c",228
00000413 EC01                    		MOV.L [R0], R1
00000415 39rrrr               W  		BSR _nv_persist
00000418                         L116:	; bb.split4
                                 ;     229 
                                 ;     230 				nv->index = nv_get_index("2", "ma");
                                 		.LINE  "C:\Workspace\e2studio\git\MT01_master\src\cnc\config.c",230
00000418 EC06                    		MOV.L [R0], R6
0000041A FB22rrrrrrrr            		MOV.L #_L25, R2
00000420 FB12rrrrrrrr            		MOV.L #_L20, R1
00000426 39rrrr               W  		BSR _nv_get_index
00000429 9161                    		MOV.W R1, 08H[R6]
0000042B                         L117:	; bb.split5
                                 ;     231 				nv->value = M2_MOTOR_MAP_EM;
                                 		.LINE  "C:\Workspace\e2studio\git\MT01_master\src\cnc\config.c",231
0000042B EC01                    		MOV.L [R0], R1
0000042D F912040000803F          		MOV.L #3F800000H, 10H[R1]
00000434                         L118:	; bb.split6
                                 ;     232 				strncpy_P(nv->token, cfgArray[nv->index].token, TOKEN_LEN);
                                 		.LINE  "C:\Workspace\e2studio\git\MT01_master\src\cnc\config.c",232
00000434 EC04                    		MOV.L [R0], R4
00000436 B941                    		MOVU.W 08H[R4], R1
00000438 6C51                    		SHLL #05H, R1
0000043A FB22rrrrrrrr            		MOV.L #_cfgArray, R2
00000440 4B12                    		ADD R1, R2
00000442 6242                    		ADD #04H, R2
00000444 714118                  		ADD #18H, R4, R1
00000447 6653                    		MOV.L #00000005H, R3
00000449 7F87                    		SMOVU
0000044B 71441D                  		ADD #1DH, R4
0000044E EF41                    		MOV.L R4, R1
00000450 4331                    		SUB R3, R1
00000452 6602                    		MOV.L #00000000H, R2
00000454 7F88                    		SSTR.B
00000456                         L119:	; bb.split7
                                 ;     233 				nv_set(nv);
                                 		.LINE  "C:\Workspace\e2studio\git\MT01_master\src\cnc\config.c",233
00000456 EC01                    		MOV.L [R0], R1
00000458 39rrrr               W  		BSR _nv_set
0000045B                         L120:	; bb.split8
                                 ;     234 				nv_persist(nv);
                                 		.LINE  "C:\Workspace\e2studio\git\MT01_master\src\cnc\config.c",234
0000045B EC01                    		MOV.L [R0], R1
0000045D 39rrrr               W  		BSR _nv_persist
00000460                         L121:	; bb.split9
                                 ;     235 
                                 ;     236 				nv->index = nv_get_index("3", "ma");
                                 		.LINE  "C:\Workspace\e2studio\git\MT01_master\src\cnc\config.c",236
00000460 EC06                    		MOV.L [R0], R6
00000462 FB22rrrrrrrr            		MOV.L #_L25, R2
00000468 FB12rrrrrrrr            		MOV.L #_L22, R1
0000046E 39rrrr               W  		BSR _nv_get_index
00000471 9161                    		MOV.W R1, 08H[R6]
00000473                         L122:	; bb.split10
                                 ;     237 				nv->value = M3_MOTOR_MAP_EM;
                                 		.LINE  "C:\Workspace\e2studio\git\MT01_master\src\cnc\config.c",237
00000473 EC01                    		MOV.L [R0], R1
00000475 3E1400                  		MOV.L #00000000H, 10H[R1]
00000478                         L123:	; bb.split11
                                 ;     238 				strncpy_P(nv->token, cfgArray[nv->index].token, TOKEN_LEN);
                                 		.LINE  "C:\Workspace\e2studio\git\MT01_master\src\cnc\config.c",238
00000478 EC04                    		MOV.L [R0], R4
0000047A B941                    		MOVU.W 08H[R4], R1
0000047C 6C51                    		SHLL #05H, R1
0000047E FB22rrrrrrrr            		MOV.L #_cfgArray, R2
00000484 4B12                    		ADD R1, R2
00000486 6242                    		ADD #04H, R2
00000488 714118                  		ADD #18H, R4, R1
0000048B 6653                    		MOV.L #00000005H, R3
0000048D 7F87                    		SMOVU
0000048F 71441D                  		ADD #1DH, R4
00000492 EF41                    		MOV.L R4, R1
00000494 4331                    		SUB R3, R1
00000496 6602                    		MOV.L #00000000H, R2
00000498 7F88                    		SSTR.B
0000049A                         L124:	; bb.split12
                                 ;     239 				nv_set(nv);
                                 		.LINE  "C:\Workspace\e2studio\git\MT01_master\src\cnc\config.c",239
0000049A EC01                    		MOV.L [R0], R1
0000049C 39rrrr               W  		BSR _nv_set
0000049F                         L125:	; bb.split13
                                 ;     240 				nv_persist(nv);
                                 		.LINE  "C:\Workspace\e2studio\git\MT01_master\src\cnc\config.c",240
0000049F EC01                    		MOV.L [R0], R1
000004A1 39rrrr               W  		BSR _nv_persist
000004A4                         L126:	; bb.split14
                                 ;     241 
                                 ;     242 				nv->index = nv_get_index("4", "ma");
                                 		.LINE  "C:\Workspace\e2studio\git\MT01_master\src\cnc\config.c",242
000004A4 EC06                    		MOV.L [R0], R6
000004A6 FB22rrrrrrrr            		MOV.L #_L25, R2
000004AC FB12rrrrrrrr            		MOV.L #_L23, R1
000004B2 39rrrr               W  		BSR _nv_get_index
000004B5 9161                    		MOV.W R1, 08H[R6]
000004B7                         L127:	; bb.split15
                                 ;     243 				nv->value = M4_MOTOR_MAP_EM;
                                 		.LINE  "C:\Workspace\e2studio\git\MT01_master\src\cnc\config.c",243
000004B7 EC01                    		MOV.L [R0], R1
000004B9 3E1400                  		MOV.L #00000000H, 10H[R1]
000004BC                         L128:	; bb.split16
                                 ;     244 				strncpy_P(nv->token, cfgArray[nv->index].token, TOKEN_LEN);
                                 		.LINE  "C:\Workspace\e2studio\git\MT01_master\src\cnc\config.c",244
000004BC EC04                    		MOV.L [R0], R4
000004BE B941                    		MOVU.W 08H[R4], R1
000004C0 6C51                    		SHLL #05H, R1
000004C2 FB22rrrrrrrr            		MOV.L #_cfgArray, R2
000004C8 4B12                    		ADD R1, R2
000004CA 6242                    		ADD #04H, R2
000004CC 714118                  		ADD #18H, R4, R1
000004CF 6653                    		MOV.L #00000005H, R3
000004D1 7F87                    		SMOVU
000004D3 71441D                  		ADD #1DH, R4
000004D6 EF41                    		MOV.L R4, R1
000004D8 4331                    		SUB R3, R1
000004DA 6602                    		MOV.L #00000000H, R2
000004DC 7F88                    		SSTR.B
000004DE                         L129:	; bb.split17
                                 ;     245 				nv_set(nv);
                                 		.LINE  "C:\Workspace\e2studio\git\MT01_master\src\cnc\config.c",245
000004DE EC01                    		MOV.L [R0], R1
000004E0 39rrrr               W  		BSR _nv_set
000004E3                         L130:	; bb.split18
                                 ;     246 				nv_persist(nv);
                                 		.LINE  "C:\Workspace\e2studio\git\MT01_master\src\cnc\config.c",246
000004E3 EC01                    		MOV.L [R0], R1
000004E5 39rrrr               W  		BSR _nv_persist
000004E8                         L131:	; bb.split19
                                 ;     247 
                                 ;     248 			/*****************************************************************************************************/
                                 ;     249 				nv->index = nv_get_index("1", "tr");
                                 		.LINE  "C:\Workspace\e2studio\git\MT01_master\src\cnc\config.c",249
000004E8 EC06                    		MOV.L [R0], R6
000004EA FB22rrrrrrrr            		MOV.L #_L21, R2
000004F0 FB12rrrrrrrr            		MOV.L #_L24, R1
000004F6 39rrrr               W  		BSR _nv_get_index
000004F9 9161                    		MOV.W R1, 08H[R6]
000004FB                         L132:	; bb.split20
                                 ;     250 				nv->value = M1_TRAVEL_PER_REV_EM;
                                 		.LINE  "C:\Workspace\e2studio\git\MT01_master\src\cnc\config.c",250
000004FB EC01                    		MOV.L [R0], R1
000004FD F9120400004040          		MOV.L #40400000H, 10H[R1]
00000504                         L133:	; bb.split21
                                 ;     251 				strncpy_P(nv->token, cfgArray[nv->index].token, TOKEN_LEN);
                                 		.LINE  "C:\Workspace\e2studio\git\MT01_master\src\cnc\config.c",251
00000504 EC04                    		MOV.L [R0], R4
00000506 B941                    		MOVU.W 08H[R4], R1
00000508 6C51                    		SHLL #05H, R1
0000050A FB22rrrrrrrr            		MOV.L #_cfgArray, R2
00000510 4B12                    		ADD R1, R2
00000512 6242                    		ADD #04H, R2
00000514 714118                  		ADD #18H, R4, R1
00000517 6653                    		MOV.L #00000005H, R3
00000519 7F87                    		SMOVU
0000051B 71441D                  		ADD #1DH, R4
0000051E EF41                    		MOV.L R4, R1
00000520 4331                    		SUB R3, R1
00000522 6602                    		MOV.L #00000000H, R2
00000524 7F88                    		SSTR.B
00000526                         L134:	; bb.split22
                                 ;     252 				nv_set(nv);
                                 		.LINE  "C:\Workspace\e2studio\git\MT01_master\src\cnc\config.c",252
00000526 EC01                    		MOV.L [R0], R1
00000528 39rrrr               W  		BSR _nv_set
0000052B                         L135:	; bb.split23
                                 ;     253 				nv_persist(nv);
                                 		.LINE  "C:\Workspace\e2studio\git\MT01_master\src\cnc\config.c",253
0000052B EC01                    		MOV.L [R0], R1
0000052D 39rrrr               W  		BSR _nv_persist
00000530                         L136:	; bb.split24
                                 ;     254 
                                 ;     255 			/*****************************************************************************************************/
                                 ;     256 				nv->index = nv_get_index("1", "mi");
                                 		.LINE  "C:\Workspace\e2studio\git\MT01_master\src\cnc\config.c",256
00000530 EC06                    		MOV.L [R0], R6
00000532 FB22rrrrrrrr            		MOV.L #_L26, R2
00000538 FB12rrrrrrrr            		MOV.L #_L24, R1
0000053E 39rrrr               W  		BSR _nv_get_index
00000541 9161                    		MOV.W R1, 08H[R6]
00000543                         L137:	; bb.split25
                                 ;     257 				nv->value = M1_MICROSTEPS_EM;
                                 		.LINE  "C:\Workspace\e2studio\git\MT01_master\src\cnc\config.c",257
00000543 EC01                    		MOV.L [R0], R1
00000545 F9120400008042          		MOV.L #42800000H, 10H[R1]
0000054C                         L138:	; bb.split26
                                 ;     258 				strncpy_P(nv->token, cfgArray[nv->index].token, TOKEN_LEN);
                                 		.LINE  "C:\Workspace\e2studio\git\MT01_master\src\cnc\config.c",258
0000054C EC04                    		MOV.L [R0], R4
0000054E B941                    		MOVU.W 08H[R4], R1
00000550 6C51                    		SHLL #05H, R1
00000552 FB22rrrrrrrr            		MOV.L #_cfgArray, R2
00000558 4B12                    		ADD R1, R2
0000055A 6242                    		ADD #04H, R2
0000055C 714118                  		ADD #18H, R4, R1
0000055F 6653                    		MOV.L #00000005H, R3
00000561 7F87                    		SMOVU
00000563 71441D                  		ADD #1DH, R4
00000566 EF41                    		MOV.L R4, R1
00000568 4331                    		SUB R3, R1
0000056A 6602                    		MOV.L #00000000H, R2
0000056C 7F88                    		SSTR.B
0000056E                         L139:	; bb.split27
                                 ;     259 				nv_set(nv);
                                 		.LINE  "C:\Workspace\e2studio\git\MT01_master\src\cnc\config.c",259
0000056E EC01                    		MOV.L [R0], R1
00000570 39rrrr               W  		BSR _nv_set
00000573                         L140:	; bb.split28
                                 ;     260 				nv_persist(nv);
                                 		.LINE  "C:\Workspace\e2studio\git\MT01_master\src\cnc\config.c",260
00000573 EC01                    		MOV.L [R0], R1
00000575 39rrrr               W  		BSR _nv_persist
00000578                         L141:	; bb.split29
                                 ;     261 
                                 ;     262 				nv->index = nv_get_index("2", "mi");
                                 		.LINE  "C:\Workspace\e2studio\git\MT01_master\src\cnc\config.c",262
00000578 EC06                    		MOV.L [R0], R6
0000057A FB22rrrrrrrr            		MOV.L #_L26, R2
00000580 FB12rrrrrrrr            		MOV.L #_L20, R1
00000586 39rrrr               W  		BSR _nv_get_index
00000589 9161                    		MOV.W R1, 08H[R6]
0000058B                         L142:	; bb.split30
                                 ;     263 				nv->value = M2_MICROSTEPS_EM;
                                 		.LINE  "C:\Workspace\e2studio\git\MT01_master\src\cnc\config.c",263
0000058B EC01                    		MOV.L [R0], R1
0000058D F9120400008042          		MOV.L #42800000H, 10H[R1]
00000594                         L143:	; bb.split31
                                 ;     264 				strncpy_P(nv->token, cfgArray[nv->index].token, TOKEN_LEN);
                                 		.LINE  "C:\Workspace\e2studio\git\MT01_master\src\cnc\config.c",264
00000594 EC04                    		MOV.L [R0], R4
00000596 B941                    		MOVU.W 08H[R4], R1
00000598 6C51                    		SHLL #05H, R1
0000059A FB22rrrrrrrr            		MOV.L #_cfgArray, R2
000005A0 4B12                    		ADD R1, R2
000005A2 6242                    		ADD #04H, R2
000005A4 714118                  		ADD #18H, R4, R1
000005A7 6653                    		MOV.L #00000005H, R3
000005A9 7F87                    		SMOVU
000005AB 71441D                  		ADD #1DH, R4
000005AE EF41                    		MOV.L R4, R1
000005B0 4331                    		SUB R3, R1
000005B2 6602                    		MOV.L #00000000H, R2
000005B4 7F88                    		SSTR.B
000005B6                         L144:	; bb.split32
                                 ;     265 				nv_set(nv);
                                 		.LINE  "C:\Workspace\e2studio\git\MT01_master\src\cnc\config.c",265
000005B6 EC01                    		MOV.L [R0], R1
000005B8 39rrrr               W  		BSR _nv_set
000005BB                         L145:	; bb.split33
                                 ;     266 				nv_persist(nv);
                                 		.LINE  "C:\Workspace\e2studio\git\MT01_master\src\cnc\config.c",266
000005BB EC01                    		MOV.L [R0], R1
000005BD 39rrrr               W  		BSR _nv_persist
000005C0                         L146:	; bb.split34
                                 ;     267 
                                 ;     268 				nv->index = nv_get_index("3", "mi");
                                 		.LINE  "C:\Workspace\e2studio\git\MT01_master\src\cnc\config.c",268
000005C0 EC06                    		MOV.L [R0], R6
000005C2 FB22rrrrrrrr            		MOV.L #_L26, R2
000005C8 FB12rrrrrrrr            		MOV.L #_L22, R1
000005CE 39rrrr               W  		BSR _nv_get_index
000005D1 9161                    		MOV.W R1, 08H[R6]
000005D3                         L147:	; bb.split35
                                 ;     269 				nv->value = M3_MICROSTEPS_EM;
                                 		.LINE  "C:\Workspace\e2studio\git\MT01_master\src\cnc\config.c",269
000005D3 EC01                    		MOV.L [R0], R1
000005D5 F9120400008042          		MOV.L #42800000H, 10H[R1]
000005DC                         L148:	; bb.split36
                                 ;     270 				strncpy_P(nv->token, cfgArray[nv->index].token, TOKEN_LEN);
                                 		.LINE  "C:\Workspace\e2studio\git\MT01_master\src\cnc\config.c",270
000005DC EC04                    		MOV.L [R0], R4
000005DE B941                    		MOVU.W 08H[R4], R1
000005E0 6C51                    		SHLL #05H, R1
000005E2 FB22rrrrrrrr            		MOV.L #_cfgArray, R2
000005E8 4B12                    		ADD R1, R2
000005EA 6242                    		ADD #04H, R2
000005EC 714118                  		ADD #18H, R4, R1
000005EF 6653                    		MOV.L #00000005H, R3
000005F1 7F87                    		SMOVU
000005F3 71441D                  		ADD #1DH, R4
000005F6 EF41                    		MOV.L R4, R1
000005F8 4331                    		SUB R3, R1
000005FA 6602                    		MOV.L #00000000H, R2
000005FC 7F88                    		SSTR.B
000005FE                         L149:	; bb.split37
                                 ;     271 				nv_set(nv);
                                 		.LINE  "C:\Workspace\e2studio\git\MT01_master\src\cnc\config.c",271
000005FE EC01                    		MOV.L [R0], R1
00000600 39rrrr               W  		BSR _nv_set
00000603                         L150:	; bb.split38
                                 ;     272 				nv_persist(nv);
                                 		.LINE  "C:\Workspace\e2studio\git\MT01_master\src\cnc\config.c",272
00000603 EC01                    		MOV.L [R0], R1
00000605 39rrrr               W  		BSR _nv_persist
00000608                         L151:	; bb.split39
                                 ;     273 
                                 ;     274 				nv->index = nv_get_index("4", "mi");
                                 		.LINE  "C:\Workspace\e2studio\git\MT01_master\src\cnc\config.c",274
00000608 EC06                    		MOV.L [R0], R6
0000060A FB22rrrrrrrr            		MOV.L #_L26, R2
00000610 FB12rrrrrrrr            		MOV.L #_L23, R1
00000616 39rrrr               W  		BSR _nv_get_index
00000619 9161                    		MOV.W R1, 08H[R6]
0000061B                         L152:	; bb.split40
                                 ;     275 				nv->value = M4_MICROSTEPS_EM;
                                 		.LINE  "C:\Workspace\e2studio\git\MT01_master\src\cnc\config.c",275
0000061B EC01                    		MOV.L [R0], R1
0000061D F9120400008042          		MOV.L #42800000H, 10H[R1]
00000624                         L153:	; bb.split41
                                 ;     276 				strncpy_P(nv->token, cfgArray[nv->index].token, TOKEN_LEN);
                                 		.LINE  "C:\Workspace\e2studio\git\MT01_master\src\cnc\config.c",276
00000624 EC04                    		MOV.L [R0], R4
00000626 B941                    		MOVU.W 08H[R4], R1
00000628 6C51                    		SHLL #05H, R1
0000062A FB22rrrrrrrr            		MOV.L #_cfgArray, R2
00000630 4B12                    		ADD R1, R2
00000632 6242                    		ADD #04H, R2
00000634 714118                  		ADD #18H, R4, R1
00000637 6653                    		MOV.L #00000005H, R3
00000639 7F87                    		SMOVU
0000063B 71441D                  		ADD #1DH, R4
0000063E EF41                    		MOV.L R4, R1
00000640 4331                    		SUB R3, R1
00000642 6602                    		MOV.L #00000000H, R2
00000644 7F88                    		SSTR.B
00000646                         L154:	; bb.split42
                                 ;     277 				nv_set(nv);
                                 		.LINE  "C:\Workspace\e2studio\git\MT01_master\src\cnc\config.c",277
00000646 EC01                    		MOV.L [R0], R1
00000648 39rrrr               W  		BSR _nv_set
0000064B                         L155:	; bb.split43
                                 ;     278 				nv_persist(nv);
                                 		.LINE  "C:\Workspace\e2studio\git\MT01_master\src\cnc\config.c",278
0000064B EC01                    		MOV.L [R0], R1
0000064D 39rrrr               W  		BSR _nv_persist
00000650                         L156:	; bb.split44
                                 ;     279 				/*****************************************************************************************************/
                                 ;     280 				nv->index = nv_get_index("1", "po");
                                 		.LINE  "C:\Workspace\e2studio\git\MT01_master\src\cnc\config.c",280
00000650 EC06                    		MOV.L [R0], R6
00000652 FB22rrrrrrrr            		MOV.L #_L27, R2
00000658 FB12rrrrrrrr            		MOV.L #_L24, R1
0000065E 39rrrr               W  		BSR _nv_get_index
00000661 9161                    		MOV.W R1, 08H[R6]
00000663                         L157:	; bb.split45
                                 ;     281 				nv->value = M1_POLARITY_EM;
                                 		.LINE  "C:\Workspace\e2studio\git\MT01_master\src\cnc\config.c",281
00000663 EC01                    		MOV.L [R0], R1
00000665 3E1400                  		MOV.L #00000000H, 10H[R1]
00000668                         L158:	; bb.split46
                                 ;     282 				strncpy_P(nv->token, cfgArray[nv->index].token, TOKEN_LEN);
                                 		.LINE  "C:\Workspace\e2studio\git\MT01_master\src\cnc\config.c",282
00000668 EC04                    		MOV.L [R0], R4
0000066A B941                    		MOVU.W 08H[R4], R1
0000066C 6C51                    		SHLL #05H, R1
0000066E FB22rrrrrrrr            		MOV.L #_cfgArray, R2
00000674 4B12                    		ADD R1, R2
00000676 6242                    		ADD #04H, R2
00000678 714118                  		ADD #18H, R4, R1
0000067B 6653                    		MOV.L #00000005H, R3
0000067D 7F87                    		SMOVU
0000067F 71441D                  		ADD #1DH, R4
00000682 EF41                    		MOV.L R4, R1
00000684 4331                    		SUB R3, R1
00000686 6602                    		MOV.L #00000000H, R2
00000688 7F88                    		SSTR.B
0000068A                         L159:	; bb.split47
                                 ;     283 				nv_set(nv);
                                 		.LINE  "C:\Workspace\e2studio\git\MT01_master\src\cnc\config.c",283
0000068A EC01                    		MOV.L [R0], R1
0000068C 39rrrr               W  		BSR _nv_set
0000068F                         L160:	; bb.split48
                                 ;     284 				nv_persist(nv);
                                 		.LINE  "C:\Workspace\e2studio\git\MT01_master\src\cnc\config.c",284
0000068F EC01                    		MOV.L [R0], R1
00000691 39rrrr               W  		BSR _nv_persist
00000694                         L161:	; bb.split49
                                 ;     285 
                                 ;     286 				nv->index = nv_get_index("2", "po");
                                 		.LINE  "C:\Workspace\e2studio\git\MT01_master\src\cnc\config.c",286
00000694 EC06                    		MOV.L [R0], R6
00000696 FB22rrrrrrrr            		MOV.L #_L27, R2
0000069C FB12rrrrrrrr            		MOV.L #_L20, R1
000006A2 39rrrr               W  		BSR _nv_get_index
000006A5 9161                    		MOV.W R1, 08H[R6]
000006A7                         L162:	; bb.split50
                                 ;     287 				nv->value = M2_POLARITY_EM;
                                 		.LINE  "C:\Workspace\e2studio\git\MT01_master\src\cnc\config.c",287
000006A7 EC01                    		MOV.L [R0], R1
000006A9 3E1400                  		MOV.L #00000000H, 10H[R1]
000006AC                         L163:	; bb.split51
                                 ;     288 				strncpy_P(nv->token, cfgArray[nv->index].token, TOKEN_LEN);
                                 		.LINE  "C:\Workspace\e2studio\git\MT01_master\src\cnc\config.c",288
000006AC EC04                    		MOV.L [R0], R4
000006AE B941                    		MOVU.W 08H[R4], R1
000006B0 6C51                    		SHLL #05H, R1
000006B2 FB22rrrrrrrr            		MOV.L #_cfgArray, R2
000006B8 4B12                    		ADD R1, R2
000006BA 6242                    		ADD #04H, R2
000006BC 714118                  		ADD #18H, R4, R1
000006BF 6653                    		MOV.L #00000005H, R3
000006C1 7F87                    		SMOVU
000006C3 71441D                  		ADD #1DH, R4
000006C6 EF41                    		MOV.L R4, R1
000006C8 4331                    		SUB R3, R1
000006CA 6602                    		MOV.L #00000000H, R2
000006CC 7F88                    		SSTR.B
000006CE                         L164:	; bb.split52
                                 ;     289 				nv_set(nv);
                                 		.LINE  "C:\Workspace\e2studio\git\MT01_master\src\cnc\config.c",289
000006CE EC01                    		MOV.L [R0], R1
000006D0 39rrrr               W  		BSR _nv_set
000006D3                         L165:	; bb.split53
                                 ;     290 				nv_persist(nv);
                                 		.LINE  "C:\Workspace\e2studio\git\MT01_master\src\cnc\config.c",290
000006D3 EC01                    		MOV.L [R0], R1
000006D5 39rrrr               W  		BSR _nv_persist
000006D8                         L166:	; bb.split54
                                 ;     291 
                                 ;     292 				nv->index = nv_get_index("3", "po");
                                 		.LINE  "C:\Workspace\e2studio\git\MT01_master\src\cnc\config.c",292
000006D8 EC06                    		MOV.L [R0], R6
000006DA FB22rrrrrrrr            		MOV.L #_L27, R2
000006E0 FB12rrrrrrrr            		MOV.L #_L22, R1
000006E6 39rrrr               W  		BSR _nv_get_index
000006E9 9161                    		MOV.W R1, 08H[R6]
000006EB                         L167:	; bb.split55
                                 ;     293 				nv->value = M3_POLARITY_EM;
                                 		.LINE  "C:\Workspace\e2studio\git\MT01_master\src\cnc\config.c",293
000006EB EC01                    		MOV.L [R0], R1
000006ED F912040000803F          		MOV.L #3F800000H, 10H[R1]
000006F4                         L168:	; bb.split56
                                 ;     294 				strncpy_P(nv->token, cfgArray[nv->index].token, TOKEN_LEN);
                                 		.LINE  "C:\Workspace\e2studio\git\MT01_master\src\cnc\config.c",294
000006F4 EC04                    		MOV.L [R0], R4
000006F6 B941                    		MOVU.W 08H[R4], R1
000006F8 6C51                    		SHLL #05H, R1
000006FA FB22rrrrrrrr            		MOV.L #_cfgArray, R2
00000700 4B12                    		ADD R1, R2
00000702 6242                    		ADD #04H, R2
00000704 714118                  		ADD #18H, R4, R1
00000707 6653                    		MOV.L #00000005H, R3
00000709 7F87                    		SMOVU
0000070B 71441D                  		ADD #1DH, R4
0000070E EF41                    		MOV.L R4, R1
00000710 4331                    		SUB R3, R1
00000712 6602                    		MOV.L #00000000H, R2
00000714 7F88                    		SSTR.B
00000716                         L169:	; bb.split57
                                 ;     295 				nv_set(nv);
                                 		.LINE  "C:\Workspace\e2studio\git\MT01_master\src\cnc\config.c",295
00000716 EC01                    		MOV.L [R0], R1
00000718 39rrrr               W  		BSR _nv_set
0000071B                         L170:	; bb.split58
                                 ;     296 				nv_persist(nv);
                                 		.LINE  "C:\Workspace\e2studio\git\MT01_master\src\cnc\config.c",296
0000071B EC01                    		MOV.L [R0], R1
0000071D 39rrrr               W  		BSR _nv_persist
00000720                         L171:	; bb.split59
                                 ;     297 
                                 ;     298 				nv->index = nv_get_index("4", "po");
                                 		.LINE  "C:\Workspace\e2studio\git\MT01_master\src\cnc\config.c",298
00000720 EC06                    		MOV.L [R0], R6
00000722 FB22rrrrrrrr            		MOV.L #_L27, R2
00000728 FB12rrrrrrrr            		MOV.L #_L23, R1
0000072E 39rrrr               W  		BSR _nv_get_index
00000731 9161                    		MOV.W R1, 08H[R6]
00000733                         L172:	; bb.split60
                                 ;     299 				nv->value = M4_POLARITY_EM;
                                 		.LINE  "C:\Workspace\e2studio\git\MT01_master\src\cnc\config.c",299
00000733 EC01                    		MOV.L [R0], R1
00000735 3E1400                  		MOV.L #00000000H, 10H[R1]
00000738                         L173:	; bb.split61
                                 ;     300 				strncpy_P(nv->token, cfgArray[nv->index].token, TOKEN_LEN);
                                 		.LINE  "C:\Workspace\e2studio\git\MT01_master\src\cnc\config.c",300
00000738 EC04                    		MOV.L [R0], R4
0000073A B941                    		MOVU.W 08H[R4], R1
0000073C 6C51                    		SHLL #05H, R1
0000073E FB22rrrrrrrr            		MOV.L #_cfgArray, R2
00000744 4B12                    		ADD R1, R2
00000746 6242                    		ADD #04H, R2
00000748 714118                  		ADD #18H, R4, R1
0000074B 6653                    		MOV.L #00000005H, R3
0000074D 7F87                    		SMOVU
0000074F 71441D                  		ADD #1DH, R4
00000752 EF41                    		MOV.L R4, R1
00000754 4331                    		SUB R3, R1
00000756 6602                    		MOV.L #00000000H, R2
00000758 7F88                    		SSTR.B
0000075A                         L174:	; bb.split62
                                 ;     301 				nv_set(nv);
                                 		.LINE  "C:\Workspace\e2studio\git\MT01_master\src\cnc\config.c",301
0000075A EC01                    		MOV.L [R0], R1
0000075C 39rrrr               W  		BSR _nv_set
0000075F                         L175:	; bb.split63
                                 ;     302 				nv_persist(nv);
                                 		.LINE  "C:\Workspace\e2studio\git\MT01_master\src\cnc\config.c",302
0000075F EC01                    		MOV.L [R0], R1
00000761 39rrrr               W  		BSR _nv_persist
00000764 3F6604                  		RTSD #10H, R6-R6
00000767                         L176:	; bb251
                                 ;     303 				/*****************************************************************************************************/
                                 ;     304 		break;
                                 ;     305 		case COMPACTA_MAQ:
                                 ;     306 			/*****************************************************************************************************/
                                 ;     307 			nv->index = nv_get_index("1", "ma");
                                 		.LINE  "C:\Workspace\e2studio\git\MT01_master\src\cnc\config.c",307
00000767 EC06                    		MOV.L [R0], R6
00000769 FB22rrrrrrrr            		MOV.L #_L25, R2
0000076F FB12rrrrrrrr            		MOV.L #_L24, R1
00000775 39rrrr               W  		BSR _nv_get_index
00000778 9161                    		MOV.W R1, 08H[R6]
0000077A                         L177:	; bb251.split
                                 ;     308 			nv->value = M1_MOTOR_MAP_CP;
                                 		.LINE  "C:\Workspace\e2studio\git\MT01_master\src\cnc\config.c",308
0000077A EC01                    		MOV.L [R0], R1
0000077C F9120400000040          		MOV.L #40000000H, 10H[R1]
00000783                         L178:	; bb251.split64
                                 ;     309 			strncpy_P(nv->token, cfgArray[nv->index].token, TOKEN_LEN);
                                 		.LINE  "C:\Workspace\e2studio\git\MT01_master\src\cnc\config.c",309
00000783 EC04                    		MOV.L [R0], R4
00000785 B941                    		MOVU.W 08H[R4], R1
00000787 6C51                    		SHLL #05H, R1
00000789 FB22rrrrrrrr            		MOV.L #_cfgArray, R2
0000078F 4B12                    		ADD R1, R2
00000791 6242                    		ADD #04H, R2
00000793 714118                  		ADD #18H, R4, R1
00000796 6653                    		MOV.L #00000005H, R3
00000798 7F87                    		SMOVU
0000079A 71441D                  		ADD #1DH, R4
0000079D EF41                    		MOV.L R4, R1
0000079F 4331                    		SUB R3, R1
000007A1 6602                    		MOV.L #00000000H, R2
000007A3 7F88                    		SSTR.B
000007A5                         L179:	; bb251.split65
                                 ;     310 			nv_set(nv);
                                 		.LINE  "C:\Workspace\e2studio\git\MT01_master\src\cnc\config.c",310
000007A5 EC01                    		MOV.L [R0], R1
000007A7 39rrrr               W  		BSR _nv_set
000007AA                         L180:	; bb251.split66
                                 ;     311 			nv_persist(nv);
                                 		.LINE  "C:\Workspace\e2studio\git\MT01_master\src\cnc\config.c",311
000007AA EC01                    		MOV.L [R0], R1
000007AC 39rrrr               W  		BSR _nv_persist
000007AF                         L181:	; bb251.split67
                                 ;     312 
                                 ;     313 			nv->index = nv_get_index("2", "ma");
                                 		.LINE  "C:\Workspace\e2studio\git\MT01_master\src\cnc\config.c",313
000007AF EC06                    		MOV.L [R0], R6
000007B1 FB22rrrrrrrr            		MOV.L #_L25, R2
000007B7 FB12rrrrrrrr            		MOV.L #_L20, R1
000007BD 39rrrr               W  		BSR _nv_get_index
000007C0 9161                    		MOV.W R1, 08H[R6]
000007C2                         L182:	; bb251.split68
                                 ;     314 			nv->value = M2_MOTOR_MAP_CP;
                                 		.LINE  "C:\Workspace\e2studio\git\MT01_master\src\cnc\config.c",314
000007C2 EC01                    		MOV.L [R0], R1
000007C4 F912040000803F          		MOV.L #3F800000H, 10H[R1]
000007CB                         L183:	; bb251.split69
                                 ;     315 			strncpy_P(nv->token, cfgArray[nv->index].token, TOKEN_LEN);
                                 		.LINE  "C:\Workspace\e2studio\git\MT01_master\src\cnc\config.c",315
000007CB EC04                    		MOV.L [R0], R4
000007CD B941                    		MOVU.W 08H[R4], R1
000007CF 6C51                    		SHLL #05H, R1
000007D1 FB22rrrrrrrr            		MOV.L #_cfgArray, R2
000007D7 4B12                    		ADD R1, R2
000007D9 6242                    		ADD #04H, R2
000007DB 714118                  		ADD #18H, R4, R1
000007DE 6653                    		MOV.L #00000005H, R3
000007E0 7F87                    		SMOVU
000007E2 71441D                  		ADD #1DH, R4
000007E5 EF41                    		MOV.L R4, R1
000007E7 4331                    		SUB R3, R1
000007E9 6602                    		MOV.L #00000000H, R2
000007EB 7F88                    		SSTR.B
000007ED                         L184:	; bb251.split70
                                 ;     316 			nv_set(nv);
                                 		.LINE  "C:\Workspace\e2studio\git\MT01_master\src\cnc\config.c",316
000007ED EC01                    		MOV.L [R0], R1
000007EF 39rrrr               W  		BSR _nv_set
000007F2                         L185:	; bb251.split71
                                 ;     317 			nv_persist(nv);
                                 		.LINE  "C:\Workspace\e2studio\git\MT01_master\src\cnc\config.c",317
000007F2 EC01                    		MOV.L [R0], R1
000007F4 39rrrr               W  		BSR _nv_persist
000007F7                         L186:	; bb251.split72
                                 ;     318 
                                 ;     319 			nv->index = nv_get_index("3", "ma");
                                 		.LINE  "C:\Workspace\e2studio\git\MT01_master\src\cnc\config.c",319
000007F7 EC06                    		MOV.L [R0], R6
000007F9 FB22rrrrrrrr            		MOV.L #_L25, R2
000007FF FB12rrrrrrrr            		MOV.L #_L22, R1
00000805 39rrrr               W  		BSR _nv_get_index
00000808 9161                    		MOV.W R1, 08H[R6]
0000080A                         L187:	; bb251.split73
                                 ;     320 			nv->value = M3_MOTOR_MAP_CP;
                                 		.LINE  "C:\Workspace\e2studio\git\MT01_master\src\cnc\config.c",320
0000080A EC01                    		MOV.L [R0], R1
0000080C 3E1400                  		MOV.L #00000000H, 10H[R1]
0000080F                         L188:	; bb251.split74
                                 ;     321 			strncpy_P(nv->token, cfgArray[nv->index].token, TOKEN_LEN);
                                 		.LINE  "C:\Workspace\e2studio\git\MT01_master\src\cnc\config.c",321
0000080F EC04                    		MOV.L [R0], R4
00000811 B941                    		MOVU.W 08H[R4], R1
00000813 6C51                    		SHLL #05H, R1
00000815 FB22rrrrrrrr            		MOV.L #_cfgArray, R2
0000081B 4B12                    		ADD R1, R2
0000081D 6242                    		ADD #04H, R2
0000081F 714118                  		ADD #18H, R4, R1
00000822 6653                    		MOV.L #00000005H, R3
00000824 7F87                    		SMOVU
00000826 71441D                  		ADD #1DH, R4
00000829 EF41                    		MOV.L R4, R1
0000082B 4331                    		SUB R3, R1
0000082D 6602                    		MOV.L #00000000H, R2
0000082F 7F88                    		SSTR.B
00000831                         L189:	; bb251.split75
                                 ;     322 			nv_set(nv);
                                 		.LINE  "C:\Workspace\e2studio\git\MT01_master\src\cnc\config.c",322
00000831 EC01                    		MOV.L [R0], R1
00000833 39rrrr               W  		BSR _nv_set
00000836                         L190:	; bb251.split76
                                 ;     323 			nv_persist(nv);
                                 		.LINE  "C:\Workspace\e2studio\git\MT01_master\src\cnc\config.c",323
00000836 EC01                    		MOV.L [R0], R1
00000838 39rrrr               W  		BSR _nv_persist
0000083B                         L191:	; bb251.split77
                                 ;     324 
                                 ;     325 			nv->index = nv_get_index("4", "ma");
                                 		.LINE  "C:\Workspace\e2studio\git\MT01_master\src\cnc\config.c",325
0000083B EC06                    		MOV.L [R0], R6
0000083D FB22rrrrrrrr            		MOV.L #_L25, R2
00000843 FB12rrrrrrrr            		MOV.L #_L23, R1
00000849 39rrrr               W  		BSR _nv_get_index
0000084C 9161                    		MOV.W R1, 08H[R6]
0000084E                         L192:	; bb251.split78
                                 ;     326 			nv->value = M4_MOTOR_MAP_CP;
                                 		.LINE  "C:\Workspace\e2studio\git\MT01_master\src\cnc\config.c",326
0000084E EC01                    		MOV.L [R0], R1
00000850 3E1400                  		MOV.L #00000000H, 10H[R1]
00000853                         L193:	; bb251.split79
                                 ;     327 			strncpy_P(nv->token, cfgArray[nv->index].token, TOKEN_LEN);
                                 		.LINE  "C:\Workspace\e2studio\git\MT01_master\src\cnc\config.c",327
00000853 EC04                    		MOV.L [R0], R4
00000855 B941                    		MOVU.W 08H[R4], R1
00000857 6C51                    		SHLL #05H, R1
00000859 FB22rrrrrrrr            		MOV.L #_cfgArray, R2
0000085F 4B12                    		ADD R1, R2
00000861 6242                    		ADD #04H, R2
00000863 714118                  		ADD #18H, R4, R1
00000866 6653                    		MOV.L #00000005H, R3
00000868 7F87                    		SMOVU
0000086A 71441D                  		ADD #1DH, R4
0000086D EF41                    		MOV.L R4, R1
0000086F 4331                    		SUB R3, R1
00000871 6602                    		MOV.L #00000000H, R2
00000873 7F88                    		SSTR.B
00000875                         L194:	; bb251.split80
                                 ;     328 			nv_set(nv);
                                 		.LINE  "C:\Workspace\e2studio\git\MT01_master\src\cnc\config.c",328
00000875 EC01                    		MOV.L [R0], R1
00000877 39rrrr               W  		BSR _nv_set
0000087A                         L195:	; bb251.split81
                                 ;     329 			nv_persist(nv);
                                 		.LINE  "C:\Workspace\e2studio\git\MT01_master\src\cnc\config.c",329
0000087A EC01                    		MOV.L [R0], R1
0000087C 39rrrr               W  		BSR _nv_persist
0000087F                         L196:	; bb251.split82
                                 ;     330 
                                 ;     331 		/*****************************************************************************************************/
                                 ;     332 			nv->index = nv_get_index("1", "tr");
                                 		.LINE  "C:\Workspace\e2studio\git\MT01_master\src\cnc\config.c",332
0000087F EC06                    		MOV.L [R0], R6
00000881 FB22rrrrrrrr            		MOV.L #_L21, R2
00000887 FB12rrrrrrrr            		MOV.L #_L24, R1
0000088D 39rrrr               W  		BSR _nv_get_index
00000890 9161                    		MOV.W R1, 08H[R6]
00000892                         L197:	; bb251.split83
                                 ;     333 			nv->value = M1_TRAVEL_PER_REV_CP;
                                 		.LINE  "C:\Workspace\e2studio\git\MT01_master\src\cnc\config.c",333
00000892 EC01                    		MOV.L [R0], R1
00000894 F9120400004040          		MOV.L #40400000H, 10H[R1]
0000089B                         L198:	; bb251.split84
                                 ;     334 			strncpy_P(nv->token, cfgArray[nv->index].token, TOKEN_LEN);
                                 		.LINE  "C:\Workspace\e2studio\git\MT01_master\src\cnc\config.c",334
0000089B EC04                    		MOV.L [R0], R4
0000089D B941                    		MOVU.W 08H[R4], R1
0000089F 6C51                    		SHLL #05H, R1
000008A1 FB22rrrrrrrr            		MOV.L #_cfgArray, R2
000008A7 4B12                    		ADD R1, R2
000008A9 6242                    		ADD #04H, R2
000008AB 714118                  		ADD #18H, R4, R1
000008AE 6653                    		MOV.L #00000005H, R3
000008B0 7F87                    		SMOVU
000008B2 71441D                  		ADD #1DH, R4
000008B5 EF41                    		MOV.L R4, R1
000008B7 4331                    		SUB R3, R1
000008B9 6602                    		MOV.L #00000000H, R2
000008BB 7F88                    		SSTR.B
000008BD                         L199:	; bb251.split85
                                 ;     335 			nv_set(nv);
                                 		.LINE  "C:\Workspace\e2studio\git\MT01_master\src\cnc\config.c",335
000008BD EC01                    		MOV.L [R0], R1
000008BF 39rrrr               W  		BSR _nv_set
000008C2                         L200:	; bb251.split86
                                 ;     336 			nv_persist(nv);
                                 		.LINE  "C:\Workspace\e2studio\git\MT01_master\src\cnc\config.c",336
000008C2 EC01                    		MOV.L [R0], R1
000008C4 39rrrr               W  		BSR _nv_persist
000008C7                         L201:	; bb251.split87
                                 ;     337 
                                 ;     338 		/*****************************************************************************************************/
                                 ;     339 			nv->index = nv_get_index("1", "mi");
                                 		.LINE  "C:\Workspace\e2studio\git\MT01_master\src\cnc\config.c",339
000008C7 EC06                    		MOV.L [R0], R6
000008C9 FB22rrrrrrrr            		MOV.L #_L26, R2
000008CF FB12rrrrrrrr            		MOV.L #_L24, R1
000008D5 39rrrr               W  		BSR _nv_get_index
000008D8 9161                    		MOV.W R1, 08H[R6]
000008DA                         L202:	; bb251.split88
                                 ;     340 			nv->value = M1_MICROSTEPS_CP;
                                 		.LINE  "C:\Workspace\e2studio\git\MT01_master\src\cnc\config.c",340
000008DA EC01                    		MOV.L [R0], R1
000008DC F9120400008042          		MOV.L #42800000H, 10H[R1]
000008E3                         L203:	; bb251.split89
                                 ;     341 			strncpy_P(nv->token, cfgArray[nv->index].token, TOKEN_LEN);
                                 		.LINE  "C:\Workspace\e2studio\git\MT01_master\src\cnc\config.c",341
000008E3 EC04                    		MOV.L [R0], R4
000008E5 B941                    		MOVU.W 08H[R4], R1
000008E7 6C51                    		SHLL #05H, R1
000008E9 FB22rrrrrrrr            		MOV.L #_cfgArray, R2
000008EF 4B12                    		ADD R1, R2
000008F1 6242                    		ADD #04H, R2
000008F3 714118                  		ADD #18H, R4, R1
000008F6 6653                    		MOV.L #00000005H, R3
000008F8 7F87                    		SMOVU
000008FA 71441D                  		ADD #1DH, R4
000008FD EF41                    		MOV.L R4, R1
000008FF 4331                    		SUB R3, R1
00000901 6602                    		MOV.L #00000000H, R2
00000903 7F88                    		SSTR.B
00000905                         L204:	; bb251.split90
                                 ;     342 			nv_set(nv);
                                 		.LINE  "C:\Workspace\e2studio\git\MT01_master\src\cnc\config.c",342
00000905 EC01                    		MOV.L [R0], R1
00000907 39rrrr               W  		BSR _nv_set
0000090A                         L205:	; bb251.split91
                                 ;     343 			nv_persist(nv);
                                 		.LINE  "C:\Workspace\e2studio\git\MT01_master\src\cnc\config.c",343
0000090A EC01                    		MOV.L [R0], R1
0000090C 39rrrr               W  		BSR _nv_persist
0000090F                         L206:	; bb251.split92
                                 ;     344 
                                 ;     345 			nv->index = nv_get_index("2", "mi");
                                 		.LINE  "C:\Workspace\e2studio\git\MT01_master\src\cnc\config.c",345
0000090F EC06                    		MOV.L [R0], R6
00000911 FB22rrrrrrrr            		MOV.L #_L26, R2
00000917 FB12rrrrrrrr            		MOV.L #_L20, R1
0000091D 39rrrr               W  		BSR _nv_get_index
00000920 9161                    		MOV.W R1, 08H[R6]
00000922                         L207:	; bb251.split93
                                 ;     346 			nv->value = M2_MICROSTEPS_CP;
                                 		.LINE  "C:\Workspace\e2studio\git\MT01_master\src\cnc\config.c",346
00000922 EC01                    		MOV.L [R0], R1
00000924 F9120400008042          		MOV.L #42800000H, 10H[R1]
0000092B                         L208:	; bb251.split94
                                 ;     347 			strncpy_P(nv->token, cfgArray[nv->index].token, TOKEN_LEN);
                                 		.LINE  "C:\Workspace\e2studio\git\MT01_master\src\cnc\config.c",347
0000092B EC04                    		MOV.L [R0], R4
0000092D B941                    		MOVU.W 08H[R4], R1
0000092F 6C51                    		SHLL #05H, R1
00000931 FB22rrrrrrrr            		MOV.L #_cfgArray, R2
00000937 4B12                    		ADD R1, R2
00000939 6242                    		ADD #04H, R2
0000093B 714118                  		ADD #18H, R4, R1
0000093E 6653                    		MOV.L #00000005H, R3
00000940 7F87                    		SMOVU
00000942 71441D                  		ADD #1DH, R4
00000945 EF41                    		MOV.L R4, R1
00000947 4331                    		SUB R3, R1
00000949 6602                    		MOV.L #00000000H, R2
0000094B 7F88                    		SSTR.B
0000094D                         L209:	; bb251.split95
                                 ;     348 			nv_set(nv);
                                 		.LINE  "C:\Workspace\e2studio\git\MT01_master\src\cnc\config.c",348
0000094D EC01                    		MOV.L [R0], R1
0000094F 39rrrr               W  		BSR _nv_set
00000952                         L210:	; bb251.split96
                                 ;     349 			nv_persist(nv);
                                 		.LINE  "C:\Workspace\e2studio\git\MT01_master\src\cnc\config.c",349
00000952 EC01                    		MOV.L [R0], R1
00000954 39rrrr               W  		BSR _nv_persist
00000957                         L211:	; bb251.split97
                                 ;     350 
                                 ;     351 			nv->index = nv_get_index("3", "mi");
                                 		.LINE  "C:\Workspace\e2studio\git\MT01_master\src\cnc\config.c",351
00000957 EC06                    		MOV.L [R0], R6
00000959 FB22rrrrrrrr            		MOV.L #_L26, R2
0000095F FB12rrrrrrrr            		MOV.L #_L22, R1
00000965 39rrrr               W  		BSR _nv_get_index
00000968 9161                    		MOV.W R1, 08H[R6]
0000096A                         L212:	; bb251.split98
                                 ;     352 			nv->value = M3_MICROSTEPS_CP;
                                 		.LINE  "C:\Workspace\e2studio\git\MT01_master\src\cnc\config.c",352
0000096A EC01                    		MOV.L [R0], R1
0000096C F9120400008042          		MOV.L #42800000H, 10H[R1]
00000973                         L213:	; bb251.split99
                                 ;     353 			strncpy_P(nv->token, cfgArray[nv->index].token, TOKEN_LEN);
                                 		.LINE  "C:\Workspace\e2studio\git\MT01_master\src\cnc\config.c",353
00000973 EC04                    		MOV.L [R0], R4
00000975 B941                    		MOVU.W 08H[R4], R1
00000977 6C51                    		SHLL #05H, R1
00000979 FB22rrrrrrrr            		MOV.L #_cfgArray, R2
0000097F 4B12                    		ADD R1, R2
00000981 6242                    		ADD #04H, R2
00000983 714118                  		ADD #18H, R4, R1
00000986 6653                    		MOV.L #00000005H, R3
00000988 7F87                    		SMOVU
0000098A 71441D                  		ADD #1DH, R4
0000098D EF41                    		MOV.L R4, R1
0000098F 4331                    		SUB R3, R1
00000991 6602                    		MOV.L #00000000H, R2
00000993 7F88                    		SSTR.B
00000995                         L214:	; bb251.split100
                                 ;     354 			nv_set(nv);
                                 		.LINE  "C:\Workspace\e2studio\git\MT01_master\src\cnc\config.c",354
00000995 EC01                    		MOV.L [R0], R1
00000997 39rrrr               W  		BSR _nv_set
0000099A                         L215:	; bb251.split101
                                 ;     355 			nv_persist(nv);
                                 		.LINE  "C:\Workspace\e2studio\git\MT01_master\src\cnc\config.c",355
0000099A EC01                    		MOV.L [R0], R1
0000099C 39rrrr               W  		BSR _nv_persist
0000099F                         L216:	; bb251.split102
                                 ;     356 
                                 ;     357 			nv->index = nv_get_index("4", "mi");
                                 		.LINE  "C:\Workspace\e2studio\git\MT01_master\src\cnc\config.c",357
0000099F EC06                    		MOV.L [R0], R6
000009A1 FB22rrrrrrrr            		MOV.L #_L26, R2
000009A7 FB12rrrrrrrr            		MOV.L #_L23, R1
000009AD 39rrrr               W  		BSR _nv_get_index
000009B0 9161                    		MOV.W R1, 08H[R6]
000009B2                         L217:	; bb251.split103
                                 ;     358 			nv->value = M4_MICROSTEPS_CP;
                                 		.LINE  "C:\Workspace\e2studio\git\MT01_master\src\cnc\config.c",358
000009B2 EC01                    		MOV.L [R0], R1
000009B4 F9120400008042          		MOV.L #42800000H, 10H[R1]
000009BB                         L218:	; bb251.split104
                                 ;     359 			strncpy_P(nv->token, cfgArray[nv->index].token, TOKEN_LEN);
                                 		.LINE  "C:\Workspace\e2studio\git\MT01_master\src\cnc\config.c",359
000009BB EC04                    		MOV.L [R0], R4
000009BD B941                    		MOVU.W 08H[R4], R1
000009BF 6C51                    		SHLL #05H, R1
000009C1 FB22rrrrrrrr            		MOV.L #_cfgArray, R2
000009C7 4B12                    		ADD R1, R2
000009C9 6242                    		ADD #04H, R2
000009CB 714118                  		ADD #18H, R4, R1
000009CE 6653                    		MOV.L #00000005H, R3
000009D0 7F87                    		SMOVU
000009D2 71441D                  		ADD #1DH, R4
000009D5 EF41                    		MOV.L R4, R1
000009D7 4331                    		SUB R3, R1
000009D9 6602                    		MOV.L #00000000H, R2
000009DB 7F88                    		SSTR.B
000009DD                         L219:	; bb251.split105
                                 ;     360 			nv_set(nv);
                                 		.LINE  "C:\Workspace\e2studio\git\MT01_master\src\cnc\config.c",360
000009DD EC01                    		MOV.L [R0], R1
000009DF 39rrrr               W  		BSR _nv_set
000009E2                         L220:	; bb251.split106
                                 ;     361 			nv_persist(nv);
                                 		.LINE  "C:\Workspace\e2studio\git\MT01_master\src\cnc\config.c",361
000009E2 EC01                    		MOV.L [R0], R1
000009E4 39rrrr               W  		BSR _nv_persist
000009E7                         L221:	; bb251.split107
                                 ;     362 			/*****************************************************************************************************/
                                 ;     363 			nv->index = nv_get_index("1", "po");
                                 		.LINE  "C:\Workspace\e2studio\git\MT01_master\src\cnc\config.c",363
000009E7 EC06                    		MOV.L [R0], R6
000009E9 FB22rrrrrrrr            		MOV.L #_L27, R2
000009EF FB12rrrrrrrr            		MOV.L #_L24, R1
000009F5 39rrrr               W  		BSR _nv_get_index
000009F8 9161                    		MOV.W R1, 08H[R6]
000009FA                         L222:	; bb251.split108
                                 ;     364 			nv->value = M1_POLARITY_CP;
                                 		.LINE  "C:\Workspace\e2studio\git\MT01_master\src\cnc\config.c",364
000009FA EC01                    		MOV.L [R0], R1
000009FC 3E1400                  		MOV.L #00000000H, 10H[R1]
000009FF                         L223:	; bb251.split109
                                 ;     365 			strncpy_P(nv->token, cfgArray[nv->index].token, TOKEN_LEN);
                                 		.LINE  "C:\Workspace\e2studio\git\MT01_master\src\cnc\config.c",365
000009FF EC04                    		MOV.L [R0], R4
00000A01 B941                    		MOVU.W 08H[R4], R1
00000A03 6C51                    		SHLL #05H, R1
00000A05 FB22rrrrrrrr            		MOV.L #_cfgArray, R2
00000A0B 4B12                    		ADD R1, R2
00000A0D 6242                    		ADD #04H, R2
00000A0F 714118                  		ADD #18H, R4, R1
00000A12 6653                    		MOV.L #00000005H, R3
00000A14 7F87                    		SMOVU
00000A16 71441D                  		ADD #1DH, R4
00000A19 EF41                    		MOV.L R4, R1
00000A1B 4331                    		SUB R3, R1
00000A1D 6602                    		MOV.L #00000000H, R2
00000A1F 7F88                    		SSTR.B
00000A21                         L224:	; bb251.split110
                                 ;     366 			nv_set(nv);
                                 		.LINE  "C:\Workspace\e2studio\git\MT01_master\src\cnc\config.c",366
00000A21 EC01                    		MOV.L [R0], R1
00000A23 39rrrr               W  		BSR _nv_set
00000A26                         L225:	; bb251.split111
                                 ;     367 			nv_persist(nv);
                                 		.LINE  "C:\Workspace\e2studio\git\MT01_master\src\cnc\config.c",367
00000A26 EC01                    		MOV.L [R0], R1
00000A28 39rrrr               W  		BSR _nv_persist
00000A2B                         L226:	; bb251.split112
                                 ;     368 
                                 ;     369 			nv->index = nv_get_index("2", "po");
                                 		.LINE  "C:\Workspace\e2studio\git\MT01_master\src\cnc\config.c",369
00000A2B EC06                    		MOV.L [R0], R6
00000A2D FB22rrrrrrrr            		MOV.L #_L27, R2
00000A33 FB12rrrrrrrr            		MOV.L #_L20, R1
00000A39 39rrrr               W  		BSR _nv_get_index
00000A3C 9161                    		MOV.W R1, 08H[R6]
00000A3E                         L227:	; bb251.split113
                                 ;     370 			nv->value = M2_POLARITY_CP;
                                 		.LINE  "C:\Workspace\e2studio\git\MT01_master\src\cnc\config.c",370
00000A3E EC01                    		MOV.L [R0], R1
00000A40 3E1400                  		MOV.L #00000000H, 10H[R1]
00000A43                         L228:	; bb251.split114
                                 ;     371 			strncpy_P(nv->token, cfgArray[nv->index].token, TOKEN_LEN);
                                 		.LINE  "C:\Workspace\e2studio\git\MT01_master\src\cnc\config.c",371
00000A43 EC04                    		MOV.L [R0], R4
00000A45 B941                    		MOVU.W 08H[R4], R1
00000A47 6C51                    		SHLL #05H, R1
00000A49 FB22rrrrrrrr            		MOV.L #_cfgArray, R2
00000A4F 4B12                    		ADD R1, R2
00000A51 6242                    		ADD #04H, R2
00000A53 714118                  		ADD #18H, R4, R1
00000A56 6653                    		MOV.L #00000005H, R3
00000A58 7F87                    		SMOVU
00000A5A 71441D                  		ADD #1DH, R4
00000A5D EF41                    		MOV.L R4, R1
00000A5F 4331                    		SUB R3, R1
00000A61 6602                    		MOV.L #00000000H, R2
00000A63 7F88                    		SSTR.B
00000A65                         L229:	; bb251.split115
                                 ;     372 			nv_set(nv);
                                 		.LINE  "C:\Workspace\e2studio\git\MT01_master\src\cnc\config.c",372
00000A65 EC01                    		MOV.L [R0], R1
00000A67 39rrrr               W  		BSR _nv_set
00000A6A                         L230:	; bb251.split116
                                 ;     373 			nv_persist(nv);
                                 		.LINE  "C:\Workspace\e2studio\git\MT01_master\src\cnc\config.c",373
00000A6A EC01                    		MOV.L [R0], R1
00000A6C 39rrrr               W  		BSR _nv_persist
00000A6F                         L231:	; bb251.split117
                                 ;     374 
                                 ;     375 			nv->index = nv_get_index("3", "po");
                                 		.LINE  "C:\Workspace\e2studio\git\MT01_master\src\cnc\config.c",375
00000A6F EC06                    		MOV.L [R0], R6
00000A71 FB22rrrrrrrr            		MOV.L #_L27, R2
00000A77 FB12rrrrrrrr            		MOV.L #_L22, R1
00000A7D 39rrrr               W  		BSR _nv_get_index
00000A80 9161                    		MOV.W R1, 08H[R6]
00000A82                         L232:	; bb251.split118
                                 ;     376 			nv->value = M3_POLARITY_CP;
                                 		.LINE  "C:\Workspace\e2studio\git\MT01_master\src\cnc\config.c",376
00000A82 EC01                    		MOV.L [R0], R1
00000A84 F912040000803F          		MOV.L #3F800000H, 10H[R1]
00000A8B                         L233:	; bb251.split119
                                 ;     377 			strncpy_P(nv->token, cfgArray[nv->index].token, TOKEN_LEN);
                                 		.LINE  "C:\Workspace\e2studio\git\MT01_master\src\cnc\config.c",377
00000A8B EC04                    		MOV.L [R0], R4
00000A8D B941                    		MOVU.W 08H[R4], R1
00000A8F 6C51                    		SHLL #05H, R1
00000A91 FB22rrrrrrrr            		MOV.L #_cfgArray, R2
00000A97 4B12                    		ADD R1, R2
00000A99 6242                    		ADD #04H, R2
00000A9B 714118                  		ADD #18H, R4, R1
00000A9E 6653                    		MOV.L #00000005H, R3
00000AA0 7F87                    		SMOVU
00000AA2 71441D                  		ADD #1DH, R4
00000AA5 EF41                    		MOV.L R4, R1
00000AA7 4331                    		SUB R3, R1
00000AA9 6602                    		MOV.L #00000000H, R2
00000AAB 7F88                    		SSTR.B
00000AAD                         L234:	; bb251.split120
                                 ;     378 			nv_set(nv);
                                 		.LINE  "C:\Workspace\e2studio\git\MT01_master\src\cnc\config.c",378
00000AAD EC01                    		MOV.L [R0], R1
00000AAF 39rrrr               W  		BSR _nv_set
00000AB2                         L235:	; bb251.split121
                                 ;     379 			nv_persist(nv);
                                 		.LINE  "C:\Workspace\e2studio\git\MT01_master\src\cnc\config.c",379
00000AB2 EC01                    		MOV.L [R0], R1
00000AB4 39rrrr               W  		BSR _nv_persist
00000AB7                         L236:	; bb251.split122
                                 ;     380 
                                 ;     381 			nv->index = nv_get_index("4", "po");
                                 		.LINE  "C:\Workspace\e2studio\git\MT01_master\src\cnc\config.c",381
00000AB7 EC06                    		MOV.L [R0], R6
00000AB9 FB22rrrrrrrr            		MOV.L #_L27, R2
00000ABF FB12rrrrrrrr            		MOV.L #_L23, R1
00000AC5 39rrrr               W  		BSR _nv_get_index
00000AC8 9161                    		MOV.W R1, 08H[R6]
00000ACA                         L237:	; bb251.split123
                                 ;     382 			nv->value = M4_POLARITY_CP;
                                 		.LINE  "C:\Workspace\e2studio\git\MT01_master\src\cnc\config.c",382
00000ACA EC01                    		MOV.L [R0], R1
00000ACC 3E1400                  		MOV.L #00000000H, 10H[R1]
00000ACF                         L238:	; bb251.split124
                                 ;     383 			strncpy_P(nv->token, cfgArray[nv->index].token, TOKEN_LEN);
                                 		.LINE  "C:\Workspace\e2studio\git\MT01_master\src\cnc\config.c",383
00000ACF EC04                    		MOV.L [R0], R4
00000AD1 B941                    		MOVU.W 08H[R4], R1
00000AD3 6C51                    		SHLL #05H, R1
00000AD5 FB22rrrrrrrr            		MOV.L #_cfgArray, R2
00000ADB 4B12                    		ADD R1, R2
00000ADD 6242                    		ADD #04H, R2
00000ADF 714118                  		ADD #18H, R4, R1
00000AE2 6653                    		MOV.L #00000005H, R3
00000AE4 7F87                    		SMOVU
00000AE6 71441D                  		ADD #1DH, R4
00000AE9 EF41                    		MOV.L R4, R1
00000AEB 4331                    		SUB R3, R1
00000AED 6602                    		MOV.L #00000000H, R2
00000AEF 7F88                    		SSTR.B
00000AF1                         L239:	; bb251.split125
                                 ;     384 			nv_set(nv);
                                 		.LINE  "C:\Workspace\e2studio\git\MT01_master\src\cnc\config.c",384
00000AF1 EC01                    		MOV.L [R0], R1
00000AF3 39rrrr               W  		BSR _nv_set
00000AF6                         L240:	; bb251.split126
                                 ;     385 			nv_persist(nv);
                                 		.LINE  "C:\Workspace\e2studio\git\MT01_master\src\cnc\config.c",385
00000AF6 EC01                    		MOV.L [R0], R1
00000AF8 39rrrr               W  		BSR _nv_persist
00000AFB 3F6604                  		RTSD #10H, R6-R6
00000AFE                         L241:	; bb499
                                 ;     386 			/*****************************************************************************************************/
                                 ;     387 		break;
                                 ;     388 		case MOBILE_MAQ:
                                 ;     389 			/*****************************************************************************************************/
                                 ;     390 			nv->index = nv_get_index("1", "ma");
                                 		.LINE  "C:\Workspace\e2studio\git\MT01_master\src\cnc\config.c",390
00000AFE EC06                    		MOV.L [R0], R6
00000B00 FB22rrrrrrrr            		MOV.L #_L25, R2
00000B06 FB12rrrrrrrr            		MOV.L #_L24, R1
00000B0C 39rrrr               W  		BSR _nv_get_index
00000B0F 9161                    		MOV.W R1, 08H[R6]
00000B11                         L242:	; bb499.split
                                 ;     391 			nv->value = M1_MOTOR_MAP_MB;
                                 		.LINE  "C:\Workspace\e2studio\git\MT01_master\src\cnc\config.c",391
00000B11 EC01                    		MOV.L [R0], R1
00000B13 F9120400000040          		MOV.L #40000000H, 10H[R1]
00000B1A                         L243:	; bb499.split127
                                 ;     392 			strncpy_P(nv->token, cfgArray[nv->index].token, TOKEN_LEN);
                                 		.LINE  "C:\Workspace\e2studio\git\MT01_master\src\cnc\config.c",392
00000B1A EC04                    		MOV.L [R0], R4
00000B1C B941                    		MOVU.W 08H[R4], R1
00000B1E 6C51                    		SHLL #05H, R1
00000B20 FB22rrrrrrrr            		MOV.L #_cfgArray, R2
00000B26 4B12                    		ADD R1, R2
00000B28 6242                    		ADD #04H, R2
00000B2A 714118                  		ADD #18H, R4, R1
00000B2D 6653                    		MOV.L #00000005H, R3
00000B2F 7F87                    		SMOVU
00000B31 71441D                  		ADD #1DH, R4
00000B34 EF41                    		MOV.L R4, R1
00000B36 4331                    		SUB R3, R1
00000B38 6602                    		MOV.L #00000000H, R2
00000B3A 7F88                    		SSTR.B
00000B3C                         L244:	; bb499.split128
                                 ;     393 			nv_set(nv);
                                 		.LINE  "C:\Workspace\e2studio\git\MT01_master\src\cnc\config.c",393
00000B3C EC01                    		MOV.L [R0], R1
00000B3E 39rrrr               W  		BSR _nv_set
00000B41                         L245:	; bb499.split129
                                 ;     394 			nv_persist(nv);
                                 		.LINE  "C:\Workspace\e2studio\git\MT01_master\src\cnc\config.c",394
00000B41 EC01                    		MOV.L [R0], R1
00000B43 39rrrr               W  		BSR _nv_persist
00000B46                         L246:	; bb499.split130
                                 ;     395 
                                 ;     396 			nv->index = nv_get_index("2", "ma");
                                 		.LINE  "C:\Workspace\e2studio\git\MT01_master\src\cnc\config.c",396
00000B46 EC06                    		MOV.L [R0], R6
00000B48 FB22rrrrrrrr            		MOV.L #_L25, R2
00000B4E FB12rrrrrrrr            		MOV.L #_L20, R1
00000B54 39rrrr               W  		BSR _nv_get_index
00000B57 9161                    		MOV.W R1, 08H[R6]
00000B59                         L247:	; bb499.split131
                                 ;     397 			nv->value = M2_MOTOR_MAP_MB;
                                 		.LINE  "C:\Workspace\e2studio\git\MT01_master\src\cnc\config.c",397
00000B59 EC01                    		MOV.L [R0], R1
00000B5B F912040000803F          		MOV.L #3F800000H, 10H[R1]
00000B62                         L248:	; bb499.split132
                                 ;     398 			strncpy_P(nv->token, cfgArray[nv->index].token, TOKEN_LEN);
                                 		.LINE  "C:\Workspace\e2studio\git\MT01_master\src\cnc\config.c",398
00000B62 EC04                    		MOV.L [R0], R4
00000B64 B941                    		MOVU.W 08H[R4], R1
00000B66 6C51                    		SHLL #05H, R1
00000B68 FB22rrrrrrrr            		MOV.L #_cfgArray, R2
00000B6E 4B12                    		ADD R1, R2
00000B70 6242                    		ADD #04H, R2
00000B72 714118                  		ADD #18H, R4, R1
00000B75 6653                    		MOV.L #00000005H, R3
00000B77 7F87                    		SMOVU
00000B79 71441D                  		ADD #1DH, R4
00000B7C EF41                    		MOV.L R4, R1
00000B7E 4331                    		SUB R3, R1
00000B80 6602                    		MOV.L #00000000H, R2
00000B82 7F88                    		SSTR.B
00000B84                         L249:	; bb499.split133
                                 ;     399 			nv_set(nv);
                                 		.LINE  "C:\Workspace\e2studio\git\MT01_master\src\cnc\config.c",399
00000B84 EC01                    		MOV.L [R0], R1
00000B86 39rrrr               W  		BSR _nv_set
00000B89                         L250:	; bb499.split134
                                 ;     400 			nv_persist(nv);
                                 		.LINE  "C:\Workspace\e2studio\git\MT01_master\src\cnc\config.c",400
00000B89 EC01                    		MOV.L [R0], R1
00000B8B 39rrrr               W  		BSR _nv_persist
00000B8E                         L251:	; bb499.split135
                                 ;     401 
                                 ;     402 			nv->index = nv_get_index("3", "ma");
                                 		.LINE  "C:\Workspace\e2studio\git\MT01_master\src\cnc\config.c",402
00000B8E EC06                    		MOV.L [R0], R6
00000B90 FB22rrrrrrrr            		MOV.L #_L25, R2
00000B96 FB12rrrrrrrr            		MOV.L #_L22, R1
00000B9C 39rrrr               W  		BSR _nv_get_index
00000B9F 9161                    		MOV.W R1, 08H[R6]
00000BA1                         L252:	; bb499.split136
                                 ;     403 			nv->value = M3_MOTOR_MAP_MB;
                                 		.LINE  "C:\Workspace\e2studio\git\MT01_master\src\cnc\config.c",403
00000BA1 EC01                    		MOV.L [R0], R1
00000BA3 3E1400                  		MOV.L #00000000H, 10H[R1]
00000BA6                         L253:	; bb499.split137
                                 ;     404 			strncpy_P(nv->token, cfgArray[nv->index].token, TOKEN_LEN);
                                 		.LINE  "C:\Workspace\e2studio\git\MT01_master\src\cnc\config.c",404
00000BA6 EC04                    		MOV.L [R0], R4
00000BA8 B941                    		MOVU.W 08H[R4], R1
00000BAA 6C51                    		SHLL #05H, R1
00000BAC FB22rrrrrrrr            		MOV.L #_cfgArray, R2
00000BB2 4B12                    		ADD R1, R2
00000BB4 6242                    		ADD #04H, R2
00000BB6 714118                  		ADD #18H, R4, R1
00000BB9 6653                    		MOV.L #00000005H, R3
00000BBB 7F87                    		SMOVU
00000BBD 71441D                  		ADD #1DH, R4
00000BC0 EF41                    		MOV.L R4, R1
00000BC2 4331                    		SUB R3, R1
00000BC4 6602                    		MOV.L #00000000H, R2
00000BC6 7F88                    		SSTR.B
00000BC8                         L254:	; bb499.split138
                                 ;     405 			nv_set(nv);
                                 		.LINE  "C:\Workspace\e2studio\git\MT01_master\src\cnc\config.c",405
00000BC8 EC01                    		MOV.L [R0], R1
00000BCA 39rrrr               W  		BSR _nv_set
00000BCD                         L255:	; bb499.split139
                                 ;     406 			nv_persist(nv);
                                 		.LINE  "C:\Workspace\e2studio\git\MT01_master\src\cnc\config.c",406
00000BCD EC01                    		MOV.L [R0], R1
00000BCF 39rrrr               W  		BSR _nv_persist
00000BD2                         L256:	; bb499.split140
                                 ;     407 
                                 ;     408 			nv->index = nv_get_index("4", "ma");
                                 		.LINE  "C:\Workspace\e2studio\git\MT01_master\src\cnc\config.c",408
00000BD2 EC06                    		MOV.L [R0], R6
00000BD4 FB22rrrrrrrr            		MOV.L #_L25, R2
00000BDA FB12rrrrrrrr            		MOV.L #_L23, R1
00000BE0 39rrrr               W  		BSR _nv_get_index
00000BE3 9161                    		MOV.W R1, 08H[R6]
00000BE5                         L257:	; bb499.split141
                                 ;     409 			nv->value = M4_MOTOR_MAP_MB;
                                 		.LINE  "C:\Workspace\e2studio\git\MT01_master\src\cnc\config.c",409
00000BE5 EC01                    		MOV.L [R0], R1
00000BE7 3E1400                  		MOV.L #00000000H, 10H[R1]
00000BEA                         L258:	; bb499.split142
                                 ;     410 			strncpy_P(nv->token, cfgArray[nv->index].token, TOKEN_LEN);
                                 		.LINE  "C:\Workspace\e2studio\git\MT01_master\src\cnc\config.c",410
00000BEA EC04                    		MOV.L [R0], R4
00000BEC B941                    		MOVU.W 08H[R4], R1
00000BEE 6C51                    		SHLL #05H, R1
00000BF0 FB22rrrrrrrr            		MOV.L #_cfgArray, R2
00000BF6 4B12                    		ADD R1, R2
00000BF8 6242                    		ADD #04H, R2
00000BFA 714118                  		ADD #18H, R4, R1
00000BFD 6653                    		MOV.L #00000005H, R3
00000BFF 7F87                    		SMOVU
00000C01 71441D                  		ADD #1DH, R4
00000C04 EF41                    		MOV.L R4, R1
00000C06 4331                    		SUB R3, R1
00000C08 6602                    		MOV.L #00000000H, R2
00000C0A 7F88                    		SSTR.B
00000C0C                         L259:	; bb499.split143
                                 ;     411 			nv_set(nv);
                                 		.LINE  "C:\Workspace\e2studio\git\MT01_master\src\cnc\config.c",411
00000C0C EC01                    		MOV.L [R0], R1
00000C0E 39rrrr               W  		BSR _nv_set
00000C11                         L260:	; bb499.split144
                                 ;     412 			nv_persist(nv);
                                 		.LINE  "C:\Workspace\e2studio\git\MT01_master\src\cnc\config.c",412
00000C11 EC01                    		MOV.L [R0], R1
00000C13 39rrrr               W  		BSR _nv_persist
00000C16                         L261:	; bb499.split145
                                 ;     413 
                                 ;     414 		/*****************************************************************************************************/
                                 ;     415 			nv->index = nv_get_index("1", "tr");
                                 		.LINE  "C:\Workspace\e2studio\git\MT01_master\src\cnc\config.c",415
00000C16 EC06                    		MOV.L [R0], R6
00000C18 FB22rrrrrrrr            		MOV.L #_L21, R2
00000C1E FB12rrrrrrrr            		MOV.L #_L24, R1
00000C24 39rrrr               W  		BSR _nv_get_index
00000C27 9161                    		MOV.W R1, 08H[R6]
00000C29                         L262:	; bb499.split146
                                 ;     416 			nv->value = M1_TRAVEL_PER_REV_MB;
                                 		.LINE  "C:\Workspace\e2studio\git\MT01_master\src\cnc\config.c",416
00000C29 EC01                    		MOV.L [R0], R1
00000C2B F91204E4CB9642          		MOV.L #4296CBE4H, 10H[R1]
00000C32                         L263:	; bb499.split147
                                 ;     417 			if (lmaq.crem)
                                 		.LINE  "C:\Workspace\e2studio\git\MT01_master\src\cnc\config.c",417
00000C32 B201                    		MOVU.B 08H[R0], R1
00000C34 6101                    		CMP #00H, R1
00000C36 10                   S  		BEQ L265
00000C37                         L264:	; bb582
                                 ;     418 			{
                                 ;     419 				nv->value = CREM_HELI;
                                 		.LINE  "C:\Workspace\e2studio\git\MT01_master\src\cnc\config.c",419
00000C37 EC01                    		MOV.L [R0], R1
00000C39 F912043333A042          		MOV.L #42A03333H, 10H[R1]
00000C40                         L265:	; bb590
                                 ;     420 			}
                                 ;     421 			strncpy_P(nv->token, cfgArray[nv->index].token, TOKEN_LEN);
                                 		.LINE  "C:\Workspace\e2studio\git\MT01_master\src\cnc\config.c",421
00000C40 EC04                    		MOV.L [R0], R4
00000C42 B941                    		MOVU.W 08H[R4], R1
00000C44 6C51                    		SHLL #05H, R1
00000C46 FB22rrrrrrrr            		MOV.L #_cfgArray, R2
00000C4C 4B12                    		ADD R1, R2
00000C4E 6242                    		ADD #04H, R2
00000C50 714118                  		ADD #18H, R4, R1
00000C53 6653                    		MOV.L #00000005H, R3
00000C55 7F87                    		SMOVU
00000C57 71441D                  		ADD #1DH, R4
00000C5A EF41                    		MOV.L R4, R1
00000C5C 4331                    		SUB R3, R1
00000C5E 6602                    		MOV.L #00000000H, R2
00000C60 7F88                    		SSTR.B
00000C62                         L266:	; bb590.split
                                 ;     422 			nv_set(nv);
                                 		.LINE  "C:\Workspace\e2studio\git\MT01_master\src\cnc\config.c",422
00000C62 EC01                    		MOV.L [R0], R1
00000C64 39rrrr               W  		BSR _nv_set
00000C67                         L267:	; bb590.split148
                                 ;     423 			nv_persist(nv);
                                 		.LINE  "C:\Workspace\e2studio\git\MT01_master\src\cnc\config.c",423
00000C67 EC01                    		MOV.L [R0], R1
00000C69 39rrrr               W  		BSR _nv_persist
00000C6C                         L268:	; bb590.split149
                                 ;     424 
                                 ;     425 		/*****************************************************************************************************/
                                 ;     426 			nv->index = nv_get_index("1", "mi");
                                 		.LINE  "C:\Workspace\e2studio\git\MT01_master\src\cnc\config.c",426
00000C6C EC06                    		MOV.L [R0], R6
00000C6E FB22rrrrrrrr            		MOV.L #_L26, R2
00000C74 FB12rrrrrrrr            		MOV.L #_L24, R1
00000C7A 39rrrr               W  		BSR _nv_get_index
00000C7D 9161                    		MOV.W R1, 08H[R6]
00000C7F                         L269:	; bb590.split150
                                 ;     427 			nv->value = M1_MICROSTEPS_MB;
                                 		.LINE  "C:\Workspace\e2studio\git\MT01_master\src\cnc\config.c",427
00000C7F EC01                    		MOV.L [R0], R1
00000C81 F9120400008042          		MOV.L #42800000H, 10H[R1]
00000C88                         L270:	; bb590.split151
                                 ;     428 			strncpy_P(nv->token, cfgArray[nv->index].token, TOKEN_LEN);
                                 		.LINE  "C:\Workspace\e2studio\git\MT01_master\src\cnc\config.c",428
00000C88 EC04                    		MOV.L [R0], R4
00000C8A B941                    		MOVU.W 08H[R4], R1
00000C8C 6C51                    		SHLL #05H, R1
00000C8E FB22rrrrrrrr            		MOV.L #_cfgArray, R2
00000C94 4B12                    		ADD R1, R2
00000C96 6242                    		ADD #04H, R2
00000C98 714118                  		ADD #18H, R4, R1
00000C9B 6653                    		MOV.L #00000005H, R3
00000C9D 7F87                    		SMOVU
00000C9F 71441D                  		ADD #1DH, R4
00000CA2 EF41                    		MOV.L R4, R1
00000CA4 4331                    		SUB R3, R1
00000CA6 6602                    		MOV.L #00000000H, R2
00000CA8 7F88                    		SSTR.B
00000CAA                         L271:	; bb590.split152
                                 ;     429 			nv_set(nv);
                                 		.LINE  "C:\Workspace\e2studio\git\MT01_master\src\cnc\config.c",429
00000CAA EC01                    		MOV.L [R0], R1
00000CAC 39rrrr               W  		BSR _nv_set
00000CAF                         L272:	; bb590.split153
                                 ;     430 			nv_persist(nv);
                                 		.LINE  "C:\Workspace\e2studio\git\MT01_master\src\cnc\config.c",430
00000CAF EC01                    		MOV.L [R0], R1
00000CB1 39rrrr               W  		BSR _nv_persist
00000CB4                         L273:	; bb590.split154
                                 ;     431 
                                 ;     432 			nv->index = nv_get_index("2", "mi");
                                 		.LINE  "C:\Workspace\e2studio\git\MT01_master\src\cnc\config.c",432
00000CB4 EC06                    		MOV.L [R0], R6
00000CB6 FB22rrrrrrrr            		MOV.L #_L26, R2
00000CBC FB12rrrrrrrr            		MOV.L #_L20, R1
00000CC2 39rrrr               W  		BSR _nv_get_index
00000CC5 9161                    		MOV.W R1, 08H[R6]
00000CC7                         L274:	; bb590.split155
                                 ;     433 			nv->value = M2_MICROSTEPS_MB;
                                 		.LINE  "C:\Workspace\e2studio\git\MT01_master\src\cnc\config.c",433
00000CC7 EC01                    		MOV.L [R0], R1
00000CC9 F9120400008042          		MOV.L #42800000H, 10H[R1]
00000CD0                         L275:	; bb590.split156
                                 ;     434 			strncpy_P(nv->token, cfgArray[nv->index].token, TOKEN_LEN);
                                 		.LINE  "C:\Workspace\e2studio\git\MT01_master\src\cnc\config.c",434
00000CD0 EC04                    		MOV.L [R0], R4
00000CD2 B941                    		MOVU.W 08H[R4], R1
00000CD4 6C51                    		SHLL #05H, R1
00000CD6 FB22rrrrrrrr            		MOV.L #_cfgArray, R2
00000CDC 4B12                    		ADD R1, R2
00000CDE 6242                    		ADD #04H, R2
00000CE0 714118                  		ADD #18H, R4, R1
00000CE3 6653                    		MOV.L #00000005H, R3
00000CE5 7F87                    		SMOVU
00000CE7 71441D                  		ADD #1DH, R4
00000CEA EF41                    		MOV.L R4, R1
00000CEC 4331                    		SUB R3, R1
00000CEE 6602                    		MOV.L #00000000H, R2
00000CF0 7F88                    		SSTR.B
00000CF2                         L276:	; bb590.split157
                                 ;     435 			nv_set(nv);
                                 		.LINE  "C:\Workspace\e2studio\git\MT01_master\src\cnc\config.c",435
00000CF2 EC01                    		MOV.L [R0], R1
00000CF4 39rrrr               W  		BSR _nv_set
00000CF7                         L277:	; bb590.split158
                                 ;     436 			nv_persist(nv);
                                 		.LINE  "C:\Workspace\e2studio\git\MT01_master\src\cnc\config.c",436
00000CF7 EC01                    		MOV.L [R0], R1
00000CF9 39rrrr               W  		BSR _nv_persist
00000CFC                         L278:	; bb590.split159
                                 ;     437 
                                 ;     438 			nv->index = nv_get_index("3", "mi");
                                 		.LINE  "C:\Workspace\e2studio\git\MT01_master\src\cnc\config.c",438
00000CFC EC06                    		MOV.L [R0], R6
00000CFE FB22rrrrrrrr            		MOV.L #_L26, R2
00000D04 FB12rrrrrrrr            		MOV.L #_L22, R1
00000D0A 39rrrr               W  		BSR _nv_get_index
00000D0D 9161                    		MOV.W R1, 08H[R6]
00000D0F                         L279:	; bb590.split160
                                 ;     439 			nv->value = M3_MICROSTEPS_MB;
                                 		.LINE  "C:\Workspace\e2studio\git\MT01_master\src\cnc\config.c",439
00000D0F EC01                    		MOV.L [R0], R1
00000D11 F9120400008042          		MOV.L #42800000H, 10H[R1]
00000D18                         L280:	; bb590.split161
                                 ;     440 			strncpy_P(nv->token, cfgArray[nv->index].token, TOKEN_LEN);
                                 		.LINE  "C:\Workspace\e2studio\git\MT01_master\src\cnc\config.c",440
00000D18 EC04                    		MOV.L [R0], R4
00000D1A B941                    		MOVU.W 08H[R4], R1
00000D1C 6C51                    		SHLL #05H, R1
00000D1E FB22rrrrrrrr            		MOV.L #_cfgArray, R2
00000D24 4B12                    		ADD R1, R2
00000D26 6242                    		ADD #04H, R2
00000D28 714118                  		ADD #18H, R4, R1
00000D2B 6653                    		MOV.L #00000005H, R3
00000D2D 7F87                    		SMOVU
00000D2F 71441D                  		ADD #1DH, R4
00000D32 EF41                    		MOV.L R4, R1
00000D34 4331                    		SUB R3, R1
00000D36 6602                    		MOV.L #00000000H, R2
00000D38 7F88                    		SSTR.B
00000D3A                         L281:	; bb590.split162
                                 ;     441 			nv_set(nv);
                                 		.LINE  "C:\Workspace\e2studio\git\MT01_master\src\cnc\config.c",441
00000D3A EC01                    		MOV.L [R0], R1
00000D3C 39rrrr               W  		BSR _nv_set
00000D3F                         L282:	; bb590.split163
                                 ;     442 			nv_persist(nv);
                                 		.LINE  "C:\Workspace\e2studio\git\MT01_master\src\cnc\config.c",442
00000D3F EC01                    		MOV.L [R0], R1
00000D41 39rrrr               W  		BSR _nv_persist
00000D44                         L283:	; bb590.split164
                                 ;     443 
                                 ;     444 			nv->index = nv_get_index("4", "mi");
                                 		.LINE  "C:\Workspace\e2studio\git\MT01_master\src\cnc\config.c",444
00000D44 EC06                    		MOV.L [R0], R6
00000D46 FB22rrrrrrrr            		MOV.L #_L26, R2
00000D4C FB12rrrrrrrr            		MOV.L #_L23, R1
00000D52 39rrrr               W  		BSR _nv_get_index
00000D55 9161                    		MOV.W R1, 08H[R6]
00000D57                         L284:	; bb590.split165
                                 ;     445 			nv->value = M4_MICROSTEPS_MB;
                                 		.LINE  "C:\Workspace\e2studio\git\MT01_master\src\cnc\config.c",445
00000D57 EC01                    		MOV.L [R0], R1
00000D59 F9120400008042          		MOV.L #42800000H, 10H[R1]
00000D60                         L285:	; bb590.split166
                                 ;     446 			strncpy_P(nv->token, cfgArray[nv->index].token, TOKEN_LEN);
                                 		.LINE  "C:\Workspace\e2studio\git\MT01_master\src\cnc\config.c",446
00000D60 EC04                    		MOV.L [R0], R4
00000D62 B941                    		MOVU.W 08H[R4], R1
00000D64 6C51                    		SHLL #05H, R1
00000D66 FB22rrrrrrrr            		MOV.L #_cfgArray, R2
00000D6C 4B12                    		ADD R1, R2
00000D6E 6242                    		ADD #04H, R2
00000D70 714118                  		ADD #18H, R4, R1
00000D73 6653                    		MOV.L #00000005H, R3
00000D75 7F87                    		SMOVU
00000D77 71441D                  		ADD #1DH, R4
00000D7A EF41                    		MOV.L R4, R1
00000D7C 4331                    		SUB R3, R1
00000D7E 6602                    		MOV.L #00000000H, R2
00000D80 7F88                    		SSTR.B
00000D82                         L286:	; bb590.split167
                                 ;     447 			nv_set(nv);
                                 		.LINE  "C:\Workspace\e2studio\git\MT01_master\src\cnc\config.c",447
00000D82 EC01                    		MOV.L [R0], R1
00000D84 39rrrr               W  		BSR _nv_set
00000D87                         L287:	; bb590.split168
                                 ;     448 			nv_persist(nv);
                                 		.LINE  "C:\Workspace\e2studio\git\MT01_master\src\cnc\config.c",448
00000D87 EC01                    		MOV.L [R0], R1
00000D89 39rrrr               W  		BSR _nv_persist
00000D8C                         L288:	; bb590.split169
                                 ;     449 			/*****************************************************************************************************/
                                 ;     450 			nv->index = nv_get_index("1", "po");
                                 		.LINE  "C:\Workspace\e2studio\git\MT01_master\src\cnc\config.c",450
00000D8C EC06                    		MOV.L [R0], R6
00000D8E FB22rrrrrrrr            		MOV.L #_L27, R2
00000D94 FB12rrrrrrrr            		MOV.L #_L24, R1
00000D9A 39rrrr               W  		BSR _nv_get_index
00000D9D 9161                    		MOV.W R1, 08H[R6]
00000D9F                         L289:	; bb590.split170
                                 ;     451 			nv->value = M1_POLARITY_MB;
                                 		.LINE  "C:\Workspace\e2studio\git\MT01_master\src\cnc\config.c",451
00000D9F EC01                    		MOV.L [R0], R1
00000DA1 3E1400                  		MOV.L #00000000H, 10H[R1]
00000DA4                         L290:	; bb590.split171
                                 ;     452 			strncpy_P(nv->token, cfgArray[nv->index].token, TOKEN_LEN);
                                 		.LINE  "C:\Workspace\e2studio\git\MT01_master\src\cnc\config.c",452
00000DA4 EC04                    		MOV.L [R0], R4
00000DA6 B941                    		MOVU.W 08H[R4], R1
00000DA8 6C51                    		SHLL #05H, R1
00000DAA FB22rrrrrrrr            		MOV.L #_cfgArray, R2
00000DB0 4B12                    		ADD R1, R2
00000DB2 6242                    		ADD #04H, R2
00000DB4 714118                  		ADD #18H, R4, R1
00000DB7 6653                    		MOV.L #00000005H, R3
00000DB9 7F87                    		SMOVU
00000DBB 71441D                  		ADD #1DH, R4
00000DBE EF41                    		MOV.L R4, R1
00000DC0 4331                    		SUB R3, R1
00000DC2 6602                    		MOV.L #00000000H, R2
00000DC4 7F88                    		SSTR.B
00000DC6                         L291:	; bb590.split172
                                 ;     453 			nv_set(nv);
                                 		.LINE  "C:\Workspace\e2studio\git\MT01_master\src\cnc\config.c",453
00000DC6 EC01                    		MOV.L [R0], R1
00000DC8 39rrrr               W  		BSR _nv_set
00000DCB                         L292:	; bb590.split173
                                 ;     454 			nv_persist(nv);
                                 		.LINE  "C:\Workspace\e2studio\git\MT01_master\src\cnc\config.c",454
00000DCB EC01                    		MOV.L [R0], R1
00000DCD 39rrrr               W  		BSR _nv_persist
00000DD0                         L293:	; bb590.split174
                                 ;     455 
                                 ;     456 			nv->index = nv_get_index("2", "po");
                                 		.LINE  "C:\Workspace\e2studio\git\MT01_master\src\cnc\config.c",456
00000DD0 EC06                    		MOV.L [R0], R6
00000DD2 FB22rrrrrrrr            		MOV.L #_L27, R2
00000DD8 FB12rrrrrrrr            		MOV.L #_L20, R1
00000DDE 39rrrr               W  		BSR _nv_get_index
00000DE1 9161                    		MOV.W R1, 08H[R6]
00000DE3                         L294:	; bb590.split175
                                 ;     457 			nv->value = M2_POLARITY_MB;
                                 		.LINE  "C:\Workspace\e2studio\git\MT01_master\src\cnc\config.c",457
00000DE3 EC01                    		MOV.L [R0], R1
00000DE5 3E1400                  		MOV.L #00000000H, 10H[R1]
00000DE8                         L295:	; bb590.split176
                                 ;     458 			strncpy_P(nv->token, cfgArray[nv->index].token, TOKEN_LEN);
                                 		.LINE  "C:\Workspace\e2studio\git\MT01_master\src\cnc\config.c",458
00000DE8 EC04                    		MOV.L [R0], R4
00000DEA B941                    		MOVU.W 08H[R4], R1
00000DEC 6C51                    		SHLL #05H, R1
00000DEE FB22rrrrrrrr            		MOV.L #_cfgArray, R2
00000DF4 4B12                    		ADD R1, R2
00000DF6 6242                    		ADD #04H, R2
00000DF8 714118                  		ADD #18H, R4, R1
00000DFB 6653                    		MOV.L #00000005H, R3
00000DFD 7F87                    		SMOVU
00000DFF 71441D                  		ADD #1DH, R4
00000E02 EF41                    		MOV.L R4, R1
00000E04 4331                    		SUB R3, R1
00000E06 6602                    		MOV.L #00000000H, R2
00000E08 7F88                    		SSTR.B
00000E0A                         L296:	; bb590.split177
                                 ;     459 			nv_set(nv);
                                 		.LINE  "C:\Workspace\e2studio\git\MT01_master\src\cnc\config.c",459
00000E0A EC01                    		MOV.L [R0], R1
00000E0C 39rrrr               W  		BSR _nv_set
00000E0F                         L297:	; bb590.split178
                                 ;     460 			nv_persist(nv);
                                 		.LINE  "C:\Workspace\e2studio\git\MT01_master\src\cnc\config.c",460
00000E0F EC01                    		MOV.L [R0], R1
00000E11 39rrrr               W  		BSR _nv_persist
00000E14                         L298:	; bb590.split179
                                 ;     461 
                                 ;     462 			nv->index = nv_get_index("3", "po");
                                 		.LINE  "C:\Workspace\e2studio\git\MT01_master\src\cnc\config.c",462
00000E14 EC06                    		MOV.L [R0], R6
00000E16 FB22rrrrrrrr            		MOV.L #_L27, R2
00000E1C FB12rrrrrrrr            		MOV.L #_L22, R1
00000E22 39rrrr               W  		BSR _nv_get_index
00000E25 9161                    		MOV.W R1, 08H[R6]
00000E27                         L299:	; bb590.split180
                                 ;     463 			nv->value = M3_POLARITY_MB;
                                 		.LINE  "C:\Workspace\e2studio\git\MT01_master\src\cnc\config.c",463
00000E27 EC01                    		MOV.L [R0], R1
00000E29 F912040000803F          		MOV.L #3F800000H, 10H[R1]
00000E30                         L300:	; bb590.split181
                                 ;     464 			strncpy_P(nv->token, cfgArray[nv->index].token, TOKEN_LEN);
                                 		.LINE  "C:\Workspace\e2studio\git\MT01_master\src\cnc\config.c",464
00000E30 EC04                    		MOV.L [R0], R4
00000E32 B941                    		MOVU.W 08H[R4], R1
00000E34 6C51                    		SHLL #05H, R1
00000E36 FB22rrrrrrrr            		MOV.L #_cfgArray, R2
00000E3C 4B12                    		ADD R1, R2
00000E3E 6242                    		ADD #04H, R2
00000E40 714118                  		ADD #18H, R4, R1
00000E43 6653                    		MOV.L #00000005H, R3
00000E45 7F87                    		SMOVU
00000E47 71441D                  		ADD #1DH, R4
00000E4A EF41                    		MOV.L R4, R1
00000E4C 4331                    		SUB R3, R1
00000E4E 6602                    		MOV.L #00000000H, R2
00000E50 7F88                    		SSTR.B
00000E52                         L301:	; bb590.split182
                                 ;     465 			nv_set(nv);
                                 		.LINE  "C:\Workspace\e2studio\git\MT01_master\src\cnc\config.c",465
00000E52 EC01                    		MOV.L [R0], R1
00000E54 39rrrr               W  		BSR _nv_set
00000E57                         L302:	; bb590.split183
                                 ;     466 			nv_persist(nv);
                                 		.LINE  "C:\Workspace\e2studio\git\MT01_master\src\cnc\config.c",466
00000E57 EC01                    		MOV.L [R0], R1
00000E59 39rrrr               W  		BSR _nv_persist
00000E5C                         L303:	; bb590.split184
                                 ;     467 
                                 ;     468 			nv->index = nv_get_index("4", "po");
                                 		.LINE  "C:\Workspace\e2studio\git\MT01_master\src\cnc\config.c",468
00000E5C EC06                    		MOV.L [R0], R6
00000E5E FB22rrrrrrrr            		MOV.L #_L27, R2
00000E64 FB12rrrrrrrr            		MOV.L #_L23, R1
00000E6A 39rrrr               W  		BSR _nv_get_index
00000E6D 9161                    		MOV.W R1, 08H[R6]
00000E6F                         L304:	; bb590.split185
                                 ;     469 			nv->value = M4_POLARITY_MB;
                                 		.LINE  "C:\Workspace\e2studio\git\MT01_master\src\cnc\config.c",469
00000E6F EC01                    		MOV.L [R0], R1
00000E71 3E1400                  		MOV.L #00000000H, 10H[R1]
00000E74                         L305:	; bb590.split186
                                 ;     470 			strncpy_P(nv->token, cfgArray[nv->index].token, TOKEN_LEN);
                                 		.LINE  "C:\Workspace\e2studio\git\MT01_master\src\cnc\config.c",470
00000E74 EC04                    		MOV.L [R0], R4
00000E76 B941                    		MOVU.W 08H[R4], R1
00000E78 6C51                    		SHLL #05H, R1
00000E7A FB22rrrrrrrr            		MOV.L #_cfgArray, R2
00000E80 4B12                    		ADD R1, R2
00000E82 6242                    		ADD #04H, R2
00000E84 714118                  		ADD #18H, R4, R1
00000E87 6653                    		MOV.L #00000005H, R3
00000E89 7F87                    		SMOVU
00000E8B 71441D                  		ADD #1DH, R4
00000E8E EF41                    		MOV.L R4, R1
00000E90 4331                    		SUB R3, R1
00000E92 6602                    		MOV.L #00000000H, R2
00000E94 7F88                    		SSTR.B
00000E96                         L306:	; bb590.split187
                                 ;     471 			nv_set(nv);
                                 		.LINE  "C:\Workspace\e2studio\git\MT01_master\src\cnc\config.c",471
00000E96 EC01                    		MOV.L [R0], R1
00000E98 39rrrr               W  		BSR _nv_set
00000E9B                         L307:	; bb590.split188
                                 ;     472 			nv_persist(nv);
                                 		.LINE  "C:\Workspace\e2studio\git\MT01_master\src\cnc\config.c",472
00000E9B EC01                    		MOV.L [R0], R1
00000E9D 39rrrr               W  		BSR _nv_persist
00000EA0 3F6604                  		RTSD #10H, R6-R6
00000EA3                         L308:	; return
                                 ;     473 			/*****************************************************************************************************/
                                 ;     474 		break;
                                 ;     475 	}
                                 ;     476 
                                 ;     477 }
                                 		.LINE  "C:\Workspace\e2studio\git\MT01_master\src\cnc\config.c",477
00000EA3 3F6604                  		RTSD #10H, R6-R6
00000EA6                         __$_set_defa:
                                 		.STACK	__$_set_defa=8
                                 ;     478 
                                 ;     479 /*
                                 ;     480  * set_defaults() - reset persistence with default values for machine profile
                                 ;     481  * _set_defa() - helper function and called directly from config_init()
                                 ;     482  */
                                 ;     483 
                                 ;     484 static void _set_defa(nvObj_t *nv)
                                 		.LINE  "C:\Workspace\e2studio\git\MT01_master\src\cnc\config.c",484
00000EA6 6040                    		SUB #04H, R0
00000EA8 E301                    		MOV.L R1, [R0]
00000EAA 6611                    		MOV.L #00000001H, R1
                                 ;     485 {
                                 ;     486 	cm_set_units_mode(MILLIMETERS);				// must do inits in MM mode
                                 		.LINE  "C:\Workspace\e2studio\git\MT01_master\src\cnc\config.c",486
00000EAC 05rrrrrr             A  		BSR _cm_set_units_mode
00000EB0                         L310:	; entry.split
                                 ;     487 	for (nv->index=0; nv_index_is_single(nv->index); nv->index++) {
                                 		.LINE  "C:\Workspace\e2studio\git\MT01_master\src\cnc\config.c",487
00000EB0 EC01                    		MOV.L [R0], R1
00000EB2 3D1400                  		MOV.W #0000H, 08H[R1]
00000EB5 2Err                 B  		BRA L317
00000EB7                         L311:	; bb4
                                 ;     488 		if (GET_TABLE_BYTE(flags) & F_INITIALIZE) {
                                 		.LINE  "C:\Workspace\e2studio\git\MT01_master\src\cnc\config.c",488
00000EB7 EC01                    		MOV.L [R0], R1
00000EB9 B911                    		MOVU.W 08H[R1], R1
00000EBB 6C51                    		SHLL #05H, R1
00000EBD FBE2rrrrrrrr            		MOV.L #_cfgArray, R14
00000EC3 4B1E                    		ADD R1, R14
00000EC5 F5E00A                  		BTST #00H, 0AH[R14].B
00000EC8 20rr                    		BEQ L316
00000ECA                         L312:	; bb5
                                 ;     489 			nv->value = GET_TABLE_FLOAT(def_value);
                                 		.LINE  "C:\Workspace\e2studio\git\MT01_master\src\cnc\config.c",489
00000ECA EC01                    		MOV.L [R0], R1
00000ECC B912                    		MOVU.W 08H[R1], R2
00000ECE 6C52                    		SHLL #05H, R2
00000ED0 FBE2rrrrrrrr            		MOV.L #_cfgArray, R14
00000ED6 4B2E                    		ADD R2, R14
00000ED8 E5E10704                		MOV.L 1CH[R14], 10H[R1]
00000EDC                         L313:	; bb5.split
                                 ;     490 			strncpy_P(nv->token, cfgArray[nv->index].token, TOKEN_LEN);
                                 		.LINE  "C:\Workspace\e2studio\git\MT01_master\src\cnc\config.c",490
00000EDC EC04                    		MOV.L [R0], R4
00000EDE B941                    		MOVU.W 08H[R4], R1
00000EE0 6C51                    		SHLL #05H, R1
00000EE2 FB22rrrrrrrr            		MOV.L #_cfgArray, R2
00000EE8 4B12                    		ADD R1, R2
00000EEA 6242                    		ADD #04H, R2
00000EEC 714118                  		ADD #18H, R4, R1
00000EEF 6653                    		MOV.L #00000005H, R3
00000EF1 7F87                    		SMOVU
00000EF3 71441D                  		ADD #1DH, R4
00000EF6 EF41                    		MOV.L R4, R1
00000EF8 4331                    		SUB R3, R1
00000EFA 6602                    		MOV.L #00000000H, R2
00000EFC 7F88                    		SSTR.B
00000EFE                         L314:	; bb5.split1
                                 ;     491 			nv_set(nv);
                                 		.LINE  "C:\Workspace\e2studio\git\MT01_master\src\cnc\config.c",491
00000EFE EC01                    		MOV.L [R0], R1
00000F00 39rrrr               W  		BSR _nv_set
00000F03                         L315:	; bb5.split2
                                 ;     492 			nv_persist(nv);
                                 		.LINE  "C:\Workspace\e2studio\git\MT01_master\src\cnc\config.c",492
00000F03 EC01                    		MOV.L [R0], R1
00000F05 39rrrr               W  		BSR _nv_persist
00000F08                         L316:	; bb40
00000F08 EC01                    		MOV.L [R0], R1
00000F0A 9912                    		MOV.W 08H[R1], R2
00000F0C 6212                    		ADD #01H, R2
00000F0E 9112                    		MOV.W R2, 08H[R1]
00000F10                         L317:	; bb45
                                 		.LINE  "C:\Workspace\e2studio\git\MT01_master\src\cnc\config.c",487
00000F10 EC01                    		MOV.L [R0], R1
00000F12 B911                    		MOVU.W 08H[R1], R1
00000F14 05rrrrrr             A  		BSR _nv_index_is_single
00000F18 6101                    		CMP #00H, R1
00000F1A 21rr                    		BNE L311
00000F1C                         L318:	; bb54
                                 ;     493 		}
                                 ;     494 	}
                                 ;     495 	sr_init_status_report();					// reset status reports
                                 		.LINE  "C:\Workspace\e2studio\git\MT01_master\src\cnc\config.c",495
00000F1C 05rrrrrr             A  		BSR _sr_init_status_report
00000F20                         L319:	; bb54.split
                                 ;     496 	rpt_print_initializing_message();			// don't start TX until all the NVM persistence is done
                                 		.LINE  "C:\Workspace\e2studio\git\MT01_master\src\cnc\config.c",496
00000F20 05rrrrrr             A  		BSR _rpt_print_initializing_message
00000F24 6701                    		RTSD #04H
00000F26                         _set_defaults:
                                 		.STACK	_set_defaults=12
                                 ;     497 }
                                 ;     498 
                                 ;     499 stat_t set_defaults(nvObj_t *nv)
                                 		.LINE  "C:\Workspace\e2studio\git\MT01_master\src\cnc\config.c",499
00000F26 6080                    		SUB #08H, R0
00000F28 A009                    		MOV.L R1, 04H[R0]
                                 ;     500 {
                                 ;     501 	// failsafe. nv->value must be true or no action occurs
                                 ;     502 	if (fp_FALSE(nv->value)) return(help_defa(nv));
                                 		.LINE  "C:\Workspace\e2studio\git\MT01_master\src\cnc\config.c",502
00000F2A A912                    		MOV.L 10H[R1], R2
00000F2C FD7212BD378635          		FCMP #358637BDH, R2
00000F33 26rr                    		BPZ L322
00000F35                         L321:	; bb2
00000F35 05rrrrrr             A  		BSR _help_defa
00000F39 8081                    		MOV.B R1, 02H[R0]
00000F3B 2Err                 B  		BRA L326
00000F3D                         L322:	; bb11
                                 ;     503 	_set_defa(nv);
                                 		.LINE  "C:\Workspace\e2studio\git\MT01_master\src\cnc\config.c",503
00000F3D 39rrrr               W  		BSR __$_set_defa
00000F40                         L323:	; bb11.split
                                 ;     504 
                                 ;     505 	// The values in nv are now garbage. Mark the nv as $defa so it displays nicely.
                                 ;     506 //	strncpy(nv->token, "defa", TOKEN_LEN);		// correct, but not required
                                 ;     507 //	nv->index = nv_get_index("", nv->token);	// correct, but not required
                                 ;     508 	nv->valuetype = TYPE_INTEGER;
                                 		.LINE  "C:\Workspace\e2studio\git\MT01_master\src\cnc\config.c",508
00000F40 A809                    		MOV.L 04H[R0], R1
00000F42 3C1B02                  		MOV.B #02H, 0BH[R1]
00000F45                         L324:	; bb11.split1
                                 ;     509 	nv->value = 1;
                                 		.LINE  "C:\Workspace\e2studio\git\MT01_master\src\cnc\config.c",509
00000F45 A809                    		MOV.L 04H[R0], R1
00000F47 F912040000803F          		MOV.L #3F800000H, 10H[R1]
00000F4E                         L325:	; bb11.split2
                                 ;     510 	return (STAT_OK);
                                 		.LINE  "C:\Workspace\e2studio\git\MT01_master\src\cnc\config.c",510
00000F4E 3C0200                  		MOV.B #00H, 02H[R0]
00000F51                         L326:	; bb18
00000F51 C5000203                		MOV.B 02H[R0], 03H[R0]
                                 ;     511 }
                                 		.LINE  "C:\Workspace\e2studio\git\MT01_master\src\cnc\config.c",511
00000F55 B089                    		MOVU.B 03H[R0], R1
00000F57 6702                    		RTSD #08H
00000F59                         _config_init_assertions:
                                 		.STACK	_config_init_assertions=4
                                 ;     512 
                                 ;     513 /*
                                 ;     514  * config_init_assertions()
                                 ;     515  * config_test_assertions() - check memory integrity of config sub-system
                                 ;     516  */
                                 ;     517 
                                 ;     518 void config_init_assertions()
                                 ;     519 {
                                 ;     520 	cfg.magic_start = MAGICNUM;
                                 		.LINE  "C:\Workspace\e2studio\git\MT01_master\src\cnc\config.c",520
00000F59 FBE2rrrrrrrr            		MOV.L #_cfg, R14
00000F5F F8E9EF12                		MOV.W #12EFH, [R14]
00000F63                         L328:	; entry.split
                                 ;     521 	cfg.magic_end = MAGICNUM;
                                 		.LINE  "C:\Workspace\e2studio\git\MT01_master\src\cnc\config.c",521
00000F63 FBE2rrrrrrrr            		MOV.L #_cfg, R14
00000F69 F9E924EF12              		MOV.W #12EFH, 48H[R14]
00000F6E                         L329:	; entry.split1
                                 ;     522 	nvl.magic_start = MAGICNUM;
                                 		.LINE  "C:\Workspace\e2studio\git\MT01_master\src\cnc\config.c",522
00000F6E FBE2rrrrrrrr            		MOV.L #_nvl, R14
00000F74 F8E9EF12                		MOV.W #12EFH, [R14]
00000F78                         L330:	; entry.split2
                                 ;     523 	nvl.magic_end = MAGICNUM;
                                 		.LINE  "C:\Workspace\e2studio\git\MT01_master\src\cnc\config.c",523
00000F78 FBE2rrrrrrrr            		MOV.L #_nvl, R14
00000F7E FAE94202EF12            		MOV.W #12EFH, 0484H[R14]
00000F84                         L331:	; entry.split3
                                 ;     524 	nvStr.magic_start = MAGICNUM;
                                 		.LINE  "C:\Workspace\e2studio\git\MT01_master\src\cnc\config.c",524
00000F84 FBE2rrrrrrrr            		MOV.L #_nvStr, R14
00000F8A F8E9EF12                		MOV.W #12EFH, [R14]
00000F8E                         L332:	; entry.split4
                                 ;     525 	nvStr.magic_end = MAGICNUM;
                                 		.LINE  "C:\Workspace\e2studio\git\MT01_master\src\cnc\config.c",525
00000F8E FBE2rrrrrrrr            		MOV.L #_nvStr, R14
00000F94 FAE90201EF12            		MOV.W #12EFH, 0204H[R14]
00000F9A 02                      		RTS
00000F9B                         _config_test_assertions:
                                 		.STACK	_config_test_assertions=12
                                 ;     526 }
                                 ;     527 
                                 ;     528 stat_t config_test_assertions()
                                 		.LINE  "C:\Workspace\e2studio\git\MT01_master\src\cnc\config.c",528
00000F9B 6080                    		SUB #08H, R0
                                 ;     529 {
                                 ;     530 	if ((cfg.magic_start	!= MAGICNUM) || (cfg.magic_end != MAGICNUM)) return (STAT_CONFIG_ASSERTION_FAILURE);
                                 		.LINE  "C:\Workspace\e2studio\git\MT01_master\src\cnc\config.c",530
00000F9D FBE2rrrrrrrr            		MOV.L #_cfg, R14
00000FA3 5CEE                    		MOVU.W [R14], R14
00000FA5 760EEF12                		CMP #12EFH, R14
00000FA9 21rr                    		BNE L336
00000FAB 08                   S  		BRA L335
00000FAC                         L334:	; bb1
00000FAC 3C065A                  		MOV.B #5AH, 06H[R0]
00000FAF 38rrrr               W  		BRA L354
00000FB2                         L335:	; bb7
00000FB2 FBE2rrrrrrrr            		MOV.L #_cfg, R14
00000FB8 5DEE24                  		MOVU.W 48H[R14], R14
00000FBB 760EEF12                		CMP #12EFH, R14
00000FBF 10                   S  		BEQ L337
00000FC0                         L336:	; bb12
00000FC0 F80601                  		MOV.L #00000001H, [R0]
00000FC3 08                   S  		BRA L338
00000FC4                         L337:	; bb13
00000FC4 F80600                  		MOV.L #00000000H, [R0]
00000FC7                         L338:	; bb14
00000FC7 EC01                    		MOV.L [R0], R1
00000FC9 6101                    		CMP #00H, R1
00000FCB 21rr                    		BNE L334
00000FCD                         L339:	; bb19
                                 ;     531 	if ((nvl.magic_start	!= MAGICNUM) || (nvl.magic_end != MAGICNUM)) return (STAT_CONFIG_ASSERTION_FAILURE);
                                 		.LINE  "C:\Workspace\e2studio\git\MT01_master\src\cnc\config.c",531
00000FCD FBE2rrrrrrrr            		MOV.L #_nvl, R14
00000FD3 5CEE                    		MOVU.W [R14], R14
00000FD5 760EEF12                		CMP #12EFH, R14
00000FD9 21rr                    		BNE L342
00000FDB 08                   S  		BRA L341
00000FDC                         L340:	; bb20
00000FDC 3C065A                  		MOV.B #5AH, 06H[R0]
00000FDF 2Err                 B  		BRA L354
00000FE1                         L341:	; bb26
00000FE1 FBE2rrrrrrrr            		MOV.L #_nvl, R14
00000FE7 5EEE4202                		MOVU.W 0484H[R14], R14
00000FEB 760EEF12                		CMP #12EFH, R14
00000FEF 10                   S  		BEQ L343
00000FF0                         L342:	; bb31
00000FF0 F80601                  		MOV.L #00000001H, [R0]
00000FF3 08                   S  		BRA L344
00000FF4                         L343:	; bb32
00000FF4 F80600                  		MOV.L #00000000H, [R0]
00000FF7                         L344:	; bb33
00000FF7 EC01                    		MOV.L [R0], R1
00000FF9 6101                    		CMP #00H, R1
00000FFB 21rr                    		BNE L340
00000FFD                         L345:	; bb39
                                 ;     532 	if ((nvStr.magic_start	!= MAGICNUM) || (nvStr.magic_end != MAGICNUM)) return (STAT_CONFIG_ASSERTION_FAILURE);
                                 		.LINE  "C:\Workspace\e2studio\git\MT01_master\src\cnc\config.c",532
00000FFD FBE2rrrrrrrr            		MOV.L #_nvStr, R14
00001003 5CEE                    		MOVU.W [R14], R14
00001005 760EEF12                		CMP #12EFH, R14
00001009 21rr                    		BNE L348
0000100B 08                   S  		BRA L347
0000100C                         L346:	; bb40
0000100C 3C065A                  		MOV.B #5AH, 06H[R0]
0000100F 2Err                 B  		BRA L354
00001011                         L347:	; bb46
00001011 FBE2rrrrrrrr            		MOV.L #_nvStr, R14
00001017 5EEE0201                		MOVU.W 0204H[R14], R14
0000101B 760EEF12                		CMP #12EFH, R14
0000101F 10                   S  		BEQ L349
00001020                         L348:	; bb51
00001020 F80601                  		MOV.L #00000001H, [R0]
00001023 08                   S  		BRA L350
00001024                         L349:	; bb52
00001024 F80600                  		MOV.L #00000000H, [R0]
00001027                         L350:	; bb53
00001027 EC01                    		MOV.L [R0], R1
00001029 6101                    		CMP #00H, R1
0000102B 21rr                    		BNE L346
0000102D                         L351:	; bb59
                                 ;     533 	if (global_string_buf[MESSAGE_LEN-1] != NUL) return (STAT_CONFIG_ASSERTION_FAILURE);
                                 		.LINE  "C:\Workspace\e2studio\git\MT01_master\src\cnc\config.c",533
0000102D FBE2rrrrrrrr            		MOV.L #_global_string_buf, R14
00001033 59EE4F                  		MOVU.B 4FH[R14], R14
00001036 610E                    		CMP #00H, R14
00001038 10                   S  		BEQ L353
00001039                         L352:	; bb60
00001039 3C065A                  		MOV.B #5AH, 06H[R0]
0000103C 08                   S  		BRA L354
0000103D                         L353:	; bb67
                                 ;     534 	return (STAT_OK);
                                 		.LINE  "C:\Workspace\e2studio\git\MT01_master\src\cnc\config.c",534
0000103D 3C0600                  		MOV.B #00H, 06H[R0]
00001040                         L354:	; bb69
00001040 C5000607                		MOV.B 06H[R0], 07H[R0]
                                 ;     535 }
                                 		.LINE  "C:\Workspace\e2studio\git\MT01_master\src\cnc\config.c",535
00001044 B189                    		MOVU.B 07H[R0], R1
00001046 6702                    		RTSD #08H
00001048                         _get_nul:
                                 		.STACK	_get_nul=12
                                 ;     536 
                                 ;     537 /***** Generic Internal Functions *********************************************/
                                 ;     538 
                                 ;     539 /* Generic gets()
                                 ;     540  *	get_nul()  - get nothing (returns STAT_PARAMETER_CANNOT_BE_READ)
                                 ;     541  *	get_ui8()  - get value as 8 bit uint8_t
                                 ;     542  *	get_int()  - get value as 32 bit integer
                                 ;     543  *	get_data() - get value as 32 bit integer blind cast
                                 ;     544  *	get_flt()  - get value as float
                                 ;     545  *	get_format() - internal accessor for printf() format string
                                 ;     546  */
                                 ;     547 stat_t get_nul(nvObj_t *nv)
                                 		.LINE  "C:\Workspace\e2studio\git\MT01_master\src\cnc\config.c",547
00001048 6080                    		SUB #08H, R0
0000104A A009                    		MOV.L R1, 04H[R0]
                                 ;     548 {
                                 ;     549 	nv->valuetype = TYPE_NULL;
                                 		.LINE  "C:\Workspace\e2studio\git\MT01_master\src\cnc\config.c",549
0000104C 3C1B00                  		MOV.B #00H, 0BH[R1]
0000104F                         L356:	; entry.split
                                 ;     550 	return (STAT_PARAMETER_CANNOT_BE_READ);
                                 		.LINE  "C:\Workspace\e2studio\git\MT01_master\src\cnc\config.c",550
0000104F 3C0369                  		MOV.B #69H, 03H[R0]
00001052 B089                    		MOVU.B 03H[R0], R1
00001054                         L357:	; entry.split1
                                 ;     551 }
                                 		.LINE  "C:\Workspace\e2studio\git\MT01_master\src\cnc\config.c",551
00001054 5B11                    		MOVU.B R1, R1
00001056 6702                    		RTSD #08H
00001058                         _get_ui8:
                                 		.STACK	_get_ui8=12
                                 ;     552 
                                 ;     553 stat_t get_ui8(nvObj_t *nv)
                                 		.LINE  "C:\Workspace\e2studio\git\MT01_master\src\cnc\config.c",553
00001058 6080                    		SUB #08H, R0
0000105A A009                    		MOV.L R1, 04H[R0]
                                 ;     554 {
                                 ;     555 	nv->value = (float)*((uint8_t *)GET_TABLE_WORD(target));
                                 		.LINE  "C:\Workspace\e2studio\git\MT01_master\src\cnc\config.c",555
0000105C B912                    		MOVU.W 08H[R1], R2
0000105E 6C52                    		SHLL #05H, R2
00001060 FB32rrrrrrrr            		MOV.L #_cfgArray, R3
00001066 4B23                    		ADD R2, R3
00001068 A9B2                    		MOV.L 18H[R3], R2
0000106A FC4422                  		ITOF [R2].UB, R2
0000106D A112                    		MOV.L R2, 10H[R1]
0000106F                         L359:	; entry.split
                                 ;     556 	nv->valuetype = TYPE_INTEGER;
                                 		.LINE  "C:\Workspace\e2studio\git\MT01_master\src\cnc\config.c",556
0000106F A809                    		MOV.L 04H[R0], R1
00001071 3C1B02                  		MOV.B #02H, 0BH[R1]
00001074                         L360:	; entry.split1
                                 ;     557 	return (STAT_OK);
                                 		.LINE  "C:\Workspace\e2studio\git\MT01_master\src\cnc\config.c",557
00001074 3C0300                  		MOV.B #00H, 03H[R0]
00001077 B089                    		MOVU.B 03H[R0], R1
00001079                         L361:	; entry.split2
                                 ;     558 }
                                 		.LINE  "C:\Workspace\e2studio\git\MT01_master\src\cnc\config.c",558
00001079 5B11                    		MOVU.B R1, R1
0000107B 6702                    		RTSD #08H
0000107D                         _get_int:
                                 		.STACK	_get_int=12
                                 ;     559 
                                 ;     560 stat_t get_int(nvObj_t *nv)
                                 		.LINE  "C:\Workspace\e2studio\git\MT01_master\src\cnc\config.c",560
0000107D 6080                    		SUB #08H, R0
0000107F A009                    		MOV.L R1, 04H[R0]
                                 ;     561 {
                                 ;     562 //	nv->value = (float)*((uint32_t *)GET_TABLE_WORD(target));
                                 ;     563 	nv->value = *((uint32_t *)GET_TABLE_WORD(target));
                                 		.LINE  "C:\Workspace\e2studio\git\MT01_master\src\cnc\config.c",563
00001081 B912                    		MOVU.W 08H[R1], R2
00001083 6C52                    		SHLL #05H, R2
00001085 FB32rrrrrrrr            		MOV.L #_cfgArray, R3
0000108B 4B23                    		ADD R2, R3
0000108D A9B2                    		MOV.L 18H[R3], R2
0000108F EC2E                    		MOV.L [R2], R14
00001091 7DFE                    		BTST #1FH, R14
00001093 20rr                    		BEQ L364
00001095                         L363:	; entry
00001095 FD81EF                  		SHLR #01H, R14, R15
00001098 641E                    		AND #01H, R14
0000109A 57FE                    		OR R15, R14
0000109C FC47EE                  		ITOF R14, R14
0000109F FC8BEE                  		FADD R14, R14
000010A2 08                   S  		BRA L365
000010A3                         L364:	; entry
000010A3 FC47EE                  		ITOF R14, R14
000010A6                         L365:	; entry
000010A6 E71E04                  		MOV.L R14, 10H[R1]
000010A9                         L366:	; entry.split
                                 ;     564 	nv->valuetype = TYPE_INTEGER;
                                 		.LINE  "C:\Workspace\e2studio\git\MT01_master\src\cnc\config.c",564
000010A9 A809                    		MOV.L 04H[R0], R1
000010AB 3C1B02                  		MOV.B #02H, 0BH[R1]
000010AE                         L367:	; entry.split1
                                 ;     565 	return (STAT_OK);
                                 		.LINE  "C:\Workspace\e2studio\git\MT01_master\src\cnc\config.c",565
000010AE 3C0300                  		MOV.B #00H, 03H[R0]
000010B1 B089                    		MOVU.B 03H[R0], R1
000010B3                         L368:	; entry.split2
                                 ;     566 }
                                 		.LINE  "C:\Workspace\e2studio\git\MT01_master\src\cnc\config.c",566
000010B3 5B11                    		MOVU.B R1, R1
000010B5 6702                    		RTSD #08H
000010B7                         _get_data:
                                 		.STACK	_get_data=16
                                 ;     567 
                                 ;     568 stat_t get_data(nvObj_t *nv)
                                 		.LINE  "C:\Workspace\e2studio\git\MT01_master\src\cnc\config.c",568
000010B7 60C0                    		SUB #0CH, R0
000010B9 A081                    		MOV.L R1, 08H[R0]
                                 ;     569 {
                                 ;     570 	uint32_t *v = (uint32_t*)&nv->value;
                                 		.LINE  "C:\Workspace\e2studio\git\MT01_master\src\cnc\config.c",570
000010BB 711110                  		ADD #10H, R1
000010BE E301                    		MOV.L R1, [R0]
000010C0                         L370:	; entry.split
                                 ;     571 	*v = *((uint32_t *)GET_TABLE_WORD(target));
                                 		.LINE  "C:\Workspace\e2studio\git\MT01_master\src\cnc\config.c",571
000010C0 A881                    		MOV.L 08H[R0], R1
000010C2 B911                    		MOVU.W 08H[R1], R1
000010C4 6C51                    		SHLL #05H, R1
000010C6 FB22rrrrrrrr            		MOV.L #_cfgArray, R2
000010CC 4B12                    		ADD R1, R2
000010CE A9A1                    		MOV.L 18H[R2], R1
000010D0 EC02                    		MOV.L [R0], R2
000010D2 E012                    		MOV.L [R1], [R2]
000010D4                         L371:	; entry.split1
                                 ;     572 	nv->valuetype = TYPE_DATA;
                                 		.LINE  "C:\Workspace\e2studio\git\MT01_master\src\cnc\config.c",572
000010D4 A881                    		MOV.L 08H[R0], R1
000010D6 3C1B03                  		MOV.B #03H, 0BH[R1]
000010D9                         L372:	; entry.split2
                                 ;     573 	return (STAT_OK);
                                 		.LINE  "C:\Workspace\e2studio\git\MT01_master\src\cnc\config.c",573
000010D9 3C0700                  		MOV.B #00H, 07H[R0]
000010DC B189                    		MOVU.B 07H[R0], R1
000010DE                         L373:	; entry.split3
                                 ;     574 }
                                 		.LINE  "C:\Workspace\e2studio\git\MT01_master\src\cnc\config.c",574
000010DE 5B11                    		MOVU.B R1, R1
000010E0 6703                    		RTSD #0CH
000010E2                         _get_flt:
                                 		.STACK	_get_flt=12
                                 ;     575 
                                 ;     576 stat_t get_flt(nvObj_t *nv)
                                 		.LINE  "C:\Workspace\e2studio\git\MT01_master\src\cnc\config.c",576
000010E2 6080                    		SUB #08H, R0
000010E4 A009                    		MOV.L R1, 04H[R0]
                                 ;     577 {
                                 ;     578 	nv->value = *((float *)GET_TABLE_WORD(target));
                                 		.LINE  "C:\Workspace\e2studio\git\MT01_master\src\cnc\config.c",578
000010E6 B912                    		MOVU.W 08H[R1], R2
000010E8 6C52                    		SHLL #05H, R2
000010EA FB32rrrrrrrr            		MOV.L #_cfgArray, R3
000010F0 4B23                    		ADD R2, R3
000010F2 A9B2                    		MOV.L 18H[R3], R2
000010F4 E42104                  		MOV.L [R2], 10H[R1]
000010F7                         L375:	; entry.split
                                 ;     579 	nv->precision = (int8_t)GET_TABLE_WORD(precision);
                                 		.LINE  "C:\Workspace\e2studio\git\MT01_master\src\cnc\config.c",579
000010F7 A809                    		MOV.L 04H[R0], R1
000010F9 B912                    		MOVU.W 08H[R1], R2
000010FB 6C52                    		SHLL #05H, R2
000010FD FBE2rrrrrrrr            		MOV.L #_cfgArray, R14
00001103 4B2E                    		ADD R2, R14
00001105 C5E10B0C                		MOV.B 0BH[R14], 0CH[R1]
00001109                         L376:	; entry.split1
                                 ;     580 	nv->valuetype = TYPE_FLOAT;
                                 		.LINE  "C:\Workspace\e2studio\git\MT01_master\src\cnc\config.c",580
00001109 A809                    		MOV.L 04H[R0], R1
0000110B 3C1B04                  		MOV.B #04H, 0BH[R1]
0000110E                         L377:	; entry.split2
                                 ;     581 	return (STAT_OK);
                                 		.LINE  "C:\Workspace\e2studio\git\MT01_master\src\cnc\config.c",581
0000110E 3C0300                  		MOV.B #00H, 03H[R0]
00001111 B089                    		MOVU.B 03H[R0], R1
00001113                         L378:	; entry.split3
                                 ;     582 }
                                 		.LINE  "C:\Workspace\e2studio\git\MT01_master\src\cnc\config.c",582
00001113 5B11                    		MOVU.B R1, R1
00001115 6702                    		RTSD #08H
00001117                         _set_nul:
                                 		.STACK	_set_nul=12
                                 ;     583 
                                 ;     584 /* Generic sets()
                                 ;     585  *	set_nul()  - set nothing (returns STAT_PARAMETER_IS_READ_ONLY)
                                 ;     586  *	set_ui8()  - set value as 8 bit uint8_t value
                                 ;     587  *	set_01()   - set a 0 or 1 uint8_t value with validation
                                 ;     588  *	set_012()  - set a 0, 1 or 2 uint8_t value with validation
                                 ;     589  *	set_0123() - set a 0, 1, 2 or 3 uint8_t value with validation
                                 ;     590  *	set_int()  - set value as 32 bit integer
                                 ;     591  *	set_data() - set value as 32 bit integer blind cast
                                 ;     592  *	set_flt()  - set value as float
                                 ;     593  */
                                 ;     594 stat_t set_nul(nvObj_t *nv) { return (STAT_PARAMETER_IS_READ_ONLY); }
                                 		.LINE  "C:\Workspace\e2studio\git\MT01_master\src\cnc\config.c",594
00001117 6080                    		SUB #08H, R0
00001119 A009                    		MOV.L R1, 04H[R0]
0000111B 3C0368                  		MOV.B #68H, 03H[R0]
0000111E B089                    		MOVU.B 03H[R0], R1
00001120 6702                    		RTSD #08H
00001122                         _set_ui8:
                                 		.STACK	_set_ui8=12
                                 ;     595 
                                 ;     596 stat_t set_ui8(nvObj_t *nv)
                                 		.LINE  "C:\Workspace\e2studio\git\MT01_master\src\cnc\config.c",596
00001122 6080                    		SUB #08H, R0
00001124 A009                    		MOV.L R1, 04H[R0]
                                 ;     597 {
                                 ;     598 	*((uint8_t *)GET_TABLE_WORD(target)) = nv->value;
                                 		.LINE  "C:\Workspace\e2studio\git\MT01_master\src\cnc\config.c",598
00001126 B912                    		MOVU.W 08H[R1], R2
00001128 6C52                    		SHLL #05H, R2
0000112A FB32rrrrrrrr            		MOV.L #_cfgArray, R3
00001130 4B23                    		ADD R2, R3
00001132 A9B2                    		MOV.L 18H[R3], R2
00001134 A911                    		MOV.L 10H[R1], R1
00001136 FD72110000004F          		FCMP #4F000000H, R1
0000113D 29rr                    		BLT L382
0000113F                         L381:	; entry
0000113F FD7221000080CF          		FADD #0CF800000H, R1
00001146                         L382:	; entry
00001146 FC971E                  		FTOI R1, R14
00001149 C32E                    		MOV.B R14, [R2]
0000114B                         L383:	; entry.split
                                 ;     599 	nv->valuetype = TYPE_INTEGER;
                                 		.LINE  "C:\Workspace\e2studio\git\MT01_master\src\cnc\config.c",599
0000114B A809                    		MOV.L 04H[R0], R1
0000114D 3C1B02                  		MOV.B #02H, 0BH[R1]
00001150                         L384:	; entry.split1
                                 ;     600 	return(STAT_OK);
                                 		.LINE  "C:\Workspace\e2studio\git\MT01_master\src\cnc\config.c",600
00001150 3C0300                  		MOV.B #00H, 03H[R0]
00001153 B089                    		MOVU.B 03H[R0], R1
00001155                         L385:	; entry.split2
                                 ;     601 }
                                 		.LINE  "C:\Workspace\e2studio\git\MT01_master\src\cnc\config.c",601
00001155 5B11                    		MOVU.B R1, R1
00001157 6702                    		RTSD #08H
00001159                         _set_01:
                                 		.STACK	_set_01=12
                                 ;     602 
                                 ;     603 stat_t set_01(nvObj_t *nv)
                                 		.LINE  "C:\Workspace\e2studio\git\MT01_master\src\cnc\config.c",603
00001159 6080                    		SUB #08H, R0
0000115B A009                    		MOV.L R1, 04H[R0]
                                 ;     604 {
                                 ;     605 	if ((uint8_t)nv->value > 1)
                                 		.LINE  "C:\Workspace\e2studio\git\MT01_master\src\cnc\config.c",605
0000115D A911                    		MOV.L 10H[R1], R1
0000115F FD72110000004F          		FCMP #4F000000H, R1
00001166 29rr                    		BLT L388
00001168                         L387:	; entry
00001168 FD7221000080CF          		FADD #0CF800000H, R1
0000116F                         L388:	; entry
0000116F FC971E                  		FTOI R1, R14
00001172 5BEE                    		MOVU.B R14, R14
00001174 612E                    		CMP #02H, R14
00001176 29rr                    		BLT L390
00001178                         L389:	; bb2
                                 ;     606         return (STAT_INPUT_VALUE_RANGE_ERROR);	// if
                                 		.LINE  "C:\Workspace\e2studio\git\MT01_master\src\cnc\config.c",606
00001178 3C026E                  		MOV.B #6EH, 02H[R0]
0000117B 08                   S  		BRA L391
0000117C                         L390:	; bb11
                                 ;     607 	return (set_ui8(nv));						// else
                                 		.LINE  "C:\Workspace\e2studio\git\MT01_master\src\cnc\config.c",607
0000117C A809                    		MOV.L 04H[R0], R1
0000117E 39rrrr               W  		BSR _set_ui8
00001181 8081                    		MOV.B R1, 02H[R0]
00001183                         L391:	; bb15
00001183 C5000203                		MOV.B 02H[R0], 03H[R0]
                                 ;     608 }
                                 		.LINE  "C:\Workspace\e2studio\git\MT01_master\src\cnc\config.c",608
00001187 B089                    		MOVU.B 03H[R0], R1
00001189 6702                    		RTSD #08H
0000118B                         _set_012:
                                 		.STACK	_set_012=12
                                 ;     609 
                                 ;     610 stat_t set_012(nvObj_t *nv)
                                 		.LINE  "C:\Workspace\e2studio\git\MT01_master\src\cnc\config.c",610
0000118B 6080                    		SUB #08H, R0
0000118D A009                    		MOV.L R1, 04H[R0]
                                 ;     611 {
                                 ;     612 	if ((uint8_t)nv->value > 2)
                                 		.LINE  "C:\Workspace\e2studio\git\MT01_master\src\cnc\config.c",612
0000118F A911                    		MOV.L 10H[R1], R1
00001191 FD72110000004F          		FCMP #4F000000H, R1
00001198 29rr                    		BLT L394
0000119A                         L393:	; entry
0000119A FD7221000080CF          		FADD #0CF800000H, R1
000011A1                         L394:	; entry
000011A1 FC971E                  		FTOI R1, R14
000011A4 5BEE                    		MOVU.B R14, R14
000011A6 613E                    		CMP #03H, R14
000011A8 29rr                    		BLT L396
000011AA                         L395:	; bb2
                                 ;     613         return (STAT_INPUT_VALUE_RANGE_ERROR);	// if
                                 		.LINE  "C:\Workspace\e2studio\git\MT01_master\src\cnc\config.c",613
000011AA 3C026E                  		MOV.B #6EH, 02H[R0]
000011AD 08                   S  		BRA L397
000011AE                         L396:	; bb11
                                 ;     614 	return (set_ui8(nv));						// else
                                 		.LINE  "C:\Workspace\e2studio\git\MT01_master\src\cnc\config.c",614
000011AE A809                    		MOV.L 04H[R0], R1
000011B0 39rrrr               W  		BSR _set_ui8
000011B3 8081                    		MOV.B R1, 02H[R0]
000011B5                         L397:	; bb15
000011B5 C5000203                		MOV.B 02H[R0], 03H[R0]
                                 ;     615 }
                                 		.LINE  "C:\Workspace\e2studio\git\MT01_master\src\cnc\config.c",615
000011B9 B089                    		MOVU.B 03H[R0], R1
000011BB 6702                    		RTSD #08H
000011BD                         _set_0123:
                                 		.STACK	_set_0123=12
                                 ;     616 
                                 ;     617 stat_t set_0123(nvObj_t *nv)
                                 		.LINE  "C:\Workspace\e2studio\git\MT01_master\src\cnc\config.c",617
000011BD 6080                    		SUB #08H, R0
000011BF A009                    		MOV.L R1, 04H[R0]
                                 ;     618 {
                                 ;     619 	if ((uint8_t)nv->value > 3)
                                 		.LINE  "C:\Workspace\e2studio\git\MT01_master\src\cnc\config.c",619
000011C1 A911                    		MOV.L 10H[R1], R1
000011C3 FD72110000004F          		FCMP #4F000000H, R1
000011CA 29rr                    		BLT L400
000011CC                         L399:	; entry
000011CC FD7221000080CF          		FADD #0CF800000H, R1
000011D3                         L400:	; entry
000011D3 FC971E                  		FTOI R1, R14
000011D6 5BEE                    		MOVU.B R14, R14
000011D8 614E                    		CMP #04H, R14
000011DA 29rr                    		BLT L402
000011DC                         L401:	; bb2
                                 ;     620         return (STAT_INPUT_VALUE_RANGE_ERROR);	// if
                                 		.LINE  "C:\Workspace\e2studio\git\MT01_master\src\cnc\config.c",620
000011DC 3C026E                  		MOV.B #6EH, 02H[R0]
000011DF 08                   S  		BRA L403
000011E0                         L402:	; bb11
                                 ;     621 	return (set_ui8(nv));						// else
                                 		.LINE  "C:\Workspace\e2studio\git\MT01_master\src\cnc\config.c",621
000011E0 A809                    		MOV.L 04H[R0], R1
000011E2 39rrrr               W  		BSR _set_ui8
000011E5 8081                    		MOV.B R1, 02H[R0]
000011E7                         L403:	; bb15
000011E7 C5000203                		MOV.B 02H[R0], 03H[R0]
                                 ;     622 }
                                 		.LINE  "C:\Workspace\e2studio\git\MT01_master\src\cnc\config.c",622
000011EB B089                    		MOVU.B 03H[R0], R1
000011ED 6702                    		RTSD #08H
000011EF                         _set_int:
                                 		.STACK	_set_int=12
                                 ;     623 
                                 ;     624 stat_t set_int(nvObj_t *nv)
                                 		.LINE  "C:\Workspace\e2studio\git\MT01_master\src\cnc\config.c",624
000011EF 6080                    		SUB #08H, R0
000011F1 A009                    		MOV.L R1, 04H[R0]
                                 ;     625 {
                                 ;     626 	*((uint32_t *)GET_TABLE_WORD(target)) = (uint32_t)nv->value;
                                 		.LINE  "C:\Workspace\e2studio\git\MT01_master\src\cnc\config.c",626
000011F3 B912                    		MOVU.W 08H[R1], R2
000011F5 6C52                    		SHLL #05H, R2
000011F7 FB32rrrrrrrr            		MOV.L #_cfgArray, R3
000011FD 4B23                    		ADD R2, R3
000011FF A9B2                    		MOV.L 18H[R3], R2
00001201 A911                    		MOV.L 10H[R1], R1
00001203 FD72110000004F          		FCMP #4F000000H, R1
0000120A 29rr                    		BLT L406
0000120C                         L405:	; entry
0000120C FD7221000080CF          		FADD #0CF800000H, R1
00001213                         L406:	; entry
00001213 FC971E                  		FTOI R1, R14
00001216 E32E                    		MOV.L R14, [R2]
00001218                         L407:	; entry.split
                                 ;     627 	nv->valuetype = TYPE_INTEGER;
                                 		.LINE  "C:\Workspace\e2studio\git\MT01_master\src\cnc\config.c",627
00001218 A809                    		MOV.L 04H[R0], R1
0000121A 3C1B02                  		MOV.B #02H, 0BH[R1]
0000121D                         L408:	; entry.split1
                                 ;     628 	return(STAT_OK);
                                 		.LINE  "C:\Workspace\e2studio\git\MT01_master\src\cnc\config.c",628
0000121D 3C0300                  		MOV.B #00H, 03H[R0]
00001220 B089                    		MOVU.B 03H[R0], R1
00001222                         L409:	; entry.split2
                                 ;     629 }
                                 		.LINE  "C:\Workspace\e2studio\git\MT01_master\src\cnc\config.c",629
00001222 5B11                    		MOVU.B R1, R1
00001224 6702                    		RTSD #08H
00001226                         _set_data:
                                 		.STACK	_set_data=16
                                 ;     630 
                                 ;     631 stat_t set_data(nvObj_t *nv)
                                 		.LINE  "C:\Workspace\e2studio\git\MT01_master\src\cnc\config.c",631
00001226 60C0                    		SUB #0CH, R0
00001228 A081                    		MOV.L R1, 08H[R0]
                                 ;     632 {
                                 ;     633 	uint32_t *v = (uint32_t*)&nv->value;
                                 		.LINE  "C:\Workspace\e2studio\git\MT01_master\src\cnc\config.c",633
0000122A 711110                  		ADD #10H, R1
0000122D E301                    		MOV.L R1, [R0]
0000122F                         L411:	; entry.split
                                 ;     634 	*((uint32_t *)GET_TABLE_WORD(target)) = *v;
                                 		.LINE  "C:\Workspace\e2studio\git\MT01_master\src\cnc\config.c",634
0000122F A881                    		MOV.L 08H[R0], R1
00001231 B911                    		MOVU.W 08H[R1], R1
00001233 6C51                    		SHLL #05H, R1
00001235 FB22rrrrrrrr            		MOV.L #_cfgArray, R2
0000123B 4B12                    		ADD R1, R2
0000123D A9A1                    		MOV.L 18H[R2], R1
0000123F EC02                    		MOV.L [R0], R2
00001241 E021                    		MOV.L [R2], [R1]
00001243                         L412:	; entry.split1
                                 ;     635 	nv->valuetype = TYPE_DATA;
                                 		.LINE  "C:\Workspace\e2studio\git\MT01_master\src\cnc\config.c",635
00001243 A881                    		MOV.L 08H[R0], R1
00001245 3C1B03                  		MOV.B #03H, 0BH[R1]
00001248                         L413:	; entry.split2
                                 ;     636 	return(STAT_OK);
                                 		.LINE  "C:\Workspace\e2studio\git\MT01_master\src\cnc\config.c",636
00001248 3C0700                  		MOV.B #00H, 07H[R0]
0000124B B189                    		MOVU.B 07H[R0], R1
0000124D                         L414:	; entry.split3
                                 ;     637 }
                                 		.LINE  "C:\Workspace\e2studio\git\MT01_master\src\cnc\config.c",637
0000124D 5B11                    		MOVU.B R1, R1
0000124F 6703                    		RTSD #0CH
00001251                         _set_flt:
                                 		.STACK	_set_flt=12
                                 ;     638 
                                 ;     639 stat_t set_flt(nvObj_t *nv)
                                 		.LINE  "C:\Workspace\e2studio\git\MT01_master\src\cnc\config.c",639
00001251 6080                    		SUB #08H, R0
00001253 A009                    		MOV.L R1, 04H[R0]
                                 ;     640 {
                                 ;     641 	*((float *)GET_TABLE_WORD(target)) = nv->value;
                                 		.LINE  "C:\Workspace\e2studio\git\MT01_master\src\cnc\config.c",641
00001255 B912                    		MOVU.W 08H[R1], R2
00001257 6C52                    		SHLL #05H, R2
00001259 FB32rrrrrrrr            		MOV.L #_cfgArray, R3
0000125F 4B23                    		ADD R2, R3
00001261 A9B2                    		MOV.L 18H[R3], R2
00001263 E11204                  		MOV.L 10H[R1], [R2]
00001266                         L416:	; entry.split
                                 ;     642 	nv->precision = GET_TABLE_WORD(precision);
                                 		.LINE  "C:\Workspace\e2studio\git\MT01_master\src\cnc\config.c",642
00001266 A809                    		MOV.L 04H[R0], R1
00001268 B912                    		MOVU.W 08H[R1], R2
0000126A 6C52                    		SHLL #05H, R2
0000126C FBE2rrrrrrrr            		MOV.L #_cfgArray, R14
00001272 4B2E                    		ADD R2, R14
00001274 C5E10B0C                		MOV.B 0BH[R14], 0CH[R1]
00001278                         L417:	; entry.split1
                                 ;     643 	nv->valuetype = TYPE_FLOAT;
                                 		.LINE  "C:\Workspace\e2studio\git\MT01_master\src\cnc\config.c",643
00001278 A809                    		MOV.L 04H[R0], R1
0000127A 3C1B04                  		MOV.B #04H, 0BH[R1]
0000127D                         L418:	; entry.split2
                                 ;     644 	return(STAT_OK);
                                 		.LINE  "C:\Workspace\e2studio\git\MT01_master\src\cnc\config.c",644
0000127D 3C0300                  		MOV.B #00H, 03H[R0]
00001280 B089                    		MOVU.B 03H[R0], R1
00001282                         L419:	; entry.split3
                                 ;     645 }
                                 		.LINE  "C:\Workspace\e2studio\git\MT01_master\src\cnc\config.c",645
00001282 5B11                    		MOVU.B R1, R1
00001284 6702                    		RTSD #08H
00001286                         _get_grp:
                                 		.STACK	_get_grp=20
                                 ;     646 
                                 ;     647 /************************************************************************************
                                 ;     648  * Group operations
                                 ;     649  *
                                 ;     650  *	Group operations work on parent/child groups where the parent is one of:
                                 ;     651  *	  axis group 			x,y,z,a,b,c
                                 ;     652  *	  motor group			1,2,3,4
                                 ;     653  *	  PWM group				p1
                                 ;     654  *	  coordinate group		g54,g55,g56,g57,g58,g59,g92
                                 ;     655  *	  system group			"sys" - a collection of otherwise unrelated variables
                                 ;     656  *
                                 ;     657  *	Text mode can only GET groups. For example:
                                 ;     658  *	  $x					get all members of an axis group
                                 ;     659  *	  $1					get all members of a motor group
                                 ;     660  *	  $<grp>				get any named group from the above lists
                                 ;     661  *
                                 ;     662  *	In JSON groups are carried as parent / child objects & can get and set elements:
                                 ;     663  *	  {"x":""}						get all X axis parameters
                                 ;     664  *	  {"x":{"vm":""}}				get X axis velocity max
                                 ;     665  *	  {"x":{"vm":1000}}				set X axis velocity max
                                 ;     666  *	  {"x":{"vm":"","fr":""}}		get X axis velocity max and feed rate
                                 ;     667  *	  {"x":{"vm":1000,"fr";900}}	set X axis velocity max and feed rate
                                 ;     668  *	  {"x":{"am":1,"fr":800,....}}	set multiple or all X axis parameters
                                 ;     669  */
                                 ;     670 
                                 ;     671 /*
                                 ;     672  * get_grp() - read data from axis, motor, system or other group
                                 ;     673  *
                                 ;     674  *	get_grp() is a group expansion function that expands the parent group and returns
                                 ;     675  *	the values of all the children in that group. It expects the first nvObj in the
                                 ;     676  *	nvBody to have a valid group name in the token field. This first object will be set
                                 ;     677  *	to a TYPE_PARENT. The group field is left nul - as the group field refers to a parent
                                 ;     678  *	group, which this group has none.
                                 ;     679  *
                                 ;     680  *	All subsequent nvObjs in the body will be populated with their values.
                                 ;     681  *	The token field will be populated as will the parent name in the group field.
                                 ;     682  *
                                 ;     683  *	The sys group is an exception where the children carry a blank group field, even though
                                 ;     684  *	the sys parent is labeled as a TYPE_PARENT.
                                 ;     685  */
                                 ;     686 
                                 ;     687 stat_t get_grp(nvObj_t *nv)
                                 		.LINE  "C:\Workspace\e2studio\git\MT01_master\src\cnc\config.c",687
00001286 7100F0                  		ADD #0FFFFFFF0H, R0
00001289 A089                    		MOV.L R1, 0CH[R0]
                                 ;     688 {
                                 ;     689 	char_t *parent_group = nv->token;				// token in the parent nv object is the group
                                 		.LINE  "C:\Workspace\e2studio\git\MT01_master\src\cnc\config.c",689
0000128B 711118                  		ADD #18H, R1
0000128E E301                    		MOV.L R1, [R0]
00001290                         L421:	; entry.split
                                 ;     690 	char_t group[GROUP_LEN+1];						// group string retrieved from cfgArray child
                                 ;     691 	nv->valuetype = TYPE_PARENT;					// make first object the parent
                                 		.LINE  "C:\Workspace\e2studio\git\MT01_master\src\cnc\config.c",691
00001290 A889                    		MOV.L 0CH[R0], R1
00001292 3C1B07                  		MOV.B #07H, 0BH[R1]
00001295                         L422:	; entry.split1
                                 ;     692 	for (index_t i=0; nv_index_is_single(i); i++) {
                                 		.LINE  "C:\Workspace\e2studio\git\MT01_master\src\cnc\config.c",692
00001295 3D0400                  		MOV.W #0000H, 08H[R0]
00001298 2Err                 B  		BRA L428
0000129A                         L423:	; bb
                                 ;     693 		strcpy_P(group, cfgArray[i].group);			// don't need strncpy as it's always terminated
                                 		.LINE  "C:\Workspace\e2studio\git\MT01_master\src\cnc\config.c",693
0000129A B901                    		MOVU.W 08H[R0], R1
0000129C 6C51                    		SHLL #05H, R1
0000129E FB22rrrrrrrr            		MOV.L #_cfgArray, R2
000012A4 4B12                    		ADD R1, R2
000012A6 FB36FF                  		MOV.L #0FFFFFFFFH, R3
000012A9 710104                  		ADD #04H, R0, R1
000012AC 7F87                    		SMOVU
000012AE                         L424:	; bb.split
000012AE FB36FF                  		MOV.L #0FFFFFFFFH, R3
000012B1 710204                  		ADD #04H, R0, R2
                                 ;     694 		if (strcmp(parent_group, group) != 0) continue;
                                 		.LINE  "C:\Workspace\e2studio\git\MT01_master\src\cnc\config.c",694
000012B4 EC01                    		MOV.L [R0], R1
000012B6 7F83                    		SCMPU
000012B8 FCDBE2                  		SCGEU.L R14
000012BB FCDBF5                  		SCLEU.L R15
000012BE 43FE                    		SUB R15, R14
000012C0 610E                    		CMP #00H, R14
000012C2 21rr                    		BNE L427
000012C4                         L425:	; bb24
                                 ;     695 		(++nv)->index = i;
                                 		.LINE  "C:\Workspace\e2studio\git\MT01_master\src\cnc\config.c",695
000012C4 A889                    		MOV.L 0CH[R0], R1
000012C6 711224                  		ADD #24H, R1, R2
000012C9 A08A                    		MOV.L R2, 0CH[R0]
000012CB D5010416                		MOV.W 08H[R0], 2CH[R1]
000012CF                         L426:	; bb24.split
                                 ;     696 		nv_get_nvObj(nv);
                                 		.LINE  "C:\Workspace\e2studio\git\MT01_master\src\cnc\config.c",696
000012CF A889                    		MOV.L 0CH[R0], R1
000012D1 39rrrr               W  		BSR _nv_get_nvObj
000012D4                         L427:	; bb31
000012D4 9901                    		MOV.W 08H[R0], R1
000012D6 6211                    		ADD #01H, R1
000012D8 9101                    		MOV.W R1, 08H[R0]
000012DA                         L428:	; bb34
                                 		.LINE  "C:\Workspace\e2studio\git\MT01_master\src\cnc\config.c",692
000012DA B901                    		MOVU.W 08H[R0], R1
000012DC 05rrrrrr             A  		BSR _nv_index_is_single
000012E0 6101                    		CMP #00H, R1
000012E2 21rr                    		BNE L423
000012E4                         L429:	; bb41
                                 ;     697 	}
                                 ;     698 	return (STAT_OK);
                                 		.LINE  "C:\Workspace\e2studio\git\MT01_master\src\cnc\config.c",698
000012E4 3C0B00                  		MOV.B #00H, 0BH[R0]
000012E7 B289                    		MOVU.B 0BH[R0], R1
000012E9                         L430:	; bb41.split
                                 ;     699 }
                                 		.LINE  "C:\Workspace\e2studio\git\MT01_master\src\cnc\config.c",699
000012E9 5B11                    		MOVU.B R1, R1
000012EB 6704                    		RTSD #10H
000012ED                         _set_grp:
                                 		.STACK	_set_grp=12
                                 ;     700 
                                 ;     701 /*
                                 ;     702  * set_grp() - get or set one or more values in a group
                                 ;     703  *
                                 ;     704  *	This functions is called "_set_group()" but technically it's a getter and
                                 ;     705  *	a setter. It iterates the group children and either gets the value or sets
                                 ;     706  *	the value for each depending on the nv->valuetype.
                                 ;     707  *
                                 ;     708  *	This function serves JSON mode only as text mode shouldn't call it.
                                 ;     709  */
                                 ;     710 
                                 ;     711 stat_t set_grp(nvObj_t *nv)
                                 		.LINE  "C:\Workspace\e2studio\git\MT01_master\src\cnc\config.c",711
000012ED 6080                    		SUB #08H, R0
000012EF A009                    		MOV.L R1, 04H[R0]
                                 ;     712 {
                                 ;     713 	if (cfg.comm_mode == TEXT_MODE)
                                 		.LINE  "C:\Workspace\e2studio\git\MT01_master\src\cnc\config.c",713
000012F1 FB12rrrrrrrr            		MOV.L #_cfg, R1
000012F7 B091                    		MOVU.B 02H[R1], R1
000012F9 6101                    		CMP #00H, R1
000012FB 18                   S  		BNE L433
000012FC                         L432:	; bb3
                                 ;     714         return (STAT_INVALID_OR_MALFORMED_COMMAND);
                                 		.LINE  "C:\Workspace\e2studio\git\MT01_master\src\cnc\config.c",714
000012FC 3C0165                  		MOV.B #65H, 01H[R0]
000012FF 2Err                 B  		BRA L443
00001301                         L433:	; bb9
                                 ;     715 
                                 ;     716 	for (uint8_t i=0; i<NV_MAX_OBJECTS; i++) {
                                 		.LINE  "C:\Workspace\e2studio\git\MT01_master\src\cnc\config.c",716
00001301 3C0200                  		MOV.B #00H, 02H[R0]
00001304 2Err                 B  		BRA L441
00001306                         L434:	; bb11
                                 ;     717 		if ((nv = nv->nx) == NULL) break;
                                 		.LINE  "C:\Workspace\e2studio\git\MT01_master\src\cnc\config.c",717
00001306 A809                    		MOV.L 04H[R0], R1
00001308 A819                    		MOV.L 04H[R1], R1
0000130A A009                    		MOV.L R1, 04H[R0]
0000130C 6101                    		CMP #00H, R1
0000130E 20rr                    		BEQ L442
00001310                         L435:	; bb22
                                 ;     718 		if (nv->valuetype == TYPE_EMPTY) break;
                                 		.LINE  "C:\Workspace\e2studio\git\MT01_master\src\cnc\config.c",718
00001310 A809                    		MOV.L 04H[R0], R1
00001312 8A99                    		MOV.B 0BH[R1], R1
00001314 7501FF                  		CMP #0FFFFFFFFH, R1
00001317 20rr                    		BEQ L442
00001319                         L436:	; bb26
                                 ;     719 		else if (nv->valuetype == TYPE_NULL)		// NULL means GET the value
                                 		.LINE  "C:\Workspace\e2studio\git\MT01_master\src\cnc\config.c",719
00001319 A809                    		MOV.L 04H[R0], R1
0000131B 8A9A                    		MOV.B 0BH[R1], R2
0000131D 6102                    		CMP #00H, R2
0000131F 18                   S  		BNE L438
00001320                         L437:	; bb27
                                 ;     720 			nv_get(nv);
                                 		.LINE  "C:\Workspace\e2studio\git\MT01_master\src\cnc\config.c",720
00001320 39rrrr               W  		BSR _nv_get
00001323 08                   S  		BRA L440
00001324                         L438:	; bb30
                                 ;     721 		else {
                                 ;     722 			nv_set(nv);
                                 		.LINE  "C:\Workspace\e2studio\git\MT01_master\src\cnc\config.c",722
00001324 39rrrr               W  		BSR _nv_set
00001327                         L439:	; bb30.split
                                 ;     723 			nv_persist(nv);
                                 		.LINE  "C:\Workspace\e2studio\git\MT01_master\src\cnc\config.c",723
00001327 A809                    		MOV.L 04H[R0], R1
00001329 39rrrr               W  		BSR _nv_persist
0000132C                         L440:	; bb50
0000132C B081                    		MOVU.B 02H[R0], R1
0000132E 6211                    		ADD #01H, R1
00001330 8081                    		MOV.B R1, 02H[R0]
00001332                         L441:	; bb53
                                 		.LINE  "C:\Workspace\e2studio\git\MT01_master\src\cnc\config.c",716
00001332 B081                    		MOVU.B 02H[R0], R1
00001334 75511D                  		CMP #1DH, R1
00001337 29rr                    		BLT L434
00001339                         L442:	; bb61
                                 ;     724 		}
                                 ;     725 	}
                                 ;     726 	return (STAT_OK);
                                 		.LINE  "C:\Workspace\e2studio\git\MT01_master\src\cnc\config.c",726
00001339 3C0100                  		MOV.B #00H, 01H[R0]
0000133C                         L443:	; bb63
0000133C C5000103                		MOV.B 01H[R0], 03H[R0]
                                 ;     727 }
                                 		.LINE  "C:\Workspace\e2studio\git\MT01_master\src\cnc\config.c",727
00001340 B089                    		MOVU.B 03H[R0], R1
00001342 6702                    		RTSD #08H
00001344                         _nv_group_is_prefixed:
                                 		.STACK	_nv_group_is_prefixed=12
                                 ;     728 
                                 ;     729 /*
                                 ;     730  * nv_group_is_prefixed() - hack
                                 ;     731  *
                                 ;     732  *	This little function deals with the exception cases that some groups don't use
                                 ;     733  *	the parent token as a prefix to the child elements; SR being a good example.
                                 ;     734  */
                                 ;     735 uint8_t nv_group_is_prefixed(char_t *group)
                                 		.LINE  "C:\Workspace\e2studio\git\MT01_master\src\cnc\config.c",735
00001344 6080                    		SUB #08H, R0
00001346 EF12                    		MOV.L R1, R2
00001348 A00A                    		MOV.L R2, 04H[R0]
0000134A FB36FF                  		MOV.L #0FFFFFFFFH, R3
                                 ;     736 {
                                 ;     737 	if (strcmp("sr",group) == 0) return (false);
                                 		.LINE  "C:\Workspace\e2studio\git\MT01_master\src\cnc\config.c",737
0000134D FB12rrrrrrrr            		MOV.L #_L28, R1
00001353 7F83                    		SCMPU
00001355 FCDBE2                  		SCGEU.L R14
00001358 FCDBF5                  		SCLEU.L R15
0000135B 43FE                    		SUB R15, R14
0000135D 610E                    		CMP #00H, R14
0000135F 18                   S  		BNE L446
00001360                         L445:	; bb2
00001360 3C0200                  		MOV.B #00H, 02H[R0]
00001363 2Err                 B  		BRA L449
00001365                         L446:	; bb9
00001365 FB36FF                  		MOV.L #0FFFFFFFFH, R3
                                 ;     738 	if (strcmp("sys",group) == 0) return (false);
                                 		.LINE  "C:\Workspace\e2studio\git\MT01_master\src\cnc\config.c",738
00001368 A80A                    		MOV.L 04H[R0], R2
0000136A FB12rrrrrrrr            		MOV.L #_L29, R1
00001370 7F83                    		SCMPU
00001372 FCDBE2                  		SCGEU.L R14
00001375 FCDBF5                  		SCLEU.L R15
00001378 43FE                    		SUB R15, R14
0000137A 610E                    		CMP #00H, R14
0000137C 18                   S  		BNE L448
0000137D                         L447:	; bb10
0000137D 3C0200                  		MOV.B #00H, 02H[R0]
00001380 08                   S  		BRA L449
00001381                         L448:	; bb17
                                 ;     739 	return (true);
                                 		.LINE  "C:\Workspace\e2studio\git\MT01_master\src\cnc\config.c",739
00001381 3C0201                  		MOV.B #01H, 02H[R0]
00001384                         L449:	; bb19
00001384 C5000203                		MOV.B 02H[R0], 03H[R0]
                                 ;     740 }
                                 		.LINE  "C:\Workspace\e2studio\git\MT01_master\src\cnc\config.c",740
00001388 B089                    		MOVU.B 03H[R0], R1
0000138A 6702                    		RTSD #08H
0000138C                         _nv_get_index:
                                 		.STACK	_nv_get_index=32
                                 ;     741 
                                 ;     742 /***********************************************************************************
                                 ;     743  ***** nvObj functions ************************************************************
                                 ;     744  ***********************************************************************************/
                                 ;     745 
                                 ;     746 /***********************************************************************************
                                 ;     747  * nvObj helper functions and other low-level nv helpers
                                 ;     748  */
                                 ;     749 
                                 ;     750 /* nv_get_index() - get index from mnenonic token + group
                                 ;     751  *
                                 ;     752  * nv_get_index() is the most expensive routine in the whole config. It does a
                                 ;     753  * linear table scan of the PROGMEM strings, which of course could be further
                                 ;     754  * optimized with indexes or hashing.
                                 ;     755  */
                                 ;     756 index_t nv_get_index(const char_t *group, const char_t *token)
                                 		.LINE  "C:\Workspace\e2studio\git\MT01_master\src\cnc\config.c",756
0000138C 7100E4                  		ADD #0FFFFFFE4H, R0
0000138F A181                    		MOV.L R1, 18H[R0]
00001391 A10A                    		MOV.L R2, 14H[R0]
00001393 6643                    		MOV.L #00000004H, R3
00001395 710105                  		ADD #05H, R0, R1
                                 ;     757 {
                                 ;     758 	char_t c;
                                 ;     759 	char_t str[TOKEN_LEN + GROUP_LEN+1];	// should actually never be more than TOKEN_LEN+1
                                 ;     760 	strncpy(str, group, GROUP_LEN+1);
                                 		.LINE  "C:\Workspace\e2studio\git\MT01_master\src\cnc\config.c",760
00001398 A982                    		MOV.L 18H[R0], R2
0000139A 7F87                    		SMOVU
0000139C 710109                  		ADD #09H, R0, R1
0000139F 4331                    		SUB R3, R1
000013A1 6602                    		MOV.L #00000000H, R2
000013A3 7F88                    		SSTR.B
000013A5                         L451:	; entry.split
000013A5 FB36FF                  		MOV.L #0FFFFFFFFH, R3
000013A8 6602                    		MOV.L #00000000H, R2
000013AA 710105                  		ADD #05H, R0, R1
                                 ;     761 	strncat(str, token, TOKEN_LEN+1);
                                 		.LINE  "C:\Workspace\e2studio\git\MT01_master\src\cnc\config.c",761
000013AD A90C                    		MOV.L 14H[R0], R4
000013AF 7F80                    		SUNTIL.B
000013B1 711E05                  		ADD #05H, R1, R14
000013B4 6011                    		SUB #01H, R1
000013B6 6673                    		MOV.L #00000007H, R3
000013B8 EF42                    		MOV.L R4, R2
000013BA 7F87                    		SMOVU
000013BC 6103                    		CMP #00H, R3
000013BE 18                   S  		BNE L453
000013BF                         L452:	; entry.split
000013BF C3E3                    		MOV.B R3, [R14]
000013C1                         L453:	; entry.split
000013C1                         L454:	; entry.split1
                                 ;     762 
                                 ;     763 	index_t i;
                                 ;     764 	index_t index_max = nv_index_max();
                                 		.LINE  "C:\Workspace\e2studio\git\MT01_master\src\cnc\config.c",764
000013C1 05rrrrrr             A  		BSR _nv_index_max
000013C5 9201                    		MOV.W R1, 10H[R0]
000013C7                         L455:	; entry.split2
                                 ;     765 
                                 ;     766 	for (i=0; i < index_max; i++) {
                                 		.LINE  "C:\Workspace\e2studio\git\MT01_master\src\cnc\config.c",766
000013C7 3D0700                  		MOV.W #0000H, 0EH[R0]
000013CA 38rrrr               W  		BRA L475
000013CD                         L456:	; bb12
                                 ;     767 		if ((c = GET_TOKEN_BYTE(token[0])) != str[0]) {	continue; }					// 1st character mismatch
                                 		.LINE  "C:\Workspace\e2studio\git\MT01_master\src\cnc\config.c",767
000013CD B989                    		MOVU.W 0EH[R0], R1
000013CF 6C51                    		SHLL #05H, R1
000013D1 FB22rrrrrrrr            		MOV.L #_cfgArray, R2
000013D7 4B12                    		ADD R1, R2
000013D9 C5200404                		MOV.B 04H[R2], 04H[R0]
000013DD B101                    		MOVU.B 04H[R0], R1
000013DF 450105                  		CMP 05H[R0].UB, R1
000013E2 3Brrrr               W  		BNE L474
000013E5                         L457:	; bb31
                                 ;     768 		if ((c = GET_TOKEN_BYTE(token[1])) == NUL) { if (str[1] == NUL) return(i);}	// one character match
                                 		.LINE  "C:\Workspace\e2studio\git\MT01_master\src\cnc\config.c",768
000013E5 B989                    		MOVU.W 0EH[R0], R1
000013E7 6C51                    		SHLL #05H, R1
000013E9 FB22rrrrrrrr            		MOV.L #_cfgArray, R2
000013EF 4B12                    		ADD R1, R2
000013F1 B129                    		MOVU.B 05H[R2], R1
000013F3 8101                    		MOV.B R1, 04H[R0]
000013F5 6101                    		CMP #00H, R1
000013F7 21rr                    		BNE L460
000013F9                         L458:	; bb33
000013F9 B181                    		MOVU.B 06H[R0], R1
000013FB 6101                    		CMP #00H, R1
000013FD 18                   S  		BNE L460
000013FE                         L459:	; bb34
000013FE D5000701                		MOV.W 0EH[R0], 02H[R0]
00001402 38rrrr               W  		BRA L477
00001405                         L460:	; bb58
                                 ;     769 		if (c != str[1]) continue;													// 2nd character
                                 		.LINE  "C:\Workspace\e2studio\git\MT01_master\src\cnc\config.c",769
00001405 B101                    		MOVU.B 04H[R0], R1
00001407 450106                  		CMP 06H[R0].UB, R1
0000140A 21rr                    		BNE L474
0000140C                         L461:	; bb71
                                 ;     770 		if ((c = GET_TOKEN_BYTE(token[2])) == NUL) { if (str[2] == NUL) return(i);}	// two character match
                                 		.LINE  "C:\Workspace\e2studio\git\MT01_master\src\cnc\config.c",770
0000140C B989                    		MOVU.W 0EH[R0], R1
0000140E 6C51                    		SHLL #05H, R1
00001410 FB22rrrrrrrr            		MOV.L #_cfgArray, R2
00001416 4B12                    		ADD R1, R2
00001418 B1A1                    		MOVU.B 06H[R2], R1
0000141A 8101                    		MOV.B R1, 04H[R0]
0000141C 6101                    		CMP #00H, R1
0000141E 21rr                    		BNE L464
00001420                         L462:	; bb73
00001420 B189                    		MOVU.B 07H[R0], R1
00001422 6101                    		CMP #00H, R1
00001424 18                   S  		BNE L464
00001425                         L463:	; bb74
00001425 D5000701                		MOV.W 0EH[R0], 02H[R0]
00001429 2Err                 B  		BRA L477
0000142B                         L464:	; bb98
                                 ;     771 		if (c != str[2]) continue;													// 3rd character
                                 		.LINE  "C:\Workspace\e2studio\git\MT01_master\src\cnc\config.c",771
0000142B B101                    		MOVU.B 04H[R0], R1
0000142D 450107                  		CMP 07H[R0].UB, R1
00001430 21rr                    		BNE L474
00001432                         L465:	; bb111
                                 ;     772 		if ((c = GET_TOKEN_BYTE(token[3])) == NUL) { if (str[3] == NUL) return(i);}	// three character match
                                 		.LINE  "C:\Workspace\e2studio\git\MT01_master\src\cnc\config.c",772
00001432 B989                    		MOVU.W 0EH[R0], R1
00001434 6C51                    		SHLL #05H, R1
00001436 FB22rrrrrrrr            		MOV.L #_cfgArray, R2
0000143C 4B12                    		ADD R1, R2
0000143E B1A9                    		MOVU.B 07H[R2], R1
00001440 8101                    		MOV.B R1, 04H[R0]
00001442 6101                    		CMP #00H, R1
00001444 21rr                    		BNE L468
00001446                         L466:	; bb113
00001446 B201                    		MOVU.B 08H[R0], R1
00001448 6101                    		CMP #00H, R1
0000144A 18                   S  		BNE L468
0000144B                         L467:	; bb114
0000144B D5000701                		MOV.W 0EH[R0], 02H[R0]
0000144F 2Err                 B  		BRA L477
00001451                         L468:	; bb138
                                 ;     773 		if (c != str[3]) continue;													// 4th character
                                 		.LINE  "C:\Workspace\e2studio\git\MT01_master\src\cnc\config.c",773
00001451 B101                    		MOVU.B 04H[R0], R1
00001453 450108                  		CMP 08H[R0].UB, R1
00001456 21rr                    		BNE L474
00001458                         L469:	; bb151
                                 ;     774 		if ((c = GET_TOKEN_BYTE(token[4])) == NUL) { if (str[4] == NUL) return(i);}	// four character match
                                 		.LINE  "C:\Workspace\e2studio\git\MT01_master\src\cnc\config.c",774
00001458 B989                    		MOVU.W 0EH[R0], R1
0000145A 6C51                    		SHLL #05H, R1
0000145C FB22rrrrrrrr            		MOV.L #_cfgArray, R2
00001462 4B12                    		ADD R1, R2
00001464 B221                    		MOVU.B 08H[R2], R1
00001466 8101                    		MOV.B R1, 04H[R0]
00001468 6101                    		CMP #00H, R1
0000146A 21rr                    		BNE L472
0000146C                         L470:	; bb153
0000146C B209                    		MOVU.B 09H[R0], R1
0000146E 6101                    		CMP #00H, R1
00001470 18                   S  		BNE L472
00001471                         L471:	; bb154
00001471 D5000701                		MOV.W 0EH[R0], 02H[R0]
00001475 2Err                 B  		BRA L477
00001477                         L472:	; bb178
                                 ;     775 		if (c != str[4]) continue;													// 5th character
                                 		.LINE  "C:\Workspace\e2studio\git\MT01_master\src\cnc\config.c",775
00001477 B101                    		MOVU.B 04H[R0], R1
00001479 450109                  		CMP 09H[R0].UB, R1
0000147C 18                   S  		BNE L474
0000147D                         L473:	; bb190
                                 ;     776 		return (i);																	
                                 		.LINE  "C:\Workspace\e2studio\git\MT01_master\src\cnc\config.c",776
0000147D D5000701                		MOV.W 0EH[R0], 02H[R0]
00001481 2Err                 B  		BRA L477
00001483                         L474:	; bb193
00001483 9989                    		MOV.W 0EH[R0], R1
00001485 6211                    		ADD #01H, R1
00001487 9189                    		MOV.W R1, 0EH[R0]
00001489                         L475:	; bb196
                                 		.LINE  "C:\Workspace\e2studio\git\MT01_master\src\cnc\config.c",766
00001489 B989                    		MOVU.W 0EH[R0], R1
0000148B 06C50108                		CMP 10H[R0].UW, R1
0000148F 28rr                  * 		BLT L456
         38rrrr                  
00001494                         L476:	; bb204
                                 ;     777 	}
                                 ;     778 	return (NO_MATCH);
                                 		.LINE  "C:\Workspace\e2studio\git\MT01_master\src\cnc\config.c",778
00001494 F90901FFFF              		MOV.W #0FFFFH, 02H[R0]
00001499                         L477:	; bb206
00001499 D5000109                		MOV.W 02H[R0], 12H[R0]
                                 ;     779 }
                                 		.LINE  "C:\Workspace\e2studio\git\MT01_master\src\cnc\config.c",779
0000149D BA09                    		MOVU.W 12H[R0], R1
0000149F 6707                    		RTSD #1CH
000014A1                         _nv_get_type:
                                 		.STACK	_nv_get_type=12
                                 ;     780 
                                 ;     781 /*
                                 ;     782  * nv_get_type() - returns command type as a NV_TYPE enum
                                 ;     783  */
                                 ;     784 
                                 ;     785 uint8_t nv_get_type(nvObj_t *nv)
                                 		.LINE  "C:\Workspace\e2studio\git\MT01_master\src\cnc\config.c",785
000014A1 6080                    		SUB #08H, R0
000014A3 A009                    		MOV.L R1, 04H[R0]
                                 ;     786 {
                                 ;     787 	if (nv->token[0] == NUL) return (NV_TYPE_NULL);
                                 		.LINE  "C:\Workspace\e2studio\git\MT01_master\src\cnc\config.c",787
000014A5 B611                    		MOVU.B 18H[R1], R1
000014A7 6101                    		CMP #00H, R1
000014A9 18                   S  		BNE L480
000014AA                         L479:	; bb2
000014AA 3C0200                  		MOV.B #00H, 02H[R0]
000014AD 38rrrr               W  		BRA L493
000014B0                         L480:	; bb13
                                 ;     788 	if (strcmp("gc", nv->token) == 0) return (NV_TYPE_GCODE);
                                 		.LINE  "C:\Workspace\e2studio\git\MT01_master\src\cnc\config.c",788
000014B0 A80A                    		MOV.L 04H[R0], R2
000014B2 712218                  		ADD #18H, R2
000014B5 FB36FF                  		MOV.L #0FFFFFFFFH, R3
000014B8 FB12rrrrrrrr            		MOV.L #_L30, R1
000014BE 7F83                    		SCMPU
000014C0 FCDBE2                  		SCGEU.L R14
000014C3 FCDBF5                  		SCLEU.L R15
000014C6 43FE                    		SUB R15, R14
000014C8 610E                    		CMP #00H, R14
000014CA 18                   S  		BNE L482
000014CB                         L481:	; bb14
000014CB 3C0202                  		MOV.B #02H, 02H[R0]
000014CE 38rrrr               W  		BRA L493
000014D1                         L482:	; bb24
                                 ;     789 	if (strcmp("sr", nv->token) == 0) return (NV_TYPE_REPORT);
                                 		.LINE  "C:\Workspace\e2studio\git\MT01_master\src\cnc\config.c",789
000014D1 A80A                    		MOV.L 04H[R0], R2
000014D3 712218                  		ADD #18H, R2
000014D6 FB36FF                  		MOV.L #0FFFFFFFFH, R3
000014D9 FB12rrrrrrrr            		MOV.L #_L28, R1
000014DF 7F83                    		SCMPU
000014E1 FCDBE2                  		SCGEU.L R14
000014E4 FCDBF5                  		SCLEU.L R15
000014E7 43FE                    		SUB R15, R14
000014E9 610E                    		CMP #00H, R14
000014EB 18                   S  		BNE L484
000014EC                         L483:	; bb25
000014EC 3C0203                  		MOV.B #03H, 02H[R0]
000014EF 38rrrr               W  		BRA L493
000014F2                         L484:	; bb35
                                 ;     790 	if (strcmp("qr", nv->token) == 0) return (NV_TYPE_REPORT);
                                 		.LINE  "C:\Workspace\e2studio\git\MT01_master\src\cnc\config.c",790
000014F2 A80A                    		MOV.L 04H[R0], R2
000014F4 712218                  		ADD #18H, R2
000014F7 FB36FF                  		MOV.L #0FFFFFFFFH, R3
000014FA FB12rrrrrrrr            		MOV.L #_L31, R1
00001500 7F83                    		SCMPU
00001502 FCDBE2                  		SCGEU.L R14
00001505 FCDBF5                  		SCLEU.L R15
00001508 43FE                    		SUB R15, R14
0000150A 610E                    		CMP #00H, R14
0000150C 18                   S  		BNE L486
0000150D                         L485:	; bb36
0000150D 3C0203                  		MOV.B #03H, 02H[R0]
00001510 2Err                 B  		BRA L493
00001512                         L486:	; bb46
                                 ;     791 	if (strcmp("msg",nv->token) == 0) return (NV_TYPE_MESSAGE);
                                 		.LINE  "C:\Workspace\e2studio\git\MT01_master\src\cnc\config.c",791
00001512 A80A                    		MOV.L 04H[R0], R2
00001514 712218                  		ADD #18H, R2
00001517 FB36FF                  		MOV.L #0FFFFFFFFH, R3
0000151A FB12rrrrrrrr            		MOV.L #_L32, R1
00001520 7F83                    		SCMPU
00001522 FCDBE2                  		SCGEU.L R14
00001525 FCDBF5                  		SCLEU.L R15
00001528 43FE                    		SUB R15, R14
0000152A 610E                    		CMP #00H, R14
0000152C 18                   S  		BNE L488
0000152D                         L487:	; bb47
0000152D 3C0204                  		MOV.B #04H, 02H[R0]
00001530 2Err                 B  		BRA L493
00001532                         L488:	; bb57
                                 ;     792 	if (strcmp("err",nv->token) == 0) return (NV_TYPE_MESSAGE); 	// errors are reported as messages
                                 		.LINE  "C:\Workspace\e2studio\git\MT01_master\src\cnc\config.c",792
00001532 A80A                    		MOV.L 04H[R0], R2
00001534 712218                  		ADD #18H, R2
00001537 FB36FF                  		MOV.L #0FFFFFFFFH, R3
0000153A FB12rrrrrrrr            		MOV.L #_L33, R1
00001540 7F83                    		SCMPU
00001542 FCDBE2                  		SCGEU.L R14
00001545 FCDBF5                  		SCLEU.L R15
00001548 43FE                    		SUB R15, R14
0000154A 610E                    		CMP #00H, R14
0000154C 18                   S  		BNE L490
0000154D                         L489:	; bb58
0000154D 3C0204                  		MOV.B #04H, 02H[R0]
00001550 2Err                 B  		BRA L493
00001552                         L490:	; bb68
                                 ;     793 	if (strcmp("n",  nv->token) == 0) return (NV_TYPE_LINENUM);
                                 		.LINE  "C:\Workspace\e2studio\git\MT01_master\src\cnc\config.c",793
00001552 A80A                    		MOV.L 04H[R0], R2
00001554 712218                  		ADD #18H, R2
00001557 FB36FF                  		MOV.L #0FFFFFFFFH, R3
0000155A FB12rrrrrrrr            		MOV.L #_L34, R1
00001560 7F83                    		SCMPU
00001562 FCDBE2                  		SCGEU.L R14
00001565 FCDBF5                  		SCLEU.L R15
00001568 43FE                    		SUB R15, R14
0000156A 610E                    		CMP #00H, R14
0000156C 18                   S  		BNE L492
0000156D                         L491:	; bb69
0000156D 3C0205                  		MOV.B #05H, 02H[R0]
00001570 08                   S  		BRA L493
00001571                         L492:	; bb78
                                 ;     794 	return (NV_TYPE_CONFIG);
                                 		.LINE  "C:\Workspace\e2studio\git\MT01_master\src\cnc\config.c",794
00001571 3C0201                  		MOV.B #01H, 02H[R0]
00001574                         L493:	; bb80
00001574 C5000203                		MOV.B 02H[R0], 03H[R0]
                                 ;     795 }
                                 		.LINE  "C:\Workspace\e2studio\git\MT01_master\src\cnc\config.c",795
00001578 B089                    		MOVU.B 03H[R0], R1
0000157A 6702                    		RTSD #08H
0000157C                         _nv_get_nvObj:
                                 		.STACK	_nv_get_nvObj=16
                                 ;     796 
                                 ;     797 /******************************************************************************
                                 ;     798  * nvObj low-level object and list operations
                                 ;     799  * nv_get_nvObj()		- setup a nv object by providing the index
                                 ;     800  * nv_reset_nv()		- quick clear for a new nv object
                                 ;     801  * nv_reset_nv_list()	- clear entire header, body and footer for a new use
                                 ;     802  * nv_copy_string()		- used to write a string to shared string storage and link it
                                 ;     803  * nv_add_object()		- write contents of parameter to  first free object in the body
                                 ;     804  * nv_add_integer()		- add an integer value to end of nv body (Note 1)
                                 ;     805  * nv_add_float()		- add a floating point value to end of nv body
                                 ;     806  * nv_add_string()		- add a string object to end of nv body
                                 ;     807  * nv_add_conditional_message() - add a message to nv body if messages are enabled
                                 ;     808  *
                                 ;     809  *	Note: Functions that return a nv pointer point to the object that was modified or
                                 ;     810  *	a NULL pointer if there was an error.
                                 ;     811  *
                                 ;     812  *	Note: Adding a really large integer (like a checksum value) may lose precision due
                                 ;     813  *	to the cast to a float. Sometimes it's better to load an integer as a string if
                                 ;     814  *	all you want to do is display it.
                                 ;     815  *
                                 ;     816  *	Note: A trick is to cast all string constants for nv_copy_string(), nv_add_object(),
                                 ;     817  *	nv_add_string() and nv_add_conditional_message() to (const char_t *). Examples:
                                 ;     818  *
                                 ;     819  *		nv_add_string((const char_t *)"msg", string);
                                 ;     820  *
                                 ;     821  *	On the AVR this will save a little static RAM. The "msg" string will occupy flash
                                 ;     822  *	as an initializer and be instantiated in stack RAM when the function executes.
                                 ;     823  *	On the ARM (however) this will put the string into flash and skip RAM allocation.
                                 ;     824  */
                                 ;     825 
                                 ;     826 void nv_get_nvObj(nvObj_t *nv)
                                 		.LINE  "C:\Workspace\e2studio\git\MT01_master\src\cnc\config.c",826
0000157C 7EA6                    		PUSH.L R6
0000157E 6080                    		SUB #08H, R0
00001580 A009                    		MOV.L R1, 04H[R0]
                                 ;     827 {
                                 ;     828 	if (nv->index >= nv_index_max()) { return; }	// sanity
                                 		.LINE  "C:\Workspace\e2studio\git\MT01_master\src\cnc\config.c",828
00001582 B916                    		MOVU.W 08H[R1], R6
00001584 05rrrrrr             A  		BSR _nv_index_max
00001588 4761                    		CMP R6, R1
0000158A 2Arr                  * 		BLE L505
         38rrrr                  
0000158F                         L495:	; bb13
                                 ;     829 
                                 ;     830 	index_t tmp = nv->index;
                                 		.LINE  "C:\Workspace\e2studio\git\MT01_master\src\cnc\config.c",830
0000158F A809                    		MOV.L 04H[R0], R1
00001591 D5100401                		MOV.W 08H[R1], 02H[R0]
00001595                         L496:	; bb13.split
                                 ;     831 	nv_reset_nv(nv);
                                 		.LINE  "C:\Workspace\e2studio\git\MT01_master\src\cnc\config.c",831
00001595 A809                    		MOV.L 04H[R0], R1
00001597 39rrrr               W  		BSR _nv_reset_nv
0000159A                         L497:	; bb13.split1
                                 ;     832 	nv->index = tmp;
                                 		.LINE  "C:\Workspace\e2studio\git\MT01_master\src\cnc\config.c",832
0000159A 9809                    		MOV.W 02H[R0], R1
0000159C A80A                    		MOV.L 04H[R0], R2
0000159E 9121                    		MOV.W R1, 08H[R2]
000015A0                         L498:	; bb13.split2
                                 ;     833 
                                 ;     834 	strcpy_P(nv->token, cfgArray[nv->index].token); // token field is always terminated
                                 		.LINE  "C:\Workspace\e2studio\git\MT01_master\src\cnc\config.c",834
000015A0 A809                    		MOV.L 04H[R0], R1
000015A2 B913                    		MOVU.W 08H[R1], R3
000015A4 6C53                    		SHLL #05H, R3
000015A6 FB22rrrrrrrr            		MOV.L #_cfgArray, R2
000015AC 4B32                    		ADD R3, R2
000015AE 6242                    		ADD #04H, R2
000015B0 711118                  		ADD #18H, R1
000015B3 FB36FF                  		MOV.L #0FFFFFFFFH, R3
000015B6 7F87                    		SMOVU
000015B8                         L499:	; bb13.split3
                                 ;     835 	strcpy_P(nv->group, cfgArray[nv->index].group); // group field is always terminated
                                 		.LINE  "C:\Workspace\e2studio\git\MT01_master\src\cnc\config.c",835
000015B8 A809                    		MOV.L 04H[R0], R1
000015BA B913                    		MOVU.W 08H[R1], R3
000015BC 6C53                    		SHLL #05H, R3
000015BE FB22rrrrrrrr            		MOV.L #_cfgArray, R2
000015C4 4B32                    		ADD R3, R2
000015C6 711114                  		ADD #14H, R1
000015C9 FB36FF                  		MOV.L #0FFFFFFFFH, R3
000015CC 7F87                    		SMOVU
000015CE                         L500:	; bb13.split4
                                 ;     836 
                                 ;     837 	// special processing for system groups and stripping tokens for groups
                                 ;     838 	if (nv->group[0] != NUL) {
                                 		.LINE  "C:\Workspace\e2studio\git\MT01_master\src\cnc\config.c",838
000015CE A809                    		MOV.L 04H[R0], R1
000015D0 B511                    		MOVU.B 14H[R1], R1
000015D2 6101                    		CMP #00H, R1
000015D4 20rr                    		BEQ L504
000015D6                         L501:	; bb44
                                 ;     839 		if (GET_TABLE_BYTE(flags) & F_NOSTRIP) {
                                 		.LINE  "C:\Workspace\e2studio\git\MT01_master\src\cnc\config.c",839
000015D6 A80C                    		MOV.L 04H[R0], R4
000015D8 B941                    		MOVU.W 08H[R4], R1
000015DA 6C51                    		SHLL #05H, R1
000015DC FBE2rrrrrrrr            		MOV.L #_cfgArray, R14
000015E2 4B1E                    		ADD R1, R14
000015E4 F5E20A                  		BTST #02H, 0AH[R14].B
000015E7 10                   S  		BEQ L503
000015E8                         L502:	; bb45
                                 ;     840 			nv->group[0] = NUL;
                                 		.LINE  "C:\Workspace\e2studio\git\MT01_master\src\cnc\config.c",840
000015E8 3CC400                  		MOV.B #00H, 14H[R4]
000015EB 2Err                 B  		BRA L504
000015ED                         L503:	; bb50
                                 ;     841 		} else {
                                 ;     842 			strcpy(nv->token, &nv->token[strlen(nv->group)]); // strip group from the token
                                 		.LINE  "C:\Workspace\e2studio\git\MT01_master\src\cnc\config.c",842
000015ED A80D                    		MOV.L 04H[R0], R5
000015EF 715114                  		ADD #14H, R5, R1
000015F2 FBE6FF                  		MOV.L #0FFFFFFFFH, R14
000015F5 6602                    		MOV.L #00000000H, R2
000015F7 EFE3                    		MOV.L R14, R3
000015F9 7F80                    		SUNTIL.B
000015FB FBF6FE                  		MOV.L #0FFFFFFFEH, R15
000015FE 433F                    		SUB R3, R15
00001600 4BF5                    		ADD R15, R5
00001602 EF52                    		MOV.L R5, R2
00001604 712218                  		ADD #18H, R2
00001607 EF41                    		MOV.L R4, R1
00001609 711118                  		ADD #18H, R1
0000160C EFE3                    		MOV.L R14, R3
0000160E 7F87                    		SMOVU
00001610                         L504:	; bb85
                                 ;     843 		}
                                 ;     844 	}
                                 ;     845 	((fptrCmd)GET_TABLE_WORD(get))(nv);		// populate the value
                                 		.LINE  "C:\Workspace\e2studio\git\MT01_master\src\cnc\config.c",845
00001610 A809                    		MOV.L 04H[R0], R1
00001612 B912                    		MOVU.W 08H[R1], R2
00001614 6C52                    		SHLL #05H, R2
00001616 FB32rrrrrrrr            		MOV.L #_cfgArray, R3
0000161C 4B23                    		ADD R2, R3
0000161E A932                    		MOV.L 10H[R3], R2
00001620 7F12                    		JSR R2
00001622 3F6603                  		RTSD #0CH, R6-R6
00001625                         L505:	; return
                                 ;     846 }
                                 		.LINE  "C:\Workspace\e2studio\git\MT01_master\src\cnc\config.c",846
00001625 3F6603                  		RTSD #0CH, R6-R6
00001628                         _nv_reset_nv:
                                 		.STACK	_nv_reset_nv=12
                                 ;     847 
                                 ;     848 nvObj_t *nv_reset_nv(nvObj_t *nv)			// clear a single nvObj structure
                                 		.LINE  "C:\Workspace\e2studio\git\MT01_master\src\cnc\config.c",848
00001628 6080                    		SUB #08H, R0
0000162A A009                    		MOV.L R1, 04H[R0]
                                 ;     849 {
                                 ;     850 	nv->valuetype = TYPE_EMPTY;				// selective clear is much faster than calling memset
                                 		.LINE  "C:\Workspace\e2studio\git\MT01_master\src\cnc\config.c",850
0000162C 3C1BFF                  		MOV.B #0FFH, 0BH[R1]
0000162F                         L507:	; entry.split
                                 ;     851 	nv->index = 0;
                                 		.LINE  "C:\Workspace\e2studio\git\MT01_master\src\cnc\config.c",851
0000162F A809                    		MOV.L 04H[R0], R1
00001631 3D1400                  		MOV.W #0000H, 08H[R1]
00001634                         L508:	; entry.split1
                                 ;     852 	nv->value = 0;
                                 		.LINE  "C:\Workspace\e2studio\git\MT01_master\src\cnc\config.c",852
00001634 A809                    		MOV.L 04H[R0], R1
00001636 3E1400                  		MOV.L #00000000H, 10H[R1]
00001639                         L509:	; entry.split2
                                 ;     853 	nv->precision = 0;
                                 		.LINE  "C:\Workspace\e2studio\git\MT01_master\src\cnc\config.c",853
00001639 A809                    		MOV.L 04H[R0], R1
0000163B 3C1C00                  		MOV.B #00H, 0CH[R1]
0000163E                         L510:	; entry.split3
                                 ;     854 	nv->token[0] = NUL;
                                 		.LINE  "C:\Workspace\e2studio\git\MT01_master\src\cnc\config.c",854
0000163E A809                    		MOV.L 04H[R0], R1
00001640 3C9800                  		MOV.B #00H, 18H[R1]
00001643                         L511:	; entry.split4
                                 ;     855 	nv->group[0] = NUL;
                                 		.LINE  "C:\Workspace\e2studio\git\MT01_master\src\cnc\config.c",855
00001643 A809                    		MOV.L 04H[R0], R1
00001645 3C9400                  		MOV.B #00H, 14H[R1]
00001648                         L512:	; entry.split5
                                 ;     856 	nv->stringp = NULL;
                                 		.LINE  "C:\Workspace\e2studio\git\MT01_master\src\cnc\config.c",856
00001648 A809                    		MOV.L 04H[R0], R1
0000164A 3E1800                  		MOV.L #00000000H, 20H[R1]
0000164D                         L513:	; entry.split6
                                 ;     857 
                                 ;     858 	if (nv->pv == NULL) { 					// set depth correctly
                                 		.LINE  "C:\Workspace\e2studio\git\MT01_master\src\cnc\config.c",858
0000164D A809                    		MOV.L 04H[R0], R1
0000164F EC1E                    		MOV.L [R1], R14
00001651 610E                    		CMP #00H, R14
00001653 18                   S  		BNE L515
00001654                         L514:	; bb20
                                 ;     859 		nv->depth = 0;
                                 		.LINE  "C:\Workspace\e2studio\git\MT01_master\src\cnc\config.c",859
00001654 3C1A00                  		MOV.B #00H, 0AH[R1]
00001657 2Err                 B  		BRA L518
00001659                         L515:	; bb24
                                 ;     860 	} else {
                                 ;     861 		if (nv->pv->valuetype == TYPE_PARENT) {
                                 		.LINE  "C:\Workspace\e2studio\git\MT01_master\src\cnc\config.c",861
00001659 EC11                    		MOV.L [R1], R1
0000165B 8A99                    		MOV.B 0BH[R1], R1
0000165D 6171                    		CMP #07H, R1
0000165F A809                    		MOV.L 04H[R0], R1
00001661 EC12                    		MOV.L [R1], R2
00001663 B2A2                    		MOVU.B 0AH[R2], R2
00001665 18                   S  		BNE L517
00001666                         L516:	; bb25
                                 ;     862 			nv->depth = nv->pv->depth + 1;
                                 		.LINE  "C:\Workspace\e2studio\git\MT01_master\src\cnc\config.c",862
00001666 CF22                    		MOV.B R2, R2
00001668 6212                    		ADD #01H, R2
0000166A 8292                    		MOV.B R2, 0AH[R1]
0000166C 08                   S  		BRA L518
0000166D                         L517:	; bb36
                                 ;     863 		} else {
                                 ;     864 			nv->depth = nv->pv->depth;
                                 		.LINE  "C:\Workspace\e2studio\git\MT01_master\src\cnc\config.c",864
0000166D 8292                    		MOV.B R2, 0AH[R1]
0000166F                         L518:	; bb59
                                 ;     865 		}
                                 ;     866 	}
                                 ;     867 	return (nv);							// return pointer to nv as a convenience to callers
                                 		.LINE  "C:\Workspace\e2studio\git\MT01_master\src\cnc\config.c",867
0000166F A809                    		MOV.L 04H[R0], R1
00001671 E301                    		MOV.L R1, [R0]
00001673                         L519:	; bb59.split
                                 ;     868 }
                                 		.LINE  "C:\Workspace\e2studio\git\MT01_master\src\cnc\config.c",868
00001673 6702                    		RTSD #08H
00001675                         _nv_reset_nv_list:
                                 		.STACK	_nv_reset_nv_list=16
                                 ;     869 
                                 ;     870 nvObj_t *nv_reset_nv_list()					// clear the header and response body
                                 		.LINE  "C:\Workspace\e2studio\git\MT01_master\src\cnc\config.c",870
00001675 60C0                    		SUB #0CH, R0
                                 ;     871 {
                                 ;     872 	nvStr.wp = 0;							// reset the shared string
                                 		.LINE  "C:\Workspace\e2studio\git\MT01_master\src\cnc\config.c",872
00001677 FB12rrrrrrrr            		MOV.L #_nvStr, R1
0000167D 3D1100                  		MOV.W #0000H, 02H[R1]
00001680                         L521:	; entry.split
                                 ;     873 	nvObj_t *nv = nvl.list;					// set up linked list and initialize elements
                                 		.LINE  "C:\Workspace\e2studio\git\MT01_master\src\cnc\config.c",873
00001680 FB12rrrrrrrr            		MOV.L #_nvl, R1
00001686 6241                    		ADD #04H, R1
00001688 E301                    		MOV.L R1, [R0]
0000168A                         L522:	; entry.split1
                                 ;     874 	for (uint8_t i=0; i<NV_LIST_LEN; i++, nv++) {
                                 		.LINE  "C:\Workspace\e2studio\git\MT01_master\src\cnc\config.c",874
0000168A 3C0700                  		MOV.B #00H, 07H[R0]
0000168D 2Err                 B  		BRA L530
0000168F                         L523:	; bb
                                 ;     875 		nv->pv = (nv-1);					// the ends are bogus & corrected later
                                 		.LINE  "C:\Workspace\e2studio\git\MT01_master\src\cnc\config.c",875
0000168F EC02                    		MOV.L [R0], R2
00001691 7122DC                  		ADD #0FFFFFFDCH, R2
00001694 E312                    		MOV.L R2, [R1]
00001696                         L524:	; bb.split
                                 ;     876 		nv->nx = (nv+1);
                                 		.LINE  "C:\Workspace\e2studio\git\MT01_master\src\cnc\config.c",876
00001696 EC01                    		MOV.L [R0], R1
00001698 711224                  		ADD #24H, R1, R2
0000169B A01A                    		MOV.L R2, 04H[R1]
0000169D                         L525:	; bb.split2
                                 ;     877 		nv->index = 0;
                                 		.LINE  "C:\Workspace\e2studio\git\MT01_master\src\cnc\config.c",877
0000169D EC01                    		MOV.L [R0], R1
0000169F 3D1400                  		MOV.W #0000H, 08H[R1]
000016A2                         L526:	; bb.split3
                                 ;     878 		nv->depth = 1;						// header and footer are corrected later
                                 		.LINE  "C:\Workspace\e2studio\git\MT01_master\src\cnc\config.c",878
000016A2 EC01                    		MOV.L [R0], R1
000016A4 3C1A01                  		MOV.B #01H, 0AH[R1]
000016A7                         L527:	; bb.split4
                                 ;     879 		nv->precision = 0;
                                 		.LINE  "C:\Workspace\e2studio\git\MT01_master\src\cnc\config.c",879
000016A7 EC01                    		MOV.L [R0], R1
000016A9 3C1C00                  		MOV.B #00H, 0CH[R1]
000016AC                         L528:	; bb.split5
                                 ;     880 		nv->valuetype = TYPE_EMPTY;
                                 		.LINE  "C:\Workspace\e2studio\git\MT01_master\src\cnc\config.c",880
000016AC EC01                    		MOV.L [R0], R1
000016AE 3C1BFF                  		MOV.B #0FFH, 0BH[R1]
000016B1                         L529:	; bb.split6
                                 ;     881 		nv->token[0] = NUL;
                                 		.LINE  "C:\Workspace\e2studio\git\MT01_master\src\cnc\config.c",881
000016B1 EC01                    		MOV.L [R0], R1
000016B3 3C9800                  		MOV.B #00H, 18H[R1]
000016B6 B189                    		MOVU.B 07H[R0], R1
000016B8 6211                    		ADD #01H, R1
000016BA 8189                    		MOV.B R1, 07H[R0]
000016BC EC01                    		MOV.L [R0], R1
000016BE 711124                  		ADD #24H, R1
000016C1 E301                    		MOV.L R1, [R0]
000016C3                         L530:	; bb29
                                 		.LINE  "C:\Workspace\e2studio\git\MT01_master\src\cnc\config.c",874
000016C3 B189                    		MOVU.B 07H[R0], R1
000016C5 755120                  		CMP #20H, R1
000016C8 EC01                    		MOV.L [R0], R1
000016CA 29rr                    		BLT L523
000016CC                         L531:	; bb34
                                 ;     882 	}
                                 ;     883 	(--nv)->nx = NULL;
                                 		.LINE  "C:\Workspace\e2studio\git\MT01_master\src\cnc\config.c",883
000016CC 7112DC                  		ADD #0FFFFFFDCH, R1, R2
000016CF E302                    		MOV.L R2, [R0]
000016D1 7111E0                  		ADD #0FFFFFFE0H, R1
000016D4 F81600                  		MOV.L #00000000H, [R1]
000016D7                         L532:	; bb34.split
                                 ;     884 	nv = nvl.list;							// setup response header element ('r')
                                 		.LINE  "C:\Workspace\e2studio\git\MT01_master\src\cnc\config.c",884
000016D7 FB12rrrrrrrr            		MOV.L #_nvl, R1
000016DD 6241                    		ADD #04H, R1
000016DF E301                    		MOV.L R1, [R0]
000016E1                         L533:	; bb34.split7
                                 ;     885 	nv->pv = NULL;
                                 		.LINE  "C:\Workspace\e2studio\git\MT01_master\src\cnc\config.c",885
000016E1 EC01                    		MOV.L [R0], R1
000016E3 F81600                  		MOV.L #00000000H, [R1]
000016E6                         L534:	; bb34.split8
                                 ;     886 	nv->depth = 0;
                                 		.LINE  "C:\Workspace\e2studio\git\MT01_master\src\cnc\config.c",886
000016E6 EC01                    		MOV.L [R0], R1
000016E8 3C1A00                  		MOV.B #00H, 0AH[R1]
000016EB                         L535:	; bb34.split9
                                 ;     887 	nv->valuetype = TYPE_PARENT;
                                 		.LINE  "C:\Workspace\e2studio\git\MT01_master\src\cnc\config.c",887
000016EB EC01                    		MOV.L [R0], R1
000016ED 3C1B07                  		MOV.B #07H, 0BH[R1]
000016F0                         L536:	; bb34.split10
                                 ;     888 	strcpy(nv->token, "r");
                                 		.LINE  "C:\Workspace\e2studio\git\MT01_master\src\cnc\config.c",888
000016F0 EC01                    		MOV.L [R0], R1
000016F2 FBE2rrrrrrrr            		MOV.L #_L35, R14
000016F8 D4E10C                  		MOV.W [R14], 18H[R1]
000016FB                         L537:	; bb34.split11
                                 ;     889 	return (nv_body);						// this is a convenience for calling routines
                                 		.LINE  "C:\Workspace\e2studio\git\MT01_master\src\cnc\config.c",889
000016FB FB12rrrrrrrr            		MOV.L #_nvl, R1
00001701 711128                  		ADD #28H, R1
00001704 A081                    		MOV.L R1, 08H[R0]
00001706                         L538:	; bb34.split12
                                 ;     890 }
                                 		.LINE  "C:\Workspace\e2studio\git\MT01_master\src\cnc\config.c",890
00001706 6703                    		RTSD #0CH
00001708                         _nv_copy_string:
                                 		.STACK	_nv_copy_string=24
                                 ;     891 
                                 ;     892 stat_t nv_copy_string(nvObj_t *nv, const char_t *src)
                                 		.LINE  "C:\Workspace\e2studio\git\MT01_master\src\cnc\config.c",892
00001708 7100EC                  		ADD #0FFFFFFECH, R0
0000170B A101                    		MOV.L R1, 10H[R0]
0000170D A08A                    		MOV.L R2, 0CH[R0]
0000170F FB36FF                  		MOV.L #0FFFFFFFFH, R3
00001712 660E                    		MOV.L #00000000H, R14
                                 ;     893 {
                                 ;     894 	if ((nvStr.wp + strlen(src)) > NV_SHARED_STRING_LEN)
                                 		.LINE  "C:\Workspace\e2studio\git\MT01_master\src\cnc\config.c",894
00001714 EF21                    		MOV.L R2, R1
00001716 EFE2                    		MOV.L R14, R2
00001718 7F80                    		SUNTIL.B
0000171A FBE6FE                  		MOV.L #0FFFFFFFEH, R14
0000171D 433E                    		SUB R3, R14
0000171F FBF2rrrrrrrr            		MOV.L #_nvStr, R15
00001725 06C9FE01                		ADD 02H[R15].UW, R14
00001729 760E0102                		CMP #0201H, R14
0000172D 23rr                    		BLTU L541
0000172F                         L540:	; bb4
                                 ;     895         return (STAT_BUFFER_FULL);
                                 		.LINE  "C:\Workspace\e2studio\git\MT01_master\src\cnc\config.c",895
0000172F 3C030D                  		MOV.B #0DH, 03H[R0]
00001732 2Err                 B  		BRA L546
00001734                         L541:	; bb13
                                 ;     896 
                                 ;     897 	char_t *dst = &nvStr.string[nvStr.wp];
                                 		.LINE  "C:\Workspace\e2studio\git\MT01_master\src\cnc\config.c",897
00001734 FB12rrrrrrrr            		MOV.L #_nvStr, R1
0000173A 06C91101                		ADD 02H[R1].UW, R1
0000173E 6241                    		ADD #04H, R1
00001740 A009                    		MOV.L R1, 04H[R0]
00001742                         L542:	; bb13.split
00001742 FB36FF                  		MOV.L #0FFFFFFFFH, R3
                                 ;     898 	strcpy(dst, src);						// copy string to current head position
                                 		.LINE  "C:\Workspace\e2studio\git\MT01_master\src\cnc\config.c",898
00001745 A88A                    		MOV.L 0CH[R0], R2
00001747 A809                    		MOV.L 04H[R0], R1
00001749 7F87                    		SMOVU
0000174B                         L543:	; bb13.split1
0000174B FB36FF                  		MOV.L #0FFFFFFFFH, R3
0000174E 6602                    		MOV.L #00000000H, R2
                                 ;     899 											// string has already been tested for overflow, above
                                 ;     900 	nvStr.wp += strlen(src)+1;				// advance head for next string
                                 		.LINE  "C:\Workspace\e2studio\git\MT01_master\src\cnc\config.c",900
00001750 A889                    		MOV.L 0CH[R0], R1
00001752 7F80                    		SUNTIL.B
00001754 FB16FE                  		MOV.L #0FFFFFFFEH, R1
00001757 4331                    		SUB R3, R1
00001759 FB22rrrrrrrr            		MOV.L #_nvStr, R2
0000175F 06C92101                		ADD 02H[R2].UW, R1
00001763 6211                    		ADD #01H, R1
00001765 9029                    		MOV.W R1, 02H[R2]
00001767                         L544:	; bb13.split2
                                 ;     901 	nv->stringp = (char_t (*)[])dst;
                                 		.LINE  "C:\Workspace\e2studio\git\MT01_master\src\cnc\config.c",901
00001767 A809                    		MOV.L 04H[R0], R1
00001769 A902                    		MOV.L 10H[R0], R2
0000176B A221                    		MOV.L R1, 20H[R2]
0000176D                         L545:	; bb13.split3
                                 ;     902 	return (STAT_OK);
                                 		.LINE  "C:\Workspace\e2studio\git\MT01_master\src\cnc\config.c",902
0000176D 3C0300                  		MOV.B #00H, 03H[R0]
00001770                         L546:	; bb31
00001770 C500030B                		MOV.B 03H[R0], 0BH[R0]
                                 ;     903 }
                                 		.LINE  "C:\Workspace\e2studio\git\MT01_master\src\cnc\config.c",903
00001774 B289                    		MOVU.B 0BH[R0], R1
00001776 6705                    		RTSD #14H
00001778                         _nv_add_object:
                                 		.STACK	_nv_add_object=28
                                 ;     904 
                                 ;     905 /* UNUSED
                                 ;     906 stat_t nv_copy_string_P(nvObj_t *nv, const char_t *src_P)
                                 ;     907 {
                                 ;     908 	char_t buf[NV_SHARED_STRING_LEN];
                                 ;     909 	strncpy_P(buf, src_P, NV_SHARED_STRING_LEN);
                                 ;     910 	return (nv_copy_string(nv, buf));
                                 ;     911 }
                                 ;     912 */
                                 ;     913 
                                 ;     914 nvObj_t *nv_add_object(const char_t *token)  // add an object to the body using a token
                                 		.LINE  "C:\Workspace\e2studio\git\MT01_master\src\cnc\config.c",914
00001778 7EA6                    		PUSH.L R6
0000177A 7100EC                  		ADD #0FFFFFFECH, R0
0000177D A101                    		MOV.L R1, 10H[R0]
                                 ;     915 {
                                 ;     916 	nvObj_t *nv = nv_body;
                                 		.LINE  "C:\Workspace\e2studio\git\MT01_master\src\cnc\config.c",916
0000177F FB12rrrrrrrr            		MOV.L #_nvl, R1
00001785 711128                  		ADD #28H, R1
00001788 A009                    		MOV.L R1, 04H[R0]
0000178A                         L548:	; entry.split
                                 ;     917 	for (uint8_t i=0; i<NV_BODY_LEN; i++) {
                                 		.LINE  "C:\Workspace\e2studio\git\MT01_master\src\cnc\config.c",917
0000178A 3C0B00                  		MOV.B #00H, 0BH[R0]
0000178D 2Err                 B  		BRA L557
0000178F                         L549:	; bb4
                                 ;     918 		if (nv->valuetype != TYPE_EMPTY) {
                                 		.LINE  "C:\Workspace\e2studio\git\MT01_master\src\cnc\config.c",918
0000178F A80E                    		MOV.L 04H[R0], R6
00001791 8AE9                    		MOV.B 0BH[R6], R1
00001793 7501FF                  		CMP #0FFFFFFFFH, R1
00001796 20rr                    		BEQ L552
00001798                         L550:	; bb6
                                 ;     919 			if ((nv = nv->nx) == NULL) return(NULL); // not supposed to find a NULL; here for safety
                                 		.LINE  "C:\Workspace\e2studio\git\MT01_master\src\cnc\config.c",919
00001798 A86E                    		MOV.L 04H[R6], R6
0000179A A00E                    		MOV.L R6, 04H[R0]
0000179C 6106                    		CMP #00H, R6
0000179E 21rr                    		BNE L556
000017A0                         L551:	; bb7
000017A0 F80600                  		MOV.L #00000000H, [R0]
000017A3 2Err                 B  		BRA L559
000017A5                         L552:	; bb25
                                 ;     920 			continue;
                                 ;     921 		}
                                 ;     922 		// load the index from the token or die trying
                                 ;     923 		if ((nv->index = nv_get_index((const char_t *)"",token)) == NO_MATCH) { return (NULL);}
                                 		.LINE  "C:\Workspace\e2studio\git\MT01_master\src\cnc\config.c",923
000017A5 A902                    		MOV.L 10H[R0], R2
000017A7 FB12rrrrrrrr            		MOV.L #_L18, R1
000017AD 39rrrr               W  		BSR _nv_get_index
000017B0 9161                    		MOV.W R1, 08H[R6]
000017B2 7701FFFF00              		CMP #0FFFFH, R1
000017B7 18                   S  		BNE L554
000017B8                         L553:	; bb26
000017B8 F80600                  		MOV.L #00000000H, [R0]
000017BB 2Err                 B  		BRA L559
000017BD                         L554:	; bb37
                                 ;     924 		nv_get_nvObj(nv);				// populate the object from the index
                                 		.LINE  "C:\Workspace\e2studio\git\MT01_master\src\cnc\config.c",924
000017BD A809                    		MOV.L 04H[R0], R1
000017BF 39rrrr               W  		BSR _nv_get_nvObj
000017C2                         L555:	; bb37.split
                                 ;     925 		return (nv);
                                 		.LINE  "C:\Workspace\e2studio\git\MT01_master\src\cnc\config.c",925
000017C2 E10001                  		MOV.L 04H[R0], [R0]
000017C5 2Err                 B  		BRA L559
000017C7                         L556:	; bb41
                                 		.LINE  "C:\Workspace\e2studio\git\MT01_master\src\cnc\config.c",920
000017C7 B289                    		MOVU.B 0BH[R0], R1
000017C9 6211                    		ADD #01H, R1
000017CB 8289                    		MOV.B R1, 0BH[R0]
000017CD                         L557:	; bb44
                                 		.LINE  "C:\Workspace\e2studio\git\MT01_master\src\cnc\config.c",917
000017CD B289                    		MOVU.B 0BH[R0], R1
000017CF 75511E                  		CMP #1EH, R1
000017D2 29rr                    		BLT L549
000017D4                         L558:	; bb50
                                 ;     926 	}
                                 ;     927 	return (NULL);
                                 		.LINE  "C:\Workspace\e2studio\git\MT01_master\src\cnc\config.c",927
000017D4 F80600                  		MOV.L #00000000H, [R0]
000017D7                         L559:	; bb52
000017D7 EC01                    		MOV.L [R0], R1
000017D9 A089                    		MOV.L R1, 0CH[R0]
                                 ;     928 }
                                 		.LINE  "C:\Workspace\e2studio\git\MT01_master\src\cnc\config.c",928
000017DB 3F6606                  		RTSD #18H, R6-R6
000017DE                         _nv_add_integer:
                                 		.STACK	_nv_add_integer=28
                                 ;     929 
                                 ;     930 nvObj_t *nv_add_integer(const char_t *token, const uint32_t value)// add an integer object to the body
                                 		.LINE  "C:\Workspace\e2studio\git\MT01_master\src\cnc\config.c",930
000017DE 7100E8                  		ADD #0FFFFFFE8H, R0
000017E1 A109                    		MOV.L R1, 14H[R0]
000017E3 A102                    		MOV.L R2, 10H[R0]
                                 ;     931 {
                                 ;     932 	nvObj_t *nv = nv_body;
                                 		.LINE  "C:\Workspace\e2studio\git\MT01_master\src\cnc\config.c",932
000017E5 FB12rrrrrrrr            		MOV.L #_nvl, R1
000017EB 711128                  		ADD #28H, R1
000017EE A009                    		MOV.L R1, 04H[R0]
000017F0                         L561:	; entry.split
                                 ;     933 	for (uint8_t i=0; i<NV_BODY_LEN; i++) {
                                 		.LINE  "C:\Workspace\e2studio\git\MT01_master\src\cnc\config.c",933
000017F0 3C0B00                  		MOV.B #00H, 0BH[R0]
000017F3 2Err                 B  		BRA L573
000017F5                         L562:	; bb5
                                 ;     934 		if (nv->valuetype != TYPE_EMPTY) {
                                 		.LINE  "C:\Workspace\e2studio\git\MT01_master\src\cnc\config.c",934
000017F5 A80C                    		MOV.L 04H[R0], R4
000017F7 8AC9                    		MOV.B 0BH[R4], R1
000017F9 7501FF                  		CMP #0FFFFFFFFH, R1
000017FC 20rr                    		BEQ L565
000017FE                         L563:	; bb7
                                 ;     935 			if ((nv = nv->nx) == NULL) return(NULL); // not supposed to find a NULL; here for safety
                                 		.LINE  "C:\Workspace\e2studio\git\MT01_master\src\cnc\config.c",935
000017FE A84C                    		MOV.L 04H[R4], R4
00001800 A00C                    		MOV.L R4, 04H[R0]
00001802 6104                    		CMP #00H, R4
00001804 21rr                    		BNE L572
00001806                         L564:	; bb8
00001806 F80600                  		MOV.L #00000000H, [R0]
00001809 2Err                 B  		BRA L575
0000180B                         L565:	; bb25
                                 ;     936 			continue;
                                 ;     937 		}
                                 ;     938 		strncpy(nv->token, token, TOKEN_LEN);
                                 		.LINE  "C:\Workspace\e2studio\git\MT01_master\src\cnc\config.c",938
0000180B 714118                  		ADD #18H, R4, R1
0000180E 6653                    		MOV.L #00000005H, R3
00001810 A90A                    		MOV.L 14H[R0], R2
00001812 7F87                    		SMOVU
00001814 71441D                  		ADD #1DH, R4
00001817 EF41                    		MOV.L R4, R1
00001819 4331                    		SUB R3, R1
0000181B 6602                    		MOV.L #00000000H, R2
0000181D 7F88                    		SSTR.B
0000181F                         L566:	; bb25.split
                                 ;     939 		nv->value = (float) value;
                                 		.LINE  "C:\Workspace\e2studio\git\MT01_master\src\cnc\config.c",939
0000181F A901                    		MOV.L 10H[R0], R1
00001821 7DF1                    		BTST #1FH, R1
00001823 20rr                    		BEQ L568
00001825                         L567:	; bb25.split
00001825 FD811E                  		SHLR #01H, R1, R14
00001828 6411                    		AND #01H, R1
0000182A 57E1                    		OR R14, R1
0000182C FC4711                  		ITOF R1, R1
0000182F FC8B11                  		FADD R1, R1
00001832 08                   S  		BRA L569
00001833                         L568:	; bb25.split
00001833 FC4711                  		ITOF R1, R1
00001836                         L569:	; bb25.split
00001836 A80A                    		MOV.L 04H[R0], R2
00001838 A121                    		MOV.L R1, 10H[R2]
0000183A                         L570:	; bb25.split1
                                 ;     940 		nv->valuetype = TYPE_INTEGER;
                                 		.LINE  "C:\Workspace\e2studio\git\MT01_master\src\cnc\config.c",940
0000183A A809                    		MOV.L 04H[R0], R1
0000183C 3C1B02                  		MOV.B #02H, 0BH[R1]
0000183F                         L571:	; bb25.split2
                                 ;     941 		return (nv);
                                 		.LINE  "C:\Workspace\e2studio\git\MT01_master\src\cnc\config.c",941
0000183F E10001                  		MOV.L 04H[R0], [R0]
00001842 2Err                 B  		BRA L575
00001844                         L572:	; bb38
                                 		.LINE  "C:\Workspace\e2studio\git\MT01_master\src\cnc\config.c",936
00001844 B289                    		MOVU.B 0BH[R0], R1
00001846 6211                    		ADD #01H, R1
00001848 8289                    		MOV.B R1, 0BH[R0]
0000184A                         L573:	; bb41
                                 		.LINE  "C:\Workspace\e2studio\git\MT01_master\src\cnc\config.c",933
0000184A B289                    		MOVU.B 0BH[R0], R1
0000184C 75511E                  		CMP #1EH, R1
0000184F 29rr                    		BLT L562
00001851                         L574:	; bb47
                                 ;     942 	}
                                 ;     943 	return (NULL);
                                 		.LINE  "C:\Workspace\e2studio\git\MT01_master\src\cnc\config.c",943
00001851 F80600                  		MOV.L #00000000H, [R0]
00001854                         L575:	; bb49
00001854 EC01                    		MOV.L [R0], R1
00001856 A089                    		MOV.L R1, 0CH[R0]
                                 ;     944 }
                                 		.LINE  "C:\Workspace\e2studio\git\MT01_master\src\cnc\config.c",944
00001858 6706                    		RTSD #18H
0000185A                         _nv_add_data:
                                 		.STACK	_nv_add_data=32
                                 ;     945 
                                 ;     946 nvObj_t *nv_add_data(const char_t *token, const uint32_t value)// add an integer object to the body
                                 		.LINE  "C:\Workspace\e2studio\git\MT01_master\src\cnc\config.c",946
0000185A 7100E4                  		ADD #0FFFFFFE4H, R0
0000185D A181                    		MOV.L R1, 18H[R0]
0000185F A10A                    		MOV.L R2, 14H[R0]
                                 ;     947 {
                                 ;     948 	nvObj_t *nv = nv_body;
                                 		.LINE  "C:\Workspace\e2studio\git\MT01_master\src\cnc\config.c",948
00001861 FB12rrrrrrrr            		MOV.L #_nvl, R1
00001867 711128                  		ADD #28H, R1
0000186A A009                    		MOV.L R1, 04H[R0]
0000186C                         L577:	; entry.split
                                 ;     949 	for (uint8_t i=0; i<NV_BODY_LEN; i++) {
                                 		.LINE  "C:\Workspace\e2studio\git\MT01_master\src\cnc\config.c",949
0000186C 3C0B00                  		MOV.B #00H, 0BH[R0]
0000186F 2Err                 B  		BRA L587
00001871                         L578:	; bb6
                                 ;     950 		if (nv->valuetype != TYPE_EMPTY) {
                                 		.LINE  "C:\Workspace\e2studio\git\MT01_master\src\cnc\config.c",950
00001871 A809                    		MOV.L 04H[R0], R1
00001873 8A9A                    		MOV.B 0BH[R1], R2
00001875 7502FF                  		CMP #0FFFFFFFFH, R2
00001878 20rr                    		BEQ L581
0000187A                         L579:	; bb8
                                 ;     951 			if ((nv = nv->nx) == NULL) return(NULL); // not supposed to find a NULL; here for safety
                                 		.LINE  "C:\Workspace\e2studio\git\MT01_master\src\cnc\config.c",951
0000187A A819                    		MOV.L 04H[R1], R1
0000187C A009                    		MOV.L R1, 04H[R0]
0000187E 6101                    		CMP #00H, R1
00001880 21rr                    		BNE L586
00001882                         L580:	; bb9
00001882 F80600                  		MOV.L #00000000H, [R0]
00001885 2Err                 B  		BRA L589
00001887                         L581:	; bb26
                                 ;     952 			continue;
                                 ;     953 		}
                                 ;     954 		strcpy(nv->token, token);
                                 		.LINE  "C:\Workspace\e2studio\git\MT01_master\src\cnc\config.c",954
00001887 711118                  		ADD #18H, R1
0000188A FB36FF                  		MOV.L #0FFFFFFFFH, R3
0000188D A982                    		MOV.L 18H[R0], R2
0000188F 7F87                    		SMOVU
00001891                         L582:	; bb26.split
00001891 710114                  		ADD #14H, R0, R1
                                 ;     955 		float *v = (float*)&value;
                                 		.LINE  "C:\Workspace\e2studio\git\MT01_master\src\cnc\config.c",955
00001894 A089                    		MOV.L R1, 0CH[R0]
00001896                         L583:	; bb26.split1
                                 ;     956 		nv->value = *v;
                                 		.LINE  "C:\Workspace\e2studio\git\MT01_master\src\cnc\config.c",956
00001896 A889                    		MOV.L 0CH[R0], R1
00001898 A80A                    		MOV.L 04H[R0], R2
0000189A E41204                  		MOV.L [R1], 10H[R2]
0000189D                         L584:	; bb26.split2
                                 ;     957 		nv->valuetype = TYPE_DATA;
                                 		.LINE  "C:\Workspace\e2studio\git\MT01_master\src\cnc\config.c",957
0000189D A809                    		MOV.L 04H[R0], R1
0000189F 3C1B03                  		MOV.B #03H, 0BH[R1]
000018A2                         L585:	; bb26.split3
                                 ;     958 		return (nv);
                                 		.LINE  "C:\Workspace\e2studio\git\MT01_master\src\cnc\config.c",958
000018A2 E10001                  		MOV.L 04H[R0], [R0]
000018A5 2Err                 B  		BRA L589
000018A7                         L586:	; bb40
                                 		.LINE  "C:\Workspace\e2studio\git\MT01_master\src\cnc\config.c",952
000018A7 B289                    		MOVU.B 0BH[R0], R1
000018A9 6211                    		ADD #01H, R1
000018AB 8289                    		MOV.B R1, 0BH[R0]
000018AD                         L587:	; bb43
                                 		.LINE  "C:\Workspace\e2studio\git\MT01_master\src\cnc\config.c",949
000018AD B289                    		MOVU.B 0BH[R0], R1
000018AF 75511E                  		CMP #1EH, R1
000018B2 29rr                    		BLT L578
000018B4                         L588:	; bb49
                                 ;     959 	}
                                 ;     960 	return (NULL);
                                 		.LINE  "C:\Workspace\e2studio\git\MT01_master\src\cnc\config.c",960
000018B4 F80600                  		MOV.L #00000000H, [R0]
000018B7                         L589:	; bb51
000018B7 EC01                    		MOV.L [R0], R1
000018B9 A101                    		MOV.L R1, 10H[R0]
                                 ;     961 }
                                 		.LINE  "C:\Workspace\e2studio\git\MT01_master\src\cnc\config.c",961
000018BB 6707                    		RTSD #1CH
000018BD                         _nv_add_float:
                                 		.STACK	_nv_add_float=28
                                 ;     962 
                                 ;     963 nvObj_t *nv_add_float(const char_t *token, const float value)	// add a float object to the body
                                 		.LINE  "C:\Workspace\e2studio\git\MT01_master\src\cnc\config.c",963
000018BD 7100E8                  		ADD #0FFFFFFE8H, R0
000018C0 A109                    		MOV.L R1, 14H[R0]
000018C2 A102                    		MOV.L R2, 10H[R0]
                                 ;     964 {
                                 ;     965 	nvObj_t *nv = nv_body;
                                 		.LINE  "C:\Workspace\e2studio\git\MT01_master\src\cnc\config.c",965
000018C4 FB12rrrrrrrr            		MOV.L #_nvl, R1
000018CA 711128                  		ADD #28H, R1
000018CD A009                    		MOV.L R1, 04H[R0]
000018CF                         L591:	; entry.split
                                 ;     966 	for (uint8_t i=0; i<NV_BODY_LEN; i++) {
                                 		.LINE  "C:\Workspace\e2studio\git\MT01_master\src\cnc\config.c",966
000018CF 3C0B00                  		MOV.B #00H, 0BH[R0]
000018D2 2Err                 B  		BRA L600
000018D4                         L592:	; bb5
                                 ;     967 		if (nv->valuetype != TYPE_EMPTY) {
                                 		.LINE  "C:\Workspace\e2studio\git\MT01_master\src\cnc\config.c",967
000018D4 A80C                    		MOV.L 04H[R0], R4
000018D6 8AC9                    		MOV.B 0BH[R4], R1
000018D8 7501FF                  		CMP #0FFFFFFFFH, R1
000018DB 20rr                    		BEQ L595
000018DD                         L593:	; bb7
                                 ;     968 			if ((nv = nv->nx) == NULL) return(NULL);		// not supposed to find a NULL; here for safety
                                 		.LINE  "C:\Workspace\e2studio\git\MT01_master\src\cnc\config.c",968
000018DD A84C                    		MOV.L 04H[R4], R4
000018DF A00C                    		MOV.L R4, 04H[R0]
000018E1 6104                    		CMP #00H, R4
000018E3 21rr                    		BNE L599
000018E5                         L594:	; bb8
000018E5 F80600                  		MOV.L #00000000H, [R0]
000018E8 2Err                 B  		BRA L602
000018EA                         L595:	; bb25
                                 ;     969 			continue;
                                 ;     970 		}
                                 ;     971 		strncpy(nv->token, token, TOKEN_LEN);
                                 		.LINE  "C:\Workspace\e2studio\git\MT01_master\src\cnc\config.c",971
000018EA 714118                  		ADD #18H, R4, R1
000018ED 6653                    		MOV.L #00000005H, R3
000018EF A90A                    		MOV.L 14H[R0], R2
000018F1 7F87                    		SMOVU
000018F3 71441D                  		ADD #1DH, R4
000018F6 EF41                    		MOV.L R4, R1
000018F8 4331                    		SUB R3, R1
000018FA 6602                    		MOV.L #00000000H, R2
000018FC 7F88                    		SSTR.B
000018FE                         L596:	; bb25.split
                                 ;     972 		nv->value = value;
                                 		.LINE  "C:\Workspace\e2studio\git\MT01_master\src\cnc\config.c",972
000018FE A901                    		MOV.L 10H[R0], R1
00001900 A80A                    		MOV.L 04H[R0], R2
00001902 A121                    		MOV.L R1, 10H[R2]
00001904                         L597:	; bb25.split1
                                 ;     973 		nv->valuetype = TYPE_FLOAT;
                                 		.LINE  "C:\Workspace\e2studio\git\MT01_master\src\cnc\config.c",973
00001904 A809                    		MOV.L 04H[R0], R1
00001906 3C1B04                  		MOV.B #04H, 0BH[R1]
00001909                         L598:	; bb25.split2
                                 ;     974 		return (nv);
                                 		.LINE  "C:\Workspace\e2studio\git\MT01_master\src\cnc\config.c",974
00001909 E10001                  		MOV.L 04H[R0], [R0]
0000190C 2Err                 B  		BRA L602
0000190E                         L599:	; bb37
                                 		.LINE  "C:\Workspace\e2studio\git\MT01_master\src\cnc\config.c",969
0000190E B289                    		MOVU.B 0BH[R0], R1
00001910 6211                    		ADD #01H, R1
00001912 8289                    		MOV.B R1, 0BH[R0]
00001914                         L600:	; bb40
                                 		.LINE  "C:\Workspace\e2studio\git\MT01_master\src\cnc\config.c",966
00001914 B289                    		MOVU.B 0BH[R0], R1
00001916 75511E                  		CMP #1EH, R1
00001919 29rr                    		BLT L592
0000191B                         L601:	; bb46
                                 ;     975 	}
                                 ;     976 	return (NULL);
                                 		.LINE  "C:\Workspace\e2studio\git\MT01_master\src\cnc\config.c",976
0000191B F80600                  		MOV.L #00000000H, [R0]
0000191E                         L602:	; bb48
0000191E EC01                    		MOV.L [R0], R1
00001920 A089                    		MOV.L R1, 0CH[R0]
                                 ;     977 }
                                 		.LINE  "C:\Workspace\e2studio\git\MT01_master\src\cnc\config.c",977
00001922 6706                    		RTSD #18H
00001924                         _nv_add_string:
                                 		.STACK	_nv_add_string=32
                                 ;     978 
                                 ;     979 // ASSUMES A RAM STRING. If you need to post a FLASH string use pstr2str to convert it to a RAM string
                                 ;     980 nvObj_t *nv_add_string(const char_t *token, const char_t *string) // add a string object to the body
                                 		.LINE  "C:\Workspace\e2studio\git\MT01_master\src\cnc\config.c",980
00001924 7EA6                    		PUSH.L R6
00001926 7100E8                  		ADD #0FFFFFFE8H, R0
00001929 A109                    		MOV.L R1, 14H[R0]
0000192B A102                    		MOV.L R2, 10H[R0]
                                 ;     981 {
                                 ;     982 	nvObj_t *nv = nv_body;
                                 		.LINE  "C:\Workspace\e2studio\git\MT01_master\src\cnc\config.c",982
0000192D FB12rrrrrrrr            		MOV.L #_nvl, R1
00001933 711128                  		ADD #28H, R1
00001936 A009                    		MOV.L R1, 04H[R0]
00001938                         L604:	; entry.split
                                 ;     983 	for (uint8_t i=0; i<NV_BODY_LEN; i++) {
                                 		.LINE  "C:\Workspace\e2studio\git\MT01_master\src\cnc\config.c",983
00001938 3C0B00                  		MOV.B #00H, 0BH[R0]
0000193B 2Err                 B  		BRA L615
0000193D                         L605:	; bb5
                                 ;     984 		if (nv->valuetype != TYPE_EMPTY) {
                                 		.LINE  "C:\Workspace\e2studio\git\MT01_master\src\cnc\config.c",984
0000193D A80C                    		MOV.L 04H[R0], R4
0000193F 8AC9                    		MOV.B 0BH[R4], R1
00001941 7501FF                  		CMP #0FFFFFFFFH, R1
00001944 20rr                    		BEQ L608
00001946                         L606:	; bb7
                                 ;     985 			if ((nv = nv->nx) == NULL) return(NULL);		// not supposed to find a NULL; here for safety
                                 		.LINE  "C:\Workspace\e2studio\git\MT01_master\src\cnc\config.c",985
00001946 A84C                    		MOV.L 04H[R4], R4
00001948 A00C                    		MOV.L R4, 04H[R0]
0000194A 6104                    		CMP #00H, R4
0000194C 21rr                    		BNE L614
0000194E                         L607:	; bb8
0000194E F80600                  		MOV.L #00000000H, [R0]
00001951 2Err                 B  		BRA L617
00001953                         L608:	; bb25
                                 ;     986 			continue;
                                 ;     987 		}
                                 ;     988 		strncpy(nv->token, token, TOKEN_LEN);
                                 		.LINE  "C:\Workspace\e2studio\git\MT01_master\src\cnc\config.c",988
00001953 714118                  		ADD #18H, R4, R1
00001956 6653                    		MOV.L #00000005H, R3
00001958 A90A                    		MOV.L 14H[R0], R2
0000195A 7F87                    		SMOVU
0000195C 71441D                  		ADD #1DH, R4
0000195F EF41                    		MOV.L R4, R1
00001961 4331                    		SUB R3, R1
00001963 6602                    		MOV.L #00000000H, R2
00001965 7F88                    		SSTR.B
00001967                         L609:	; bb25.split
                                 ;     989 		if (nv_copy_string(nv, string) != STAT_OK)
                                 		.LINE  "C:\Workspace\e2studio\git\MT01_master\src\cnc\config.c",989
00001967 A902                    		MOV.L 10H[R0], R2
00001969 A809                    		MOV.L 04H[R0], R1
0000196B 39rrrr               W  		BSR _nv_copy_string
0000196E 6101                    		CMP #00H, R1
00001970 10                   S  		BEQ L611
00001971                         L610:	; bb31
                                 ;     990             return (NULL);
                                 		.LINE  "C:\Workspace\e2studio\git\MT01_master\src\cnc\config.c",990
00001971 F80600                  		MOV.L #00000000H, [R0]
00001974 2Err                 B  		BRA L617
00001976                         L611:	; bb40
                                 ;     991 
                                 ;     992 		nv->index = nv_get_index((const char_t *)"", nv->token);
                                 		.LINE  "C:\Workspace\e2studio\git\MT01_master\src\cnc\config.c",992
00001976 A80E                    		MOV.L 04H[R0], R6
00001978 716218                  		ADD #18H, R6, R2
0000197B FB12rrrrrrrr            		MOV.L #_L18, R1
00001981 39rrrr               W  		BSR _nv_get_index
00001984 9161                    		MOV.W R1, 08H[R6]
00001986                         L612:	; bb40.split
                                 ;     993 		nv->valuetype = TYPE_STRING;
                                 		.LINE  "C:\Workspace\e2studio\git\MT01_master\src\cnc\config.c",993
00001986 A809                    		MOV.L 04H[R0], R1
00001988 3C1B05                  		MOV.B #05H, 0BH[R1]
0000198B                         L613:	; bb40.split1
                                 ;     994 		return (nv);
                                 		.LINE  "C:\Workspace\e2studio\git\MT01_master\src\cnc\config.c",994
0000198B E10001                  		MOV.L 04H[R0], [R0]
0000198E 2Err                 B  		BRA L617
00001990                         L614:	; bb51
                                 		.LINE  "C:\Workspace\e2studio\git\MT01_master\src\cnc\config.c",986
00001990 B289                    		MOVU.B 0BH[R0], R1
00001992 6211                    		ADD #01H, R1
00001994 8289                    		MOV.B R1, 0BH[R0]
00001996                         L615:	; bb54
                                 		.LINE  "C:\Workspace\e2studio\git\MT01_master\src\cnc\config.c",983
00001996 B289                    		MOVU.B 0BH[R0], R1
00001998 75511E                  		CMP #1EH, R1
0000199B 29rr                    		BLT L605
0000199D                         L616:	; bb60
                                 ;     995 	}
                                 ;     996 	return (NULL);
                                 		.LINE  "C:\Workspace\e2studio\git\MT01_master\src\cnc\config.c",996
0000199D F80600                  		MOV.L #00000000H, [R0]
000019A0                         L617:	; bb62
000019A0 EC01                    		MOV.L [R0], R1
000019A2 A089                    		MOV.L R1, 0CH[R0]
                                 ;     997 }
                                 		.LINE  "C:\Workspace\e2studio\git\MT01_master\src\cnc\config.c",997
000019A4 3F6607                  		RTSD #1CH, R6-R6
000019A7                         _nv_add_conditional_message:
                                 		.STACK	_nv_add_conditional_message=20
                                 ;     998 
                                 ;     999 /*
                                 ;    1000  * cm_conditional_message() - queue a RAM string as a message in the response (conditionally)
                                 ;    1001  *
                                 ;    1002  *	Note: If you need to post a FLASH string use pstr2str to convert it to a RAM string
                                 ;    1003  */
                                 ;    1004 
                                 ;    1005 nvObj_t *nv_add_conditional_message(const char_t *string)	// conditionally add a message object to the body
                                 		.LINE  "C:\Workspace\e2studio\git\MT01_master\src\cnc\config.c",1005
000019A7 7100F0                  		ADD #0FFFFFFF0H, R0
000019AA A089                    		MOV.L R1, 0CH[R0]
                                 ;    1006 {
                                 ;    1007 	if ((cfg.comm_mode == JSON_MODE) && (js.echo_json_messages != true)) { return (NULL);}
                                 		.LINE  "C:\Workspace\e2studio\git\MT01_master\src\cnc\config.c",1007
000019AC FB12rrrrrrrr            		MOV.L #_cfg, R1
000019B2 B091                    		MOVU.B 02H[R1], R1
000019B4 6111                    		CMP #01H, R1
000019B6 10                   S  		BEQ L620
000019B7 2Err                 B  		BRA L622
000019B9                         L619:	; bb2
000019B9 3E0100                  		MOV.L #00000000H, 04H[R0]
000019BC 2Err                 B  		BRA L625
000019BE                         L620:	; bb8
000019BE FB12rrrrrrrr            		MOV.L #_js, R1
000019C4 B111                    		MOVU.B 04H[R1], R1
000019C6 6111                    		CMP #01H, R1
000019C8 10                   S  		BEQ L622
000019C9                         L621:	; bb13
000019C9 F80601                  		MOV.L #00000001H, [R0]
000019CC 08                   S  		BRA L623
000019CD                         L622:	; bb14
000019CD F80600                  		MOV.L #00000000H, [R0]
000019D0                         L623:	; bb15
000019D0 EC01                    		MOV.L [R0], R1
000019D2 6101                    		CMP #00H, R1
000019D4 21rr                    		BNE L619
000019D6                         L624:	; bb19
                                 ;    1008 	return(nv_add_string((const char_t *)"msg", string));
                                 		.LINE  "C:\Workspace\e2studio\git\MT01_master\src\cnc\config.c",1008
000019D6 A88A                    		MOV.L 0CH[R0], R2
000019D8 FB12rrrrrrrr            		MOV.L #_L32, R1
000019DE 39rrrr               W  		BSR _nv_add_string
000019E1 A009                    		MOV.L R1, 04H[R0]
000019E3                         L625:	; bb23
000019E3 A809                    		MOV.L 04H[R0], R1
000019E5 A081                    		MOV.L R1, 08H[R0]
                                 ;    1009 }
                                 		.LINE  "C:\Workspace\e2studio\git\MT01_master\src\cnc\config.c",1009
000019E7 6704                    		RTSD #10H
000019E9                         _nv_print_list:
                                 		.STACK	_nv_print_list=8
                                 ;    1010 
                                 ;    1011 /**** nv_print_list() - print nv_array as JSON or text **********************
                                 ;    1012  *
                                 ;    1013  * 	Generate and print the JSON and text mode output strings. Use this function
                                 ;    1014  *	for all text and JSON output that wants to be in a response header.
                                 ;    1015  *	Don't just printf stuff.
                                 ;    1016  *
                                 ;    1017  *	Inputs:
                                 ;    1018  *	  json_flags = JSON_OBJECT_FORMAT - print just the body w/o header or footer
                                 ;    1019  *	  json_flags = JSON_RESPONSE_FORMAT - print a full "r" object with footer
                                 ;    1020  *
                                 ;    1021  *	  text_flags = TEXT_INLINE_PAIRS - print text as name/value pairs on a single line
                                 ;    1022  *	  text_flags = TEXT_INLINE_VALUES - print text as comma separated values on a single line
                                 ;    1023  *	  text_flags = TEXT_MULTILINE_FORMATTED - print text one value per line with formatting string
                                 ;    1024  */
                                 ;    1025 
                                 ;    1026 void nv_print_list(stat_t status, uint8_t text_flags, uint8_t json_flags)
                                 		.LINE  "C:\Workspace\e2studio\git\MT01_master\src\cnc\config.c",1026
000019E9 6040                    		SUB #04H, R0
000019EB 8089                    		MOV.B R1, 03H[R0]
000019ED 8082                    		MOV.B R2, 02H[R0]
000019EF 800B                    		MOV.B R3, 01H[R0]
                                 ;    1027 {
                                 ;    1028 	if (cfg.comm_mode == JSON_MODE) {
                                 		.LINE  "C:\Workspace\e2studio\git\MT01_master\src\cnc\config.c",1028
000019F1 FB12rrrrrrrr            		MOV.L #_cfg, R1
000019F7 B091                    		MOVU.B 02H[R1], R1
000019F9 6111                    		CMP #01H, R1
000019FB B089                    		MOVU.B 03H[R0], R1
000019FD 21rr                    		BNE L628
000019FF                         L627:	; bb4
                                 ;    1029 		json_print_list(status, json_flags);
                                 		.LINE  "C:\Workspace\e2studio\git\MT01_master\src\cnc\config.c",1029
000019FF B00A                    		MOVU.B 01H[R0], R2
00001A01 5B11                    		MOVU.B R1, R1
00001A03 05rrrrrr             A  		BSR _json_print_list
00001A07 6701                    		RTSD #04H
00001A09                         L628:	; bb6
                                 ;    1030 	} else {
                                 ;    1031 		text_print_list(status, text_flags);
                                 		.LINE  "C:\Workspace\e2studio\git\MT01_master\src\cnc\config.c",1031
00001A09 B082                    		MOVU.B 02H[R0], R2
00001A0B 5B11                    		MOVU.B R1, R1
00001A0D 05rrrrrr             A  		BSR _text_print_list
00001A11 6701                    		RTSD #04H
00001A13                         _nv_dump_nv:
                                 		.STACK	_nv_dump_nv=44
                                 ;    1032 	}
                                 ;    1033 }
                                 ;    1034 
                                 ;    1035 /****************************************************************************
                                 ;    1036  ***** Diagnostics **********************************************************
                                 ;    1037  ****************************************************************************/
                                 ;    1038 
                                 ;    1039 void nv_dump_nv(nvObj_t *nv)
                                 		.LINE  "C:\Workspace\e2studio\git\MT01_master\src\cnc\config.c",1039
00001A13 6040                    		SUB #04H, R0
00001A15 E301                    		MOV.L R1, [R0]
                                 ;    1040 {
                                 ;    1041 	printf ("i:%d, d:%d, t:%d, p:%d, v:%f, g:%s, t:%s, s:%s\n",
                                 		.LINE  "C:\Workspace\e2studio\git\MT01_master\src\cnc\config.c",1041
00001A17 A912                    		MOV.L 10H[R1], R2
00001A19 8B13                    		MOV.B 0CH[R1], R3
00001A1B 8A9C                    		MOV.B 0BH[R1], R4
00001A1D 8A95                    		MOV.B 0AH[R1], R5
00001A1F 5D1F04                  		MOVU.W 08H[R1], R15
00001A22 7100DC                  		ADD #0FFFFFFDCH, R0
00001A25 E5100808                		MOV.L 20H[R1], 20H[R0]
00001A29 711E18                  		ADD #18H, R1, R14
00001A2C E70E07                  		MOV.L R14, 1CH[R0]
00001A2F 711114                  		ADD #14H, R1
00001A32 A181                    		MOV.L R1, 18H[R0]
00001A34 A10A                    		MOV.L R2, 14H[R0]
00001A36 A103                    		MOV.L R3, 10H[R0]
00001A38 A08C                    		MOV.L R4, 0CH[R0]
00001A3A A085                    		MOV.L R5, 08H[R0]
00001A3C E70F01                  		MOV.L R15, 04H[R0]
00001A3F FBE2rrrrrrrr            		MOV.L #_L36, R14
00001A45 E30E                    		MOV.L R14, [R0]
00001A47 05rrrrrr             A  		BSR _printf
00001A4B 710024                  		ADD #24H, R0
00001A4E 6701                    		RTSD #04H
                                 ;    1042 			 nv->index,
                                 ;    1043 			 nv->depth,
                                 ;    1044 			 nv->valuetype,
                                 ;    1045 			 nv->precision,
                                 ;    1046 			 (double)nv->value,
                                 ;    1047 			 nv->group,
                                 ;    1048 			 nv->token,
                                 ;    1049 			 (char *)nv->stringp);
                                 ;    1050 }
                                 ;    1051 
                                 ;    1052 #ifdef __cplusplus
                                 ;    1053 }
                                 ;    1054 #endif // __cplusplus
                                 		.SECTION	L,ROMDATA,ALIGN=4
00000000                         _L10:
00000000 78                      		.byte	"x"
00000001 00                      		.byte	00H
00000002                         _L11:
00000002 79                      		.byte	"y"
00000003 00                      		.byte	00H
00000004                         _L12:
00000004 7A                      		.byte	"z"
00000005 00                      		.byte	00H
00000006 0000                    		.word	0000H
00000008                         _L13:
00000008 rrrrrrrr                		.lword	_L10
0000000C rrrrrrrr                		.lword	_L11
00000010 rrrrrrrr                		.lword	_L12
00000014                         _L14:
00000014 766D                    		.byte	"vm"
00000016 00                      		.byte	00H
00000017                         _L15:
00000017 6672                    		.byte	"fr"
00000019 00                      		.byte	00H
0000001A                         _L16:
0000001A 6A6D                    		.byte	"jm"
0000001C 00                      		.byte	00H
0000001D                         _L17:
0000001D 6A64                    		.byte	"jd"
0000001F 00                      		.byte	00H
00000020                         _L18:
00000020 00                      		.byte	0
00000021                         _L19:
00000021 6A61                    		.byte	"ja"
00000023 00                      		.byte	00H
00000024                         _L20:
00000024 32                      		.byte	"2"
00000025 00                      		.byte	00H
00000026                         _L21:
00000026 7472                    		.byte	"tr"
00000028 00                      		.byte	00H
00000029                         _L22:
00000029 33                      		.byte	"3"
0000002A 00                      		.byte	00H
0000002B                         _L23:
0000002B 34                      		.byte	"4"
0000002C 00                      		.byte	00H
0000002D                         _L24:
0000002D 31                      		.byte	"1"
0000002E 00                      		.byte	00H
0000002F                         _L25:
0000002F 6D61                    		.byte	"ma"
00000031 00                      		.byte	00H
00000032                         _L26:
00000032 6D69                    		.byte	"mi"
00000034 00                      		.byte	00H
00000035                         _L27:
00000035 706F                    		.byte	"po"
00000037 00                      		.byte	00H
00000038                         _L28:
00000038 7372                    		.byte	"sr"
0000003A 00                      		.byte	00H
0000003B                         _L29:
0000003B 737973                  		.byte	"sys"
0000003E 00                      		.byte	00H
0000003F                         _L30:
0000003F 6763                    		.byte	"gc"
00000041 00                      		.byte	00H
00000042                         _L31:
00000042 7172                    		.byte	"qr"
00000044 00                      		.byte	00H
00000045                         _L32:
00000045 6D7367                  		.byte	"msg"
00000048 00                      		.byte	00H
00000049                         _L33:
00000049 657272                  		.byte	"err"
0000004C 00                      		.byte	00H
0000004D                         _L34:
0000004D 6E                      		.byte	"n"
0000004E 00                      		.byte	00H
0000004F                         _L35:
0000004F 72                      		.byte	"r"
00000050 00                      		.byte	00H
00000051                         _L36:
00000051 693A2564                		.byte	"i:%d, d:%d, t:%d, p:%d, v:%f, g:%s, t:%s, s:%s"
         2C20643A                
         25642C20                
         743A2564                
         2C20703A                
         25642C20                
         763A2566                
         2C20673A                
         25732C20                
         743A2573                
         2C20733A                
         2573                    
0000007F 0A00                    		.byte	0AH,00H
                                 		.SECTION	B,DATA,ALIGN=4
00000000                         _nvl:
00000000(00000488H)              		.blkl	290
                                 		.SECTION	B_2,DATA,ALIGN=2
00000000                         _nvStr:
00000000(00000206H)              		.blkw	259
                                 		.END

Information List

TOTAL ERROR(S)    00000
TOTAL WARNING(S)  00000
TOTAL LINE(S)     04932   LINES

Section List

Attr         Size               Name
CODE     0000006736(00001A50H)  P
ROMDATA  0000000129(00000081H)  L
DATA     0000001160(00000488H)  B
DATA     0000000518(00000206H)  B_2

Cpu Type

-ISA=RXV1 -FPU

Command Parameter

-subcommand=C:\Users\LAFONS~1\AppData\Local\Temp\$ccrx124\$ccrx\config.src.cmd
    -nologo
    -isa=rxv1
    -fpu
    -show=conditionals,definitions,expansions
    -define=__RXV1=1
    -fint_register=0
    -debug
    -endian=little
-listfile=C:\Workspace\e2studio\git\MT01_master\CompactaXP_build\config.lst
-output=C:\Workspace\e2studio\git\MT01_master\CompactaXP_build\src\cnc\config.obj
