* RX FAMILY ASSEMBLER V2.03.00.01 [24 Oct 2014] *  SOURCE LIST  Thu Mar 09 14:18:31 2017

LOC.     OBJ.              0XMDA SOURCE STATEMENT

                                 ;RX Family C/C++ Compiler (V2.03.00.03 [04 Dec 2014])  09-Mar-2017 14:18:31
                                 
                                 ;*** CPU TYPE ***
                                 
                                 ;-ISA=RXV1
                                 
                                 ;*** COMMAND PARAMETER ***
                                 
                                 ;-output=src=eeprom.src
                                 ;-lang=c99
                                 ;-include=C:\PROGRA~2\Renesas\RX\2_3_0/include,C:\Workspace\e2studio\git\MT01_master\r_lvd_rx,C:\Workspace\e2studio\git\MT01_master\r_lvd_rx\src,C:/Workspace/e2studio/
                                 ;-debug
                                 ;-show=source,conditionals,definitions,expansions
                                 ;-listfile=eeprom.lst
                                 ;-isa=rxv1
                                 ;-optimize=0
                                 ;-fpu
                                 ;-alias=noansi
                                 ;-nologo
                                 ;-nomessage
                                 ;-define=__RX,COMPACTAXP=1,EASYMAK=0,MOBILE=0,FREE_RTOS_PP
                                 ;eeprom.c
                                 
                                 		.glb	_pl_init_max
                                 		.glb	_pl_init_min
                                 		.glb	_ox_init_max
                                 		.glb	_ox_init_min
                                 		.glb	_pm_init_max
                                 		.glb	_pm_init_min
                                 		.glb	_sample_state
                                 		.glb	_configVarOxInit
                                 		.glb	_configVarPlInit
                                 		.glb	_configVarJogInit
                                 		.glb	_configVarMaqInit
                                 		.glb	_configVarParMaqInit_CP
                                 		.glb	_configVarParMaqInit_EM
                                 		.glb	_configVarParMaqInit_MB
                                 		.glb	_configFlagsInit
                                 		.glb	_configFlags
                                 		.glb	_configVarOx
                                 		.glb	_configVarPl
                                 		.glb	_configVarMaq
                                 		.glb	_configVarParMaq
                                 		.glb	_configVarJog
                                 		.glb	_zeroPieceInit
                                 		.glb	_zeroPiece
                                 		.glb	_dataRecord
                                 		.glb	_g_maq
                                 		.glb	_eepromInit
                                 		.glb	_R_VEE_Open
                                 		.glb	_eepromWriteConfig
                                 		.glb	_eepromReadConfig
                                 		.glb	_R_VEE_GenerateCheck
                                 		.glb	_R_VEE_Write
                                 		.glb	_R_VEE_Read
                                 		.glb	_R_VEE_ReleaseState
                                 		.glb	_machine_type_write
                                 		.glb	_R_FlashEraseRange
                                 		.glb	_R_FlashWrite
                                 		.glb	_check_machine_type
                                 		.glb	_VEE_OperationDone_Callback
                                 		.glb	_eepromConsistencyCheck
                                 		.glb	_eepromFormat
                                 		.glb	_R_FlashDataAreaAccess
                                 		.glb	_R_FlashErase
                                 		.glb	_R_FlashGetStatus
                                 		.glb	_eepromIntegrityCheck
                                 		.glb	_memcmp
                                 		.glb	_FlashError
                                 ;LineNo. C-SOURCE STATEMENT
                                 
                                 		.SECTION	P,CODE
00000000                         _eepromInit:
                                 		.STACK	_eepromInit=4
                                 ;       1 #include "platform.h"
                                 ;       2 #include "eeprom.h"
                                 ;       3 #include "r_vee_if.h"
                                 ;       4 #include "r_flash_api_rx_if.h"
                                 ;       5 #include <string.h>
                                 ;       6 #include "settings.h"
                                 ;       7 
                                 ;       8 //#define VEE_DEMO_ERASE_FIRST
                                 ;       9 
                                 ;      10 
                                 ;      11 
                                 ;      12 enum { READY, NOT_READY } sample_state;
                                 ;      13 
                                 ;      14 /*! configVarOxInit - Constante inicial de parametrização para Oxicorte */
                                 ;      15 const float configVarOxInit[OX_CONFIG_MAX] = {
                                 ;      16 	15,                               //!< Altura de perfuração
                                 ;      17 	5,                               //!< Altura de corte
                                 ;      18 	500,                            //!< Velocidade de corte
                                 ;      19 	30,                               //!< Tempo de aquecimento
                                 ;      20 	1                                //!< Tempo de Perfuração
                                 ;      21 };
                                 ;      22 
                                 ;      23 /*! configVarPlInit - Constante inicial de parametrização para Plasma */
                                 ;      24 const float configVarPlInit[PL_CONFIG_MAX] = {
                                 ;      25 	4.8,                               //!< Altura de perfuração
                                 ;      26 	2.8,                               //!< Altura de corte
                                 ;      27 	2500,                            //!< Velocidade de corte
                                 ;      28 	0.1,                               //!< Tempo de Perfuração
                                 ;      29 	120                              //!< Tensao do THC
                                 ;      30 };
                                 ;      31 
                                 ;      32 /*! configVarJogInit - Constante inicial de velocidade de jog*/
                                 ;      33 const float configVarJogInit[JOG_MAX] = {
                                 ;      34 	6000,                              //!< Velocidade inicial de jog rapido
                                 ;      35 	500,                              //!< Velocidade inicial de jog lento
                                 ;      36 };
                                 ;      37 
                                 ;      38 /*! configVarJogInit - Constante inicial de config de maquina*/
                                 ;      39 const float configVarMaqInit[CFG_MAQUINA_MAX - 1] = {
                                 ;      40 	25,                               //!< Altura de deslocamento
                                 ;      41 };
                                 ;      42 
                                 ;      43 /*! configVarParMaqInit - Constante inicial de parametrização da maquina */
                                 ;      44 const float configVarParMaqInit_CP[CFG_PAR_MAQ_MAX] = {
                                 ;      45 	M4_TRAVEL_PER_REV_CP,               //!< EIXO_X1
                                 ;      46 	M3_TRAVEL_PER_REV_CP,               //!< EIXO_X2
                                 ;      47 	M2_TRAVEL_PER_REV_CP,                //!< EIXO_Y
                                 ;      48 	X_JERK_MAX_CP,                         //!< JERK X
                                 ;      49 	Y_JERK_MAX_CP,                         //!< JERK Y
                                 ;      50 	X_VELOCITY_MAX_CP,                     //!< VEL X
                                 ;      51 	Y_VELOCITY_MAX_CP,                     //!< VEL Y
                                 ;      52 	Z_VELOCITY_MAX_CP,                     //!< VEL Z
                                 ;      53 	JUNCTION_DEVIATION_CP,                  //!< JUNCTION DEV
                                 ;      54 	JUNCTION_ACCELERATION_CP,               //!< JUNCTION ACCEL
                                 ;      55 	CHORDAL_TOLERANCE,
                                 ;      56 	0
                                 ;      57 };
                                 ;      58 
                                 ;      59 /*! configVarParMaqInit - Constante inicial de parametrização da maquina */
                                 ;      60 const float configVarParMaqInit_EM[CFG_PAR_MAQ_MAX] = {
                                 ;      61 	M4_TRAVEL_PER_REV_EM,               //!< EIXO_X1
                                 ;      62 	M3_TRAVEL_PER_REV_EM,               //!< EIXO_X2
                                 ;      63 	M2_TRAVEL_PER_REV_EM,                //!< EIXO_Y
                                 ;      64 	X_JERK_MAX_EM,                         //!< JERK X
                                 ;      65 	Y_JERK_MAX_EM,                         //!< JERK Y
                                 ;      66 	X_VELOCITY_MAX_EM,                     //!< VEL X
                                 ;      67 	Y_VELOCITY_MAX_EM,                     //!< VEL Y
                                 ;      68 	Z_VELOCITY_MAX_EM,                     //!< VEL Z
                                 ;      69 	JUNCTION_DEVIATION_EM,                  //!< JUNCTION DEV
                                 ;      70 	JUNCTION_ACCELERATION_EM,               //!< JUNCTION ACCEL
                                 ;      71 	CHORDAL_TOLERANCE,
                                 ;      72 	0
                                 ;      73 };
                                 ;      74 
                                 ;      75 /*! configVarParMaqInit - Constante inicial de parametrização da maquina */
                                 ;      76 const float configVarParMaqInit_MB[CFG_PAR_MAQ_MAX] = {
                                 ;      77 	M4_TRAVEL_PER_REV_MB,               //!< EIXO_X1
                                 ;      78 	M3_TRAVEL_PER_REV_MB,               //!< EIXO_X2
                                 ;      79 	M2_TRAVEL_PER_REV_MB,                //!< EIXO_Y
                                 ;      80 	X_JERK_MAX_MB,                         //!< JERK X
                                 ;      81 	Y_JERK_MAX_MB,                         //!< JERK Y
                                 ;      82 	X_VELOCITY_MAX_MB,                     //!< VEL X
                                 ;      83 	Y_VELOCITY_MAX_MB,                     //!< VEL Y
                                 ;      84 	Z_VELOCITY_MAX_MB,                     //!< VEL Z
                                 ;      85 	JUNCTION_DEVIATION_MB,                  //!< JUNCTION DEV
                                 ;      86 	JUNCTION_ACCELERATION_MB,               //!< JUNCTION ACCEL
                                 ;      87 	CHORDAL_TOLERANCE,
                                 ;      88 	0
                                 ;      89 };
                                 ;      90 
                                 ;      91 uint32_t configFlagsInit[FLAG_MAX] = {MODO_PLASMA,1,DESABILITADO,HABILITADO};
                                 ;      92 uint32_t configFlags[FLAG_MAX];
                                 ;      93 
                                 ;      94 float configVarOx[OX_CONFIG_MAX];
                                 ;      95 float configVarPl[PL_CONFIG_MAX];
                                 ;      96 float configVarMaq[CFG_MAQUINA_MAX - 1]; // retirado o modo maquina
                                 ;      97 float configVarParMaq[CFG_PAR_MAQ_MAX];
                                 ;      98 float configVarJog[JOG_MAX];
                                 ;      99 
                                 ;     100 float zeroPieceInit[3] = {0,0,0};
                                 ;     101 float zeroPiece[3];
                                 ;     102 
                                 ;     103 vee_record_t dataRecord;
                                 ;     104 
                                 ;     105 maq_st g_maq;
                                 ;     106 
                                 ;     107 void eepromInit(void)
                                 ;     108 {
                                 ;     109 #if defined(VEE_DEMO_ERASE_FIRST)
                                 ;     110 	eepromFormat();
                                 ;     111 #else
                                 ;     112 	R_VEE_Open();
                                 		.LINE  "C:\Workspace\e2studio\git\MT01_master\src\eeprom\eeprom.c",112
00000000 05rrrrrr             A  		BSR _R_VEE_Open
00000004                         L16:	; entry.split
00000004 6601                    		MOV.L #00000000H, R1
                                 ;     113 	eepromReadConfig(CONFIGVAR_OX);
                                 		.LINE  "C:\Workspace\e2studio\git\MT01_master\src\eeprom\eeprom.c",113
00000006 39rrrr               W  		BSR _eepromReadConfig
00000009                         L17:	; entry.split1
00000009 6611                    		MOV.L #00000001H, R1
                                 ;     114 	eepromReadConfig(CONFIGVAR_PL);
                                 		.LINE  "C:\Workspace\e2studio\git\MT01_master\src\eeprom\eeprom.c",114
0000000B 39rrrr               W  		BSR _eepromReadConfig
0000000E                         L18:	; entry.split2
0000000E 6621                    		MOV.L #00000002H, R1
                                 ;     115 	eepromReadConfig(CONFIGVAR_JOG);
                                 		.LINE  "C:\Workspace\e2studio\git\MT01_master\src\eeprom\eeprom.c",115
00000010 39rrrr               W  		BSR _eepromReadConfig
00000013                         L19:	; entry.split3
00000013 6651                    		MOV.L #00000005H, R1
                                 ;     116 	eepromReadConfig(CONFIGVAR_MAQ);
                                 		.LINE  "C:\Workspace\e2studio\git\MT01_master\src\eeprom\eeprom.c",116
00000015 39rrrr               W  		BSR _eepromReadConfig
00000018                         L20:	; entry.split4
00000018 6661                    		MOV.L #00000006H, R1
                                 ;     117 	eepromReadConfig(CONFIGVAR_PAR_MAQ);
                                 		.LINE  "C:\Workspace\e2studio\git\MT01_master\src\eeprom\eeprom.c",117
0000001A 39rrrr               W  		BSR _eepromReadConfig
0000001D                         L21:	; entry.split5
0000001D 6631                    		MOV.L #00000003H, R1
                                 ;     118 	eepromReadConfig(CONFIGFLAG);
                                 		.LINE  "C:\Workspace\e2studio\git\MT01_master\src\eeprom\eeprom.c",118
0000001F 39rrrr               W  		BSR _eepromReadConfig
00000022                         L22:	; entry.split6
00000022 6641                    		MOV.L #00000004H, R1
                                 ;     119 	eepromReadConfig(ZEROPIECE);
                                 		.LINE  "C:\Workspace\e2studio\git\MT01_master\src\eeprom\eeprom.c",119
00000024 39rrrr               W  		BSR _eepromReadConfig
00000027 02                      		RTS
00000028                         _eepromWriteConfig:
                                 		.STACK	_eepromWriteConfig=12
                                 ;     120 #endif
                                 ;     121 }
                                 ;     122 
                                 ;     123 void eepromWriteConfig(uint8_t varType)
                                 		.LINE  "C:\Workspace\e2studio\git\MT01_master\src\eeprom\eeprom.c",123
00000028 6080                    		SUB #08H, R0
0000002A 8189                    		MOV.B R1, 07H[R0]
                                 ;     124 {
                                 ;     125     uint32_t ret;
                                 ;     126     switch (varType)
                                 		.LINE  "C:\Workspace\e2studio\git\MT01_master\src\eeprom\eeprom.c",126
0000002C B189                    		MOVU.B 07H[R0], R1
0000002E 6161                    		CMP #06H, R1
00000030 3Arrrr               W  		BEQ L42
00000033                         L24:	; entry
00000033 6111                    		CMP #01H, R1
00000035 20rr                    		BEQ L33
00000037                         L25:	; entry
00000037 6121                    		CMP #02H, R1
00000039 20rr                    		BEQ L36
0000003B                         L26:	; entry
0000003B 6131                    		CMP #03H, R1
0000003D 3Arrrr               W  		BEQ L45
00000040                         L27:	; entry
00000040 6141                    		CMP #04H, R1
00000042 3Arrrr               W  		BEQ L48
00000045                         L28:	; entry
00000045 6151                    		CMP #05H, R1
00000047 20rr                    		BEQ L39
00000049                         L29:	; entry
00000049 6101                    		CMP #00H, R1
0000004B 3Brrrr               W  		BNE L51
0000004E                         L30:	; bb
                                 ;     127     {
                                 ;     128     	case CONFIGVAR_OX:  dataRecord.ID = CONFIGVAR_OX;
                                 		.LINE  "C:\Workspace\e2studio\git\MT01_master\src\eeprom\eeprom.c",128
0000004E FBE2rrrrrrrr            		MOV.L #_dataRecord, R14
00000054 F8E500                  		MOV.W #0000H, [R14]
00000057                         L31:	; bb.split
                                 ;     129         				 dataRecord.pData = (uint8_t*)configVarOx;
                                 		.LINE  "C:\Workspace\e2studio\git\MT01_master\src\eeprom\eeprom.c",129
00000057 FB12rrrrrrrr            		MOV.L #_dataRecord, R1
0000005D FB22rrrrrrrr            		MOV.L #_configVarOx, R2
00000063 A092                    		MOV.L R2, 08H[R1]
00000065                         L32:	; bb.split1
                                 ;     130         				 dataRecord.size =sizeof(configVarOx);
                                 		.LINE  "C:\Workspace\e2studio\git\MT01_master\src\eeprom\eeprom.c",130
00000065 FB12rrrrrrrr            		MOV.L #_dataRecord, R1
0000006B 3D1114                  		MOV.W #0014H, 02H[R1]
0000006E 38rrrr               W  		BRA L51
00000071                         L33:	; bb4
                                 ;     131         				 break;
                                 ;     132     	case CONFIGVAR_PL:  dataRecord.ID = CONFIGVAR_PL;
                                 		.LINE  "C:\Workspace\e2studio\git\MT01_master\src\eeprom\eeprom.c",132
00000071 FBE2rrrrrrrr            		MOV.L #_dataRecord, R14
00000077 F8E501                  		MOV.W #0001H, [R14]
0000007A                         L34:	; bb4.split
                                 ;     133         				 dataRecord.pData = (uint8_t*)configVarPl;
                                 		.LINE  "C:\Workspace\e2studio\git\MT01_master\src\eeprom\eeprom.c",133
0000007A FB12rrrrrrrr            		MOV.L #_dataRecord, R1
00000080 FB22rrrrrrrr            		MOV.L #_configVarPl, R2
00000086 A092                    		MOV.L R2, 08H[R1]
00000088                         L35:	; bb4.split2
                                 ;     134         				 dataRecord.size =sizeof(configVarPl);
                                 		.LINE  "C:\Workspace\e2studio\git\MT01_master\src\eeprom\eeprom.c",134
00000088 FB12rrrrrrrr            		MOV.L #_dataRecord, R1
0000008E 3D1114                  		MOV.W #0014H, 02H[R1]
00000091 38rrrr               W  		BRA L51
00000094                         L36:	; bb5
                                 ;     135         				 break;
                                 ;     136     	case CONFIGVAR_JOG:  dataRecord.ID = CONFIGVAR_JOG;
                                 		.LINE  "C:\Workspace\e2studio\git\MT01_master\src\eeprom\eeprom.c",136
00000094 FBE2rrrrrrrr            		MOV.L #_dataRecord, R14
0000009A F8E502                  		MOV.W #0002H, [R14]
0000009D                         L37:	; bb5.split
                                 ;     137         				 dataRecord.pData = (uint8_t*)configVarJog;
                                 		.LINE  "C:\Workspace\e2studio\git\MT01_master\src\eeprom\eeprom.c",137
0000009D FB12rrrrrrrr            		MOV.L #_dataRecord, R1
000000A3 FB22rrrrrrrr            		MOV.L #_configVarJog, R2
000000A9 A092                    		MOV.L R2, 08H[R1]
000000AB                         L38:	; bb5.split3
                                 ;     138         				 dataRecord.size =sizeof(configVarJog);
                                 		.LINE  "C:\Workspace\e2studio\git\MT01_master\src\eeprom\eeprom.c",138
000000AB FB12rrrrrrrr            		MOV.L #_dataRecord, R1
000000B1 3D1108                  		MOV.W #0008H, 02H[R1]
000000B4 38rrrr               W  		BRA L51
000000B7                         L39:	; bb6
                                 ;     139         				 break;
                                 ;     140     	case CONFIGVAR_MAQ:  dataRecord.ID = CONFIGVAR_MAQ;
                                 		.LINE  "C:\Workspace\e2studio\git\MT01_master\src\eeprom\eeprom.c",140
000000B7 FBE2rrrrrrrr            		MOV.L #_dataRecord, R14
000000BD F8E505                  		MOV.W #0005H, [R14]
000000C0                         L40:	; bb6.split
                                 ;     141         				 dataRecord.pData = (uint8_t*)configVarMaq;
                                 		.LINE  "C:\Workspace\e2studio\git\MT01_master\src\eeprom\eeprom.c",141
000000C0 FB12rrrrrrrr            		MOV.L #_dataRecord, R1
000000C6 FB22rrrrrrrr            		MOV.L #_configVarMaq, R2
000000CC A092                    		MOV.L R2, 08H[R1]
000000CE                         L41:	; bb6.split4
                                 ;     142         				 dataRecord.size =sizeof(configVarMaq);
                                 		.LINE  "C:\Workspace\e2studio\git\MT01_master\src\eeprom\eeprom.c",142
000000CE FB12rrrrrrrr            		MOV.L #_dataRecord, R1
000000D4 3D110C                  		MOV.W #000CH, 02H[R1]
000000D7 2Err                 B  		BRA L51
000000D9                         L42:	; bb7
                                 ;     143         				 break;
                                 ;     144     	case CONFIGVAR_PAR_MAQ:  dataRecord.ID = CONFIGVAR_PAR_MAQ;
                                 		.LINE  "C:\Workspace\e2studio\git\MT01_master\src\eeprom\eeprom.c",144
000000D9 FBE2rrrrrrrr            		MOV.L #_dataRecord, R14
000000DF F8E506                  		MOV.W #0006H, [R14]
000000E2                         L43:	; bb7.split
                                 ;     145         				 dataRecord.pData = (uint8_t*)configVarParMaq;
                                 		.LINE  "C:\Workspace\e2studio\git\MT01_master\src\eeprom\eeprom.c",145
000000E2 FB12rrrrrrrr            		MOV.L #_dataRecord, R1
000000E8 FB22rrrrrrrr            		MOV.L #_configVarParMaq, R2
000000EE A092                    		MOV.L R2, 08H[R1]
000000F0                         L44:	; bb7.split5
                                 ;     146         				 dataRecord.size =sizeof(configVarParMaq);
                                 		.LINE  "C:\Workspace\e2studio\git\MT01_master\src\eeprom\eeprom.c",146
000000F0 FB12rrrrrrrr            		MOV.L #_dataRecord, R1
000000F6 3D1130                  		MOV.W #0030H, 02H[R1]
000000F9 2Err                 B  		BRA L51
000000FB                         L45:	; bb8
                                 ;     147         				 break;
                                 ;     148     	case CONFIGFLAG: dataRecord.ID = CONFIGFLAG;
                                 		.LINE  "C:\Workspace\e2studio\git\MT01_master\src\eeprom\eeprom.c",148
000000FB FBE2rrrrrrrr            		MOV.L #_dataRecord, R14
00000101 F8E503                  		MOV.W #0003H, [R14]
00000104                         L46:	; bb8.split
                                 ;     149 						 dataRecord.pData = (uint8_t*)configFlags;
                                 		.LINE  "C:\Workspace\e2studio\git\MT01_master\src\eeprom\eeprom.c",149
00000104 FB12rrrrrrrr            		MOV.L #_dataRecord, R1
0000010A FB22rrrrrrrr            		MOV.L #_configFlags, R2
00000110 A092                    		MOV.L R2, 08H[R1]
00000112                         L47:	; bb8.split6
                                 ;     150 						 dataRecord.size =sizeof(configFlags);
                                 		.LINE  "C:\Workspace\e2studio\git\MT01_master\src\eeprom\eeprom.c",150
00000112 FB12rrrrrrrr            		MOV.L #_dataRecord, R1
00000118 3D1110                  		MOV.W #0010H, 02H[R1]
0000011B 2Err                 B  		BRA L51
0000011D                         L48:	; bb9
                                 ;     151 						 break;
                                 ;     152     	case ZEROPIECE:  dataRecord.ID = ZEROPIECE;
                                 		.LINE  "C:\Workspace\e2studio\git\MT01_master\src\eeprom\eeprom.c",152
0000011D FBE2rrrrrrrr            		MOV.L #_dataRecord, R14
00000123 F8E504                  		MOV.W #0004H, [R14]
00000126                         L49:	; bb9.split
                                 ;     153 						 dataRecord.pData = (uint8_t*)&zeroPiece;
                                 		.LINE  "C:\Workspace\e2studio\git\MT01_master\src\eeprom\eeprom.c",153
00000126 FB12rrrrrrrr            		MOV.L #_dataRecord, R1
0000012C FB22rrrrrrrr            		MOV.L #_zeroPiece, R2
00000132 A092                    		MOV.L R2, 08H[R1]
00000134                         L50:	; bb9.split7
                                 ;     154 						 dataRecord.size =sizeof(zeroPiece);
                                 		.LINE  "C:\Workspace\e2studio\git\MT01_master\src\eeprom\eeprom.c",154
00000134 FB12rrrrrrrr            		MOV.L #_dataRecord, R1
0000013A 3D110C                  		MOV.W #000CH, 02H[R1]
0000013D                         L51:	; bb11
                                 ;     155 						 break;
                                 ;     156     	default:		 break;
                                 ;     157     }
                                 ;     158 
                                 ;     159 
                                 ;     160     /* Generate check for data */
                                 ;     161     ret = R_VEE_GenerateCheck(&dataRecord);
                                 		.LINE  "C:\Workspace\e2studio\git\MT01_master\src\eeprom\eeprom.c",161
0000013D FB12rrrrrrrr            		MOV.L #_dataRecord, R1
00000143 05rrrrrr             A  		BSR _R_VEE_GenerateCheck
00000147 E301                    		MOV.L R1, [R0]
00000149                         L52:	; bb11.split
                                 ;     162     /* Check result */
                                 ;     163     if( ret != VEE_SUCCESS )
                                 		.LINE  "C:\Workspace\e2studio\git\MT01_master\src\eeprom\eeprom.c",163
00000149 EC01                    		MOV.L [R0], R1
0000014B 6101                    		CMP #00H, R1
0000014D 10                   S  		BEQ L54
0000014E                         L53:	; bb17
                                 ;     164     {
                                 ;     165         while(1)
                                 		.LINE  "C:\Workspace\e2studio\git\MT01_master\src\eeprom\eeprom.c",165
0000014E 2Err                 B  		BRA L53
00000150                         L54:	; bb22
                                 ;     166         {
                                 ;     167             /* Error */
                                 ;     168         }
                                 ;     169     }
                                 ;     170 	sample_state = NOT_READY;
                                 		.LINE  "C:\Workspace\e2studio\git\MT01_master\src\eeprom\eeprom.c",170
00000150 FBE2rrrrrrrr            		MOV.L #_sample_state, R14
00000156 F8E601                  		MOV.L #00000001H, [R14]
00000159                         L55:	; bb22.split
                                 ;     171 	ret = R_VEE_Write(&dataRecord);
                                 		.LINE  "C:\Workspace\e2studio\git\MT01_master\src\eeprom\eeprom.c",171
00000159 FB12rrrrrrrr            		MOV.L #_dataRecord, R1
0000015F 05rrrrrr             A  		BSR _R_VEE_Write
00000163 E301                    		MOV.L R1, [R0]
00000165                         L56:	; bb22.split8
                                 ;     172 	/* Check result */
                                 ;     173 	if( ret != VEE_SUCCESS )
                                 		.LINE  "C:\Workspace\e2studio\git\MT01_master\src\eeprom\eeprom.c",173
00000165 EC01                    		MOV.L [R0], R1
00000167 6101                    		CMP #00H, R1
00000169 10                   S  		BEQ L58
0000016A                         L57:	; bb28
                                 ;     174 	{
                                 ;     175 	    while(1)
                                 		.LINE  "C:\Workspace\e2studio\git\MT01_master\src\eeprom\eeprom.c",175
0000016A 2Err                 B  		BRA L57
0000016C                         L58:	; bb36
                                 ;     176 	    {
                                 ;     177 	        /* Error */
                                 ;     178 	    }
                                 ;     179 	}
                                 ;     180 
                                 ;     181 
                                 ;     182     while(sample_state == NOT_READY)
                                 		.LINE  "C:\Workspace\e2studio\git\MT01_master\src\eeprom\eeprom.c",182
0000016C FBE2rrrrrrrr            		MOV.L #_sample_state, R14
00000172 ECEE                    		MOV.L [R14], R14
00000174 611E                    		CMP #01H, R14
00000176 20rr                    		BEQ L58
00000178                         L59:	; return
                                 ;     183        {
                                 ;     184            /* Wait for write to finish. When write finishes it will call the VEE_OperationDone_Callback() callback
                                 ;     185               function below. The user also has the option of just polling by disabling the callback functions in
                                 ;     186               r_vee_config.h */
                                 ;     187        }
                                 ;     188 }
                                 		.LINE  "C:\Workspace\e2studio\git\MT01_master\src\eeprom\eeprom.c",188
00000178 6702                    		RTSD #08H
0000017A                         _eepromReadConfig:
                                 		.STACK	_eepromReadConfig=12
                                 ;     189 
                                 ;     190 void eepromReadConfig(uint8_t varType)
                                 		.LINE  "C:\Workspace\e2studio\git\MT01_master\src\eeprom\eeprom.c",190
0000017A 6080                    		SUB #08H, R0
0000017C 8189                    		MOV.B R1, 07H[R0]
                                 ;     191 {
                                 ;     192     uint32_t ret;
                                 ;     193 
                                 ;     194     switch (varType)
                                 		.LINE  "C:\Workspace\e2studio\git\MT01_master\src\eeprom\eeprom.c",194
0000017E B189                    		MOVU.B 07H[R0], R1
00000180 6161                    		CMP #06H, R1
00000182 20rr                    		BEQ L71
00000184                         L61:	; entry
00000184 6111                    		CMP #01H, R1
00000186 20rr                    		BEQ L68
00000188                         L62:	; entry
00000188 6121                    		CMP #02H, R1
0000018A 20rr                    		BEQ L69
0000018C                         L63:	; entry
0000018C 6131                    		CMP #03H, R1
0000018E 20rr                    		BEQ L72
00000190                         L64:	; entry
00000190 6141                    		CMP #04H, R1
00000192 20rr                    		BEQ L73
00000194                         L65:	; entry
00000194 6151                    		CMP #05H, R1
00000196 20rr                    		BEQ L70
00000198                         L66:	; entry
00000198 6101                    		CMP #00H, R1
0000019A 21rr                    		BNE L74
0000019C                         L67:	; bb
                                 ;     195     {
                                 ;     196     	case CONFIGVAR_OX: dataRecord.ID = CONFIGVAR_OX; break;
                                 		.LINE  "C:\Workspace\e2studio\git\MT01_master\src\eeprom\eeprom.c",196
0000019C FBE2rrrrrrrr            		MOV.L #_dataRecord, R14
000001A2 F8E500                  		MOV.W #0000H, [R14]
000001A5 2Err                 B  		BRA L74
000001A7                         L68:	; bb4
                                 ;     197     	case CONFIGVAR_PL: dataRecord.ID = CONFIGVAR_PL; break;
                                 		.LINE  "C:\Workspace\e2studio\git\MT01_master\src\eeprom\eeprom.c",197
000001A7 FBE2rrrrrrrr            		MOV.L #_dataRecord, R14
000001AD F8E501                  		MOV.W #0001H, [R14]
000001B0 2Err                 B  		BRA L74
000001B2                         L69:	; bb5
                                 ;     198     	case CONFIGVAR_JOG: dataRecord.ID = CONFIGVAR_JOG; break;
                                 		.LINE  "C:\Workspace\e2studio\git\MT01_master\src\eeprom\eeprom.c",198
000001B2 FBE2rrrrrrrr            		MOV.L #_dataRecord, R14
000001B8 F8E502                  		MOV.W #0002H, [R14]
000001BB 2Err                 B  		BRA L74
000001BD                         L70:	; bb6
                                 ;     199     	case CONFIGVAR_MAQ: dataRecord.ID = CONFIGVAR_MAQ; break;
                                 		.LINE  "C:\Workspace\e2studio\git\MT01_master\src\eeprom\eeprom.c",199
000001BD FBE2rrrrrrrr            		MOV.L #_dataRecord, R14
000001C3 F8E505                  		MOV.W #0005H, [R14]
000001C6 2Err                 B  		BRA L74
000001C8                         L71:	; bb7
                                 ;     200     	case CONFIGVAR_PAR_MAQ: dataRecord.ID = CONFIGVAR_PAR_MAQ; break;
                                 		.LINE  "C:\Workspace\e2studio\git\MT01_master\src\eeprom\eeprom.c",200
000001C8 FBE2rrrrrrrr            		MOV.L #_dataRecord, R14
000001CE F8E506                  		MOV.W #0006H, [R14]
000001D1 2Err                 B  		BRA L74
000001D3                         L72:	; bb8
                                 ;     201     	case CONFIGFLAG: dataRecord.ID = CONFIGFLAG; break;
                                 		.LINE  "C:\Workspace\e2studio\git\MT01_master\src\eeprom\eeprom.c",201
000001D3 FBE2rrrrrrrr            		MOV.L #_dataRecord, R14
000001D9 F8E503                  		MOV.W #0003H, [R14]
000001DC 08                   S  		BRA L74
000001DD                         L73:	; bb9
                                 ;     202     	case ZEROPIECE: dataRecord.ID = ZEROPIECE; break;
                                 		.LINE  "C:\Workspace\e2studio\git\MT01_master\src\eeprom\eeprom.c",202
000001DD FBE2rrrrrrrr            		MOV.L #_dataRecord, R14
000001E3 F8E504                  		MOV.W #0004H, [R14]
000001E6                         L74:	; bb11
                                 ;     203     	default: break;
                                 ;     204     }
                                 ;     205 	ret = R_VEE_Read(&dataRecord);
                                 		.LINE  "C:\Workspace\e2studio\git\MT01_master\src\eeprom\eeprom.c",205
000001E6 FB12rrrrrrrr            		MOV.L #_dataRecord, R1
000001EC 05rrrrrr             A  		BSR _R_VEE_Read
000001F0 E301                    		MOV.L R1, [R0]
000001F2                         L75:	; bb11.split
                                 ;     206 	/* Check result */
                                 ;     207 	if( ret == VEE_NOT_FOUND )
                                 		.LINE  "C:\Workspace\e2studio\git\MT01_master\src\eeprom\eeprom.c",207
000001F2 EC01                    		MOV.L [R0], R1
000001F4 6141                    		CMP #04H, R1
000001F6 18                   S  		BNE L77
000001F7                         L76:	; bb15
                                 ;     208 	{
                                 ;     209 		eepromFormat();
                                 		.LINE  "C:\Workspace\e2studio\git\MT01_master\src\eeprom\eeprom.c",209
000001F7 39rrrr               W  		BSR _eepromFormat
000001FA                         L77:	; bb20
                                 ;     210 	}
                                 ;     211 	if( ret != VEE_SUCCESS )
                                 		.LINE  "C:\Workspace\e2studio\git\MT01_master\src\eeprom\eeprom.c",211
000001FA EC01                    		MOV.L [R0], R1
000001FC 6101                    		CMP #00H, R1
000001FE 10                   S  		BEQ L79
000001FF                         L78:	; bb21
                                 ;     212 	{
                                 ;     213 		eepromFormat();
                                 		.LINE  "C:\Workspace\e2studio\git\MT01_master\src\eeprom\eeprom.c",213
000001FF 39rrrr               W  		BSR _eepromFormat
00000202                         L79:	; bb26
                                 ;     214 	}
                                 ;     215     R_VEE_ReleaseState();
                                 		.LINE  "C:\Workspace\e2studio\git\MT01_master\src\eeprom\eeprom.c",215
00000202 05rrrrrr             A  		BSR _R_VEE_ReleaseState
00000206                         L80:	; bb26.split
                                 ;     216     switch (varType)
                                 		.LINE  "C:\Workspace\e2studio\git\MT01_master\src\eeprom\eeprom.c",216
00000206 B189                    		MOVU.B 07H[R0], R1
00000208 6161                    		CMP #06H, R1
0000020A 20rr                    		BEQ L91
0000020C                         L81:	; bb26.split
0000020C 6111                    		CMP #01H, R1
0000020E 20rr                    		BEQ L88
00000210                         L82:	; bb26.split
00000210 6121                    		CMP #02H, R1
00000212 20rr                    		BEQ L89
00000214                         L83:	; bb26.split
00000214 6131                    		CMP #03H, R1
00000216 20rr                    		BEQ L92
00000218                         L84:	; bb26.split
00000218 6141                    		CMP #04H, R1
0000021A 3Arrrr               W  		BEQ L93
0000021D                         L85:	; bb26.split
0000021D 6151                    		CMP #05H, R1
0000021F 20rr                    		BEQ L90
00000221                         L86:	; bb26.split
00000221 6101                    		CMP #00H, R1
00000223 3Brrrr               W  		BNE L94
00000226                         L87:	; bb30
                                 ;     217     {
                                 ;     218     	case CONFIGVAR_OX: memcpy(configVarOx,dataRecord.pData,sizeof(configVarOx)); break;
                                 		.LINE  "C:\Workspace\e2studio\git\MT01_master\src\eeprom\eeprom.c",218
00000226 FB12rrrrrrrr            		MOV.L #_dataRecord, R1
0000022C A892                    		MOV.L 08H[R1], R2
0000022E 754314                  		MOV.L #00000014H, R3
00000231 FB12rrrrrrrr            		MOV.L #_configVarOx, R1
00000237 7F8F                    		SMOVF
00000239 6702                    		RTSD #08H
0000023B                         L88:	; bb32
                                 ;     219     	case CONFIGVAR_PL: memcpy(configVarPl,dataRecord.pData,sizeof(configVarPl)); break;
                                 		.LINE  "C:\Workspace\e2studio\git\MT01_master\src\eeprom\eeprom.c",219
0000023B FB12rrrrrrrr            		MOV.L #_dataRecord, R1
00000241 A892                    		MOV.L 08H[R1], R2
00000243 754314                  		MOV.L #00000014H, R3
00000246 FB12rrrrrrrr            		MOV.L #_configVarPl, R1
0000024C 7F8F                    		SMOVF
0000024E 6702                    		RTSD #08H
00000250                         L89:	; bb34
                                 ;     220     	case CONFIGVAR_JOG: memcpy(configVarJog,dataRecord.pData,sizeof(configVarJog)); break;
                                 		.LINE  "C:\Workspace\e2studio\git\MT01_master\src\eeprom\eeprom.c",220
00000250 FB12rrrrrrrr            		MOV.L #_dataRecord, R1
00000256 A891                    		MOV.L 08H[R1], R1
00000258 FBE2rrrrrrrr            		MOV.L #_configVarJog, R14
0000025E E51E0101                		MOV.L 04H[R1], 04H[R14]
00000262 E01E                    		MOV.L [R1], [R14]
00000264 6702                    		RTSD #08H
00000266                         L90:	; bb36
                                 ;     221     	case CONFIGVAR_MAQ: memcpy(configVarMaq,dataRecord.pData,sizeof(configVarMaq)); break;
                                 		.LINE  "C:\Workspace\e2studio\git\MT01_master\src\eeprom\eeprom.c",221
00000266 FB12rrrrrrrr            		MOV.L #_dataRecord, R1
0000026C A891                    		MOV.L 08H[R1], R1
0000026E FBE2rrrrrrrr            		MOV.L #_configVarMaq, R14
00000274 E51E0202                		MOV.L 08H[R1], 08H[R14]
00000278 E51E0101                		MOV.L 04H[R1], 04H[R14]
0000027C E01E                    		MOV.L [R1], [R14]
0000027E 6702                    		RTSD #08H
00000280                         L91:	; bb38
                                 ;     222     	case CONFIGVAR_PAR_MAQ: memcpy(configVarParMaq,dataRecord.pData,sizeof(configVarParMaq)); break;
                                 		.LINE  "C:\Workspace\e2studio\git\MT01_master\src\eeprom\eeprom.c",222
00000280 FB12rrrrrrrr            		MOV.L #_dataRecord, R1
00000286 A892                    		MOV.L 08H[R1], R2
00000288 754330                  		MOV.L #00000030H, R3
0000028B FB12rrrrrrrr            		MOV.L #_configVarParMaq, R1
00000291 7F8F                    		SMOVF
00000293 6702                    		RTSD #08H
00000295                         L92:	; bb40
                                 ;     223     	case CONFIGFLAG: memcpy(&configFlags,dataRecord.pData,sizeof(configFlags)); break;
                                 		.LINE  "C:\Workspace\e2studio\git\MT01_master\src\eeprom\eeprom.c",223
00000295 FB12rrrrrrrr            		MOV.L #_dataRecord, R1
0000029B A892                    		MOV.L 08H[R1], R2
0000029D 754310                  		MOV.L #00000010H, R3
000002A0 FB12rrrrrrrr            		MOV.L #_configFlags, R1
000002A6 7F8F                    		SMOVF
000002A8 6702                    		RTSD #08H
000002AA                         L93:	; bb42
                                 ;     224     	case ZEROPIECE: memcpy(&zeroPiece,dataRecord.pData,sizeof(zeroPiece)); break;
                                 		.LINE  "C:\Workspace\e2studio\git\MT01_master\src\eeprom\eeprom.c",224
000002AA FB12rrrrrrrr            		MOV.L #_dataRecord, R1
000002B0 A891                    		MOV.L 08H[R1], R1
000002B2 FBE2rrrrrrrr            		MOV.L #_zeroPiece, R14
000002B8 E51E0202                		MOV.L 08H[R1], 08H[R14]
000002BC E51E0101                		MOV.L 04H[R1], 04H[R14]
000002C0 E01E                    		MOV.L [R1], [R14]
000002C2 6702                    		RTSD #08H
000002C4                         L94:	; return
                                 ;     225     	default: break;
                                 ;     226     }
                                 ;     227 }
                                 		.LINE  "C:\Workspace\e2studio\git\MT01_master\src\eeprom\eeprom.c",227
000002C4 6702                    		RTSD #08H
000002C6                         _machine_type_write:
                                 		.STACK	_machine_type_write=16
                                 ;     228 
                                 ;     229 void machine_type_write(const char * p_str_model,const char * p_str_crem)
                                 		.LINE  "C:\Workspace\e2studio\git\MT01_master\src\eeprom\eeprom.c",229
000002C6 60C0                    		SUB #0CH, R0
000002C8 A081                    		MOV.L R1, 08H[R0]
000002CA A00A                    		MOV.L R2, 04H[R0]
                                 ;     230 {
                                 ;     231 	uint8_t ret;
                                 ;     232 	sample_state = NOT_READY;
                                 		.LINE  "C:\Workspace\e2studio\git\MT01_master\src\eeprom\eeprom.c",232
000002CC FBE2rrrrrrrr            		MOV.L #_sample_state, R14
000002D2 F8E601                  		MOV.L #00000001H, [R14]
000002D5                         L96:	; entry.split
000002D5 754220                  		MOV.L #00000020H, R2
000002D8 FB1EE07F10              		MOV.L #00107FE0H, R1
                                 ;     233 	ret = R_FlashEraseRange(0x00107FE0, 32);
                                 		.LINE  "C:\Workspace\e2studio\git\MT01_master\src\eeprom\eeprom.c",233
000002DD 05rrrrrr             A  		BSR _R_FlashEraseRange
000002E1 8089                    		MOV.B R1, 03H[R0]
000002E3                         L97:	; bb4
                                 ;     234 	while(sample_state == NOT_READY)
                                 		.LINE  "C:\Workspace\e2studio\git\MT01_master\src\eeprom\eeprom.c",234
000002E3 FBE2rrrrrrrr            		MOV.L #_sample_state, R14
000002E9 ECEE                    		MOV.L [R14], R14
000002EB 611E                    		CMP #01H, R14
000002ED 20rr                    		BEQ L97
000002EF                         L98:	; bb9
                                 ;     235 	{
                                 ;     236 	}
                                 ;     237 	if (ret != FLASH_SUCCESS)
                                 		.LINE  "C:\Workspace\e2studio\git\MT01_master\src\eeprom\eeprom.c",237
000002EF B089                    		MOVU.B 03H[R0], R1
000002F1 6101                    		CMP #00H, R1
000002F3 10                   S  		BEQ L100
000002F4                         L99:	; bb12
                                 ;     238 	{
                                 ;     239 		while(1);
                                 		.LINE  "C:\Workspace\e2studio\git\MT01_master\src\eeprom\eeprom.c",239
000002F4 2Err                 B  		BRA L99
000002F6                         L100:	; bb19
                                 ;     240 	}
                                 ;     241 	sample_state = NOT_READY;
                                 		.LINE  "C:\Workspace\e2studio\git\MT01_master\src\eeprom\eeprom.c",241
000002F6 FBE2rrrrrrrr            		MOV.L #_sample_state, R14
000002FC F8E601                  		MOV.L #00000001H, [R14]
000002FF                         L101:	; bb19.split
                                 ;     242 	ret = R_FlashWrite(0x00107FE0,(uint32_t)p_str_model,12);
                                 		.LINE  "C:\Workspace\e2studio\git\MT01_master\src\eeprom\eeprom.c",242
000002FF A882                    		MOV.L 08H[R0], R2
00000301 66C3                    		MOV.L #0000000CH, R3
00000303 FB1EE07F10              		MOV.L #00107FE0H, R1
00000308 05rrrrrr             A  		BSR _R_FlashWrite
0000030C 8089                    		MOV.B R1, 03H[R0]
0000030E                         L102:	; bb24
                                 ;     243 	while(sample_state == NOT_READY)
                                 		.LINE  "C:\Workspace\e2studio\git\MT01_master\src\eeprom\eeprom.c",243
0000030E FBE2rrrrrrrr            		MOV.L #_sample_state, R14
00000314 ECEE                    		MOV.L [R14], R14
00000316 611E                    		CMP #01H, R14
00000318 20rr                    		BEQ L102
0000031A                         L103:	; bb30
                                 ;     244 	{
                                 ;     245 	}
                                 ;     246 	if (ret != FLASH_SUCCESS)
                                 		.LINE  "C:\Workspace\e2studio\git\MT01_master\src\eeprom\eeprom.c",246
0000031A B089                    		MOVU.B 03H[R0], R1
0000031C 6101                    		CMP #00H, R1
0000031E 10                   S  		BEQ L105
0000031F                         L104:	; bb33
                                 ;     247 	{
                                 ;     248 		while(1);
                                 		.LINE  "C:\Workspace\e2studio\git\MT01_master\src\eeprom\eeprom.c",248
0000031F 2Err                 B  		BRA L104
00000321                         L105:	; bb40
                                 ;     249 	}
                                 ;     250 	sample_state = NOT_READY;
                                 		.LINE  "C:\Workspace\e2studio\git\MT01_master\src\eeprom\eeprom.c",250
00000321 FBE2rrrrrrrr            		MOV.L #_sample_state, R14
00000327 F8E601                  		MOV.L #00000001H, [R14]
0000032A                         L106:	; bb40.split
                                 ;     251 	ret = R_FlashWrite(0x00107FE0 + 12,(uint32_t)p_str_crem,12);
                                 		.LINE  "C:\Workspace\e2studio\git\MT01_master\src\eeprom\eeprom.c",251
0000032A A80A                    		MOV.L 04H[R0], R2
0000032C 66C3                    		MOV.L #0000000CH, R3
0000032E FB1EEC7F10              		MOV.L #00107FECH, R1
00000333 05rrrrrr             A  		BSR _R_FlashWrite
00000337 8089                    		MOV.B R1, 03H[R0]
00000339                         L107:	; bb45
                                 ;     252 	while(sample_state == NOT_READY)
                                 		.LINE  "C:\Workspace\e2studio\git\MT01_master\src\eeprom\eeprom.c",252
00000339 FBE2rrrrrrrr            		MOV.L #_sample_state, R14
0000033F ECEE                    		MOV.L [R14], R14
00000341 611E                    		CMP #01H, R14
00000343 20rr                    		BEQ L107
00000345                         L108:	; bb51
                                 ;     253 	{
                                 ;     254 	}
                                 ;     255 	if (ret != FLASH_SUCCESS)
                                 		.LINE  "C:\Workspace\e2studio\git\MT01_master\src\eeprom\eeprom.c",255
00000345 B089                    		MOVU.B 03H[R0], R1
00000347 6101                    		CMP #00H, R1
00000349 10                   S  		BEQ L110
0000034A                         L109:	; bb54
                                 ;     256 	{
                                 ;     257 		while(1);
                                 		.LINE  "C:\Workspace\e2studio\git\MT01_master\src\eeprom\eeprom.c",257
0000034A 2Err                 B  		BRA L109
0000034C                         L110:	; return
                                 ;     258 	}
                                 ;     259 }
                                 		.LINE  "C:\Workspace\e2studio\git\MT01_master\src\eeprom\eeprom.c",259
0000034C 6703                    		RTSD #0CH
0000034E                         _check_machine_type:
                                 		.STACK	_check_machine_type=32
                                 ;     260 
                                 ;     261 maq_st check_machine_type(void)
                                 		.LINE  "C:\Workspace\e2studio\git\MT01_master\src\eeprom\eeprom.c",261
0000034E 7100E4                  		ADD #0FFFFFFE4H, R0
                                 ;     262 {
                                 ;     263 	maq_st ret;
                                 ;     264 	ret.model = UNDEFINED_MAQ;
                                 		.LINE  "C:\Workspace\e2studio\git\MT01_master\src\eeprom\eeprom.c",264
00000351 F80600                  		MOV.L #00000000H, [R0]
00000354                         L112:	; entry.split
00000354 FBEEE87F10              		MOV.L #00107FE8H, R14
                                 ;     265 	char  str_src[10];
                                 ;     266 	memcpy(str_src,(uint8_t *)0x00107FE0,10);
                                 		.LINE  "C:\Workspace\e2studio\git\MT01_master\src\eeprom\eeprom.c",266
00000359 D4E009                  		MOV.W [R14], 12H[R0]
0000035C FBEEE47F10              		MOV.L #00107FE4H, R14
00000361 71010E                  		ADD #0EH, R0, R1
00000364 E0E1                    		MOV.L [R14], [R1]
00000366 FBEEE07F10              		MOV.L #00107FE0H, R14
0000036B 71010A                  		ADD #0AH, R0, R1
0000036E E0E1                    		MOV.L [R14], [R1]
00000370                         L113:	; entry.split1
00000370 FB36FF                  		MOV.L #0FFFFFFFFH, R3
                                 ;     267 	if (strcmp(str_src,"EASYMAK") == 0)
                                 		.LINE  "C:\Workspace\e2studio\git\MT01_master\src\eeprom\eeprom.c",267
00000373 FB22rrrrrrrr            		MOV.L #_L12, R2
00000379 71010A                  		ADD #0AH, R0, R1
0000037C 7F83                    		SCMPU
0000037E FCDBE2                  		SCGEU.L R14
00000381 FCDBF5                  		SCLEU.L R15
00000384 43FE                    		SUB R15, R14
00000386 610E                    		CMP #00H, R14
00000388 18                   S  		BNE L115
00000389                         L114:	; bb4
                                 ;     268 	{
                                 ;     269 		ret.model = EASYMAK_MAQ;
                                 		.LINE  "C:\Workspace\e2studio\git\MT01_master\src\eeprom\eeprom.c",269
00000389 F80603                  		MOV.L #00000003H, [R0]
0000038C 2Err                 B  		BRA L119
0000038E                         L115:	; bb7
0000038E FB36FF                  		MOV.L #0FFFFFFFFH, R3
                                 ;     270 	}
                                 ;     271 	else if (strcmp(str_src,"COMPACTA") == 0)
                                 		.LINE  "C:\Workspace\e2studio\git\MT01_master\src\eeprom\eeprom.c",271
00000391 FB22rrrrrrrr            		MOV.L #_L11, R2
00000397 71010A                  		ADD #0AH, R0, R1
0000039A 7F83                    		SCMPU
0000039C FCDBE2                  		SCGEU.L R14
0000039F FCDBF5                  		SCLEU.L R15
000003A2 43FE                    		SUB R15, R14
000003A4 610E                    		CMP #00H, R14
000003A6 18                   S  		BNE L117
000003A7                         L116:	; bb8
                                 ;     272 	{
                                 ;     273 		ret.model = COMPACTA_MAQ;
                                 		.LINE  "C:\Workspace\e2studio\git\MT01_master\src\eeprom\eeprom.c",273
000003A7 F80601                  		MOV.L #00000001H, [R0]
000003AA 2Err                 B  		BRA L119
000003AC                         L117:	; bb11
000003AC FB36FF                  		MOV.L #0FFFFFFFFH, R3
                                 ;     274 	}
                                 ;     275 	else if (strcmp(str_src,"MOBILE") == 0)
                                 		.LINE  "C:\Workspace\e2studio\git\MT01_master\src\eeprom\eeprom.c",275
000003AF FB22rrrrrrrr            		MOV.L #_L10, R2
000003B5 71010A                  		ADD #0AH, R0, R1
000003B8 7F83                    		SCMPU
000003BA FCDBE2                  		SCGEU.L R14
000003BD FCDBF5                  		SCLEU.L R15
000003C0 43FE                    		SUB R15, R14
000003C2 610E                    		CMP #00H, R14
000003C4 18                   S  		BNE L119
000003C5                         L118:	; bb12
                                 ;     276 	{
                                 ;     277 		ret.model = MOBILE_MAQ;
                                 		.LINE  "C:\Workspace\e2studio\git\MT01_master\src\eeprom\eeprom.c",277
000003C5 F80602                  		MOV.L #00000002H, [R0]
000003C8                         L119:	; bb30
000003C8 FBEEF47F10              		MOV.L #00107FF4H, R14
                                 ;     278 	}
                                 ;     279 	memcpy(str_src,(uint8_t *)(0x00107FE0 + 12),10);
                                 		.LINE  "C:\Workspace\e2studio\git\MT01_master\src\eeprom\eeprom.c",279
000003CD D4E009                  		MOV.W [R14], 12H[R0]
000003D0 FBEEF07F10              		MOV.L #00107FF0H, R14
000003D5 71010E                  		ADD #0EH, R0, R1
000003D8 E0E1                    		MOV.L [R14], [R1]
000003DA FBEEEC7F10              		MOV.L #00107FECH, R14
000003DF 71010A                  		ADD #0AH, R0, R1
000003E2 E0E1                    		MOV.L [R14], [R1]
000003E4                         L120:	; bb30.split
000003E4 FB36FF                  		MOV.L #0FFFFFFFFH, R3
                                 ;     280 	if (strcmp(str_src,"RETA") == 0)
                                 		.LINE  "C:\Workspace\e2studio\git\MT01_master\src\eeprom\eeprom.c",280
000003E7 FB22rrrrrrrr            		MOV.L #_L14, R2
000003ED 71010A                  		ADD #0AH, R0, R1
000003F0 7F83                    		SCMPU
000003F2 FCDBE2                  		SCGEU.L R14
000003F5 FCDBF5                  		SCLEU.L R15
000003F8 43FE                    		SUB R15, R14
000003FA 610E                    		CMP #00H, R14
000003FC 18                   S  		BNE L122
000003FD                         L121:	; bb33
                                 ;     281 	{
                                 ;     282 		ret.crem = (bool)MODEL_RETA;
                                 		.LINE  "C:\Workspace\e2studio\git\MT01_master\src\eeprom\eeprom.c",282
000003FD 3C0400                  		MOV.B #00H, 04H[R0]
00000400 2Err                 B  		BRA L124
00000402                         L122:	; bb36
00000402 FB36FF                  		MOV.L #0FFFFFFFFH, R3
                                 ;     283 	}
                                 ;     284 	else if (strcmp(str_src,"HELI") == 0)
                                 		.LINE  "C:\Workspace\e2studio\git\MT01_master\src\eeprom\eeprom.c",284
00000405 FB22rrrrrrrr            		MOV.L #_L13, R2
0000040B 71010A                  		ADD #0AH, R0, R1
0000040E 7F83                    		SCMPU
00000410 FCDBE2                  		SCGEU.L R14
00000413 FCDBF5                  		SCLEU.L R15
00000416 43FE                    		SUB R15, R14
00000418 610E                    		CMP #00H, R14
0000041A 18                   S  		BNE L124
0000041B                         L123:	; bb37
                                 ;     285 	{
                                 ;     286 		ret.crem = (bool)MODEL_HELI;
                                 		.LINE  "C:\Workspace\e2studio\git\MT01_master\src\eeprom\eeprom.c",286
0000041B 3C0401                  		MOV.B #01H, 04H[R0]
0000041E                         L124:	; bb50
                                 ;     287 	}
                                 ;     288 	return ret;
                                 		.LINE  "C:\Workspace\e2studio\git\MT01_master\src\eeprom\eeprom.c",288
0000041E E40005                  		MOV.L [R0], 14H[R0]
00000421 C5000418                		MOV.B 04H[R0], 18H[R0]
00000425                         L125:	; bb50.split
                                 ;     289 }
                                 		.LINE  "C:\Workspace\e2studio\git\MT01_master\src\eeprom\eeprom.c",289
00000425 A909                    		MOV.L 14H[R0], R1
00000427 A982                    		MOV.L 18H[R0], R2
00000429 6707                    		RTSD #1CH
0000042B                         _VEE_OperationDone_Callback:
                                 		.STACK	_VEE_OperationDone_Callback=4
                                 ;     290 
                                 ;     291 /***********************************************************************************************************************
                                 ;     292 * Function Name: VEE_OperationDone_Callback
                                 ;     293 * Description  : Callback function from VEE that signifies that VEE operation
                                 ;     294 *                has finished.
                                 ;     295 * Arguments    : none
                                 ;     296 * Return Value : none
                                 ;     297 ***********************************************************************************************************************/
                                 ;     298 void VEE_OperationDone_Callback(void)
                                 ;     299 {
                                 ;     300 	sample_state = READY;
                                 		.LINE  "C:\Workspace\e2studio\git\MT01_master\src\eeprom\eeprom.c",300
0000042B FBE2rrrrrrrr            		MOV.L #_sample_state, R14
00000431 F8E600                  		MOV.L #00000000H, [R14]
00000434 02                      		RTS
00000435                         _eepromConsistencyCheck:
                                 		.STACK	_eepromConsistencyCheck=12
                                 ;     301 }
                                 ;     302 /***********************************************************************************************************************
                                 ;     303 End of VEE_OperationDone_Callback function
                                 ;     304 ***********************************************************************************************************************/
                                 ;     305 
                                 ;     306 void eepromConsistencyCheck(void)
                                 		.LINE  "C:\Workspace\e2studio\git\MT01_master\src\eeprom\eeprom.c",306
00000435 6080                    		SUB #08H, R0
                                 ;     307 {
                                 ;     308 	uint8_t i;
                                 ;     309 	for (i = 0; i < OX_CONFIG_MAX; i++)
                                 		.LINE  "C:\Workspace\e2studio\git\MT01_master\src\eeprom\eeprom.c",309
00000437 3C0700                  		MOV.B #00H, 07H[R0]
0000043A 2Err                 B  		BRA L135
0000043C                         L128:	; bb2
                                 ;     310 	{
                                 ;     311 		if (configVarOx[i] > ox_init_max[i] || configVarOx[i] < ox_init_min[i])
                                 		.LINE  "C:\Workspace\e2studio\git\MT01_master\src\eeprom\eeprom.c",311
0000043C B189                    		MOVU.B 07H[R0], R1
0000043E FBE2rrrrrrrr            		MOV.L #_ox_init_max, R14
00000444 FE61EE                  		MOV.L [R1,R14], R14
00000447 FBF2rrrrrrrr            		MOV.L #_configVarOx, R15
0000044D FE61FF                  		MOV.L [R1,R15], R15
00000450 FC87FE                  		FCMP R15, R14
00000453 27rr                    		BN L131
00000455 08                   S  		BRA L130
00000456                         L129:	; bb3
                                 ;     312 		{
                                 ;     313 			eepromFormat();
                                 		.LINE  "C:\Workspace\e2studio\git\MT01_master\src\eeprom\eeprom.c",313
00000456 39rrrr               W  		BSR _eepromFormat
00000459 2Err                 B  		BRA L134
0000045B                         L130:	; bb13
0000045B B189                    		MOVU.B 07H[R0], R1
0000045D FBE2rrrrrrrr            		MOV.L #_configVarOx, R14
00000463 FE61EE                  		MOV.L [R1,R14], R14
00000466 FBF2rrrrrrrr            		MOV.L #_ox_init_min, R15
0000046C FE61FF                  		MOV.L [R1,R15], R15
0000046F FC87FE                  		FCMP R15, R14
00000472 26rr                    		BPZ L132
00000474                         L131:	; bb24
00000474 F80601                  		MOV.L #00000001H, [R0]
00000477 08                   S  		BRA L133
00000478                         L132:	; bb25
00000478 F80600                  		MOV.L #00000000H, [R0]
0000047B                         L133:	; bb26
0000047B EC01                    		MOV.L [R0], R1
0000047D 6101                    		CMP #00H, R1
0000047F 21rr                    		BNE L129
00000481                         L134:	; bb30
00000481 B189                    		MOVU.B 07H[R0], R1
00000483 6211                    		ADD #01H, R1
00000485 8189                    		MOV.B R1, 07H[R0]
00000487                         L135:	; bb33
                                 		.LINE  "C:\Workspace\e2studio\git\MT01_master\src\eeprom\eeprom.c",309
00000487 B189                    		MOVU.B 07H[R0], R1
00000489 6151                    		CMP #05H, R1
0000048B 29rr                    		BLT L128
0000048D                         L136:	; bb39
                                 ;     314 		}
                                 ;     315 	}
                                 ;     316 	for (i = 0; i < PL_CONFIG_MAX; i++)
                                 		.LINE  "C:\Workspace\e2studio\git\MT01_master\src\eeprom\eeprom.c",316
0000048D 3C0700                  		MOV.B #00H, 07H[R0]
00000490 2Err                 B  		BRA L144
00000492                         L137:	; bb41
                                 ;     317 	{
                                 ;     318 		if (configVarPl[i] > pl_init_max[i] || configVarPl[i] < pl_init_min[i])
                                 		.LINE  "C:\Workspace\e2studio\git\MT01_master\src\eeprom\eeprom.c",318
00000492 B189                    		MOVU.B 07H[R0], R1
00000494 FBE2rrrrrrrr            		MOV.L #_pl_init_max, R14
0000049A FE61EE                  		MOV.L [R1,R14], R14
0000049D FBF2rrrrrrrr            		MOV.L #_configVarPl, R15
000004A3 FE61FF                  		MOV.L [R1,R15], R15
000004A6 FC87FE                  		FCMP R15, R14
000004A9 27rr                    		BN L140
000004AB 08                   S  		BRA L139
000004AC                         L138:	; bb42
                                 ;     319 		{
                                 ;     320 			eepromFormat();
                                 		.LINE  "C:\Workspace\e2studio\git\MT01_master\src\eeprom\eeprom.c",320
000004AC 39rrrr               W  		BSR _eepromFormat
000004AF 2Err                 B  		BRA L143
000004B1                         L139:	; bb53
000004B1 B189                    		MOVU.B 07H[R0], R1
000004B3 FBE2rrrrrrrr            		MOV.L #_configVarPl, R14
000004B9 FE61EE                  		MOV.L [R1,R14], R14
000004BC FBF2rrrrrrrr            		MOV.L #_pl_init_min, R15
000004C2 FE61FF                  		MOV.L [R1,R15], R15
000004C5 FC87FE                  		FCMP R15, R14
000004C8 26rr                    		BPZ L141
000004CA                         L140:	; bb64
000004CA F80601                  		MOV.L #00000001H, [R0]
000004CD 08                   S  		BRA L142
000004CE                         L141:	; bb65
000004CE F80600                  		MOV.L #00000000H, [R0]
000004D1                         L142:	; bb66
000004D1 EC01                    		MOV.L [R0], R1
000004D3 6101                    		CMP #00H, R1
000004D5 21rr                    		BNE L138
000004D7                         L143:	; bb71
000004D7 B189                    		MOVU.B 07H[R0], R1
000004D9 6211                    		ADD #01H, R1
000004DB 8189                    		MOV.B R1, 07H[R0]
000004DD                         L144:	; bb74
                                 		.LINE  "C:\Workspace\e2studio\git\MT01_master\src\eeprom\eeprom.c",316
000004DD B189                    		MOVU.B 07H[R0], R1
000004DF 6151                    		CMP #05H, R1
000004E1 29rr                    		BLT L137
000004E3                         L145:	; bb81
                                 ;     321 		}
                                 ;     322 	}
                                 ;     323 
                                 ;     324 	for (i = 0; i < FLAG_MAX; i++)
                                 		.LINE  "C:\Workspace\e2studio\git\MT01_master\src\eeprom\eeprom.c",324
000004E3 3C0700                  		MOV.B #00H, 07H[R0]
000004E6 2Err                 B  		BRA L149
000004E8                         L146:	; bb83
                                 ;     325 	{
                                 ;     326 		if (configFlags[i] > 1 )
                                 		.LINE  "C:\Workspace\e2studio\git\MT01_master\src\eeprom\eeprom.c",326
000004E8 FBE2rrrrrrrr            		MOV.L #_configFlags, R14
000004EE B189                    		MOVU.B 07H[R0], R1
000004F0 FE61EE                  		MOV.L [R1,R14], R14
000004F3 612E                    		CMP #02H, R14
000004F5 23rr                    		BLTU L148
000004F7                         L147:	; bb84
                                 ;     327 		{
                                 ;     328 			eepromFormat();
                                 		.LINE  "C:\Workspace\e2studio\git\MT01_master\src\eeprom\eeprom.c",328
000004F7 39rrrr               W  		BSR _eepromFormat
000004FA                         L148:	; bb92
000004FA B189                    		MOVU.B 07H[R0], R1
000004FC 6211                    		ADD #01H, R1
000004FE 8189                    		MOV.B R1, 07H[R0]
00000500                         L149:	; bb95
                                 		.LINE  "C:\Workspace\e2studio\git\MT01_master\src\eeprom\eeprom.c",324
00000500 B189                    		MOVU.B 07H[R0], R1
00000502 6141                    		CMP #04H, R1
00000504 29rr                    		BLT L146
00000506                         L150:	; bb101
                                 ;     329 		}
                                 ;     330 	}
                                 ;     331 
                                 ;     332 	for (i = 0; i < CFG_PAR_MAQ_MAX - 1; i++)
                                 		.LINE  "C:\Workspace\e2studio\git\MT01_master\src\eeprom\eeprom.c",332
00000506 3C0700                  		MOV.B #00H, 07H[R0]
00000509 2Err                 B  		BRA L158
0000050B                         L151:	; bb103
                                 ;     333 	{
                                 ;     334 		if (configVarParMaq[i] > pm_init_max[i] || configVarParMaq[i] <= pm_init_min[i])
                                 		.LINE  "C:\Workspace\e2studio\git\MT01_master\src\eeprom\eeprom.c",334
0000050B B189                    		MOVU.B 07H[R0], R1
0000050D FBE2rrrrrrrr            		MOV.L #_pm_init_max, R14
00000513 FE61EE                  		MOV.L [R1,R14], R14
00000516 FBF2rrrrrrrr            		MOV.L #_configVarParMaq, R15
0000051C FE61FF                  		MOV.L [R1,R15], R15
0000051F FC87FE                  		FCMP R15, R14
00000522 27rr                    		BN L154
00000524 08                   S  		BRA L153
00000525                         L152:	; bb104
                                 ;     335 		{
                                 ;     336 			eepromFormat();
                                 		.LINE  "C:\Workspace\e2studio\git\MT01_master\src\eeprom\eeprom.c",336
00000525 39rrrr               W  		BSR _eepromFormat
00000528 2Err                 B  		BRA L157
0000052A                         L153:	; bb115
0000052A B189                    		MOVU.B 07H[R0], R1
0000052C FBE2rrrrrrrr            		MOV.L #_pm_init_min, R14
00000532 FE61EE                  		MOV.L [R1,R14], R14
00000535 FBF2rrrrrrrr            		MOV.L #_configVarParMaq, R15
0000053B FE61FF                  		MOV.L [R1,R15], R15
0000053E FC87FE                  		FCMP R15, R14
00000541 29rr                    		BLT L155
00000543                         L154:	; bb126
00000543 F80601                  		MOV.L #00000001H, [R0]
00000546 08                   S  		BRA L156
00000547                         L155:	; bb127
00000547 F80600                  		MOV.L #00000000H, [R0]
0000054A                         L156:	; bb128
0000054A EC01                    		MOV.L [R0], R1
0000054C 6101                    		CMP #00H, R1
0000054E 21rr                    		BNE L152
00000550                         L157:	; bb133
00000550 B189                    		MOVU.B 07H[R0], R1
00000552 6211                    		ADD #01H, R1
00000554 8189                    		MOV.B R1, 07H[R0]
00000556                         L158:	; bb136
                                 		.LINE  "C:\Workspace\e2studio\git\MT01_master\src\eeprom\eeprom.c",332
00000556 B189                    		MOVU.B 07H[R0], R1
00000558 61B1                    		CMP #0BH, R1
0000055A 29rr                    		BLT L151
0000055C                         L159:	; return
                                 ;     337 		}
                                 ;     338 	}
                                 ;     339 }
                                 		.LINE  "C:\Workspace\e2studio\git\MT01_master\src\eeprom\eeprom.c",339
0000055C 6702                    		RTSD #08H
0000055E                         _eepromFormat:
                                 		.STACK	_eepromFormat=12
                                 ;     340 
                                 ;     341 void eepromFormat(void)
                                 		.LINE  "C:\Workspace\e2studio\git\MT01_master\src\eeprom\eeprom.c",341
0000055E 6080                    		SUB #08H, R0
00000560 FB1EFFFF00              		MOV.L #0000FFFFH, R1
                                 ;     342 {
                                 ;     343 
                                 ;     344 		uint32_t loop1;
                                 ;     345 		uint32_t ret;
                                 ;     346 		/* Enable data flash access. */
                                 ;     347 		R_FlashDataAreaAccess(0xFFFF, 0xFFFF);
                                 		.LINE  "C:\Workspace\e2studio\git\MT01_master\src\eeprom\eeprom.c",347
00000565 EF12                    		MOV.L R1, R2
00000567 05rrrrrr             A  		BSR _R_FlashDataAreaAccess
0000056B                         L161:	; entry.split
                                 ;     348 
                                 ;     349 		for (loop1 = 0; loop1 < DF_NUM_BLOCKS; loop1++)
                                 		.LINE  "C:\Workspace\e2studio\git\MT01_master\src\eeprom\eeprom.c",349
0000056B F80600                  		MOV.L #00000000H, [R0]
0000056E 2Err                 B  		BRA L167
00000570                         L162:	; bb
                                 ;     350 		{
                                 ;     351 			/* Erase data flash. */
                                 ;     352 			ret = R_FlashErase(BLOCK_DB0 + loop1);
                                 		.LINE  "C:\Workspace\e2studio\git\MT01_master\src\eeprom\eeprom.c",352
00000570 EC01                    		MOV.L [R0], R1
00000572 711146                  		ADD #46H, R1
00000575 05rrrrrr             A  		BSR _R_FlashErase
00000579 A009                    		MOV.L R1, 04H[R0]
0000057B                         L163:	; bb.split
                                 ;     353 
                                 ;     354 			/* Check for errors */
                                 ;     355 			if(ret != FLASH_SUCCESS)
                                 		.LINE  "C:\Workspace\e2studio\git\MT01_master\src\eeprom\eeprom.c",355
0000057B A809                    		MOV.L 04H[R0], R1
0000057D 6101                    		CMP #00H, R1
0000057F 10                   S  		BEQ L165
00000580                         L164:	; bb9
                                 ;     356 			{
                                 ;     357 				while(1)
                                 		.LINE  "C:\Workspace\e2studio\git\MT01_master\src\eeprom\eeprom.c",357
00000580 2Err                 B  		BRA L164
00000582                         L165:	; bb16
                                 ;     358 				{
                                 ;     359 					/* Failure in erasing data flash. Something is not setup right. */
                                 ;     360 				}
                                 ;     361 			}
                                 ;     362 
                                 ;     363 			/* Wait for flash operation to finish. */
                                 ;     364 			while(FLASH_SUCCESS != R_FlashGetStatus());
                                 		.LINE  "C:\Workspace\e2studio\git\MT01_master\src\eeprom\eeprom.c",364
00000582 05rrrrrr             A  		BSR _R_FlashGetStatus
00000586 6101                    		CMP #00H, R1
00000588 21rr                    		BNE L165
0000058A                         L166:	; bb22
0000058A EC01                    		MOV.L [R0], R1
0000058C 6211                    		ADD #01H, R1
0000058E E301                    		MOV.L R1, [R0]
00000590                         L167:	; bb25
                                 		.LINE  "C:\Workspace\e2studio\git\MT01_master\src\eeprom\eeprom.c",349
00000590 EC01                    		MOV.L [R0], R1
00000592 755110                  		CMP #10H, R1
00000595 23rr                    		BLTU L162
00000597                         L168:	; bb30
00000597 754314                  		MOV.L #00000014H, R3
                                 ;     365 		}
                                 ;     366 		memcpy(configVarOx,configVarOxInit,sizeof(configVarOx));
                                 		.LINE  "C:\Workspace\e2studio\git\MT01_master\src\eeprom\eeprom.c",366
0000059A FB22rrrrrrrr            		MOV.L #_configVarOxInit, R2
000005A0 FB12rrrrrrrr            		MOV.L #_configVarOx, R1
000005A6 7F8F                    		SMOVF
000005A8                         L169:	; bb30.split
000005A8 754314                  		MOV.L #00000014H, R3
                                 ;     367 		memcpy(configVarPl,configVarPlInit,sizeof(configVarPl));
                                 		.LINE  "C:\Workspace\e2studio\git\MT01_master\src\eeprom\eeprom.c",367
000005AB FB22rrrrrrrr            		MOV.L #_configVarPlInit, R2
000005B1 FB12rrrrrrrr            		MOV.L #_configVarPl, R1
000005B7 7F8F                    		SMOVF
000005B9                         L170:	; bb30.split1
                                 ;     368 		memcpy(configVarJog,configVarJogInit,sizeof(configVarJog));
                                 		.LINE  "C:\Workspace\e2studio\git\MT01_master\src\eeprom\eeprom.c",368
000005B9 FBE2rrrrrrrr            		MOV.L #_configVarJog, R14
000005BF FBF2rrrrrrrr            		MOV.L #_configVarJogInit, R15
000005C5 E5FE0101                		MOV.L 04H[R15], 04H[R14]
000005C9 E0FE                    		MOV.L [R15], [R14]
000005CB                         L171:	; bb30.split2
000005CB 754310                  		MOV.L #00000010H, R3
                                 ;     369 		memcpy(&configFlags,&configFlagsInit,sizeof(configFlags));
                                 		.LINE  "C:\Workspace\e2studio\git\MT01_master\src\eeprom\eeprom.c",369
000005CE FB22rrrrrrrr            		MOV.L #_configFlagsInit, R2
000005D4 FB12rrrrrrrr            		MOV.L #_configFlags, R1
000005DA 7F8F                    		SMOVF
000005DC                         L172:	; bb30.split3
                                 ;     370 		memcpy(&zeroPiece,&zeroPieceInit,sizeof(zeroPiece));
                                 		.LINE  "C:\Workspace\e2studio\git\MT01_master\src\eeprom\eeprom.c",370
000005DC FBE2rrrrrrrr            		MOV.L #_zeroPiece, R14
000005E2 FBF2rrrrrrrr            		MOV.L #_zeroPieceInit, R15
000005E8 E5FE0202                		MOV.L 08H[R15], 08H[R14]
000005EC E5FE0101                		MOV.L 04H[R15], 04H[R14]
000005F0 E0FE                    		MOV.L [R15], [R14]
000005F2                         L173:	; bb30.split4
                                 ;     371 		memcpy(configVarMaq,configVarMaqInit,sizeof(configVarMaq));
                                 		.LINE  "C:\Workspace\e2studio\git\MT01_master\src\eeprom\eeprom.c",371
000005F2 FBE2rrrrrrrr            		MOV.L #_configVarMaq, R14
000005F8 FBF2rrrrrrrr            		MOV.L #_configVarMaqInit, R15
000005FE E5FE0202                		MOV.L 08H[R15], 08H[R14]
00000602 E5FE0101                		MOV.L 04H[R15], 04H[R14]
00000606 E0FE                    		MOV.L [R15], [R14]
00000608                         L174:	; bb30.split5
                                 ;     372 		if (g_maq.model == EASYMAK_MAQ)
                                 		.LINE  "C:\Workspace\e2studio\git\MT01_master\src\eeprom\eeprom.c",372
00000608 FBE2rrrrrrrr            		MOV.L #_g_maq, R14
0000060E ECEE                    		MOV.L [R14], R14
00000610 613E                    		CMP #03H, R14
00000612 21rr                    		BNE L176
00000614                         L175:	; bb32
00000614 754330                  		MOV.L #00000030H, R3
                                 ;     373 		{
                                 ;     374 			memcpy(configVarParMaq,configVarParMaqInit_EM,sizeof(configVarParMaq));
                                 		.LINE  "C:\Workspace\e2studio\git\MT01_master\src\eeprom\eeprom.c",374
00000617 FB22rrrrrrrr            		MOV.L #_configVarParMaqInit_EM, R2
0000061D FB12rrrrrrrr            		MOV.L #_configVarParMaq, R1
00000623 7F8F                    		SMOVF
00000625 2Err                 B  		BRA L180
00000627                         L176:	; bb34
                                 ;     375 		}
                                 ;     376 		else if (g_maq.model == COMPACTA_MAQ)
                                 		.LINE  "C:\Workspace\e2studio\git\MT01_master\src\eeprom\eeprom.c",376
00000627 FBE2rrrrrrrr            		MOV.L #_g_maq, R14
0000062D ECEE                    		MOV.L [R14], R14
0000062F 611E                    		CMP #01H, R14
00000631 21rr                    		BNE L178
00000633                         L177:	; bb35
00000633 754330                  		MOV.L #00000030H, R3
                                 ;     377 		{
                                 ;     378 			memcpy(configVarParMaq,configVarParMaqInit_CP,sizeof(configVarParMaq));
                                 		.LINE  "C:\Workspace\e2studio\git\MT01_master\src\eeprom\eeprom.c",378
00000636 FB22rrrrrrrr            		MOV.L #_configVarParMaqInit_CP, R2
0000063C FB12rrrrrrrr            		MOV.L #_configVarParMaq, R1
00000642 7F8F                    		SMOVF
00000644 2Err                 B  		BRA L180
00000646                         L178:	; bb37
                                 ;     379 		}
                                 ;     380 		else if (g_maq.model == MOBILE_MAQ)
                                 		.LINE  "C:\Workspace\e2studio\git\MT01_master\src\eeprom\eeprom.c",380
00000646 FBE2rrrrrrrr            		MOV.L #_g_maq, R14
0000064C ECEE                    		MOV.L [R14], R14
0000064E 612E                    		CMP #02H, R14
00000650 21rr                    		BNE L180
00000652                         L179:	; bb38
00000652 754330                  		MOV.L #00000030H, R3
                                 ;     381 		{
                                 ;     382 			memcpy(configVarParMaq,configVarParMaqInit_MB,sizeof(configVarParMaq));
                                 		.LINE  "C:\Workspace\e2studio\git\MT01_master\src\eeprom\eeprom.c",382
00000655 FB22rrrrrrrr            		MOV.L #_configVarParMaqInit_MB, R2
0000065B FB12rrrrrrrr            		MOV.L #_configVarParMaq, R1
00000661 7F8F                    		SMOVF
00000663                         L180:	; bb55
                                 ;     383 		}
                                 ;     384 
                                 ;     385 		if (g_maq.crem)
                                 		.LINE  "C:\Workspace\e2studio\git\MT01_master\src\eeprom\eeprom.c",385
00000663 FB12rrrrrrrr            		MOV.L #_g_maq, R1
00000669 B111                    		MOVU.B 04H[R1], R1
0000066B 6101                    		CMP #00H, R1
0000066D 20rr                    		BEQ L184
0000066F                         L181:	; bb56
                                 ;     386 		{
                                 ;     387 			configVarParMaq[CFG_PAR_MAQ_EIXO_X1] = CREM_HELI;
                                 		.LINE  "C:\Workspace\e2studio\git\MT01_master\src\eeprom\eeprom.c",387
0000066F FBE2rrrrrrrr            		MOV.L #_configVarParMaq, R14
00000675 F8E23333A042            		MOV.L #42A03333H, [R14]
0000067B                         L182:	; bb56.split
                                 ;     388 			configVarParMaq[CFG_PAR_MAQ_EIXO_X2] = CREM_HELI;
                                 		.LINE  "C:\Workspace\e2studio\git\MT01_master\src\eeprom\eeprom.c",388
0000067B FBE2rrrrrrrr            		MOV.L #_configVarParMaq, R14
00000681 F9E2013333A042          		MOV.L #42A03333H, 04H[R14]
00000688                         L183:	; bb56.split6
                                 ;     389 			configVarParMaq[CFG_PAR_MAQ_EIXO_Y]  = CREM_HELI;
                                 		.LINE  "C:\Workspace\e2studio\git\MT01_master\src\eeprom\eeprom.c",389
00000688 FBE2rrrrrrrr            		MOV.L #_configVarParMaq, R14
0000068E F9E2023333A042          		MOV.L #42A03333H, 08H[R14]
00000695                         L184:	; bb62
                                 ;     390 		}
                                 ;     391 
                                 ;     392 		R_VEE_Open();
                                 		.LINE  "C:\Workspace\e2studio\git\MT01_master\src\eeprom\eeprom.c",392
00000695 05rrrrrr             A  		BSR _R_VEE_Open
00000699                         L185:	; bb62.split
00000699 6601                    		MOV.L #00000000H, R1
                                 ;     393 		eepromWriteConfig(CONFIGVAR_OX);
                                 		.LINE  "C:\Workspace\e2studio\git\MT01_master\src\eeprom\eeprom.c",393
0000069B 39rrrr               W  		BSR _eepromWriteConfig
0000069E                         L186:	; bb62.split7
0000069E 6611                    		MOV.L #00000001H, R1
                                 ;     394 		eepromWriteConfig(CONFIGVAR_PL);
                                 		.LINE  "C:\Workspace\e2studio\git\MT01_master\src\eeprom\eeprom.c",394
000006A0 39rrrr               W  		BSR _eepromWriteConfig
000006A3                         L187:	; bb62.split8
000006A3 6621                    		MOV.L #00000002H, R1
                                 ;     395 		eepromWriteConfig(CONFIGVAR_JOG);
                                 		.LINE  "C:\Workspace\e2studio\git\MT01_master\src\eeprom\eeprom.c",395
000006A5 39rrrr               W  		BSR _eepromWriteConfig
000006A8                         L188:	; bb62.split9
000006A8 6651                    		MOV.L #00000005H, R1
                                 ;     396 		eepromWriteConfig(CONFIGVAR_MAQ);
                                 		.LINE  "C:\Workspace\e2studio\git\MT01_master\src\eeprom\eeprom.c",396
000006AA 39rrrr               W  		BSR _eepromWriteConfig
000006AD                         L189:	; bb62.split10
000006AD 6661                    		MOV.L #00000006H, R1
                                 ;     397 		eepromWriteConfig(CONFIGVAR_PAR_MAQ);
                                 		.LINE  "C:\Workspace\e2studio\git\MT01_master\src\eeprom\eeprom.c",397
000006AF 39rrrr               W  		BSR _eepromWriteConfig
000006B2                         L190:	; bb62.split11
000006B2 6631                    		MOV.L #00000003H, R1
                                 ;     398 		eepromWriteConfig(CONFIGFLAG);
                                 		.LINE  "C:\Workspace\e2studio\git\MT01_master\src\eeprom\eeprom.c",398
000006B4 39rrrr               W  		BSR _eepromWriteConfig
000006B7                         L191:	; bb62.split12
000006B7 6641                    		MOV.L #00000004H, R1
                                 ;     399 		eepromWriteConfig(ZEROPIECE);
                                 		.LINE  "C:\Workspace\e2studio\git\MT01_master\src\eeprom\eeprom.c",399
000006B9 39rrrr               W  		BSR _eepromWriteConfig
000006BC 6702                    		RTSD #08H
000006BE                         _eepromIntegrityCheck:
                                 		.STACK	_eepromIntegrityCheck=12
                                 ;     400 }
                                 ;     401 
                                 ;     402 mem_check eepromIntegrityCheck(void)
                                 		.LINE  "C:\Workspace\e2studio\git\MT01_master\src\eeprom\eeprom.c",402
000006BE 6080                    		SUB #08H, R0
                                 ;     403 {
                                 ;     404 	uint8_t i = 0;
                                 		.LINE  "C:\Workspace\e2studio\git\MT01_master\src\eeprom\eeprom.c",404
000006C0 3C0200                  		MOV.B #00H, 02H[R0]
000006C3                         L193:	; entry.split
                                 ;     405 	bool res = MEM_OK;
                                 		.LINE  "C:\Workspace\e2studio\git\MT01_master\src\eeprom\eeprom.c",405
000006C3 3C0300                  		MOV.B #00H, 03H[R0]
000006C6                         L194:	; entry.split1
                                 ;     406 
                                 ;     407 	for (i = 0; i < CONFIGVAR_MAX; i++)
                                 		.LINE  "C:\Workspace\e2studio\git\MT01_master\src\eeprom\eeprom.c",407
000006C6 3C0200                  		MOV.B #00H, 02H[R0]
000006C9 2Err                 B  		BRA L196
000006CB                         L195:	; bb
                                 ;     408 	{
                                 ;     409 		eepromReadConfig(i);
                                 		.LINE  "C:\Workspace\e2studio\git\MT01_master\src\eeprom\eeprom.c",409
000006CB B081                    		MOVU.B 02H[R0], R1
000006CD 39rrrr               W  		BSR _eepromReadConfig
000006D0 B081                    		MOVU.B 02H[R0], R1
000006D2 6211                    		ADD #01H, R1
000006D4 8081                    		MOV.B R1, 02H[R0]
000006D6                         L196:	; bb6
                                 		.LINE  "C:\Workspace\e2studio\git\MT01_master\src\eeprom\eeprom.c",407
000006D6 B081                    		MOVU.B 02H[R0], R1
000006D8 6171                    		CMP #07H, R1
000006DA 29rr                    		BLT L195
000006DC                         L197:	; bb12
000006DC 754314                  		MOV.L #00000014H, R3
                                 ;     410 	}
                                 ;     411 	if(memcmp(configVarOx,configVarOxInit,sizeof(configVarOx)))
                                 		.LINE  "C:\Workspace\e2studio\git\MT01_master\src\eeprom\eeprom.c",411
000006DF FB22rrrrrrrr            		MOV.L #_configVarOxInit, R2
000006E5 FB12rrrrrrrr            		MOV.L #_configVarOx, R1
000006EB 05rrrrrr             A  		BSR _memcmp
000006EF 6101                    		CMP #00H, R1
000006F1 10                   S  		BEQ L199
000006F2                         L198:	; bb13
                                 ;     412 		res = MEM_FAIL;
                                 		.LINE  "C:\Workspace\e2studio\git\MT01_master\src\eeprom\eeprom.c",412
000006F2 3C0301                  		MOV.B #01H, 03H[R0]
000006F5                         L199:	; bb19
000006F5 754314                  		MOV.L #00000014H, R3
                                 ;     413 	if(memcmp(configVarPl,configVarPlInit,sizeof(configVarPl)))
                                 		.LINE  "C:\Workspace\e2studio\git\MT01_master\src\eeprom\eeprom.c",413
000006F8 FB22rrrrrrrr            		MOV.L #_configVarPlInit, R2
000006FE FB12rrrrrrrr            		MOV.L #_configVarPl, R1
00000704 05rrrrrr             A  		BSR _memcmp
00000708 6101                    		CMP #00H, R1
0000070A 10                   S  		BEQ L201
0000070B                         L200:	; bb20
                                 ;     414 		res = MEM_FAIL;
                                 		.LINE  "C:\Workspace\e2studio\git\MT01_master\src\eeprom\eeprom.c",414
0000070B 3C0301                  		MOV.B #01H, 03H[R0]
0000070E                         L201:	; bb26
0000070E 6683                    		MOV.L #00000008H, R3
                                 ;     415 	if(memcmp(configVarJog,configVarJogInit,sizeof(configVarJog)))
                                 		.LINE  "C:\Workspace\e2studio\git\MT01_master\src\eeprom\eeprom.c",415
00000710 FB22rrrrrrrr            		MOV.L #_configVarJogInit, R2
00000716 FB12rrrrrrrr            		MOV.L #_configVarJog, R1
0000071C 05rrrrrr             A  		BSR _memcmp
00000720 6101                    		CMP #00H, R1
00000722 10                   S  		BEQ L203
00000723                         L202:	; bb27
                                 ;     416 		res = MEM_FAIL;
                                 		.LINE  "C:\Workspace\e2studio\git\MT01_master\src\eeprom\eeprom.c",416
00000723 3C0301                  		MOV.B #01H, 03H[R0]
00000726                         L203:	; bb33
00000726 754310                  		MOV.L #00000010H, R3
                                 ;     417 	if(memcmp(&configFlags,&configFlagsInit,sizeof(configFlags)))
                                 		.LINE  "C:\Workspace\e2studio\git\MT01_master\src\eeprom\eeprom.c",417
00000729 FB22rrrrrrrr            		MOV.L #_configFlagsInit, R2
0000072F FB12rrrrrrrr            		MOV.L #_configFlags, R1
00000735 05rrrrrr             A  		BSR _memcmp
00000739 6101                    		CMP #00H, R1
0000073B 10                   S  		BEQ L205
0000073C                         L204:	; bb34
                                 ;     418 		res = MEM_FAIL;
                                 		.LINE  "C:\Workspace\e2studio\git\MT01_master\src\eeprom\eeprom.c",418
0000073C 3C0301                  		MOV.B #01H, 03H[R0]
0000073F                         L205:	; bb40
0000073F 66C3                    		MOV.L #0000000CH, R3
                                 ;     419 	if(memcmp(&zeroPiece,&zeroPieceInit,sizeof(zeroPiece)))
                                 		.LINE  "C:\Workspace\e2studio\git\MT01_master\src\eeprom\eeprom.c",419
00000741 FB22rrrrrrrr            		MOV.L #_zeroPieceInit, R2
00000747 FB12rrrrrrrr            		MOV.L #_zeroPiece, R1
0000074D 05rrrrrr             A  		BSR _memcmp
00000751 6101                    		CMP #00H, R1
00000753 10                   S  		BEQ L207
00000754                         L206:	; bb41
                                 ;     420 		res = MEM_FAIL;
                                 		.LINE  "C:\Workspace\e2studio\git\MT01_master\src\eeprom\eeprom.c",420
00000754 3C0301                  		MOV.B #01H, 03H[R0]
00000757                         L207:	; bb47
00000757 66C3                    		MOV.L #0000000CH, R3
                                 ;     421 	if(memcmp(configVarMaq,configVarMaqInit,sizeof(configVarMaq)))
                                 		.LINE  "C:\Workspace\e2studio\git\MT01_master\src\eeprom\eeprom.c",421
00000759 FB22rrrrrrrr            		MOV.L #_configVarMaqInit, R2
0000075F FB12rrrrrrrr            		MOV.L #_configVarMaq, R1
00000765 05rrrrrr             A  		BSR _memcmp
00000769 6101                    		CMP #00H, R1
0000076B 10                   S  		BEQ L209
0000076C                         L208:	; bb48
                                 ;     422 		res = MEM_FAIL;
                                 		.LINE  "C:\Workspace\e2studio\git\MT01_master\src\eeprom\eeprom.c",422
0000076C 3C0301                  		MOV.B #01H, 03H[R0]
0000076F                         L209:	; bb54
                                 ;     423 	if (g_maq.model == EASYMAK_MAQ)
                                 		.LINE  "C:\Workspace\e2studio\git\MT01_master\src\eeprom\eeprom.c",423
0000076F FBE2rrrrrrrr            		MOV.L #_g_maq, R14
00000775 ECEE                    		MOV.L [R14], R14
00000777 613E                    		CMP #03H, R14
00000779 21rr                    		BNE L212
0000077B                         L210:	; bb56
0000077B 754330                  		MOV.L #00000030H, R3
                                 ;     424 	{
                                 ;     425 		if(memcmp(configVarParMaq,configVarParMaqInit_EM,sizeof(configVarParMaq)))
                                 		.LINE  "C:\Workspace\e2studio\git\MT01_master\src\eeprom\eeprom.c",425
0000077E FB22rrrrrrrr            		MOV.L #_configVarParMaqInit_EM, R2
00000784 FB12rrrrrrrr            		MOV.L #_configVarParMaq, R1
0000078A 05rrrrrr             A  		BSR _memcmp
0000078E 6101                    		CMP #00H, R1
00000790 20rr                    		BEQ L218
00000792                         L211:	; bb57
                                 ;     426 			res = MEM_FAIL;
                                 		.LINE  "C:\Workspace\e2studio\git\MT01_master\src\eeprom\eeprom.c",426
00000792 3C0301                  		MOV.B #01H, 03H[R0]
00000795 2Err                 B  		BRA L218
00000797                         L212:	; bb64
                                 ;     427 	}
                                 ;     428 	else if (g_maq.model == COMPACTA_MAQ)
                                 		.LINE  "C:\Workspace\e2studio\git\MT01_master\src\eeprom\eeprom.c",428
00000797 FBE2rrrrrrrr            		MOV.L #_g_maq, R14
0000079D ECEE                    		MOV.L [R14], R14
0000079F 611E                    		CMP #01H, R14
000007A1 21rr                    		BNE L215
000007A3                         L213:	; bb66
000007A3 754330                  		MOV.L #00000030H, R3
                                 ;     429 	{
                                 ;     430 		if(memcmp(configVarParMaq,configVarParMaqInit_CP,sizeof(configVarParMaq)))
                                 		.LINE  "C:\Workspace\e2studio\git\MT01_master\src\eeprom\eeprom.c",430
000007A6 FB22rrrrrrrr            		MOV.L #_configVarParMaqInit_CP, R2
000007AC FB12rrrrrrrr            		MOV.L #_configVarParMaq, R1
000007B2 05rrrrrr             A  		BSR _memcmp
000007B6 6101                    		CMP #00H, R1
000007B8 20rr                    		BEQ L218
000007BA                         L214:	; bb67
                                 ;     431 			res = MEM_FAIL;
                                 		.LINE  "C:\Workspace\e2studio\git\MT01_master\src\eeprom\eeprom.c",431
000007BA 3C0301                  		MOV.B #01H, 03H[R0]
000007BD 2Err                 B  		BRA L218
000007BF                         L215:	; bb74
                                 ;     432 	}
                                 ;     433 	else if (g_maq.model == MOBILE_MAQ)
                                 		.LINE  "C:\Workspace\e2studio\git\MT01_master\src\eeprom\eeprom.c",433
000007BF FBE2rrrrrrrr            		MOV.L #_g_maq, R14
000007C5 ECEE                    		MOV.L [R14], R14
000007C7 612E                    		CMP #02H, R14
000007C9 21rr                    		BNE L218
000007CB                         L216:	; bb76
000007CB 754330                  		MOV.L #00000030H, R3
                                 ;     434 	{
                                 ;     435 		if(memcmp(configVarParMaq,configVarParMaqInit_MB,sizeof(configVarParMaq)))
                                 		.LINE  "C:\Workspace\e2studio\git\MT01_master\src\eeprom\eeprom.c",435
000007CE FB22rrrrrrrr            		MOV.L #_configVarParMaqInit_MB, R2
000007D4 FB12rrrrrrrr            		MOV.L #_configVarParMaq, R1
000007DA 05rrrrrr             A  		BSR _memcmp
000007DE 6101                    		CMP #00H, R1
000007E0 10                   S  		BEQ L218
000007E1                         L217:	; bb77
                                 ;     436 			res = MEM_FAIL;
                                 		.LINE  "C:\Workspace\e2studio\git\MT01_master\src\eeprom\eeprom.c",436
000007E1 3C0301                  		MOV.B #01H, 03H[R0]
000007E4                         L218:	; bb98
                                 ;     437 	}
                                 ;     438 
                                 ;     439 	return res;
                                 		.LINE  "C:\Workspace\e2studio\git\MT01_master\src\eeprom\eeprom.c",439
000007E4 B089                    		MOVU.B 03H[R0], R1
000007E6 A009                    		MOV.L R1, 04H[R0]
000007E8                         L219:	; bb98.split
                                 ;     440 }
                                 		.LINE  "C:\Workspace\e2studio\git\MT01_master\src\eeprom\eeprom.c",440
000007E8 6702                    		RTSD #08H
000007EA                         _FlashError:
                                 		.STACK	_FlashError=4
000007EA                         L221:	; bb1
                                 ;     441 
                                 ;     442 /***********************************************************************************************************************
                                 ;     443 * Function Name: FlashError
                                 ;     444 * Description  : This function is called either from the FlashAPI, or from a VEE interrupt to signal that an error has
                                 ;     445 *                occurred during a flash operation. Whatever the user decides to do in this case should be in this
                                 ;     446 *                function.
                                 ;     447 * Arguments    : none
                                 ;     448 * Return Value : none
                                 ;     449 ***********************************************************************************************************************/
                                 ;     450 void FlashError(void)
                                 ;     451 {
                                 ;     452     /* The user can check the g_vee_state variable to see what state the error occurred in. User could also have
                                 ;     453        recovery code here. */
                                 ;     454     while(1);
                                 		.LINE  "C:\Workspace\e2studio\git\MT01_master\src\eeprom\eeprom.c",454
000007EA 2Err                 B  		BRA L221
                                 ;     455 }
                                 		.SECTION	C,ROMDATA,ALIGN=4
00000000                         _configVarOxInit:
00000000 00007041                		.lword	41700000H	; float 15
00000004 0000A040                		.lword	40A00000H	; float 5
00000008 0000FA43                		.lword	43FA0000H	; float 500
0000000C 0000F041                		.lword	41F00000H	; float 30
00000010 0000803F                		.lword	3F800000H	; float 1
00000014                         _configVarPlInit:
00000014 9A999940                		.lword	4099999AH	; float 4.8
00000018 33333340                		.lword	40333333H	; float 2.8
0000001C 00401C45                		.lword	451C4000H	; float 2500
00000020 CDCCCC3D                		.lword	3DCCCCCDH	; float 0.1
00000024 0000F042                		.lword	42F00000H	; float 120
00000028                         _configVarJogInit:
00000028 0080BB45                		.lword	45BB8000H	; float 6000
0000002C 0000FA43                		.lword	43FA0000H	; float 500
00000030                         _configVarMaqInit:
00000030 0000C841                		.lword	41C80000H	; float 25
00000034 00000000                		.lword	00000000H
00000038 00000000                		.lword	00000000H
0000003C                         _configVarParMaqInit_CP:
0000003C E4CB9642                		.lword	4296CBE4H	; float 75.3982
00000040 E4CB9642                		.lword	4296CBE4H	; float 75.3982
00000044 E4CB9642                		.lword	4296CBE4H	; float 75.3982
00000048 00007A44                		.lword	447A0000H	; float 1000
0000004C 00007A44                		.lword	447A0000H	; float 1000
00000050 00401C46                		.lword	461C4000H	; float 10000
00000054 00401C46                		.lword	461C4000H	; float 10000
00000058 00006144                		.lword	44610000H	; float 900
0000005C CDCC4C3E                		.lword	3E4CCCCDH	; float 0.2
00000060 00401C48                		.lword	481C4000H	; float 160000
00000064 0AD7233C                		.lword	3C23D70AH	; float 0.01
00000068 00000000                		.lword	00000000H
0000006C                         _configVarParMaqInit_EM:
0000006C E4CB9642                		.lword	4296CBE4H	; float 75.3982
00000070 E4CB9642                		.lword	4296CBE4H	; float 75.3982
00000074 E4CB9642                		.lword	4296CBE4H	; float 75.3982
00000078 0000C843                		.lword	43C80000H	; float 400
0000007C 0000C843                		.lword	43C80000H	; float 400
00000080 00401C46                		.lword	461C4000H	; float 10000
00000084 00401C46                		.lword	461C4000H	; float 10000
00000088 00006144                		.lword	44610000H	; float 900
0000008C CDCC4C3E                		.lword	3E4CCCCDH	; float 0.2
00000090 00401C48                		.lword	481C4000H	; float 160000
00000094 0AD7233C                		.lword	3C23D70AH	; float 0.01
00000098 00000000                		.lword	00000000H
0000009C                         _configVarParMaqInit_MB:
0000009C E4CB9642                		.lword	4296CBE4H	; float 75.3982
000000A0 E4CB9642                		.lword	4296CBE4H	; float 75.3982
000000A4 E4CB9642                		.lword	4296CBE4H	; float 75.3982
000000A8 00007A43                		.lword	437A0000H	; float 250
000000AC 00007A43                		.lword	437A0000H	; float 250
000000B0 00409C45                		.lword	459C4000H	; float 5000
000000B4 00409C45                		.lword	459C4000H	; float 5000
000000B8 00002F44                		.lword	442F0000H	; float 700
000000BC CDCC4C3E                		.lword	3E4CCCCDH	; float 0.2
000000C0 00401C48                		.lword	481C4000H	; float 160000
000000C4 0AD7233C                		.lword	3C23D70AH	; float 0.01
000000C8 00000000                		.lword	00000000H
                                 		.SECTION	L,ROMDATA,ALIGN=4
00000000                         _L10:
00000000 4D4F4249                		.byte	"MOBILE"
         4C45                    
00000006 00                      		.byte	00H
00000007                         _L11:
00000007 434F4D50                		.byte	"COMPACTA"
         41435441                
0000000F 00                      		.byte	00H
00000010                         _L12:
00000010 45415359                		.byte	"EASYMAK"
         4D414B                  
00000017 00                      		.byte	00H
00000018                         _L13:
00000018 48454C49                		.byte	"HELI"
0000001C 00                      		.byte	00H
0000001D                         _L14:
0000001D 52455441                		.byte	"RETA"
00000021 00                      		.byte	00H
                                 		.SECTION	D,ROMDATA,ALIGN=4
00000000                         _configFlagsInit:
00000000 00000000                		.lword	00000000H
00000004 01000000                		.lword	00000001H
00000008 00000000                		.lword	00000000H
0000000C 01000000                		.lword	00000001H
00000010                         _zeroPieceInit:
00000010 00                      		.byte	0
00000011 00                      		.byte	0
00000012 00                      		.byte	0
00000013 00                      		.byte	0
00000014 00                      		.byte	0
00000015 00                      		.byte	0
00000016 00                      		.byte	0
00000017 00                      		.byte	0
00000018 00                      		.byte	0
00000019 00                      		.byte	0
0000001A 00                      		.byte	0
0000001B 00                      		.byte	0
                                 		.SECTION	B,DATA,ALIGN=4
00000000                         _sample_state:
00000000(00000004H)              		.blkl	1
00000004                         _configFlags:
00000004(00000010H)              		.blkl	4
00000014                         _configVarOx:
00000014(00000014H)              		.blkl	5
00000028                         _configVarPl:
00000028(00000014H)              		.blkl	5
0000003C                         _configVarMaq:
0000003C(0000000CH)              		.blkl	3
00000048                         _configVarParMaq:
00000048(00000030H)              		.blkl	12
00000078                         _configVarJog:
00000078(00000008H)              		.blkl	2
00000080                         _zeroPiece:
00000080(0000000CH)              		.blkl	3
0000008C                         _dataRecord:
0000008C(0000000CH)              		.blkl	3
00000098                         _g_maq:
00000098(00000008H)              		.blkl	2
                                 		.END

Information List

TOTAL ERROR(S)    00000
TOTAL WARNING(S)  00000
TOTAL LINE(S)     01687   LINES

Section List

Attr         Size               Name
CODE     0000002028(000007ECH)  P
ROMDATA  0000000204(000000CCH)  C
ROMDATA  0000000034(00000022H)  L
ROMDATA  0000000028(0000001CH)  D
DATA     0000000160(000000A0H)  B

Cpu Type

-ISA=RXV1 -FPU

Command Parameter

-subcommand=C:\Users\LAFONS~1\AppData\Local\Temp\$ccrx4DB7\$ccrx\eeprom.src.cmd
    -nologo
    -isa=rxv1
    -fpu
    -show=conditionals,definitions,expansions
    -define=__RXV1=1
    -fint_register=0
    -debug
    -endian=little
-listfile=C:\Workspace\e2studio\git\MT01_master\CompactaXP_build\eeprom.lst
-output=C:\Workspace\e2studio\git\MT01_master\CompactaXP_build\src\eeprom\eeprom.obj
