* RX FAMILY ASSEMBLER V2.03.00.01 [24 Oct 2014] *  SOURCE LIST  Thu Mar 09 14:19:02 2017

LOC.     OBJ.              0XMDA SOURCE STATEMENT

                                 ;RX Family C/C++ Compiler (V2.03.00.03 [04 Dec 2014])  09-Mar-2017 14:19:02
                                 
                                 ;*** CPU TYPE ***
                                 
                                 ;-ISA=RXV1
                                 
                                 ;*** COMMAND PARAMETER ***
                                 
                                 ;-output=src=r_usb_hhubsys.src
                                 ;-lang=c99
                                 ;-include=C:\PROGRA~2\Renesas\RX\2_3_0/include,C:\Workspace\e2studio\git\MT01_master\r_lvd_rx,C:\Workspace\e2studio\git\MT01_master\r_lvd_rx\src,C:/Workspace/e2studio/
                                 ;-debug
                                 ;-show=source,conditionals,definitions,expansions
                                 ;-listfile=r_usb_hhubsys.lst
                                 ;-isa=rxv1
                                 ;-optimize=0
                                 ;-fpu
                                 ;-alias=noansi
                                 ;-nologo
                                 ;-nomessage
                                 ;-define=__RX,COMPACTAXP=1,EASYMAK=0,MOBILE=0,FREE_RTOS_PP
                                 ;r_usb_hhubsys.c
                                 
                                 		.glb	_usb_gcstd_Pipe
                                 		.glb	_usb_ghstd_DeviceDrv
                                 		.glb	_usb_ghstd_DeviceInfo
                                 		.glb	_usb_ghstd_MgrMode
                                 		.glb	_usb_ghstd_DeviceAddr
                                 		.glb	_usb_ghstd_DeviceSpeed
                                 		.glb	_usb_ghstd_DeviceNum
                                 		.glb	_usb_ghstd_EnumSeq
                                 		.glb	_usb_ghstd_EnumarationProcess
                                 		.glb	_usb_ghstd_ClassData
                                 		.glb	_usb_shhub_ControlMess
                                 		.glb	_usb_shhub_DataMess
                                 		.glb	_usb_ghhub_Descriptor
                                 		.glb	_usb_ghhub_Data
                                 		.glb	_usb_shhub_DownPort
                                 		.glb	_usb_shhub_Remote
                                 		.glb	_usb_shhub_InfoData
                                 		.glb	_usb_shhub_Number
                                 		.glb	_usb_shhub_ClassRequest
                                 		.glb	_usb_shhub_ClassSeq
                                 		.glb	_usb_shhub_InitSeq
                                 		.glb	_usb_shhub_InitPort
                                 		.glb	_usb_shhub_EventSeq
                                 		.glb	_usb_shhub_EventPort
                                 		.glb	_usb_shhub_AttachSeq
                                 		.glb	_usb_shhub_ResetSeq
                                 		.glb	_usb_shhub_State
                                 		.glb	_usb_shhub_Info
                                 		.glb	_usb_shhub_HubAddr
                                 		.glb	_usb_shhub_Process
                                 		.glb	_usb_shhub_DeviceTable
                                 		.glb	_usb_shhub_ConfigTable
                                 		.glb	_usb_shhub_InterfaceTable
                                 		.glb	_usb_shhub_Spec
                                 		.glb	_usb_shhub_Root
                                 		.glb	_usb_shhub_Speed
                                 		.glb	_usb_shhub_DevAddr
                                 		.glb	_usb_shhub_Index
                                 		.glb	_usb_ghhub_TPL
                                 		.glb	_usb_ghhub_DefEPTbl
                                 		.glb	_usb_ghhub_TmpEPTbl
                                 		.glb	_R_usb_hhub_Task
                                 		.glb	_R_usb_hhub_Open
                                 		.glb	_usb_cpu_DelayXms
                                 		.glb	_usb_cstd_PgetBlk
                                 		.glb	_usb_cstd_SndMsg
                                 		.glb	_usb_cstd_RelBlk
                                 		.glb	_R_usb_hstd_SetPipeInfo
                                 		.glb	_R_usb_hstd_SetPipeRegistration
                                 		.glb	_R_usb_hhub_Close
                                 		.glb	_R_usb_hhub_Registration
                                 		.glb	_usb_cstd_DummyFunction
                                 		.glb	_R_usb_hstd_DriverRegistration
                                 		.glb	_R_usb_hhub_GetHubInformation
                                 		.glb	_usb_hstd_TransferStart
                                 		.glb	_R_usb_hhub_GetPortInformation
                                 		.glb	_R_usb_hstd_TransferStart
                                 		.glb	_R_usb_hhub_get_hub_addr
                                 		.glb	_R_usb_hhub_get_hub_port_no
                                 		.glb	_R_usb_hhub_chk_connect_status
                                 		.glb	_usb_hhub_Task
                                 		.glb	_usb_cstd_RecMsg
                                 		.glb	_R_usb_hstd_ReturnEnuMGR
                                 		.glb	_usb_hstd_GetRootport
                                 		.glb	_usb_hstd_SetHubPort
                                 		.glb	_usb_hreg_read_devadd
                                 		.glb	_usb_hstd_SetDevAddr
                                 		.glb	_usb_hhub_release
                                 		.glb	_usb_hhub_check_class
                                 		.glb	_usb_hhub_initial
                                 		.glb	_usb_hstd_CheckDescriptor
                                 		.glb	_R_usb_hstd_DriverRelease
                                 		.glb	_R_usb_hstd_EnuWait
                                 		.glb	_usb_hstd_ClearStall
                                 		.glb	_R_usb_hstd_ChkPipeInfo
                                 		.glb	_usb_hhub_ChkTblIndx3
                                 		.glb	_usb_hstd_EndpDescripInfo
                                 		.glb	_usb_hstd_GetStringDescriptor1
                                 		.glb	_usb_hstd_GetStringDescriptor2
                                 		.glb	_usb_hstd_GetStringDescriptor1Check
                                 		.glb	_usb_hstd_GetStringDescriptor2Check
                                 		.glb	_R_usb_hstd_TransferEnd
                                 		.glb	_usb_cstd_GetPid
                                 		.glb	_usb_cstd_ClrPipeCnfg
                                 		.glb	_usb_cstd_GetDeviceAddress
                                 		.glb	_usb_hstd_GetDevSpeed
                                 		.glb	_usb_hstd_GetStringDesc
                                 		.glb	_usb_cstd_WaiMsg
                                 ;LineNo. C-SOURCE STATEMENT
                                 
                                 		.SECTION	P,CODE
00000000                         _R_usb_hhub_Task:
                                 		.STACK	_R_usb_hhub_Task=8
                                 ;       1 /***********************************************************************************************************************
                                 ;       2 * DISCLAIMER
                                 ;       3 * This software is supplied by Renesas Electronics Corporation and is only intended for use with Renesas products. No
                                 ;       4 * other uses are authorized. This software is owned by Renesas Electronics Corporation and is protected under all
                                 ;       5 * applicable laws, including copyright laws.
                                 ;       6 * THIS SOFTWARE IS PROVIDED "AS IS" AND RENESAS MAKES NO WARRANTIES REGARDING
                                 ;       7 * THIS SOFTWARE, WHETHER EXPRESS, IMPLIED OR STATUTORY, INCLUDING BUT NOT LIMITED TO WARRANTIES OF MERCHANTABILITY,
                                 ;       8 * FITNESS FOR A PARTICULAR PURPOSE AND NON-INFRINGEMENT. ALL SUCH WARRANTIES ARE EXPRESSLY DISCLAIMED. TO THE MAXIMUM
                                 ;       9 * EXTENT PERMITTED NOT PROHIBITED BY LAW, NEITHER RENESAS ELECTRONICS CORPORATION NOR ANY OF ITS AFFILIATED COMPANIES
                                 ;      10 * SHALL BE LIABLE FOR ANY DIRECT, INDIRECT, SPECIAL, INCIDENTAL OR CONSEQUENTIAL DAMAGES FOR ANY REASON RELATED TO THIS
                                 ;      11 * SOFTWARE, EVEN IF RENESAS OR ITS AFFILIATES HAVE BEEN ADVISED OF THE POSSIBILITY OF SUCH DAMAGES.
                                 ;      12 * Renesas reserves the right, without notice, to make changes to this software and to discontinue the availability of
                                 ;      13 * this software. By using this software, you agree to the additional terms and conditions found by accessing the
                                 ;      14 * following link:
                                 ;      15 * http://www.renesas.com/disclaimer
                                 ;      16 *
                                 ;      17 * Copyright (C) 2014(2015) Renesas Electronics Corporation. All rights reserved.
                                 ;      18 ***********************************************************************************************************************/
                                 ;      19 /***********************************************************************************************************************
                                 ;      20 * File Name    : r_usb_hHubsys.c
                                 ;      21 * Description  : USB Host Hub system code
                                 ;      22 ***********************************************************************************************************************/
                                 ;      23 /**********************************************************************************************************************
                                 ;      24 * History : DD.MM.YYYY Version Description
                                 ;      25 *         : 04.01.2014 1.00 First Release
                                 ;      26 *         : 30.01.2015 1.01    Support Multi device.
                                 ;      27 ***********************************************************************************************************************/
                                 ;      28 
                                 ;      29 
                                 ;      30 /******************************************************************************
                                 ;      31 Includes   <System Includes> , "Project Includes"
                                 ;      32 ******************************************************************************/
                                 ;      33 #include "r_usb_basic_if.h"
                                 ;      34 #include "r_usb_api.h"
                                 ;      35 
                                 ;      36 
                                 ;      37 /* Condition compilation by the difference of USB function */
                                 ;      38 #if USB_FUNCSEL_USBIP0_PP == USB_HOST_PP || USB_FUNCSEL_USBIP1_PP == USB_HOST_PP
                                 ;      39 /******************************************************************************
                                 ;      40 Constant macro definitions
                                 ;      41 ******************************************************************************/
                                 ;      42 /* Condition compilation by the difference of the devices */
                                 ;      43 #if USB_PORTSEL_PP == USB_1PORT_PP
                                 ;      44 #define USB_MAXHUB              (uint16_t)1
                                 ;      45 #endif  /* USB_1PORT_PP */
                                 ;      46 /* Condition compilation by the difference of the devices */
                                 ;      47 #if USB_PORTSEL_PP == USB_2PORT_PP
                                 ;      48 #define USB_MAXHUB              (uint16_t)2
                                 ;      49 #endif  /* USB_2PORT_PP */
                                 ;      50 
                                 ;      51 #define USB_HUB_CLSDATASIZE     (uint16_t)512
                                 ;      52 #define USB_HUB_QOVR            (uint16_t)0xFFFE
                                 ;      53 
                                 ;      54 #define USB_BIT_PORT_CONNECTION     (0x00000001u)
                                 ;      55 #define USB_BIT_PORT_ENABLE         (0x00000002u)
                                 ;      56 #define USB_BIT_PORT_SUSPEND        (0x00000004u)
                                 ;      57 #define USB_BIT_PORT_OVER_CURRENT   (0x00000008u)
                                 ;      58 #define USB_BIT_PORT_RESET          (0x00000010u)
                                 ;      59 #define USB_BIT_PORT_POWER          (0x00000100u)
                                 ;      60 #define USB_BIT_PORT_LOW_SPEED      (0x00000200u)
                                 ;      61 #define USB_BIT_C_PORT_CONNECTION   (0x00010000u)
                                 ;      62 #define USB_BIT_C_PORT_ENABLE       (0x00020000u)
                                 ;      63 #define USB_BIT_C_PORT_SUSPEND      (0x00040000u)
                                 ;      64 #define USB_BIT_C_PORT_OVER_CURRENT (0x00080000u)
                                 ;      65 #define USB_BIT_C_PORT_RESET        (0x00100000u)
                                 ;      66 
                                 ;      67 /******************************************************************************
                                 ;      68 Typedef definitions
                                 ;      69 ******************************************************************************/
                                 ;      70 typedef struct USB_HUB_INFO
                                 ;      71 {
                                 ;      72     uint16_t        up_addr;        /* Up-address  */
                                 ;      73     uint16_t        up_port_num;    /* Up-port num */
                                 ;      74     uint16_t        port_num;       /* Port number */
                                 ;      75     uint16_t        pipe_num;       /* Pipe number */
                                 ;      76 } USB_HUB_INFO_t;
                                 ;      77 
                                 ;      78 
                                 ;      79 /******************************************************************************
                                 ;      80 External variables and functions
                                 ;      81 ******************************************************************************/
                                 ;      82 extern void (*usb_ghstd_EnumarationProcess[])(USB_UTR_t *, uint16_t,uint16_t);
                                 ;      83 extern uint16_t    usb_hreg_read_devadd( USB_UTR_t *ptr, uint16_t devadr );
                                 ;      84 
                                 ;      85 
                                 ;      86 /* Enumeration request */
                                 ;      87 //extern uint16_t   usb_ghstd_EnumSeq[2u];
                                 ;      88 extern uint8_t  usb_ghstd_ClassData[][512];
                                 ;      89 
                                 ;      90 /******************************************************************************
                                 ;      91 Static variables and functions
                                 ;      92 ******************************************************************************/
                                 ;      93 static  uint16_t    usb_hhub_ChkConfig(uint16_t **table, uint16_t spec);
                                 ;      94 static  uint16_t    usb_hhub_ChkInterface(uint16_t **table, uint16_t spec);
                                 ;      95 static  uint16_t    usb_hhub_pipe_info(USB_UTR_t *ptr, uint8_t *table, uint16_t offset
                                 ;      96                         , uint16_t speed, uint16_t length);
                                 ;      97 static  void        usb_hhub_port_detach(USB_UTR_t *ptr, uint16_t hubaddr, uint16_t portnum);
                                 ;      98 static  void        usb_hhub_selective_detach(USB_UTR_t *ptr, uint16_t devaddr);
                                 ;      99 static  void        usb_hhub_trans_start(USB_UTR_t *ptr, uint16_t hubaddr, uint32_t size
                                 ;     100                         , uint8_t *table, USB_CB_t complete);
                                 ;     101 static  void        usb_hhub_trans_complete(USB_UTR_t *mess, uint16_t, uint16_t);
                                 ;     102 static  uint16_t    usb_hhub_GetNewDevaddr(USB_UTR_t *ptr);
                                 ;     103 static  uint16_t    usb_hhub_GetHubaddr(USB_UTR_t *ptr, uint16_t pipenum);
                                 ;     104 static  uint16_t    usb_hhub_GetCnnDevaddr(USB_UTR_t *ptr, uint16_t hubaddr, uint16_t portnum);
                                 ;     105 static  uint16_t    usb_hhub_ChkTblIndx1(USB_UTR_t *ptr, uint16_t hubaddr);
                                 ;     106 static  uint16_t    usb_hhub_ChkTblIndx2(USB_UTR_t *ptr, uint16_t hubaddr);
                                 ;     107 static  uint16_t    usb_hhub_PortSetFeature(USB_UTR_t *ptr, uint16_t hubaddr, uint16_t port
                                 ;     108                         , uint16_t command, USB_CB_t complete);
                                 ;     109 static  uint16_t    usb_hhub_PortClrFeature(USB_UTR_t *ptr, uint16_t hubaddr, uint16_t port
                                 ;     110                         , uint16_t command, USB_CB_t complete);
                                 ;     111 static  void        usb_hhub_InitDownPort(USB_UTR_t *ptr, uint16_t hubaddr, USB_CLSINFO_t *mess);
                                 ;     112 static  void        usb_hhub_new_connect(USB_UTR_t *ptr, uint16_t hubaddr, uint16_t portnum, USB_CLSINFO_t *mess);
                                 ;     113 static  uint16_t    usb_hhub_PortAttach(uint16_t hubaddr, uint16_t portnum, USB_CLSINFO_t *mess);
                                 ;     114 static  void        usb_hhub_port_reset(USB_UTR_t *ptr, uint16_t hubaddr, uint16_t portnum, USB_CLSINFO_t *mess);
                                 ;     115 static  void        usb_hhub_enumeration(USB_CLSINFO_t *mess);
                                 ;     116 static  void        usb_hhub_event(USB_CLSINFO_t *mess);
                                 ;     117 static  void        usb_hhub_SpecifiedPath(USB_CLSINFO_t *mess);
                                 ;     118 static  void        usb_hhub_SpecifiedPathWait(USB_CLSINFO_t *mess, uint16_t times);
                                 ;     119 static  void        usb_hhub_class_request_complete(USB_UTR_t *mess, uint16_t, uint16_t);
                                 ;     120 static  void        usb_hhub_CheckRequest(USB_UTR_t *ptr, uint16_t result);
                                 ;     121         void        usb_hhub_initial(USB_UTR_t *ptr, uint16_t data1, uint16_t data2);
                                 ;     122 static  uint16_t    usb_hhub_request_result(uint16_t checkerr);
                                 ;     123 static  void        usb_hstd_DeviceDescripInfo(USB_UTR_t *ptr);
                                 ;     124 static  void        usb_hstd_ConfigDescripInfo(USB_UTR_t *ptr);
                                 ;     125         void        usb_hstd_EndpDescripInfo(uint8_t *tbl);
                                 ;     126         void        usb_hhub_check_class(USB_UTR_t *ptr, uint16_t **table);
                                 ;     127         void        usb_hhub_Task(USB_VP_INT stacd);
                                 ;     128 
                                 ;     129 /******************************************************************************
                                 ;     130 Private global variables and functions
                                 ;     131 ******************************************************************************/
                                 ;     132 /* Control transfer message */
                                 ;     133 USB_UTR_t       usb_shhub_ControlMess[USB_NUM_USBIP];
                                 ;     134 /* Data transfer message */
                                 ;     135 USB_UTR_t       usb_shhub_DataMess[USB_NUM_USBIP][USB_MAXDEVADDR + 1u];
                                 ;     136 /* HUB descriptor */
                                 ;     137 uint8_t         usb_ghhub_Descriptor[USB_NUM_USBIP][USB_CONFIGSIZE];
                                 ;     138 /* HUB status data */
                                 ;     139 uint8_t         usb_ghhub_Data[USB_NUM_USBIP][USB_MAXDEVADDR + 1u][8];
                                 ;     140 /* HUB downport status */
                                 ;     141 uint16_t        usb_shhub_DownPort[USB_NUM_USBIP][USB_MAXDEVADDR + 1u];
                                 ;     142 /* Downport remotewakeup */
                                 ;     143 uint16_t        usb_shhub_Remote[USB_NUM_USBIP][USB_MAXDEVADDR + 1u];
                                 ;     144 /* Up-hubaddr, up-hubport, portnum, pipenum */
                                 ;     145 USB_HUB_INFO_t  usb_shhub_InfoData[USB_NUM_USBIP][USB_MAXDEVADDR + 1u];
                                 ;     146 uint16_t        usb_shhub_Number[USB_NUM_USBIP];
                                 ;     147 uint16_t        usb_shhub_ClassRequest[USB_NUM_USBIP][5];
                                 ;     148 
                                 ;     149 uint16_t        usb_hstd_GetStringDescriptor1(USB_UTR_t *ptr, uint16_t devaddr, uint16_t index, USB_CB_t complete);
                                 ;     150 uint16_t        usb_hstd_GetStringDescriptor1Check(uint16_t errcheck);
                                 ;     151 uint16_t        usb_hstd_GetStringDescriptor2(USB_UTR_t *ptr, uint16_t devaddr, uint16_t index, USB_CB_t complete);
                                 ;     152 uint16_t        usb_hstd_GetStringDescriptor2Check(uint16_t errcheck);
                                 ;     153 
                                 ;     154 /* Condition compilation by the difference of USB function */
                                 ;     155 #if USB_NUM_USBIP == 2
                                 ;     156 uint16_t        usb_shhub_ClassSeq[USB_NUM_USBIP]       = { USB_SEQ_0, USB_SEQ_0 };
                                 ;     157 uint16_t        usb_shhub_InitSeq[USB_NUM_USBIP]        = { USB_SEQ_0, USB_SEQ_0 };
                                 ;     158 uint16_t        usb_shhub_InitPort[USB_NUM_USBIP]       = { USB_HUB_P1, USB_HUB_P1 };
                                 ;     159 uint16_t        usb_shhub_EventSeq[USB_NUM_USBIP]       = { USB_SEQ_0, USB_SEQ_0 };
                                 ;     160 uint16_t        usb_shhub_EventPort[USB_NUM_USBIP]      = { USB_HUB_P1, USB_HUB_P1 };
                                 ;     161 uint16_t        usb_shhub_AttachSeq[USB_NUM_USBIP]      = { USB_SEQ_0, USB_SEQ_0 };
                                 ;     162 uint16_t        usb_shhub_ResetSeq[USB_NUM_USBIP]       = { USB_SEQ_0, USB_SEQ_0 };
                                 ;     163 uint16_t        usb_shhub_State[USB_NUM_USBIP]          = { USB_SEQ_0, USB_SEQ_0 };
                                 ;     164 uint16_t        usb_shhub_Info[USB_NUM_USBIP]           = { USB_SEQ_0, USB_SEQ_0 };
                                 ;     165 uint16_t        usb_shhub_HubAddr[USB_NUM_USBIP]        = { USB_SEQ_0, USB_SEQ_0 };
                                 ;     166 uint16_t        usb_shhub_Process[USB_NUM_USBIP]        = { USB_SEQ_0, USB_SEQ_0 };
                                 ;     167 #else   /* USB_NUM_USBIP == 2 */
                                 ;     168 uint16_t        usb_shhub_ClassSeq[USB_NUM_USBIP]       = { USB_SEQ_0 };
                                 ;     169 uint16_t        usb_shhub_InitSeq[USB_NUM_USBIP]        = { USB_SEQ_0 };
                                 ;     170 uint16_t        usb_shhub_InitPort[USB_NUM_USBIP]       = { USB_HUB_P1 };
                                 ;     171 uint16_t        usb_shhub_EventSeq[USB_NUM_USBIP]       = { USB_SEQ_0 };
                                 ;     172 uint16_t        usb_shhub_EventPort[USB_NUM_USBIP]      = { USB_HUB_P1 };
                                 ;     173 uint16_t        usb_shhub_AttachSeq[USB_NUM_USBIP]      = { USB_SEQ_0 };
                                 ;     174 uint16_t        usb_shhub_ResetSeq[USB_NUM_USBIP]       = { USB_SEQ_0 };
                                 ;     175 uint16_t        usb_shhub_State[USB_NUM_USBIP]          = { USB_SEQ_0 };
                                 ;     176 uint16_t        usb_shhub_Info[USB_NUM_USBIP]           = { USB_SEQ_0 };
                                 ;     177 uint16_t        usb_shhub_HubAddr[USB_NUM_USBIP]        = { USB_SEQ_0 };
                                 ;     178 uint16_t        usb_shhub_Process[USB_NUM_USBIP]        = { USB_SEQ_0 };
                                 ;     179 #endif  /* USB_NUM_USBIP == 2 */
                                 ;     180 
                                 ;     181 uint8_t         *usb_shhub_DeviceTable[USB_NUM_USBIP];
                                 ;     182 uint8_t         *usb_shhub_ConfigTable[USB_NUM_USBIP];
                                 ;     183 uint8_t         *usb_shhub_InterfaceTable[USB_NUM_USBIP];
                                 ;     184 uint16_t        usb_shhub_Spec[USB_NUM_USBIP];
                                 ;     185 uint16_t        usb_shhub_Root[USB_NUM_USBIP];
                                 ;     186 uint16_t        usb_shhub_Speed[USB_NUM_USBIP];
                                 ;     187 uint16_t        usb_shhub_DevAddr[USB_NUM_USBIP];
                                 ;     188 uint16_t        usb_shhub_Index[USB_NUM_USBIP];
                                 ;     189 
                                 ;     190 const uint16_t usb_ghhub_TPL[4] =
                                 ;     191 {
                                 ;     192     1,                      /* Number of list */
                                 ;     193     0,                      /* Reserved */
                                 ;     194     USB_NOVENDOR,           /* Vendor ID  : no-check */
                                 ;     195     USB_NOPRODUCT,          /* Product ID : no-check */
                                 ;     196 };
                                 ;     197 
                                 ;     198 /* Host hub Pipe Information Table (endpoint table) definition */
                                 ;     199 uint16_t usb_ghhub_DefEPTbl[USB_NUM_USBIP][USB_EPL +1] =
                                 ;     200 {
                                 ;     201   {
                                 ;     202     /* PIPE9 Definition */
                                 ;     203     USB_PIPE9,
                                 ;     204     USB_NONE | USB_BFREOFF | USB_DBLBOFF | USB_CNTMDOFF | USB_SHTNAKOFF
                                 ;     205   | USB_NONE | USB_NONE,
                                 ;     206     (uint16_t)USB_BUF_SIZE(64u) | USB_BUF_NUMB(7u),
                                 ;     207     USB_NONE,
                                 ;     208     USB_NONE,
                                 ;     209     USB_CUSE,
                                 ;     210 /* Pipe end */
                                 ;     211     USB_PDTBLEND,
                                 ;     212   },
                                 ;     213 #if USB_NUM_USBIP == 2
                                 ;     214   {
                                 ;     215     /* PIPE9 Definition */
                                 ;     216     USB_PIPE9,
                                 ;     217     USB_NONE | USB_BFREOFF | USB_DBLBOFF | USB_CNTMDOFF | USB_SHTNAKOFF
                                 ;     218   | USB_NONE | USB_NONE,
                                 ;     219     (uint16_t)USB_BUF_SIZE(64u) | USB_BUF_NUMB(7u),
                                 ;     220     USB_NONE,
                                 ;     221     USB_NONE,
                                 ;     222     USB_CUSE,
                                 ;     223 /* Pipe end */
                                 ;     224     USB_PDTBLEND,
                                 ;     225   }
                                 ;     226 #endif  /* USB_NUM_USBIP == 2 */
                                 ;     227 };
                                 ;     228 
                                 ;     229 /* Host hub temporary Pipe Information Table ("endpoint table") definition */
                                 ;     230 uint16_t usb_ghhub_TmpEPTbl[USB_NUM_USBIP][USB_EPL +1] =
                                 ;     231 {
                                 ;     232   {
                                 ;     233     /* PIPE9 Definition */
                                 ;     234     USB_PIPE9,
                                 ;     235     USB_NONE | USB_BFREOFF | USB_DBLBOFF | USB_CNTMDOFF | USB_SHTNAKOFF
                                 ;     236   | USB_NONE | USB_NONE,
                                 ;     237     (uint16_t)USB_BUF_SIZE(64u) | USB_BUF_NUMB(7u),
                                 ;     238     USB_NONE,
                                 ;     239     USB_NONE,
                                 ;     240     USB_CUSE,
                                 ;     241 /* Pipe end */
                                 ;     242     USB_PDTBLEND,
                                 ;     243   },
                                 ;     244 #if USB_NUM_USBIP == 2
                                 ;     245   {
                                 ;     246     /* PIPE9 Definition */
                                 ;     247     USB_PIPE9,
                                 ;     248     USB_NONE | USB_BFREOFF | USB_DBLBOFF | USB_CNTMDOFF | USB_SHTNAKOFF
                                 ;     249   | USB_NONE | USB_NONE,
                                 ;     250     (uint16_t)USB_BUF_SIZE(64u) | USB_BUF_NUMB(7u),
                                 ;     251     USB_NONE,
                                 ;     252     USB_NONE,
                                 ;     253     USB_CUSE,
                                 ;     254 /* Pipe end */
                                 ;     255     USB_PDTBLEND,
                                 ;     256   }
                                 ;     257 #endif  /* USB_NUM_USBIP == 2 */
                                 ;     258 };
                                 ;     259 
                                 ;     260 
                                 ;     261 /******************************************************************************
                                 ;     262 Renesas Abstracted Hub Driver API functions
                                 ;     263 ******************************************************************************/
                                 ;     264 
                                 ;     265 /******************************************************************************
                                 ;     266 Function Name   : R_usb_hhub_Task
                                 ;     267 Description     : Call HUB task
                                 ;     268 Arguments       : USB_VP_INT stacd          : Start Code of Hub Task
                                 ;     269 Return value    : none
                                 ;     270 ******************************************************************************/
                                 ;     271 void R_usb_hhub_Task(USB_VP_INT stacd)
                                 		.LINE  "C:\Workspace\e2studio\git\MT01_master\r_usb_basic\src\driver\host\r_usb_hhubsys.c",271
00000000 6040                    		SUB #04H, R0
00000002 E301                    		MOV.L R1, [R0]
                                 ;     272 {
                                 ;     273     usb_hhub_Task( stacd );
                                 		.LINE  "C:\Workspace\e2studio\git\MT01_master\r_usb_basic\src\driver\host\r_usb_hhubsys.c",273
00000004 39rrrr               W  		BSR _usb_hhub_Task
00000007 6701                    		RTSD #04H
00000009                         _R_usb_hhub_Open:
                                 		.STACK	_R_usb_hhub_Open=32
                                 ;     274 }   /* eof R_usb_hhub_Task() */
                                 ;     275 
                                 ;     276 /******************************************************************************
                                 ;     277 Function Name   : R_usb_hhub_Open
                                 ;     278 Description     : HUB sys open
                                 ;     279 Arguments       : uint16_t devaddr          : device address
                                 ;     280                 : uint16_t data2            : Not use
                                 ;     281 Return value    : USB_ER_t                  : Error Info
                                 ;     282 ******************************************************************************/
                                 ;     283 void R_usb_hhub_Open(USB_UTR_t *ptr, uint16_t devaddr, uint16_t data2)
                                 		.LINE  "C:\Workspace\e2studio\git\MT01_master\r_usb_basic\src\driver\host\r_usb_hhubsys.c",283
00000009 7100E4                  		ADD #0FFFFFFE4H, R0
0000000C A181                    		MOV.L R1, 18H[R0]
0000000E 928A                    		MOV.W R2, 16H[R0]
00000010 9283                    		MOV.W R3, 14H[R0]
                                 ;     284 {
                                 ;     285     USB_ER_t        err, err2;
                                 ;     286     USB_MH_t        p_blf;
                                 ;     287     USB_MGRINFO_t   *mp;
                                 ;     288     uint16_t        hubaddr, index;
                                 ;     289 
                                 ;     290     err = USB_ERROR;
                                 		.LINE  "C:\Workspace\e2studio\git\MT01_master\r_usb_basic\src\driver\host\r_usb_hhubsys.c",290
00000012 F80EFFFF00              		MOV.L #0000FFFFH, [R0]
00000017                         L12:	; entry.split
                                 ;     291     hubaddr = (uint16_t)(devaddr << USB_DEVADDRBIT);
                                 		.LINE  "C:\Workspace\e2studio\git\MT01_master\r_usb_basic\src\driver\host\r_usb_hhubsys.c",291
00000017 9A89                    		MOV.W 16H[R0], R1
00000019 6CC1                    		SHLL #0CH, R1
0000001B 9201                    		MOV.W R1, 10H[R0]
0000001D                         L13:	; entry.split1
                                 ;     292     index = usb_hhub_ChkTblIndx1(ptr, devaddr);
                                 		.LINE  "C:\Workspace\e2studio\git\MT01_master\r_usb_basic\src\driver\host\r_usb_hhubsys.c",292
0000001D BA8A                    		MOVU.W 16H[R0], R2
0000001F A981                    		MOV.L 18H[R0], R1
00000021 39rrrr               W  		BSR __$usb_hhub_ChkTblIndx1
00000024 9209                    		MOV.W R1, 12H[R0]
00000026                         L14:	; entry.split2
                                 ;     293 
                                 ;     294     if( USB_MAXHUB != usb_shhub_Number[ptr->ip] )
                                 		.LINE  "C:\Workspace\e2studio\git\MT01_master\r_usb_basic\src\driver\host\r_usb_hhubsys.c",294
00000026 A981                    		MOV.L 18H[R0], R1
00000028 B991                    		MOVU.W 0CH[R1], R1
0000002A FBE2rrrrrrrr            		MOV.L #_usb_shhub_Number, R14
00000030 FED1EE                  		MOVU.W [R1,R14], R14
00000033 611E                    		CMP #01H, R14
00000035 3Arrrr               W  		BEQ L36
00000038                         L15:	; bb16
00000038 66A1                    		MOV.L #0000000AH, R1
                                 ;     295     {
                                 ;     296         /* Wait 10ms */
                                 ;     297         usb_cpu_DelayXms((uint16_t)10);
                                 		.LINE  "C:\Workspace\e2studio\git\MT01_master\r_usb_basic\src\driver\host\r_usb_hhubsys.c",297
0000003A 05rrrrrr             A  		BSR _usb_cpu_DelayXms
0000003E                         L16:	; bb16.split
0000003E 710208                  		ADD #08H, R0, R2
00000041 6631                    		MOV.L #00000003H, R1
                                 ;     298         err = USB_PGET_BLK(USB_HUB_MPL, &p_blf);
                                 		.LINE  "C:\Workspace\e2studio\git\MT01_master\r_usb_basic\src\driver\host\r_usb_hhubsys.c",298
00000043 05rrrrrr             A  		BSR _usb_cstd_PgetBlk
00000047 E301                    		MOV.L R1, [R0]
00000049                         L17:	; bb16.split3
                                 ;     299         if( USB_E_OK == err )
                                 		.LINE  "C:\Workspace\e2studio\git\MT01_master\r_usb_basic\src\driver\host\r_usb_hhubsys.c",299
00000049 EC01                    		MOV.L [R0], R1
0000004B 6101                    		CMP #00H, R1
0000004D 21rr                    		BNE L27
0000004F                         L18:	; bb20
                                 ;     300         {
                                 ;     301             mp = (USB_MGRINFO_t*)p_blf;
                                 		.LINE  "C:\Workspace\e2studio\git\MT01_master\r_usb_basic\src\driver\host\r_usb_hhubsys.c",301
0000004F E5000203                		MOV.L 08H[R0], 0CH[R0]
00000053                         L19:	; bb20.split
                                 ;     302             mp->msghead = (USB_MH_t)USB_NULL;
                                 		.LINE  "C:\Workspace\e2studio\git\MT01_master\r_usb_basic\src\driver\host\r_usb_hhubsys.c",302
00000053 A889                    		MOV.L 0CH[R0], R1
00000055 F81600                  		MOV.L #00000000H, [R1]
00000058                         L20:	; bb20.split4
                                 ;     303             mp->msginfo = USB_MSG_CLS_INIT;
                                 		.LINE  "C:\Workspace\e2studio\git\MT01_master\r_usb_basic\src\driver\host\r_usb_hhubsys.c",303
00000058 A889                    		MOV.L 0CH[R0], R1
0000005A F919020202              		MOV.W #0202H, 04H[R1]
0000005F                         L21:	; bb20.split5
                                 ;     304             mp->keyword = devaddr;
                                 		.LINE  "C:\Workspace\e2studio\git\MT01_master\r_usb_basic\src\driver\host\r_usb_hhubsys.c",304
0000005F 9A89                    		MOV.W 16H[R0], R1
00000061 A88A                    		MOV.L 0CH[R0], R2
00000063 90A9                    		MOV.W R1, 06H[R2]
00000065                         L22:	; bb20.split6
                                 ;     305 
                                 ;     306             mp->ipp     = ptr->ipp;
                                 		.LINE  "C:\Workspace\e2studio\git\MT01_master\r_usb_basic\src\driver\host\r_usb_hhubsys.c",306
00000065 A981                    		MOV.L 18H[R0], R1
00000067 A88A                    		MOV.L 0CH[R0], R2
00000069 E5120202                		MOV.L 08H[R1], 08H[R2]
0000006D                         L23:	; bb20.split7
                                 ;     307             mp->ip      = ptr->ip;
                                 		.LINE  "C:\Workspace\e2studio\git\MT01_master\r_usb_basic\src\driver\host\r_usb_hhubsys.c",307
0000006D A981                    		MOV.L 18H[R0], R1
0000006F A88A                    		MOV.L 0CH[R0], R2
00000071 D5120606                		MOV.W 0CH[R1], 0CH[R2]
00000075                         L24:	; bb20.split8
                                 ;     308 
                                 ;     309             /* Send message */
                                 ;     310             err = USB_SND_MSG(USB_HUB_MBX, (USB_MSG_t*)p_blf);
                                 		.LINE  "C:\Workspace\e2studio\git\MT01_master\r_usb_basic\src\driver\host\r_usb_hhubsys.c",310
00000075 A882                    		MOV.L 08H[R0], R2
00000077 6631                    		MOV.L #00000003H, R1
00000079 05rrrrrr             A  		BSR _usb_cstd_SndMsg
0000007D E301                    		MOV.L R1, [R0]
0000007F                         L25:	; bb20.split9
                                 ;     311             if( USB_E_OK != err )
                                 		.LINE  "C:\Workspace\e2studio\git\MT01_master\r_usb_basic\src\driver\host\r_usb_hhubsys.c",311
0000007F EC01                    		MOV.L [R0], R1
00000081 6101                    		CMP #00H, R1
00000083 20rr                    		BEQ L28
00000085                         L26:	; bb46
                                 ;     312             {
                                 ;     313                 /* Send Message failure */
                                 ;     314                 USB_PRINTF1("### hHubOpen snd_msg error (%ld)\n", err);
                                 ;     315                 err2 = USB_REL_BLK(USB_HUB_MPL,(USB_MH_t)p_blf);
                                 		.LINE  "C:\Workspace\e2studio\git\MT01_master\r_usb_basic\src\driver\host\r_usb_hhubsys.c",315
00000085 A882                    		MOV.L 08H[R0], R2
00000087 6631                    		MOV.L #00000003H, R1
00000089 05rrrrrr             A  		BSR _usb_cstd_RelBlk
0000008D A009                    		MOV.L R1, 04H[R0]
0000008F 08                   S  		BRA L28
00000090                         L27:	; bb63
                                 ;     316                 if( err2 != USB_E_OK )
                                 ;     317                 {
                                 ;     318                     USB_PRINTF1("### hHubOpen rel_blk error (%ld)\n", err2);
                                 ;     319                 }
                                 ;     320             }
                                 ;     321         }
                                 ;     322         else
                                 ;     323         {
                                 ;     324             /* Release memory block failure */
                                 ;     325             USB_PRINTF1("### hHubOpen pget_blk error (%ld)\n", err);
                                 ;     326             while( 1 );
                                 		.LINE  "C:\Workspace\e2studio\git\MT01_master\r_usb_basic\src\driver\host\r_usb_hhubsys.c",326
00000090 2Err                 B  		BRA L27
00000092                         L28:	; bb69
                                 ;     327         }
                                 ;     328         /* Pipe number set */
                                 ;     329         usb_shhub_InfoData[ptr->ip][devaddr].pipe_num = usb_ghhub_TmpEPTbl[ptr->ip][index];
                                 		.LINE  "C:\Workspace\e2studio\git\MT01_master\r_usb_basic\src\driver\host\r_usb_hhubsys.c",329
00000092 A981                    		MOV.L 18H[R0], R1
00000094 B991                    		MOVU.W 0CH[R1], R1
00000096 EF1E                    		MOV.L R1, R14
00000098 751E58                  		MUL #58H, R14
0000009B FB22rrrrrrrr            		MOV.L #_usb_shhub_InfoData, R2
000000A1 4BE2                    		ADD R14, R2
000000A3 BA8B                    		MOVU.W 16H[R0], R3
000000A5 6C33                    		SHLL #03H, R3
000000A7 4B32                    		ADD R3, R2
000000A9 63E1                    		MUL #0EH, R1
000000AB FBE2rrrrrrrr            		MOV.L #_usb_ghhub_TmpEPTbl, R14
000000B1 4B1E                    		ADD R1, R14
000000B3 BA09                    		MOVU.W 12H[R0], R1
000000B5 FE51E1                  		MOV.W [R1,R14], R1
000000B8 90A9                    		MOV.W R1, 06H[R2]
000000BA                         L29:	; bb69.split
                                 ;     330         /* HUB downport status */
                                 ;     331         usb_shhub_DownPort[ptr->ip][devaddr]    = 0;
                                 		.LINE  "C:\Workspace\e2studio\git\MT01_master\r_usb_basic\src\driver\host\r_usb_hhubsys.c",331
000000BA A981                    		MOV.L 18H[R0], R1
000000BC B991                    		MOVU.W 0CH[R1], R1
000000BE 751116                  		MUL #16H, R1
000000C1 FBE2rrrrrrrr            		MOV.L #_usb_shhub_DownPort, R14
000000C7 4B1E                    		ADD R1, R14
000000C9 660F                    		MOV.L #00000000H, R15
000000CB BA89                    		MOVU.W 16H[R0], R1
000000CD FE11EF                  		MOV.W R15, [R1,R14]
000000D0                         L30:	; bb69.split10
                                 ;     332         /* Downport remotewakeup */
                                 ;     333         usb_shhub_Remote[ptr->ip][devaddr]  = 0;
                                 		.LINE  "C:\Workspace\e2studio\git\MT01_master\r_usb_basic\src\driver\host\r_usb_hhubsys.c",333
000000D0 A981                    		MOV.L 18H[R0], R1
000000D2 B991                    		MOVU.W 0CH[R1], R1
000000D4 751116                  		MUL #16H, R1
000000D7 FBE2rrrrrrrr            		MOV.L #_usb_shhub_Remote, R14
000000DD 4B1E                    		ADD R1, R14
000000DF 660F                    		MOV.L #00000000H, R15
000000E1 BA89                    		MOVU.W 16H[R0], R1
000000E3 FE11EF                  		MOV.W R15, [R1,R14]
000000E6                         L31:	; bb69.split11
                                 ;     334         usb_ghhub_TmpEPTbl[ptr->ip][index+3]    |= hubaddr;
                                 		.LINE  "C:\Workspace\e2studio\git\MT01_master\r_usb_basic\src\driver\host\r_usb_hhubsys.c",334
000000E6 A981                    		MOV.L 18H[R0], R1
000000E8 B991                    		MOVU.W 0CH[R1], R1
000000EA 63E1                    		MUL #0EH, R1
000000EC FBE2rrrrrrrr            		MOV.L #_usb_ghhub_TmpEPTbl, R14
000000F2 4B1E                    		ADD R1, R14
000000F4 BA09                    		MOVU.W 12H[R0], R1
000000F6 6C11                    		SHLL #01H, R1
000000F8 4BE1                    		ADD R14, R1
000000FA 989A                    		MOV.W 06H[R1], R2
000000FC 06550208                		OR 10H[R0].W, R2
00000100 909A                    		MOV.W R2, 06H[R1]
00000102                         L32:	; bb69.split12
                                 ;     335         R_usb_hstd_SetPipeInfo(&usb_ghhub_DefEPTbl[ptr->ip][index],
                                 		.LINE  "C:\Workspace\e2studio\git\MT01_master\r_usb_basic\src\driver\host\r_usb_hhubsys.c",335
00000102 A981                    		MOV.L 18H[R0], R1
00000104 B993                    		MOVU.W 0CH[R1], R3
00000106 BA0C                    		MOVU.W 12H[R0], R4
00000108 63E3                    		MUL #0EH, R3
0000010A FB22rrrrrrrr            		MOV.L #_usb_ghhub_TmpEPTbl, R2
00000110 4B32                    		ADD R3, R2
00000112 6C14                    		SHLL #01H, R4
00000114 4B42                    		ADD R4, R2
00000116 FB12rrrrrrrr            		MOV.L #_usb_ghhub_DefEPTbl, R1
0000011C 4B31                    		ADD R3, R1
0000011E 4B41                    		ADD R4, R1
00000120 6663                    		MOV.L #00000006H, R3
00000122 05rrrrrr             A  		BSR _R_usb_hstd_SetPipeInfo
00000126                         L33:	; bb69.split13
                                 ;     336             &usb_ghhub_TmpEPTbl[ptr->ip][index], (uint16_t)USB_EPL);
                                 ;     337 
                                 ;     338         usb_shhub_Process[ptr->ip] = USB_MSG_CLS_INIT;
                                 		.LINE  "C:\Workspace\e2studio\git\MT01_master\r_usb_basic\src\driver\host\r_usb_hhubsys.c",338
00000126 A981                    		MOV.L 18H[R0], R1
00000128 B991                    		MOVU.W 0CH[R1], R1
0000012A FBE2rrrrrrrr            		MOV.L #_usb_shhub_Process, R14
00000130 FBFA0202                		MOV.L #00000202H, R15
00000134 FE11EF                  		MOV.W R15, [R1,R14]
00000137                         L34:	; bb69.split14
                                 ;     339         R_usb_hstd_SetPipeRegistration(ptr, (uint16_t*)&usb_ghhub_DefEPTbl[ptr->ip],
                                 		.LINE  "C:\Workspace\e2studio\git\MT01_master\r_usb_basic\src\driver\host\r_usb_hhubsys.c",339
00000137 A981                    		MOV.L 18H[R0], R1
00000139 B993                    		MOVU.W 0CH[R1], R3
0000013B 63E3                    		MUL #0EH, R3
0000013D FB22rrrrrrrr            		MOV.L #_usb_ghhub_DefEPTbl, R2
00000143 4B32                    		ADD R3, R2
00000145 BA0B                    		MOVU.W 12H[R0], R3
00000147 FED323                  		MOVU.W [R3,R2], R3
0000014A 05rrrrrr             A  		BSR _R_usb_hstd_SetPipeRegistration
0000014E                         L35:	; bb69.split15
                                 ;     340                 usb_ghhub_DefEPTbl[ptr->ip][index]);
                                 ;     341 
                                 ;     342         usb_shhub_Number[ptr->ip]++;
                                 		.LINE  "C:\Workspace\e2studio\git\MT01_master\r_usb_basic\src\driver\host\r_usb_hhubsys.c",342
0000014E A981                    		MOV.L 18H[R0], R1
00000150 B991                    		MOVU.W 0CH[R1], R1
00000152 FBE2rrrrrrrr            		MOV.L #_usb_shhub_Number, R14
00000158 FE51EF                  		MOV.W [R1,R14], R15
0000015B 621F                    		ADD #01H, R15
0000015D FE11EF                  		MOV.W R15, [R1,R14]
00000160 6707                    		RTSD #1CH
00000162                         L36:	; return
                                 ;     343     }
                                 ;     344 }   /* eof R_usb_hhub_Open() */
                                 		.LINE  "C:\Workspace\e2studio\git\MT01_master\r_usb_basic\src\driver\host\r_usb_hhubsys.c",344
00000162 6707                    		RTSD #1CH
00000164                         _R_usb_hhub_Close:
                                 		.STACK	_R_usb_hhub_Close=24
                                 ;     345 
                                 ;     346 
                                 ;     347 /******************************************************************************
                                 ;     348 Function Name   : R_usb_hhub_Close
                                 ;     349 Description     : HUB sys close
                                 ;     350 Arguments       : uint16_t hubaddr          : hub address
                                 ;     351                 : uint16_t data2            : Not use
                                 ;     352 Return value    : USB_ER_t                  : Error Info
                                 ;     353 ******************************************************************************/
                                 ;     354 void R_usb_hhub_Close(USB_UTR_t *ptr, uint16_t hubaddr, uint16_t data2)
                                 		.LINE  "C:\Workspace\e2studio\git\MT01_master\r_usb_basic\src\driver\host\r_usb_hhubsys.c",354
00000164 7100EC                  		ADD #0FFFFFFECH, R0
00000167 A101                    		MOV.L R1, 10H[R0]
00000169 918A                    		MOV.W R2, 0EH[R0]
0000016B 9183                    		MOV.W R3, 0CH[R0]
                                 ;     355 {
                                 ;     356     uint16_t        md, i;
                                 ;     357     USB_HCDREG_t    *driver;
                                 ;     358     uint16_t        devaddr, index;
                                 ;     359 
                                 ;     360     for( i = 1; i <= usb_shhub_InfoData[ptr->ip][hubaddr].port_num; i++ )
                                 		.LINE  "C:\Workspace\e2studio\git\MT01_master\r_usb_basic\src\driver\host\r_usb_hhubsys.c",360
0000016D 3D0101                  		MOV.W #0001H, 02H[R0]
00000170 2Err                 B  		BRA L51
00000172                         L38:	; bb
                                 ;     361     {
                                 ;     362         /* Now downport device search */
                                 ;     363         devaddr = usb_hhub_GetCnnDevaddr(ptr, hubaddr, i);
                                 		.LINE  "C:\Workspace\e2studio\git\MT01_master\r_usb_basic\src\driver\host\r_usb_hhubsys.c",363
00000172 B80B                    		MOVU.W 02H[R0], R3
00000174 B98A                    		MOVU.W 0EH[R0], R2
00000176 39rrrr               W  		BSR __$usb_hhub_GetCnnDevaddr
00000179 9101                    		MOV.W R1, 08H[R0]
0000017B                         L39:	; bb.split
                                 ;     364         if( 0 != devaddr )
                                 		.LINE  "C:\Workspace\e2studio\git\MT01_master\r_usb_basic\src\driver\host\r_usb_hhubsys.c",364
0000017B B901                    		MOVU.W 08H[R0], R1
0000017D 6101                    		CMP #00H, R1
0000017F 20rr                    		BEQ L50
00000181                         L40:	; bb13
                                 ;     365         {
                                 ;     366             /* HUB down port selective disconnect */
                                 ;     367             usb_hhub_selective_detach(ptr, devaddr);
                                 		.LINE  "C:\Workspace\e2studio\git\MT01_master\r_usb_basic\src\driver\host\r_usb_hhubsys.c",367
00000181 B902                    		MOVU.W 08H[R0], R2
00000183 A901                    		MOV.L 10H[R0], R1
00000185 39rrrr               W  		BSR __$usb_hhub_selective_detach
00000188                         L41:	; bb13.split
                                 ;     368             for( md = 0; md < usb_ghstd_DeviceNum[ptr->ip]; md++ )
                                 		.LINE  "C:\Workspace\e2studio\git\MT01_master\r_usb_basic\src\driver\host\r_usb_hhubsys.c",368
00000188 F80500                  		MOV.W #0000H, [R0]
0000018B 2Err                 B  		BRA L49
0000018D                         L42:	; bb16
                                 ;     369             {
                                 ;     370                 driver = &usb_ghstd_DeviceDrv[ptr->ip][md];
                                 		.LINE  "C:\Workspace\e2studio\git\MT01_master\r_usb_basic\src\driver\host\r_usb_hhubsys.c",370
0000018D A901                    		MOV.L 10H[R0], R1
0000018F B991                    		MOVU.W 0CH[R1], R1
00000191 7611B801                		MUL #01B8H, R1
00000195 FB22rrrrrrrr            		MOV.L #_usb_ghstd_DeviceDrv, R2
0000019B 4B12                    		ADD R1, R2
0000019D 5C01                    		MOVU.W [R0], R1
0000019F 751128                  		MUL #28H, R1
000001A2 4B12                    		ADD R1, R2
000001A4 A00A                    		MOV.L R2, 04H[R0]
000001A6                         L43:	; bb16.split
                                 ;     371                 if( devaddr == driver->devaddr )
                                 		.LINE  "C:\Workspace\e2studio\git\MT01_master\r_usb_basic\src\driver\host\r_usb_hhubsys.c",371
000001A6 A809                    		MOV.L 04H[R0], R1
000001A8 B902                    		MOVU.W 08H[R0], R2
000001AA 06C51201                		CMP 02H[R1].UW, R2
000001AE 21rr                    		BNE L48
000001B0                         L44:	; bb27
                                 ;     372                 {
                                 ;     373                     (*driver->devdetach)(ptr, driver->devaddr, (uint16_t)USB_NO_ARG);
                                 		.LINE  "C:\Workspace\e2studio\git\MT01_master\r_usb_basic\src\driver\host\r_usb_hhubsys.c",373
000001B0 A809                    		MOV.L 04H[R0], R1
000001B2 B81A                    		MOVU.W 02H[R1], R2
000001B4 A99C                    		MOV.L 1CH[R1], R4
000001B6 A901                    		MOV.L 10H[R0], R1
000001B8 6603                    		MOV.L #00000000H, R3
000001BA 7F14                    		JSR R4
000001BC                         L45:	; bb27.split
                                 ;     374                     /* Root port */
                                 ;     375                     driver->rootport    = USB_NOPORT;
                                 		.LINE  "C:\Workspace\e2studio\git\MT01_master\r_usb_basic\src\driver\host\r_usb_hhubsys.c",375
000001BC A809                    		MOV.L 04H[R0], R1
000001BE F819FFFF                		MOV.W #0FFFFH, [R1]
000001C2                         L46:	; bb27.split1
                                 ;     376                     /* Device devaddress */
                                 ;     377                     driver->devaddr     = USB_NODEVICE;
                                 		.LINE  "C:\Workspace\e2studio\git\MT01_master\r_usb_basic\src\driver\host\r_usb_hhubsys.c",377
000001C2 A809                    		MOV.L 04H[R0], R1
000001C4 F9190100F0              		MOV.W #0F000H, 02H[R1]
000001C9                         L47:	; bb27.split2
                                 ;     378                     /* Device state */
                                 ;     379                     driver->devstate    = USB_DETACHED;
                                 		.LINE  "C:\Workspace\e2studio\git\MT01_master\r_usb_basic\src\driver\host\r_usb_hhubsys.c",379
000001C9 A809                    		MOV.L 04H[R0], R1
000001CB 3D120A                  		MOV.W #000AH, 04H[R1]
000001CE                         L48:	; bb49
000001CE DC01                    		MOV.W [R0], R1
000001D0 6211                    		ADD #01H, R1
000001D2 D301                    		MOV.W R1, [R0]
000001D4                         L49:	; bb52
                                 		.LINE  "C:\Workspace\e2studio\git\MT01_master\r_usb_basic\src\driver\host\r_usb_hhubsys.c",368
000001D4 A901                    		MOV.L 10H[R0], R1
000001D6 B991                    		MOVU.W 0CH[R1], R1
000001D8 FBE2rrrrrrrr            		MOV.L #_usb_ghstd_DeviceNum, R14
000001DE FED1EE                  		MOVU.W [R1,R14], R14
000001E1 5C01                    		MOVU.W [R0], R1
000001E3 47E1                    		CMP R14, R1
000001E5 29rr                    		BLT L42
000001E7                         L50:	; bb71
000001E7 9809                    		MOV.W 02H[R0], R1
000001E9 6211                    		ADD #01H, R1
000001EB 9009                    		MOV.W R1, 02H[R0]
000001ED                         L51:	; bb74
                                 		.LINE  "C:\Workspace\e2studio\git\MT01_master\r_usb_basic\src\driver\host\r_usb_hhubsys.c",360
000001ED A901                    		MOV.L 10H[R0], R1
000001EF B992                    		MOVU.W 0CH[R1], R2
000001F1 751258                  		MUL #58H, R2
000001F4 FBE2rrrrrrrr            		MOV.L #_usb_shhub_InfoData, R14
000001FA 4B2E                    		ADD R2, R14
000001FC B98A                    		MOVU.W 0EH[R0], R2
000001FE 6C32                    		SHLL #03H, R2
00000200 4B2E                    		ADD R2, R14
00000202 B80A                    		MOVU.W 02H[R0], R2
00000204 06C5E202                		CMP 04H[R14].UW, R2
00000208 2Arr                  * 		BLE L38
         38rrrr                  
0000020D                         L52:	; bb92
                                 ;     380                 }
                                 ;     381             }
                                 ;     382         }
                                 ;     383     }
                                 ;     384 
                                 ;     385     usb_shhub_Number[ptr->ip]--;
                                 		.LINE  "C:\Workspace\e2studio\git\MT01_master\r_usb_basic\src\driver\host\r_usb_hhubsys.c",385
0000020D B991                    		MOVU.W 0CH[R1], R1
0000020F FBE2rrrrrrrr            		MOV.L #_usb_shhub_Number, R14
00000215 FE51EF                  		MOV.W [R1,R14], R15
00000218 601F                    		SUB #01H, R15
0000021A FE11EF                  		MOV.W R15, [R1,R14]
0000021D                         L53:	; bb92.split
                                 ;     386     index = usb_hhub_ChkTblIndx2(ptr, hubaddr);
                                 		.LINE  "C:\Workspace\e2studio\git\MT01_master\r_usb_basic\src\driver\host\r_usb_hhubsys.c",386
0000021D B98A                    		MOVU.W 0EH[R0], R2
0000021F A901                    		MOV.L 10H[R0], R1
00000221 39rrrr               W  		BSR __$usb_hhub_ChkTblIndx2
00000224 9109                    		MOV.W R1, 0AH[R0]
00000226                         L54:	; bb92.split3
                                 ;     387 
                                 ;     388     /* Set pipe information */
                                 ;     389     for(i = 1; i <= USB_MAXDEVADDR ; i++)
                                 		.LINE  "C:\Workspace\e2studio\git\MT01_master\r_usb_basic\src\driver\host\r_usb_hhubsys.c",389
00000226 3D0101                  		MOV.W #0001H, 02H[R0]
00000229 2Err                 B  		BRA L59
0000022B                         L55:	; bb103
                                 ;     390     {
                                 ;     391         usb_shhub_InfoData[ptr->ip][i].up_addr       = 0;    /* Up-address clear */
                                 		.LINE  "C:\Workspace\e2studio\git\MT01_master\r_usb_basic\src\driver\host\r_usb_hhubsys.c",391
0000022B 751158                  		MUL #58H, R1
0000022E FBE2rrrrrrrr            		MOV.L #_usb_shhub_InfoData, R14
00000234 4B1E                    		ADD R1, R14
00000236 B809                    		MOVU.W 02H[R0], R1
00000238 6C31                    		SHLL #03H, R1
0000023A 4B1E                    		ADD R1, R14
0000023C F8E500                  		MOV.W #0000H, [R14]
0000023F                         L56:	; bb103.split
                                 ;     392         usb_shhub_InfoData[ptr->ip][i].up_port_num   = 0;    /* Up-port num clear */
                                 		.LINE  "C:\Workspace\e2studio\git\MT01_master\r_usb_basic\src\driver\host\r_usb_hhubsys.c",392
0000023F A901                    		MOV.L 10H[R0], R1
00000241 B991                    		MOVU.W 0CH[R1], R1
00000243 751158                  		MUL #58H, R1
00000246 FB22rrrrrrrr            		MOV.L #_usb_shhub_InfoData, R2
0000024C 4B12                    		ADD R1, R2
0000024E B809                    		MOVU.W 02H[R0], R1
00000250 6C31                    		SHLL #03H, R1
00000252 4B12                    		ADD R1, R2
00000254 3D2100                  		MOV.W #0000H, 02H[R2]
00000257                         L57:	; bb103.split4
                                 ;     393         usb_shhub_InfoData[ptr->ip][i].port_num      = 0;    /* Port number clear */
                                 		.LINE  "C:\Workspace\e2studio\git\MT01_master\r_usb_basic\src\driver\host\r_usb_hhubsys.c",393
00000257 A901                    		MOV.L 10H[R0], R1
00000259 B991                    		MOVU.W 0CH[R1], R1
0000025B 751158                  		MUL #58H, R1
0000025E FB22rrrrrrrr            		MOV.L #_usb_shhub_InfoData, R2
00000264 4B12                    		ADD R1, R2
00000266 B809                    		MOVU.W 02H[R0], R1
00000268 6C31                    		SHLL #03H, R1
0000026A 4B12                    		ADD R1, R2
0000026C 3D2200                  		MOV.W #0000H, 04H[R2]
0000026F                         L58:	; bb103.split5
                                 ;     394         usb_shhub_InfoData[ptr->ip][i].pipe_num      = 0;    /* Pipe number clear */
                                 		.LINE  "C:\Workspace\e2studio\git\MT01_master\r_usb_basic\src\driver\host\r_usb_hhubsys.c",394
0000026F A901                    		MOV.L 10H[R0], R1
00000271 B991                    		MOVU.W 0CH[R1], R1
00000273 751158                  		MUL #58H, R1
00000276 FB22rrrrrrrr            		MOV.L #_usb_shhub_InfoData, R2
0000027C 4B12                    		ADD R1, R2
0000027E B809                    		MOVU.W 02H[R0], R1
00000280 6C31                    		SHLL #03H, R1
00000282 4B12                    		ADD R1, R2
00000284 3D2300                  		MOV.W #0000H, 06H[R2]
00000287 9809                    		MOV.W 02H[R0], R1
00000289 6211                    		ADD #01H, R1
0000028B 9009                    		MOV.W R1, 02H[R0]
0000028D                         L59:	; bb146
                                 		.LINE  "C:\Workspace\e2studio\git\MT01_master\r_usb_basic\src\driver\host\r_usb_hhubsys.c",389
0000028D B809                    		MOVU.W 02H[R0], R1
0000028F 61B1                    		CMP #0BH, R1
00000291 A901                    		MOV.L 10H[R0], R1
00000293 B991                    		MOVU.W 0CH[R1], R1
00000295 23rr                    		BLTU L55
00000297                         L60:	; bb152
                                 ;     395     }
                                 ;     396 
                                 ;     397     usb_shhub_DownPort[ptr->ip][hubaddr]    = 0;
                                 		.LINE  "C:\Workspace\e2studio\git\MT01_master\r_usb_basic\src\driver\host\r_usb_hhubsys.c",397
00000297 751116                  		MUL #16H, R1
0000029A FBE2rrrrrrrr            		MOV.L #_usb_shhub_DownPort, R14
000002A0 4B1E                    		ADD R1, R14
000002A2 B989                    		MOVU.W 0EH[R0], R1
000002A4 660F                    		MOV.L #00000000H, R15
000002A6 FE11EF                  		MOV.W R15, [R1,R14]
000002A9                         L61:	; bb152.split
                                 ;     398     usb_shhub_Remote[ptr->ip][hubaddr]      = 0;
                                 		.LINE  "C:\Workspace\e2studio\git\MT01_master\r_usb_basic\src\driver\host\r_usb_hhubsys.c",398
000002A9 A901                    		MOV.L 10H[R0], R1
000002AB B991                    		MOVU.W 0CH[R1], R1
000002AD 751116                  		MUL #16H, R1
000002B0 FBE2rrrrrrrr            		MOV.L #_usb_shhub_Remote, R14
000002B6 4B1E                    		ADD R1, R14
000002B8 660F                    		MOV.L #00000000H, R15
000002BA B989                    		MOVU.W 0EH[R0], R1
000002BC FE11EF                  		MOV.W R15, [R1,R14]
000002BF                         L62:	; bb152.split6
                                 ;     399     usb_ghhub_DefEPTbl[ptr->ip][index + 1]  = USB_NONE;
                                 		.LINE  "C:\Workspace\e2studio\git\MT01_master\r_usb_basic\src\driver\host\r_usb_hhubsys.c",399
000002BF A901                    		MOV.L 10H[R0], R1
000002C1 B991                    		MOVU.W 0CH[R1], R1
000002C3 63E1                    		MUL #0EH, R1
000002C5 FBE2rrrrrrrr            		MOV.L #_usb_ghhub_DefEPTbl, R14
000002CB 4B1E                    		ADD R1, R14
000002CD B909                    		MOVU.W 0AH[R0], R1
000002CF 6C11                    		SHLL #01H, R1
000002D1 4BE1                    		ADD R14, R1
000002D3 3D1100                  		MOV.W #0000H, 02H[R1]
000002D6                         L63:	; bb152.split7
                                 ;     400     usb_ghhub_DefEPTbl[ptr->ip][index + 3]  = USB_NONE;
                                 		.LINE  "C:\Workspace\e2studio\git\MT01_master\r_usb_basic\src\driver\host\r_usb_hhubsys.c",400
000002D6 A901                    		MOV.L 10H[R0], R1
000002D8 B991                    		MOVU.W 0CH[R1], R1
000002DA 63E1                    		MUL #0EH, R1
000002DC FBE2rrrrrrrr            		MOV.L #_usb_ghhub_DefEPTbl, R14
000002E2 4B1E                    		ADD R1, R14
000002E4 B909                    		MOVU.W 0AH[R0], R1
000002E6 6C11                    		SHLL #01H, R1
000002E8 4BE1                    		ADD R14, R1
000002EA 3D1300                  		MOV.W #0000H, 06H[R1]
000002ED                         L64:	; bb152.split8
                                 ;     401     usb_ghhub_DefEPTbl[ptr->ip][index + 4]  = USB_NONE;
                                 		.LINE  "C:\Workspace\e2studio\git\MT01_master\r_usb_basic\src\driver\host\r_usb_hhubsys.c",401
000002ED A901                    		MOV.L 10H[R0], R1
000002EF B991                    		MOVU.W 0CH[R1], R1
000002F1 63E1                    		MUL #0EH, R1
000002F3 FBE2rrrrrrrr            		MOV.L #_usb_ghhub_DefEPTbl, R14
000002F9 4B1E                    		ADD R1, R14
000002FB B909                    		MOVU.W 0AH[R0], R1
000002FD 6C11                    		SHLL #01H, R1
000002FF 4BE1                    		ADD R14, R1
00000301 3D1400                  		MOV.W #0000H, 08H[R1]
00000304                         L65:	; bb152.split9
                                 ;     402     usb_ghhub_TmpEPTbl[ptr->ip][index + 1]  = USB_NONE;
                                 		.LINE  "C:\Workspace\e2studio\git\MT01_master\r_usb_basic\src\driver\host\r_usb_hhubsys.c",402
00000304 A901                    		MOV.L 10H[R0], R1
00000306 B991                    		MOVU.W 0CH[R1], R1
00000308 63E1                    		MUL #0EH, R1
0000030A FBE2rrrrrrrr            		MOV.L #_usb_ghhub_TmpEPTbl, R14
00000310 4B1E                    		ADD R1, R14
00000312 B909                    		MOVU.W 0AH[R0], R1
00000314 6C11                    		SHLL #01H, R1
00000316 4BE1                    		ADD R14, R1
00000318 3D1100                  		MOV.W #0000H, 02H[R1]
0000031B                         L66:	; bb152.split10
                                 ;     403     usb_ghhub_TmpEPTbl[ptr->ip][index + 3]  = USB_NONE;
                                 		.LINE  "C:\Workspace\e2studio\git\MT01_master\r_usb_basic\src\driver\host\r_usb_hhubsys.c",403
0000031B A901                    		MOV.L 10H[R0], R1
0000031D B991                    		MOVU.W 0CH[R1], R1
0000031F 63E1                    		MUL #0EH, R1
00000321 FBE2rrrrrrrr            		MOV.L #_usb_ghhub_TmpEPTbl, R14
00000327 4B1E                    		ADD R1, R14
00000329 B909                    		MOVU.W 0AH[R0], R1
0000032B 6C11                    		SHLL #01H, R1
0000032D 4BE1                    		ADD R14, R1
0000032F 3D1300                  		MOV.W #0000H, 06H[R1]
00000332                         L67:	; bb152.split11
                                 ;     404     usb_ghhub_TmpEPTbl[ptr->ip][index + 4]  = USB_NONE;
                                 		.LINE  "C:\Workspace\e2studio\git\MT01_master\r_usb_basic\src\driver\host\r_usb_hhubsys.c",404
00000332 A901                    		MOV.L 10H[R0], R1
00000334 B991                    		MOVU.W 0CH[R1], R1
00000336 63E1                    		MUL #0EH, R1
00000338 FBE2rrrrrrrr            		MOV.L #_usb_ghhub_TmpEPTbl, R14
0000033E 4B1E                    		ADD R1, R14
00000340 B909                    		MOVU.W 0AH[R0], R1
00000342 6C11                    		SHLL #01H, R1
00000344 4BE1                    		ADD R14, R1
00000346 3D1400                  		MOV.W #0000H, 08H[R1]
00000349 6705                    		RTSD #14H
0000034B                         _R_usb_hhub_Registration:
                                 		.STACK	_R_usb_hhub_Registration=52
                                 ;     405 
                                 ;     406 }   /* eof R_usb_hhub_Close() */
                                 ;     407 
                                 ;     408 
                                 ;     409 /******************************************************************************
                                 ;     410 Function Name   : R_usb_hhub_Registration
                                 ;     411 Description     : HUB driver
                                 ;     412 Arguments       : USB_HCDREG_t *callback
                                 ;     413 Return value    : none
                                 ;     414 ******************************************************************************/
                                 ;     415 void R_usb_hhub_Registration(USB_UTR_t *ptr, USB_HCDREG_t *callback)
                                 		.LINE  "C:\Workspace\e2studio\git\MT01_master\r_usb_basic\src\driver\host\r_usb_hhubsys.c",415
0000034B 7100D0                  		ADD #0FFFFFFD0H, R0
0000034E A289                    		MOV.L R1, 2CH[R0]
00000350 A282                    		MOV.L R2, 28H[R0]
                                 ;     416 {
                                 ;     417     USB_HCDREG_t    driver;
                                 ;     418 
                                 ;     419     /* Driver registration */
                                 ;     420     if( USB_NULL == callback )
                                 		.LINE  "C:\Workspace\e2studio\git\MT01_master\r_usb_basic\src\driver\host\r_usb_hhubsys.c",420
00000352 6102                    		CMP #00H, R2
00000354 21rr                    		BNE L71
00000356                         L69:	; bb4
                                 ;     421     {
                                 ;     422         /* Target peripheral list */
                                 ;     423         driver.tpl          = (uint16_t*)&usb_ghhub_TPL[0];
                                 		.LINE  "C:\Workspace\e2studio\git\MT01_master\r_usb_basic\src\driver\host\r_usb_hhubsys.c",423
00000356 FB12rrrrrrrr            		MOV.L #_usb_ghhub_TPL, R1
0000035C A081                    		MOV.L R1, 08H[R0]
0000035E                         L70:	; bb4.split
                                 ;     424         /* Pipe Information Table Define address */
                                 ;     425         driver.pipetbl      = (uint16_t*)&usb_ghhub_DefEPTbl[ptr->ip];
                                 		.LINE  "C:\Workspace\e2studio\git\MT01_master\r_usb_basic\src\driver\host\r_usb_hhubsys.c",425
0000035E AA89                    		MOV.L 2CH[R0], R1
00000360 B991                    		MOVU.W 0CH[R1], R1
00000362 63E1                    		MUL #0EH, R1
00000364 FB22rrrrrrrr            		MOV.L #_usb_ghhub_DefEPTbl, R2
0000036A 4B12                    		ADD R1, R2
0000036C A08A                    		MOV.L R2, 0CH[R0]
0000036E 2Err                 B  		BRA L73
00000370                         L71:	; bb12
                                 ;     426     }
                                 ;     427     else
                                 ;     428     {
                                 ;     429         /* Target peripheral list */
                                 ;     430         driver.tpl          = callback->tpl;
                                 		.LINE  "C:\Workspace\e2studio\git\MT01_master\r_usb_basic\src\driver\host\r_usb_hhubsys.c",430
00000370 AA81                    		MOV.L 28H[R0], R1
00000372 E5100202                		MOV.L 08H[R1], 08H[R0]
00000376                         L72:	; bb12.split
                                 ;     431         /* Pipe Define Table address */
                                 ;     432         driver.pipetbl      = callback->pipetbl;
                                 		.LINE  "C:\Workspace\e2studio\git\MT01_master\r_usb_basic\src\driver\host\r_usb_hhubsys.c",432
00000376 AA81                    		MOV.L 28H[R0], R1
00000378 E5100303                		MOV.L 0CH[R1], 0CH[R0]
0000037C                         L73:	; bb24
                                 ;     433     }
                                 ;     434     /* Interface Class */
                                 ;     435     driver.ifclass      = (uint16_t)USB_IFCLS_HUB;
                                 		.LINE  "C:\Workspace\e2studio\git\MT01_master\r_usb_basic\src\driver\host\r_usb_hhubsys.c",435
0000037C 3D0309                  		MOV.W #0009H, 06H[R0]
0000037F                         L74:	; bb24.split
                                 ;     436     /* Driver init */
                                 ;     437     driver.classinit    = &usb_hhub_initial;
                                 		.LINE  "C:\Workspace\e2studio\git\MT01_master\r_usb_basic\src\driver\host\r_usb_hhubsys.c",437
0000037F FB12rrrrrrrr            		MOV.L #_usb_hhub_initial, R1
00000385 A101                    		MOV.L R1, 10H[R0]
00000387                         L75:	; bb24.split1
                                 ;     438     /* Driver check */
                                 ;     439     driver.classcheck   = &usb_hhub_check_class;
                                 		.LINE  "C:\Workspace\e2studio\git\MT01_master\r_usb_basic\src\driver\host\r_usb_hhubsys.c",439
00000387 FB12rrrrrrrr            		MOV.L #_usb_hhub_check_class, R1
0000038D A109                    		MOV.L R1, 14H[R0]
0000038F                         L76:	; bb24.split2
                                 ;     440     /* Device configured */
                                 ;     441     driver.devconfig    = (USB_CB_t)&R_usb_hhub_Open;
                                 		.LINE  "C:\Workspace\e2studio\git\MT01_master\r_usb_basic\src\driver\host\r_usb_hhubsys.c",441
0000038F FB12rrrrrrrr            		MOV.L #_R_usb_hhub_Open, R1
00000395 A181                    		MOV.L R1, 18H[R0]
00000397                         L77:	; bb24.split3
                                 ;     442     /* Device detach */
                                 ;     443     driver.devdetach    = (USB_CB_t)&R_usb_hhub_Close;
                                 		.LINE  "C:\Workspace\e2studio\git\MT01_master\r_usb_basic\src\driver\host\r_usb_hhubsys.c",443
00000397 FB12rrrrrrrr            		MOV.L #_R_usb_hhub_Close, R1
0000039D A189                    		MOV.L R1, 1CH[R0]
0000039F                         L78:	; bb24.split4
                                 ;     444     /* Device suspend */
                                 ;     445     driver.devsuspend   = &usb_cstd_DummyFunction;
                                 		.LINE  "C:\Workspace\e2studio\git\MT01_master\r_usb_basic\src\driver\host\r_usb_hhubsys.c",445
0000039F FB12rrrrrrrr            		MOV.L #_usb_cstd_DummyFunction, R1
000003A5 A201                    		MOV.L R1, 20H[R0]
000003A7                         L79:	; bb24.split5
                                 ;     446     /* Device resume */
                                 ;     447     driver.devresume    = &usb_cstd_DummyFunction;
                                 		.LINE  "C:\Workspace\e2studio\git\MT01_master\r_usb_basic\src\driver\host\r_usb_hhubsys.c",447
000003A7 FB12rrrrrrrr            		MOV.L #_usb_cstd_DummyFunction, R1
000003AD A209                    		MOV.L R1, 24H[R0]
000003AF                         L80:	; bb24.split6
                                 ;     448 
                                 ;     449     R_usb_hstd_DriverRegistration(ptr, (USB_HCDREG_t *)&driver);
                                 		.LINE  "C:\Workspace\e2studio\git\MT01_master\r_usb_basic\src\driver\host\r_usb_hhubsys.c",449
000003AF AA89                    		MOV.L 2CH[R0], R1
000003B1 EF02                    		MOV.L R0, R2
000003B3 05rrrrrr             A  		BSR _R_usb_hstd_DriverRegistration
000003B7 670C                    		RTSD #30H
000003B9                         _R_usb_hhub_GetHubInformation:
                                 		.STACK	_R_usb_hhub_GetHubInformation=28
                                 ;     450 }   /* eof R_usb_hhub_Registration() */
                                 ;     451 
                                 ;     452 
                                 ;     453 /******************************************************************************
                                 ;     454 Function Name   : R_usb_hhub_GetHubInformation
                                 ;     455 Description     : Read HUB-Descriptor
                                 ;     456 Arguments       : uint16_t hubaddr          : hub address
                                 ;     457                 : USB_CB_t complete         : callback function
                                 ;     458 Return value    : uint16_t                  : DONE/ERROR
                                 ;     459 ******************************************************************************/
                                 ;     460 uint16_t R_usb_hhub_GetHubInformation(USB_UTR_t *ptr, uint16_t hubaddr, USB_CB_t complete)
                                 		.LINE  "C:\Workspace\e2studio\git\MT01_master\r_usb_basic\src\driver\host\r_usb_hhubsys.c",460
000003B9 7100E8                  		ADD #0FFFFFFE8H, R0
000003BC A109                    		MOV.L R1, 14H[R0]
000003BE 920A                    		MOV.W R2, 12H[R0]
000003C0 A08B                    		MOV.L R3, 0CH[R0]
                                 ;     461 {
                                 ;     462     USB_ER_t    qerr;
                                 ;     463 
                                 ;     464     /* Request */
                                 ;     465     usb_shhub_ClassRequest[ptr->ip][0]  = USB_GET_DESCRIPTOR | USB_DEV_TO_HOST | USB_CLASS | USB_DEVICE;
                                 		.LINE  "C:\Workspace\e2studio\git\MT01_master\r_usb_basic\src\driver\host\r_usb_hhubsys.c",465
000003C2 A909                    		MOV.L 14H[R0], R1
000003C4 B991                    		MOVU.W 0CH[R1], R1
000003C6 63A1                    		MUL #0AH, R1
000003C8 FBE2rrrrrrrr            		MOV.L #_usb_shhub_ClassRequest, R14
000003CE 4B1E                    		ADD R1, R14
000003D0 F8E9A006                		MOV.W #06A0H, [R14]
000003D4                         L82:	; entry.split
                                 ;     466     usb_shhub_ClassRequest[ptr->ip][1]  = USB_HUB_DESCRIPTOR;
                                 		.LINE  "C:\Workspace\e2studio\git\MT01_master\r_usb_basic\src\driver\host\r_usb_hhubsys.c",466
000003D4 A909                    		MOV.L 14H[R0], R1
000003D6 B991                    		MOVU.W 0CH[R1], R1
000003D8 63A1                    		MUL #0AH, R1
000003DA FB22rrrrrrrr            		MOV.L #_usb_shhub_ClassRequest, R2
000003E0 4B12                    		ADD R1, R2
000003E2 3D2100                  		MOV.W #0000H, 02H[R2]
000003E5                         L83:	; entry.split1
                                 ;     467     usb_shhub_ClassRequest[ptr->ip][2]  = 0;
                                 		.LINE  "C:\Workspace\e2studio\git\MT01_master\r_usb_basic\src\driver\host\r_usb_hhubsys.c",467
000003E5 A909                    		MOV.L 14H[R0], R1
000003E7 B991                    		MOVU.W 0CH[R1], R1
000003E9 63A1                    		MUL #0AH, R1
000003EB FB22rrrrrrrr            		MOV.L #_usb_shhub_ClassRequest, R2
000003F1 4B12                    		ADD R1, R2
000003F3 3D2200                  		MOV.W #0000H, 04H[R2]
000003F6                         L84:	; entry.split2
                                 ;     468     usb_shhub_ClassRequest[ptr->ip][3]  = 0x0047;
                                 		.LINE  "C:\Workspace\e2studio\git\MT01_master\r_usb_basic\src\driver\host\r_usb_hhubsys.c",468
000003F6 A909                    		MOV.L 14H[R0], R1
000003F8 B991                    		MOVU.W 0CH[R1], R1
000003FA 63A1                    		MUL #0AH, R1
000003FC FB22rrrrrrrr            		MOV.L #_usb_shhub_ClassRequest, R2
00000402 4B12                    		ADD R1, R2
00000404 3D2347                  		MOV.W #0047H, 06H[R2]
00000407                         L85:	; entry.split3
                                 ;     469     usb_shhub_ClassRequest[ptr->ip][4]  = hubaddr;      /* Device address */
                                 		.LINE  "C:\Workspace\e2studio\git\MT01_master\r_usb_basic\src\driver\host\r_usb_hhubsys.c",469
00000407 A909                    		MOV.L 14H[R0], R1
00000409 B991                    		MOVU.W 0CH[R1], R1
0000040B 63A1                    		MUL #0AH, R1
0000040D FB22rrrrrrrr            		MOV.L #_usb_shhub_ClassRequest, R2
00000413 4B12                    		ADD R1, R2
00000415 D5020904                		MOV.W 12H[R0], 08H[R2]
00000419                         L86:	; entry.split4
                                 ;     470 
                                 ;     471     /* HUB Descriptor */
                                 ;     472     usb_shhub_ControlMess[ptr->ip].keyword  = USB_PIPE0;
                                 		.LINE  "C:\Workspace\e2studio\git\MT01_master\r_usb_basic\src\driver\host\r_usb_hhubsys.c",472
00000419 A909                    		MOV.L 14H[R0], R1
0000041B B991                    		MOVU.W 0CH[R1], R1
0000041D 75112C                  		MUL #2CH, R1
00000420 FB22rrrrrrrr            		MOV.L #_usb_shhub_ControlMess, R2
00000426 4B12                    		ADD R1, R2
00000428 3D2300                  		MOV.W #0000H, 06H[R2]
0000042B                         L87:	; entry.split5
                                 ;     473     usb_shhub_ControlMess[ptr->ip].tranadr  = (void*)&usb_ghhub_Descriptor[ptr->ip][0];
                                 		.LINE  "C:\Workspace\e2studio\git\MT01_master\r_usb_basic\src\driver\host\r_usb_hhubsys.c",473
0000042B A909                    		MOV.L 14H[R0], R1
0000042D B991                    		MOVU.W 0CH[R1], R1
0000042F EF1E                    		MOV.L R1, R14
00000431 751E2C                  		MUL #2CH, R14
00000434 FB22rrrrrrrr            		MOV.L #_usb_shhub_ControlMess, R2
0000043A 4BE2                    		ADD R14, R2
0000043C 6C81                    		SHLL #08H, R1
0000043E FB32rrrrrrrr            		MOV.L #_usb_ghhub_Descriptor, R3
00000444 4B13                    		ADD R1, R3
00000446 A12B                    		MOV.L R3, 14H[R2]
00000448                         L88:	; entry.split6
                                 ;     474     usb_shhub_ControlMess[ptr->ip].tranlen  = (uint32_t)usb_shhub_ClassRequest[ptr->ip][3];
                                 		.LINE  "C:\Workspace\e2studio\git\MT01_master\r_usb_basic\src\driver\host\r_usb_hhubsys.c",474
00000448 A909                    		MOV.L 14H[R0], R1
0000044A B991                    		MOVU.W 0CH[R1], R1
0000044C EF1E                    		MOV.L R1, R14
0000044E 751E2C                  		MUL #2CH, R14
00000451 FB22rrrrrrrr            		MOV.L #_usb_shhub_ControlMess, R2
00000457 4BE2                    		ADD R14, R2
00000459 63A1                    		MUL #0AH, R1
0000045B FB32rrrrrrrr            		MOV.L #_usb_shhub_ClassRequest, R3
00000461 4B13                    		ADD R1, R3
00000463 B8B9                    		MOVU.W 06H[R3], R1
00000465 A1A1                    		MOV.L R1, 18H[R2]
00000467                         L89:	; entry.split7
                                 ;     475     usb_shhub_ControlMess[ptr->ip].setup    = usb_shhub_ClassRequest[ptr->ip];
                                 		.LINE  "C:\Workspace\e2studio\git\MT01_master\r_usb_basic\src\driver\host\r_usb_hhubsys.c",475
00000467 A909                    		MOV.L 14H[R0], R1
00000469 B991                    		MOVU.W 0CH[R1], R1
0000046B EF1E                    		MOV.L R1, R14
0000046D 751E2C                  		MUL #2CH, R14
00000470 FB22rrrrrrrr            		MOV.L #_usb_shhub_ControlMess, R2
00000476 4BE2                    		ADD R14, R2
00000478 63A1                    		MUL #0AH, R1
0000047A FB32rrrrrrrr            		MOV.L #_usb_shhub_ClassRequest, R3
00000480 4B13                    		ADD R1, R3
00000482 A1AB                    		MOV.L R3, 1CH[R2]
00000484                         L90:	; entry.split8
                                 ;     476     usb_shhub_ControlMess[ptr->ip].segment  = USB_TRAN_END;
                                 		.LINE  "C:\Workspace\e2studio\git\MT01_master\r_usb_basic\src\driver\host\r_usb_hhubsys.c",476
00000484 A909                    		MOV.L 14H[R0], R1
00000486 B991                    		MOVU.W 0CH[R1], R1
00000488 75112C                  		MUL #2CH, R1
0000048B FBE2rrrrrrrr            		MOV.L #_usb_shhub_ControlMess, R14
00000491 4B1E                    		ADD R1, R14
00000493 F9E42580                		MOV.B #80H, 25H[R14]
00000497                         L91:	; entry.split9
                                 ;     477     usb_shhub_ControlMess[ptr->ip].complete = complete;
                                 		.LINE  "C:\Workspace\e2studio\git\MT01_master\r_usb_basic\src\driver\host\r_usb_hhubsys.c",477
00000497 A909                    		MOV.L 14H[R0], R1
00000499 B991                    		MOVU.W 0CH[R1], R1
0000049B 75112C                  		MUL #2CH, R1
0000049E FB22rrrrrrrr            		MOV.L #_usb_shhub_ControlMess, R2
000004A4 4B12                    		ADD R1, R2
000004A6 E5020304                		MOV.L 0CH[R0], 10H[R2]
000004AA                         L92:	; entry.split10
                                 ;     478 
                                 ;     479     usb_shhub_ControlMess[ptr->ip].ipp      = ptr->ipp;
                                 		.LINE  "C:\Workspace\e2studio\git\MT01_master\r_usb_basic\src\driver\host\r_usb_hhubsys.c",479
000004AA A909                    		MOV.L 14H[R0], R1
000004AC B992                    		MOVU.W 0CH[R1], R2
000004AE 75122C                  		MUL #2CH, R2
000004B1 FBE2rrrrrrrr            		MOV.L #_usb_shhub_ControlMess, R14
000004B7 4B2E                    		ADD R2, R14
000004B9 E51E0202                		MOV.L 08H[R1], 08H[R14]
000004BD                         L93:	; entry.split11
                                 ;     480     usb_shhub_ControlMess[ptr->ip].ip       = ptr->ip;
                                 		.LINE  "C:\Workspace\e2studio\git\MT01_master\r_usb_basic\src\driver\host\r_usb_hhubsys.c",480
000004BD A909                    		MOV.L 14H[R0], R1
000004BF B991                    		MOVU.W 0CH[R1], R1
000004C1 EF1E                    		MOV.L R1, R14
000004C3 751E2C                  		MUL #2CH, R14
000004C6 FB22rrrrrrrr            		MOV.L #_usb_shhub_ControlMess, R2
000004CC 4BE2                    		ADD R14, R2
000004CE 91A1                    		MOV.W R1, 0CH[R2]
000004D0                         L94:	; entry.split12
                                 ;     481 
                                 ;     482     /* Transfer start */
                                 ;     483     qerr = usb_hstd_TransferStart(&usb_shhub_ControlMess[ptr->ip]);
                                 		.LINE  "C:\Workspace\e2studio\git\MT01_master\r_usb_basic\src\driver\host\r_usb_hhubsys.c",483
000004D0 A909                    		MOV.L 14H[R0], R1
000004D2 B992                    		MOVU.W 0CH[R1], R2
000004D4 75122C                  		MUL #2CH, R2
000004D7 FB12rrrrrrrr            		MOV.L #_usb_shhub_ControlMess, R1
000004DD 4B21                    		ADD R2, R1
000004DF 05rrrrrr             A  		BSR _usb_hstd_TransferStart
000004E3 A009                    		MOV.L R1, 04H[R0]
000004E5                         L95:	; entry.split13
                                 ;     484     if( USB_E_QOVR == qerr )
                                 		.LINE  "C:\Workspace\e2studio\git\MT01_master\r_usb_basic\src\driver\host\r_usb_hhubsys.c",484
000004E5 A809                    		MOV.L 04H[R0], R1
000004E7 7501D5                  		CMP #0FFFFFFD5H, R1
000004EA 18                   S  		BNE L97
000004EB                         L96:	; bb126
                                 ;     485     {
                                 ;     486         return USB_HUB_QOVR;
                                 		.LINE  "C:\Workspace\e2studio\git\MT01_master\r_usb_basic\src\driver\host\r_usb_hhubsys.c",486
000004EB F90901FEFF              		MOV.W #0FFFEH, 02H[R0]
000004F0 08                   S  		BRA L98
000004F1                         L97:	; bb131
                                 ;     487     }
                                 ;     488 
                                 ;     489     return USB_DONE;
                                 		.LINE  "C:\Workspace\e2studio\git\MT01_master\r_usb_basic\src\driver\host\r_usb_hhubsys.c",489
000004F1 3D0100                  		MOV.W #0000H, 02H[R0]
000004F4                         L98:	; bb133
000004F4 D5000105                		MOV.W 02H[R0], 0AH[R0]
                                 ;     490 }   /* eof R_usb_hhub_GetHubInformation() */
                                 		.LINE  "C:\Workspace\e2studio\git\MT01_master\r_usb_basic\src\driver\host\r_usb_hhubsys.c",490
000004F8 B909                    		MOVU.W 0AH[R0], R1
000004FA 6706                    		RTSD #18H
000004FC                         _R_usb_hhub_GetPortInformation:
                                 		.STACK	_R_usb_hhub_GetPortInformation=28
                                 ;     491 
                                 ;     492 
                                 ;     493 /******************************************************************************
                                 ;     494 Function Name   : R_usb_hhub_GetPortInformation
                                 ;     495 Description     : GetStatus request
                                 ;     496 Arguments       : uint16_t hubaddr          : hub address
                                 ;     497                 : uint16_t port             : down port number
                                 ;     498                 : USB_CB_t complete
                                 ;     499 Return value    : uint16_t                  : DONE/ERROR
                                 ;     500 ******************************************************************************/
                                 ;     501 uint16_t R_usb_hhub_GetPortInformation(USB_UTR_t *ptr, uint16_t hubaddr, uint16_t port, USB_CB_t complete)
                                 		.LINE  "C:\Workspace\e2studio\git\MT01_master\r_usb_basic\src\driver\host\r_usb_hhubsys.c",501
000004FC 7100E8                  		ADD #0FFFFFFE8H, R0
000004FF A109                    		MOV.L R1, 14H[R0]
00000501 920A                    		MOV.W R2, 12H[R0]
00000503 9203                    		MOV.W R3, 10H[R0]
00000505 A08C                    		MOV.L R4, 0CH[R0]
                                 ;     502 {
                                 ;     503     USB_ER_t        qerr;
                                 ;     504 
                                 ;     505     /* Request */
                                 ;     506     usb_shhub_ClassRequest[ptr->ip][0]  = USB_GET_STATUS| USB_DEV_TO_HOST | USB_CLASS | USB_OTHER;
                                 		.LINE  "C:\Workspace\e2studio\git\MT01_master\r_usb_basic\src\driver\host\r_usb_hhubsys.c",506
00000507 A909                    		MOV.L 14H[R0], R1
00000509 B991                    		MOVU.W 0CH[R1], R1
0000050B 63A1                    		MUL #0AH, R1
0000050D FB22rrrrrrrr            		MOV.L #_usb_shhub_ClassRequest, R2
00000513 4B12                    		ADD R1, R2
00000515 3D20A3                  		MOV.W #00A3H, 00H[R2]
00000518                         L100:	; entry.split
                                 ;     507     usb_shhub_ClassRequest[ptr->ip][1]  = 0;
                                 		.LINE  "C:\Workspace\e2studio\git\MT01_master\r_usb_basic\src\driver\host\r_usb_hhubsys.c",507
00000518 A909                    		MOV.L 14H[R0], R1
0000051A B991                    		MOVU.W 0CH[R1], R1
0000051C 63A1                    		MUL #0AH, R1
0000051E FB22rrrrrrrr            		MOV.L #_usb_shhub_ClassRequest, R2
00000524 4B12                    		ADD R1, R2
00000526 3D2100                  		MOV.W #0000H, 02H[R2]
00000529                         L101:	; entry.split1
                                 ;     508     usb_shhub_ClassRequest[ptr->ip][2]  = port;     /* Port number */
                                 		.LINE  "C:\Workspace\e2studio\git\MT01_master\r_usb_basic\src\driver\host\r_usb_hhubsys.c",508
00000529 A909                    		MOV.L 14H[R0], R1
0000052B B991                    		MOVU.W 0CH[R1], R1
0000052D 63A1                    		MUL #0AH, R1
0000052F FB22rrrrrrrr            		MOV.L #_usb_shhub_ClassRequest, R2
00000535 4B12                    		ADD R1, R2
00000537 D5020802                		MOV.W 10H[R0], 04H[R2]
0000053B                         L102:	; entry.split2
                                 ;     509     usb_shhub_ClassRequest[ptr->ip][3]  = 4;
                                 		.LINE  "C:\Workspace\e2studio\git\MT01_master\r_usb_basic\src\driver\host\r_usb_hhubsys.c",509
0000053B A909                    		MOV.L 14H[R0], R1
0000053D B991                    		MOVU.W 0CH[R1], R1
0000053F 63A1                    		MUL #0AH, R1
00000541 FB22rrrrrrrr            		MOV.L #_usb_shhub_ClassRequest, R2
00000547 4B12                    		ADD R1, R2
00000549 3D2304                  		MOV.W #0004H, 06H[R2]
0000054C                         L103:	; entry.split3
                                 ;     510     usb_shhub_ClassRequest[ptr->ip][4]  = hubaddr;  /* Device address */
                                 		.LINE  "C:\Workspace\e2studio\git\MT01_master\r_usb_basic\src\driver\host\r_usb_hhubsys.c",510
0000054C A909                    		MOV.L 14H[R0], R1
0000054E B991                    		MOVU.W 0CH[R1], R1
00000550 63A1                    		MUL #0AH, R1
00000552 FB22rrrrrrrr            		MOV.L #_usb_shhub_ClassRequest, R2
00000558 4B12                    		ADD R1, R2
0000055A D5020904                		MOV.W 12H[R0], 08H[R2]
0000055E                         L104:	; entry.split4
                                 ;     511 
                                 ;     512     /* Port GetStatus */
                                 ;     513     usb_shhub_ControlMess[ptr->ip].keyword  = USB_PIPE0;
                                 		.LINE  "C:\Workspace\e2studio\git\MT01_master\r_usb_basic\src\driver\host\r_usb_hhubsys.c",513
0000055E A909                    		MOV.L 14H[R0], R1
00000560 B991                    		MOVU.W 0CH[R1], R1
00000562 75112C                  		MUL #2CH, R1
00000565 FB22rrrrrrrr            		MOV.L #_usb_shhub_ControlMess, R2
0000056B 4B12                    		ADD R1, R2
0000056D 3D2300                  		MOV.W #0000H, 06H[R2]
00000570                         L105:	; entry.split5
                                 ;     514     usb_shhub_ControlMess[ptr->ip].tranadr  = (void*)&usb_ghhub_Data[ptr->ip][hubaddr][0];
                                 		.LINE  "C:\Workspace\e2studio\git\MT01_master\r_usb_basic\src\driver\host\r_usb_hhubsys.c",514
00000570 A909                    		MOV.L 14H[R0], R1
00000572 B991                    		MOVU.W 0CH[R1], R1
00000574 EF1E                    		MOV.L R1, R14
00000576 751E2C                  		MUL #2CH, R14
00000579 FB22rrrrrrrr            		MOV.L #_usb_shhub_ControlMess, R2
0000057F 4BE2                    		ADD R14, R2
00000581 751158                  		MUL #58H, R1
00000584 FB32rrrrrrrr            		MOV.L #_usb_ghhub_Data, R3
0000058A 4B13                    		ADD R1, R3
0000058C BA09                    		MOVU.W 12H[R0], R1
0000058E 6C31                    		SHLL #03H, R1
00000590 4B13                    		ADD R1, R3
00000592 A12B                    		MOV.L R3, 14H[R2]
00000594                         L106:	; entry.split6
                                 ;     515     usb_shhub_ControlMess[ptr->ip].tranlen  = (uint32_t)usb_shhub_ClassRequest[ptr->ip][3];
                                 		.LINE  "C:\Workspace\e2studio\git\MT01_master\r_usb_basic\src\driver\host\r_usb_hhubsys.c",515
00000594 A909                    		MOV.L 14H[R0], R1
00000596 B991                    		MOVU.W 0CH[R1], R1
00000598 EF1E                    		MOV.L R1, R14
0000059A 751E2C                  		MUL #2CH, R14
0000059D FB22rrrrrrrr            		MOV.L #_usb_shhub_ControlMess, R2
000005A3 4BE2                    		ADD R14, R2
000005A5 63A1                    		MUL #0AH, R1
000005A7 FB32rrrrrrrr            		MOV.L #_usb_shhub_ClassRequest, R3
000005AD 4B13                    		ADD R1, R3
000005AF B8B9                    		MOVU.W 06H[R3], R1
000005B1 A1A1                    		MOV.L R1, 18H[R2]
000005B3                         L107:	; entry.split7
                                 ;     516     usb_shhub_ControlMess[ptr->ip].setup    = usb_shhub_ClassRequest[ptr->ip];
                                 		.LINE  "C:\Workspace\e2studio\git\MT01_master\r_usb_basic\src\driver\host\r_usb_hhubsys.c",516
000005B3 A909                    		MOV.L 14H[R0], R1
000005B5 B991                    		MOVU.W 0CH[R1], R1
000005B7 EF1E                    		MOV.L R1, R14
000005B9 751E2C                  		MUL #2CH, R14
000005BC FB22rrrrrrrr            		MOV.L #_usb_shhub_ControlMess, R2
000005C2 4BE2                    		ADD R14, R2
000005C4 63A1                    		MUL #0AH, R1
000005C6 FB32rrrrrrrr            		MOV.L #_usb_shhub_ClassRequest, R3
000005CC 4B13                    		ADD R1, R3
000005CE A1AB                    		MOV.L R3, 1CH[R2]
000005D0                         L108:	; entry.split8
                                 ;     517     usb_shhub_ControlMess[ptr->ip].segment  = USB_TRAN_END;
                                 		.LINE  "C:\Workspace\e2studio\git\MT01_master\r_usb_basic\src\driver\host\r_usb_hhubsys.c",517
000005D0 A909                    		MOV.L 14H[R0], R1
000005D2 B991                    		MOVU.W 0CH[R1], R1
000005D4 75112C                  		MUL #2CH, R1
000005D7 FBE2rrrrrrrr            		MOV.L #_usb_shhub_ControlMess, R14
000005DD 4B1E                    		ADD R1, R14
000005DF F9E42580                		MOV.B #80H, 25H[R14]
000005E3                         L109:	; entry.split9
                                 ;     518     usb_shhub_ControlMess[ptr->ip].complete = complete;
                                 		.LINE  "C:\Workspace\e2studio\git\MT01_master\r_usb_basic\src\driver\host\r_usb_hhubsys.c",518
000005E3 A909                    		MOV.L 14H[R0], R1
000005E5 B991                    		MOVU.W 0CH[R1], R1
000005E7 75112C                  		MUL #2CH, R1
000005EA FB22rrrrrrrr            		MOV.L #_usb_shhub_ControlMess, R2
000005F0 4B12                    		ADD R1, R2
000005F2 E5020304                		MOV.L 0CH[R0], 10H[R2]
000005F6                         L110:	; entry.split10
                                 ;     519 
                                 ;     520     usb_shhub_ControlMess[ptr->ip].ipp      = ptr->ipp;
                                 		.LINE  "C:\Workspace\e2studio\git\MT01_master\r_usb_basic\src\driver\host\r_usb_hhubsys.c",520
000005F6 A909                    		MOV.L 14H[R0], R1
000005F8 B992                    		MOVU.W 0CH[R1], R2
000005FA 75122C                  		MUL #2CH, R2
000005FD FBE2rrrrrrrr            		MOV.L #_usb_shhub_ControlMess, R14
00000603 4B2E                    		ADD R2, R14
00000605 E51E0202                		MOV.L 08H[R1], 08H[R14]
00000609                         L111:	; entry.split11
                                 ;     521     usb_shhub_ControlMess[ptr->ip].ip       = ptr->ip;
                                 		.LINE  "C:\Workspace\e2studio\git\MT01_master\r_usb_basic\src\driver\host\r_usb_hhubsys.c",521
00000609 A909                    		MOV.L 14H[R0], R1
0000060B B991                    		MOVU.W 0CH[R1], R1
0000060D EF1E                    		MOV.L R1, R14
0000060F 751E2C                  		MUL #2CH, R14
00000612 FB22rrrrrrrr            		MOV.L #_usb_shhub_ControlMess, R2
00000618 4BE2                    		ADD R14, R2
0000061A 91A1                    		MOV.W R1, 0CH[R2]
0000061C                         L112:	; entry.split12
                                 ;     522 
                                 ;     523     /* Transfer start */
                                 ;     524     qerr = R_usb_hstd_TransferStart(&usb_shhub_ControlMess[ptr->ip]);
                                 		.LINE  "C:\Workspace\e2studio\git\MT01_master\r_usb_basic\src\driver\host\r_usb_hhubsys.c",524
0000061C A909                    		MOV.L 14H[R0], R1
0000061E B992                    		MOVU.W 0CH[R1], R2
00000620 75122C                  		MUL #2CH, R2
00000623 FB12rrrrrrrr            		MOV.L #_usb_shhub_ControlMess, R1
00000629 4B21                    		ADD R2, R1
0000062B 05rrrrrr             A  		BSR _R_usb_hstd_TransferStart
0000062F A009                    		MOV.L R1, 04H[R0]
00000631                         L113:	; entry.split13
                                 ;     525     if( USB_E_QOVR == qerr )
                                 		.LINE  "C:\Workspace\e2studio\git\MT01_master\r_usb_basic\src\driver\host\r_usb_hhubsys.c",525
00000631 A809                    		MOV.L 04H[R0], R1
00000633 7501D5                  		CMP #0FFFFFFD5H, R1
00000636 18                   S  		BNE L115
00000637                         L114:	; bb133
                                 ;     526     {
                                 ;     527         return USB_HUB_QOVR;
                                 		.LINE  "C:\Workspace\e2studio\git\MT01_master\r_usb_basic\src\driver\host\r_usb_hhubsys.c",527
00000637 F90901FEFF              		MOV.W #0FFFEH, 02H[R0]
0000063C 08                   S  		BRA L116
0000063D                         L115:	; bb138
                                 ;     528     }
                                 ;     529 
                                 ;     530     return USB_DONE;
                                 		.LINE  "C:\Workspace\e2studio\git\MT01_master\r_usb_basic\src\driver\host\r_usb_hhubsys.c",530
0000063D 3D0100                  		MOV.W #0000H, 02H[R0]
00000640                         L116:	; bb140
00000640 D5000105                		MOV.W 02H[R0], 0AH[R0]
                                 ;     531 }   /* eof R_usb_hhub_GetPortInformation() */
                                 		.LINE  "C:\Workspace\e2studio\git\MT01_master\r_usb_basic\src\driver\host\r_usb_hhubsys.c",531
00000644 B909                    		MOVU.W 0AH[R0], R1
00000646 6706                    		RTSD #18H
00000648                         _R_usb_hhub_get_hub_addr:
                                 		.STACK	_R_usb_hhub_get_hub_addr=20
                                 ;     532 
                                 ;     533 
                                 ;     534 /******************************************************************************
                                 ;     535 Function Name   : R_usb_hhub_get_hub_addr
                                 ;     536 Description     : Get connected Hub address from device address.
                                 ;     537 Argument        : USB_UTR_t *ptr    : IP info (mode, IP no, reg. address).
                                 ;     538                 : uint16_t devadr           : Device address
                                 ;     539 Return          : 1-10:Hub address / USB_ERROR:Device address error or Hub no connect.
                                 ;     540 ******************************************************************************/
                                 ;     541 uint16_t R_usb_hhub_get_hub_addr(USB_UTR_t *ptr, uint16_t devadr)
                                 		.LINE  "C:\Workspace\e2studio\git\MT01_master\r_usb_basic\src\driver\host\r_usb_hhubsys.c",541
00000648 7100F0                  		ADD #0FFFFFFF0H, R0
0000064B A089                    		MOV.L R1, 0CH[R0]
0000064D 910A                    		MOV.W R2, 0AH[R0]
                                 ;     542 {
                                 ;     543     uint16_t ret;
                                 ;     544 
                                 ;     545     /* Device address check */
                                 ;     546     if( ( USB_MAXDEVADDR < devadr ) || ( 0 == devadr ) )
                                 		.LINE  "C:\Workspace\e2studio\git\MT01_master\r_usb_basic\src\driver\host\r_usb_hhubsys.c",546
0000064F B909                    		MOVU.W 0AH[R0], R1
00000651 61A1                    		CMP #0AH, R1
00000653 24rr                    		BGTU L127
00000655 2Err                 B  		BRA L126
00000657                         L118:	; bb4
                                 ;     547     {
                                 ;     548         ret = USB_ERROR;                /* Device address error */
                                 		.LINE  "C:\Workspace\e2studio\git\MT01_master\r_usb_basic\src\driver\host\r_usb_hhubsys.c",548
00000657 F90903FFFF              		MOV.W #0FFFFH, 06H[R0]
0000065C 2Err                 B  		BRA L130
0000065E                         L119:	; bb5
                                 ;     549     }
                                 ;     550     else
                                 ;     551     {
                                 ;     552         /* Set Hub address */
                                 ;     553         ret = usb_shhub_InfoData[ptr->ip][devadr].up_addr;
                                 		.LINE  "C:\Workspace\e2studio\git\MT01_master\r_usb_basic\src\driver\host\r_usb_hhubsys.c",553
0000065E A889                    		MOV.L 0CH[R0], R1
00000660 B991                    		MOVU.W 0CH[R1], R1
00000662 751158                  		MUL #58H, R1
00000665 FBE2rrrrrrrr            		MOV.L #_usb_shhub_InfoData, R14
0000066B 4B1E                    		ADD R1, R14
0000066D B909                    		MOVU.W 0AH[R0], R1
0000066F 6C31                    		SHLL #03H, R1
00000671 4B1E                    		ADD R1, R14
00000673 D4E003                  		MOV.W [R14], 06H[R0]
00000676                         L120:	; bb5.split
                                 ;     554         /* Hub address check */
                                 ;     555         if( ( USB_MAXDEVADDR < ret ) || ( 0 == ret ) )
                                 		.LINE  "C:\Workspace\e2studio\git\MT01_master\r_usb_basic\src\driver\host\r_usb_hhubsys.c",555
00000676 B889                    		MOVU.W 06H[R0], R1
00000678 61A1                    		CMP #0AH, R1
0000067A 24rr                    		BGTU L123
0000067C 08                   S  		BRA L122
0000067D                         L121:	; bb18
                                 ;     556         {
                                 ;     557             ret = USB_ERROR;            /* Hub address error */
                                 		.LINE  "C:\Workspace\e2studio\git\MT01_master\r_usb_basic\src\driver\host\r_usb_hhubsys.c",557
0000067D F90903FFFF              		MOV.W #0FFFFH, 06H[R0]
00000682 2Err                 B  		BRA L130
00000684                         L122:	; bb23
00000684 B889                    		MOVU.W 06H[R0], R1
00000686 6101                    		CMP #00H, R1
00000688 18                   S  		BNE L124
00000689                         L123:	; bb28
00000689 F80601                  		MOV.L #00000001H, [R0]
0000068C 08                   S  		BRA L125
0000068D                         L124:	; bb29
0000068D F80600                  		MOV.L #00000000H, [R0]
00000690                         L125:	; bb30
00000690 EC01                    		MOV.L [R0], R1
00000692 6101                    		CMP #00H, R1
00000694 21rr                    		BNE L121
00000696 2Err                 B  		BRA L130
00000698                         L126:	; bb39
00000698 B909                    		MOVU.W 0AH[R0], R1
0000069A 6101                    		CMP #00H, R1
0000069C 18                   S  		BNE L128
0000069D                         L127:	; bb44
0000069D F80601                  		MOV.L #00000001H, [R0]
000006A0 08                   S  		BRA L129
000006A1                         L128:	; bb45
000006A1 F80600                  		MOV.L #00000000H, [R0]
000006A4                         L129:	; bb46
000006A4 EC01                    		MOV.L [R0], R1
000006A6 6101                    		CMP #00H, R1
000006A8 21rr                    		BNE L118
000006AA 2Err                 B  		BRA L119
000006AC                         L130:	; bb51
                                 ;     558         }
                                 ;     559     }
                                 ;     560 
                                 ;     561     return ret;
                                 		.LINE  "C:\Workspace\e2studio\git\MT01_master\r_usb_basic\src\driver\host\r_usb_hhubsys.c",561
000006AC D5000304                		MOV.W 06H[R0], 08H[R0]
000006B0 9901                    		MOV.W 08H[R0], R1
000006B2                         L131:	; bb51.split
                                 ;     562 } /* eof R_usb_hhub_get_hub_addr */
                                 		.LINE  "C:\Workspace\e2studio\git\MT01_master\r_usb_basic\src\driver\host\r_usb_hhubsys.c",562
000006B2 5F11                    		MOVU.W R1, R1
000006B4 6704                    		RTSD #10H
000006B6                         _R_usb_hhub_get_hub_port_no:
                                 		.STACK	_R_usb_hhub_get_hub_port_no=20
                                 ;     563 
                                 ;     564 /******************************************************************************
                                 ;     565 Function Name   : R_usb_hhub_get_hub_port_no
                                 ;     566 Description     : Get Hub connected port no. from device address.
                                 ;     567 Argument        : USB_UTR_t *ptr    : IP info (mode, IP no, reg. address).
                                 ;     568                 : uint16_t devadr           : Device address
                                 ;     569 Return          : 1-4:Hub port no. / USB_ERROR:Device address error or Hub no connect.
                                 ;     570 ******************************************************************************/
                                 ;     571 uint16_t R_usb_hhub_get_hub_port_no(USB_UTR_t *ptr, uint16_t devadr)
                                 		.LINE  "C:\Workspace\e2studio\git\MT01_master\r_usb_basic\src\driver\host\r_usb_hhubsys.c",571
000006B6 7100F0                  		ADD #0FFFFFFF0H, R0
000006B9 A089                    		MOV.L R1, 0CH[R0]
000006BB 910A                    		MOV.W R2, 0AH[R0]
                                 ;     572 {
                                 ;     573     uint16_t ret;
                                 ;     574 
                                 ;     575     /* Device address check */
                                 ;     576     if( ( USB_MAXDEVADDR < devadr ) || ( 0 == devadr ) )
                                 		.LINE  "C:\Workspace\e2studio\git\MT01_master\r_usb_basic\src\driver\host\r_usb_hhubsys.c",576
000006BD B909                    		MOVU.W 0AH[R0], R1
000006BF 61A1                    		CMP #0AH, R1
000006C1 24rr                    		BGTU L142
000006C3 2Err                 B  		BRA L141
000006C5                         L133:	; bb4
                                 ;     577     {
                                 ;     578         ret = USB_ERROR;                /* Device address error */
                                 		.LINE  "C:\Workspace\e2studio\git\MT01_master\r_usb_basic\src\driver\host\r_usb_hhubsys.c",578
000006C5 F90903FFFF              		MOV.W #0FFFFH, 06H[R0]
000006CA 2Err                 B  		BRA L145
000006CC                         L134:	; bb5
                                 ;     579     }
                                 ;     580     else
                                 ;     581     {
                                 ;     582         /* Set Hub port no */
                                 ;     583         ret = usb_shhub_InfoData[ptr->ip][devadr].up_port_num;
                                 		.LINE  "C:\Workspace\e2studio\git\MT01_master\r_usb_basic\src\driver\host\r_usb_hhubsys.c",583
000006CC A889                    		MOV.L 0CH[R0], R1
000006CE B991                    		MOVU.W 0CH[R1], R1
000006D0 751158                  		MUL #58H, R1
000006D3 FB22rrrrrrrr            		MOV.L #_usb_shhub_InfoData, R2
000006D9 4B12                    		ADD R1, R2
000006DB B909                    		MOVU.W 0AH[R0], R1
000006DD 6C31                    		SHLL #03H, R1
000006DF 4B12                    		ADD R1, R2
000006E1 D5200103                		MOV.W 02H[R2], 06H[R0]
000006E5                         L135:	; bb5.split
                                 ;     584         /* Hub port no check */
                                 ;     585         if( ( USB_HUBDOWNPORT < ret ) || ( 0 == ret ) )
                                 		.LINE  "C:\Workspace\e2studio\git\MT01_master\r_usb_basic\src\driver\host\r_usb_hhubsys.c",585
000006E5 B889                    		MOVU.W 06H[R0], R1
000006E7 6141                    		CMP #04H, R1
000006E9 24rr                    		BGTU L138
000006EB 08                   S  		BRA L137
000006EC                         L136:	; bb18
                                 ;     586         {
                                 ;     587             ret = USB_ERROR;            /* Hub port no error */
                                 		.LINE  "C:\Workspace\e2studio\git\MT01_master\r_usb_basic\src\driver\host\r_usb_hhubsys.c",587
000006EC F90903FFFF              		MOV.W #0FFFFH, 06H[R0]
000006F1 2Err                 B  		BRA L145
000006F3                         L137:	; bb23
000006F3 B889                    		MOVU.W 06H[R0], R1
000006F5 6101                    		CMP #00H, R1
000006F7 18                   S  		BNE L139
000006F8                         L138:	; bb28
000006F8 F80601                  		MOV.L #00000001H, [R0]
000006FB 08                   S  		BRA L140
000006FC                         L139:	; bb29
000006FC F80600                  		MOV.L #00000000H, [R0]
000006FF                         L140:	; bb30
000006FF EC01                    		MOV.L [R0], R1
00000701 6101                    		CMP #00H, R1
00000703 21rr                    		BNE L136
00000705 2Err                 B  		BRA L145
00000707                         L141:	; bb39
00000707 B909                    		MOVU.W 0AH[R0], R1
00000709 6101                    		CMP #00H, R1
0000070B 18                   S  		BNE L143
0000070C                         L142:	; bb44
0000070C F80601                  		MOV.L #00000001H, [R0]
0000070F 08                   S  		BRA L144
00000710                         L143:	; bb45
00000710 F80600                  		MOV.L #00000000H, [R0]
00000713                         L144:	; bb46
00000713 EC01                    		MOV.L [R0], R1
00000715 6101                    		CMP #00H, R1
00000717 21rr                    		BNE L133
00000719 2Err                 B  		BRA L134
0000071B                         L145:	; bb51
                                 ;     588         }
                                 ;     589     }
                                 ;     590 
                                 ;     591     return ret;
                                 		.LINE  "C:\Workspace\e2studio\git\MT01_master\r_usb_basic\src\driver\host\r_usb_hhubsys.c",591
0000071B D5000304                		MOV.W 06H[R0], 08H[R0]
0000071F 9901                    		MOV.W 08H[R0], R1
00000721                         L146:	; bb51.split
                                 ;     592 } /* eof R_usb_hhub_get_hub_port_no */
                                 		.LINE  "C:\Workspace\e2studio\git\MT01_master\r_usb_basic\src\driver\host\r_usb_hhubsys.c",592
00000721 5F11                    		MOVU.W R1, R1
00000723 6704                    		RTSD #10H
00000725                         _R_usb_hhub_chk_connect_status:
                                 		.STACK	_R_usb_hhub_chk_connect_status=20
                                 ;     593 
                                 ;     594 /******************************************************************************
                                 ;     595 Function Name   : R_usb_hhub_chk_connect_status
                                 ;     596 Description     : Device connect check of after GET_STATUS(Get Port Status) complete.
                                 ;     597 Argument        : USB_UTR_t *ptr    : IP info (mode, IP no, reg. address).
                                 ;     598                 : uint16_t hub_adr          : Hub address
                                 ;     599 Return          : USB_DEV_NO_CONNECT:No device is present.
                                 ;     600                 : USB_DEV_CONNECTED:A device is present on this port.
                                 ;     601                 : USB_ERROR: Hub address error.
                                 ;     602 ******************************************************************************/
                                 ;     603 uint16_t R_usb_hhub_chk_connect_status(USB_UTR_t *ptr, uint16_t hub_adr)
                                 		.LINE  "C:\Workspace\e2studio\git\MT01_master\r_usb_basic\src\driver\host\r_usb_hhubsys.c",603
00000725 7100F0                  		ADD #0FFFFFFF0H, R0
00000728 A089                    		MOV.L R1, 0CH[R0]
0000072A 910A                    		MOV.W R2, 0AH[R0]
                                 ;     604 {
                                 ;     605     uint16_t ret;
                                 ;     606 
                                 ;     607     /* Hub address check */
                                 ;     608     if( ( USB_MAXDEVADDR < hub_adr ) || ( 0 == hub_adr ) )
                                 		.LINE  "C:\Workspace\e2studio\git\MT01_master\r_usb_basic\src\driver\host\r_usb_hhubsys.c",608
0000072C B909                    		MOVU.W 0AH[R0], R1
0000072E 61A1                    		CMP #0AH, R1
00000730 24rr                    		BGTU L153
00000732 2Err                 B  		BRA L152
00000734                         L148:	; bb4
                                 ;     609     {
                                 ;     610         ret = USB_ERROR;                /* Hub address error */
                                 		.LINE  "C:\Workspace\e2studio\git\MT01_master\r_usb_basic\src\driver\host\r_usb_hhubsys.c",610
00000734 F90903FFFF              		MOV.W #0FFFFH, 06H[R0]
00000739 2Err                 B  		BRA L156
0000073B                         L149:	; bb6
                                 ;     611     }
                                 ;     612     else
                                 ;     613     {
                                 ;     614         /* Port Status : Current Connect Status */
                                 ;     615         if( usb_ghhub_Data[ptr->ip][hub_adr][0] & USB_BIT0 )
                                 		.LINE  "C:\Workspace\e2studio\git\MT01_master\r_usb_basic\src\driver\host\r_usb_hhubsys.c",615
0000073B A889                    		MOV.L 0CH[R0], R1
0000073D B991                    		MOVU.W 0CH[R1], R1
0000073F 751158                  		MUL #58H, R1
00000742 FBE2rrrrrrrr            		MOV.L #_usb_ghhub_Data, R14
00000748 4B1E                    		ADD R1, R14
0000074A B909                    		MOVU.W 0AH[R0], R1
0000074C 6C31                    		SHLL #03H, R1
0000074E FECE1E                  		MOVU.B [R14,R1], R14
00000751 7C0E                    		BTST #00H, R14
00000753 10                   S  		BEQ L151
00000754                         L150:	; bb7
                                 ;     616         {
                                 ;     617             ret = USB_DEV_CONNECTED;    /* A device is present on this port. */
                                 		.LINE  "C:\Workspace\e2studio\git\MT01_master\r_usb_basic\src\driver\host\r_usb_hhubsys.c",617
00000754 3D0301                  		MOV.W #0001H, 06H[R0]
00000757 2Err                 B  		BRA L156
00000759                         L151:	; bb8
                                 ;     618         }
                                 ;     619         else
                                 ;     620         {
                                 ;     621             ret = USB_DEV_NO_CONNECT;   /* No device is present. */
                                 		.LINE  "C:\Workspace\e2studio\git\MT01_master\r_usb_basic\src\driver\host\r_usb_hhubsys.c",621
00000759 3D0300                  		MOV.W #0000H, 06H[R0]
0000075C 2Err                 B  		BRA L156
0000075E                         L152:	; bb30
0000075E B909                    		MOVU.W 0AH[R0], R1
00000760 6101                    		CMP #00H, R1
00000762 18                   S  		BNE L154
00000763                         L153:	; bb35
00000763 F80601                  		MOV.L #00000001H, [R0]
00000766 08                   S  		BRA L155
00000767                         L154:	; bb36
00000767 F80600                  		MOV.L #00000000H, [R0]
0000076A                         L155:	; bb37
0000076A EC01                    		MOV.L [R0], R1
0000076C 6101                    		CMP #00H, R1
0000076E 21rr                    		BNE L148
00000770 2Err                 B  		BRA L149
00000772                         L156:	; bb42
                                 ;     622         }
                                 ;     623     }
                                 ;     624 
                                 ;     625     return ret;
                                 		.LINE  "C:\Workspace\e2studio\git\MT01_master\r_usb_basic\src\driver\host\r_usb_hhubsys.c",625
00000772 D5000304                		MOV.W 06H[R0], 08H[R0]
00000776 9901                    		MOV.W 08H[R0], R1
00000778                         L157:	; bb42.split
                                 ;     626 } /* eof R_usb_hhub_chk_connect_status */
                                 		.LINE  "C:\Workspace\e2studio\git\MT01_master\r_usb_basic\src\driver\host\r_usb_hhubsys.c",626
00000778 5F11                    		MOVU.W R1, R1
0000077A 6704                    		RTSD #10H
0000077C                         _usb_hhub_Task:
                                 		.STACK	_usb_hhub_Task=16
                                 ;     627 
                                 ;     628 
                                 ;     629 /******************************************************************************
                                 ;     630 Renesas Abstracted Hub Driver functions
                                 ;     631 ******************************************************************************/
                                 ;     632 
                                 ;     633 /******************************************************************************
                                 ;     634 Function Name   : usb_hhub_Task
                                 ;     635 Description     : HUB task
                                 ;     636 Arguments       : USB_VP_INT stacd          : Start Code of Hub Task
                                 ;     637 Return value    : none
                                 ;     638 ******************************************************************************/
                                 ;     639 void usb_hhub_Task(USB_VP_INT stacd)
                                 		.LINE  "C:\Workspace\e2studio\git\MT01_master\r_usb_basic\src\driver\host\r_usb_hhubsys.c",639
0000077C 60C0                    		SUB #0CH, R0
0000077E A081                    		MOV.L R1, 08H[R0]
00000780 38rrrr               W  		BRA L174
00000783                         L159:	; bb11
                                 ;     640 {
                                 ;     641     USB_UTR_t       *mess;
                                 ;     642     USB_ER_t        err;
                                 ;     643 /* Condition compilation by the difference of the devices */
                                 ;     644 #if USB_PORTSEL_PP == USB_2PORT_PP
                                 ;     645     uint16_t        elseport;
                                 ;     646 #endif  /* USB_PORTSEL_PP == USB_2PORT_PP */
                                 ;     647 #ifdef FREE_RTOS_PP
                                 ;     648     for( ;; )
                                 ;     649 	{
                                 ;     650 #endif
                                 ;     651     /* Receive message */
                                 ;     652     err = USB_TRCV_MSG(USB_HUB_MBX, (USB_MSG_t**)&mess, (USB_TM_t)0);
                                 ;     653     if( USB_OK != err )
                                 ;     654     {
                                 ;     655 #ifdef FREE_RTOS_PP
                                 ;     656 		continue;
                                 ;     657 #else
                                 ;     658         return;
                                 ;     659 #endif
                                 ;     660     }
                                 ;     661 
                                 ;     662     switch( mess->msginfo )
                                 		.LINE  "C:\Workspace\e2studio\git\MT01_master\r_usb_basic\src\driver\host\r_usb_hhubsys.c",662
00000783 EC01                    		MOV.L [R0], R1
00000785 B891                    		MOVU.W 04H[R1], R1
00000787 76013501                		CMP #0135H, R1
0000078B 20rr                    		BEQ L170
0000078D                         L160:	; bb11
0000078D 76013601                		CMP #0136H, R1
00000791 20rr                    		BEQ L171
00000793                         L161:	; bb11
00000793 76013701                		CMP #0137H, R1
00000797 20rr                    		BEQ L172
00000799                         L162:	; bb11
00000799 76010402                		CMP #0204H, R1
0000079D 20rr                    		BEQ L168
0000079F                         L163:	; bb11
0000079F 76010202                		CMP #0202H, R1
000007A3 20rr                    		BEQ L167
000007A5                         L164:	; bb11
000007A5 76010102                		CMP #0201H, R1
000007A9 21rr                    		BNE L173
000007AB                         L165:	; bb16
                                 ;     663     {
                                 ;     664     case USB_MSG_CLS_CHECKREQUEST:
                                 ;     665         /* USB HUB Class Enumeration */
                                 ;     666         usb_hhub_enumeration((USB_CLSINFO_t *) mess);
                                 		.LINE  "C:\Workspace\e2studio\git\MT01_master\r_usb_basic\src\driver\host\r_usb_hhubsys.c",666
000007AB EC01                    		MOV.L [R0], R1
000007AD 39rrrr               W  		BSR __$usb_hhub_enumeration
000007B0                         L166:	; bb16.split
                                 ;     667         err = USB_REL_BLK(USB_HUB_MPL,(USB_MH_t)mess);
                                 		.LINE  "C:\Workspace\e2studio\git\MT01_master\r_usb_basic\src\driver\host\r_usb_hhubsys.c",667
000007B0 EC02                    		MOV.L [R0], R2
000007B2 6631                    		MOV.L #00000003H, R1
000007B4 05rrrrrr             A  		BSR _usb_cstd_RelBlk
000007B8 A009                    		MOV.L R1, 04H[R0]
000007BA 2Err                 B  		BRA L174
000007BC                         L167:	; bb29
                                 ;     668         if( USB_OK != err )
                                 ;     669         {
                                 ;     670             /* Release Memoryblock failure */
                                 ;     671             USB_PRINTF0("### USB HUB Task rel_blk error\n");
                                 ;     672         }
                                 ;     673         break;
                                 ;     674 
                                 ;     675     case USB_MSG_CLS_INIT:
                                 ;     676         /* Down port initialize */
                                 ;     677         usb_hhub_InitDownPort(mess, (uint16_t)0, (USB_CLSINFO_t *)mess);
                                 		.LINE  "C:\Workspace\e2studio\git\MT01_master\r_usb_basic\src\driver\host\r_usb_hhubsys.c",677
000007BC EC01                    		MOV.L [R0], R1
000007BE 6602                    		MOV.L #00000000H, R2
000007C0 EF13                    		MOV.L R1, R3
000007C2 39rrrr               W  		BSR __$usb_hhub_InitDownPort
000007C5 2Err                 B  		BRA L174
000007C7                         L168:	; bb32
                                 ;     678         break;
                                 ;     679     /* Enumeration waiting of other device */
                                 ;     680     case USB_MSG_CLS_WAIT:
                                 ;     681 /* Condition compilation by the difference of the devices */
                                 ;     682 #if USB_PORTSEL_PP == USB_2PORT_PP
                                 ;     683         elseport = 0;
                                 ;     684         if( 0 == mess->keyword )
                                 ;     685         {
                                 ;     686             elseport = 1;
                                 ;     687         }
                                 ;     688         if( usb_ghstd_MgrMode[mess->ip][elseport] != USB_DEFAULT )
                                 ;     689         {
                                 ;     690             mess->msginfo = USB_MSG_MGR_AORDETACH;
                                 ;     691             err = USB_SND_MSG( USB_MGR_MBX, (USB_MSG_t*)mess );
                                 ;     692             if( USB_OK != err )
                                 ;     693             {
                                 ;     694                 /* Send Message failure */
                                 ;     695                 USB_PRINTF0("### USB HUB enuwait snd_msg error\n");
                                 ;     696             }
                                 ;     697         }
                                 ;     698         else
                                 ;     699         {
                                 ;     700             err = USB_SND_MSG(USB_HUB_MBX, (USB_MSG_t*)mess);
                                 ;     701             if( USB_OK != err )
                                 ;     702             {
                                 ;     703                 /* Send Message failure */
                                 ;     704                 USB_PRINTF0("### USB HUB enuwait snd_msg error\n");
                                 ;     705             }
                                 ;     706         }
                                 ;     707 #else   /* USB_PORTSEL_PP == USB_2PORT_PP */
                                 ;     708         mess->msginfo = USB_MSG_MGR_AORDETACH;
                                 		.LINE  "C:\Workspace\e2studio\git\MT01_master\r_usb_basic\src\driver\host\r_usb_hhubsys.c",708
000007C7 EC01                    		MOV.L [R0], R1
000007C9 F919022101              		MOV.W #0121H, 04H[R1]
000007CE                         L169:	; bb32.split
                                 ;     709         err = USB_SND_MSG( USB_MGR_MBX, (USB_MSG_t*)mess );
                                 		.LINE  "C:\Workspace\e2studio\git\MT01_master\r_usb_basic\src\driver\host\r_usb_hhubsys.c",709
000007CE EC02                    		MOV.L [R0], R2
000007D0 6621                    		MOV.L #00000002H, R1
000007D2 05rrrrrr             A  		BSR _usb_cstd_SndMsg
000007D6 A009                    		MOV.L R1, 04H[R0]
000007D8 2Err                 B  		BRA L174
000007DA                         L170:	; bb45
                                 ;     710         if( USB_OK != err )
                                 ;     711         {
                                 ;     712             /* Send Message failure */
                                 ;     713             USB_PRINTF0("### USB HUB enuwait snd_msg error\n");
                                 ;     714         }
                                 ;     715 #endif  /* USB_PORTSEL_PP == USB_2PORT_PP */
                                 ;     716         break;
                                 ;     717 
                                 ;     718     case USB_MSG_HUB_EVENT:
                                 ;     719         usb_hhub_event((USB_CLSINFO_t *) mess);
                                 		.LINE  "C:\Workspace\e2studio\git\MT01_master\r_usb_basic\src\driver\host\r_usb_hhubsys.c",719
000007DA EC01                    		MOV.L [R0], R1
000007DC 39rrrr               W  		BSR __$usb_hhub_event
000007DF 2Err                 B  		BRA L174
000007E1                         L171:	; bb47
                                 ;     720         break;
                                 ;     721 
                                 ;     722     case USB_MSG_HUB_ATTACH:
                                 ;     723         /* Hub Port attach */
                                 ;     724         usb_hhub_PortAttach((uint16_t)0, (uint16_t)0, (USB_CLSINFO_t *) mess);
                                 		.LINE  "C:\Workspace\e2studio\git\MT01_master\r_usb_basic\src\driver\host\r_usb_hhubsys.c",724
000007E1 EC03                    		MOV.L [R0], R3
000007E3 6601                    		MOV.L #00000000H, R1
000007E5 EF12                    		MOV.L R1, R2
000007E7 39rrrr               W  		BSR __$usb_hhub_PortAttach
000007EA 2Err                 B  		BRA L174
000007EC                         L172:	; bb50
                                 ;     725         break;
                                 ;     726 
                                 ;     727     case USB_MSG_HUB_RESET:
                                 ;     728         /* Hub Reset */
                                 ;     729         usb_hhub_port_reset(mess, (uint16_t)0, (uint16_t)0, (USB_CLSINFO_t *) mess);
                                 		.LINE  "C:\Workspace\e2studio\git\MT01_master\r_usb_basic\src\driver\host\r_usb_hhubsys.c",729
000007EC EC01                    		MOV.L [R0], R1
000007EE 6602                    		MOV.L #00000000H, R2
000007F0 EF23                    		MOV.L R2, R3
000007F2 EF14                    		MOV.L R1, R4
000007F4 39rrrr               W  		BSR __$usb_hhub_port_reset
000007F7 2Err                 B  		BRA L174
000007F9                         L173:	; bb53
                                 ;     730         break;
                                 ;     731 
                                 ;     732     default:
                                 ;     733         err = USB_REL_BLK(USB_HUB_MPL,(USB_MH_t)mess);
                                 		.LINE  "C:\Workspace\e2studio\git\MT01_master\r_usb_basic\src\driver\host\r_usb_hhubsys.c",733
000007F9 EC02                    		MOV.L [R0], R2
000007FB 6631                    		MOV.L #00000003H, R1
000007FD 05rrrrrr             A  		BSR _usb_cstd_RelBlk
00000801 A009                    		MOV.L R1, 04H[R0]
00000803                         L174:	; bb67.split
00000803 6603                    		MOV.L #00000000H, R3
00000805 EF02                    		MOV.L R0, R2
00000807 6631                    		MOV.L #00000003H, R1
                                 		.LINE  "C:\Workspace\e2studio\git\MT01_master\r_usb_basic\src\driver\host\r_usb_hhubsys.c",652
00000809 05rrrrrr             A  		BSR _usb_cstd_RecMsg
0000080D A009                    		MOV.L R1, 04H[R0]
0000080F                         L175:	; bb67.split3
                                 		.LINE  "C:\Workspace\e2studio\git\MT01_master\r_usb_basic\src\driver\host\r_usb_hhubsys.c",653
0000080F A809                    		MOV.L 04H[R0], R1
00000811 6101                    		CMP #00H, R1
00000813 21rr                    		BNE L174
00000815 38rrrr               W  		BRA L159
00000818                         __$usb_hhub_enumeration:
                                 		.STACK	__$usb_hhub_enumeration=52
                                 ;     734         if( USB_OK != err )
                                 ;     735         {
                                 ;     736             USB_PRINTF0("### USB HUB rel_blk error\n");
                                 ;     737         }
                                 ;     738         break;
                                 ;     739     }
                                 ;     740 #ifdef FREE_RTOS_PP
                                 ;     741 	}
                                 ;     742 #endif
                                 ;     743 }   /* eof usb_hhub_Task() */
                                 ;     744 
                                 ;     745 
                                 ;     746 /******************************************************************************
                                 ;     747 Function Name   : usb_hhub_enumeration
                                 ;     748 Description     : USB HUB Class Enumeration
                                 ;     749 Arguments       : USB_CLSINFO_t *ptr    : USB system internal message.
                                 ;     750 Return value    : none
                                 ;     751 ******************************************************************************/
                                 ;     752 void usb_hhub_enumeration(USB_CLSINFO_t *ptr)
                                 		.LINE  "C:\Workspace\e2studio\git\MT01_master\r_usb_basic\src\driver\host\r_usb_hhubsys.c",752
00000818 7100D4                  		ADD #0FFFFFFD4H, R0
0000081B A281                    		MOV.L R1, 28H[R0]
                                 ;     753 {
                                 ;     754 /* Condition compilation by the difference of useful function */
                                 ;     755 #if defined(USB_DEBUGUART_PP) || defined(USB_DEBUGPRINT_PP)
                                 ;     756     uint8_t     pdata[32];
                                 ;     757     uint16_t    j;
                                 ;     758 #endif  /* USB_DEBUGUART_PP || USB_DEBUGPRINT_PP */
                                 ;     759     uint16_t    checkerr,retval;
                                 ;     760     uint8_t     string;
                                 ;     761     uint16_t    *table[8];
                                 ;     762 
                                 ;     763     checkerr = ptr->result;
                                 		.LINE  "C:\Workspace\e2studio\git\MT01_master\r_usb_basic\src\driver\host\r_usb_hhubsys.c",763
0000081D D5100701                		MOV.W 0EH[R1], 02H[R0]
00000821                         L177:	; entry.split
                                 ;     764     table[0] = (uint16_t*)usb_shhub_DeviceTable[ptr->ip];
                                 		.LINE  "C:\Workspace\e2studio\git\MT01_master\r_usb_basic\src\driver\host\r_usb_hhubsys.c",764
00000821 AA81                    		MOV.L 28H[R0], R1
00000823 B991                    		MOVU.W 0CH[R1], R1
00000825 FBE2rrrrrrrr            		MOV.L #_usb_shhub_DeviceTable, R14
0000082B FE61E1                  		MOV.L [R1,R14], R1
0000082E A081                    		MOV.L R1, 08H[R0]
00000830                         L178:	; entry.split1
                                 ;     765     table[1] = (uint16_t*)usb_shhub_ConfigTable[ptr->ip];
                                 		.LINE  "C:\Workspace\e2studio\git\MT01_master\r_usb_basic\src\driver\host\r_usb_hhubsys.c",765
00000830 AA81                    		MOV.L 28H[R0], R1
00000832 B991                    		MOVU.W 0CH[R1], R1
00000834 FBE2rrrrrrrr            		MOV.L #_usb_shhub_ConfigTable, R14
0000083A FE61E1                  		MOV.L [R1,R14], R1
0000083D A089                    		MOV.L R1, 0CH[R0]
0000083F                         L179:	; entry.split2
                                 ;     766     table[2] = (uint16_t*)usb_shhub_InterfaceTable[ptr->ip];
                                 		.LINE  "C:\Workspace\e2studio\git\MT01_master\r_usb_basic\src\driver\host\r_usb_hhubsys.c",766
0000083F AA81                    		MOV.L 28H[R0], R1
00000841 B991                    		MOVU.W 0CH[R1], R1
00000843 FBE2rrrrrrrr            		MOV.L #_usb_shhub_InterfaceTable, R14
00000849 FE61E1                  		MOV.L [R1,R14], R1
0000084C A101                    		MOV.L R1, 10H[R0]
0000084E                         L180:	; entry.split3
                                 ;     767 
                                 ;     768     /* Manager Mode Change */
                                 ;     769     switch( usb_shhub_ClassSeq[ptr->ip] )
                                 		.LINE  "C:\Workspace\e2studio\git\MT01_master\r_usb_basic\src\driver\host\r_usb_hhubsys.c",769
0000084E AA81                    		MOV.L 28H[R0], R1
00000850 B991                    		MOVU.W 0CH[R1], R1
00000852 FBE2rrrrrrrr            		MOV.L #_usb_shhub_ClassSeq, R14
00000858 FED1EE                  		MOVU.W [R1,R14], R14
0000085B 615E                    		CMP #05H, R14
0000085D 3Arrrr               W  		BEQ L219
00000860                         L181:	; entry.split3
00000860 611E                    		CMP #01H, R14
00000862 3Arrrr               W  		BEQ L195
00000865                         L182:	; entry.split3
00000865 612E                    		CMP #02H, R14
00000867 3Arrrr               W  		BEQ L203
0000086A                         L183:	; entry.split3
0000086A 613E                    		CMP #03H, R14
0000086C 3Arrrr               W  		BEQ L206
0000086F                         L184:	; entry.split3
0000086F 614E                    		CMP #04H, R14
00000871 3Arrrr               W  		BEQ L216
00000874                         L185:	; entry.split3
00000874 610E                    		CMP #00H, R14
00000876 3Brrrr               W  		BNE L251
00000879                         L186:	; bb
                                 ;     770     {
                                 ;     771     case USB_SEQ_0:
                                 ;     772         checkerr = USB_DONE;
                                 		.LINE  "C:\Workspace\e2studio\git\MT01_master\r_usb_basic\src\driver\host\r_usb_hhubsys.c",772
00000879 3D0100                  		MOV.W #0000H, 02H[R0]
0000087C                         L187:	; bb.split
                                 ;     773         /* Descriptor check */
                                 ;     774         retval = usb_hhub_ChkConfig((uint16_t**)&table, (uint16_t)usb_shhub_Spec[ptr->ip]);
                                 		.LINE  "C:\Workspace\e2studio\git\MT01_master\r_usb_basic\src\driver\host\r_usb_hhubsys.c",774
0000087C AA81                    		MOV.L 28H[R0], R1
0000087E B991                    		MOVU.W 0CH[R1], R1
00000880 FBE2rrrrrrrr            		MOV.L #_usb_shhub_Spec, R14
00000886 FED1E2                  		MOVU.W [R1,R14], R2
00000889 710108                  		ADD #08H, R0, R1
0000088C 39rrrr               W  		BSR __$usb_hhub_ChkConfig
0000088F 9081                    		MOV.W R1, 04H[R0]
00000891                         L188:	; bb.split4
                                 ;     775         if( USB_ERROR == retval )
                                 		.LINE  "C:\Workspace\e2studio\git\MT01_master\r_usb_basic\src\driver\host\r_usb_hhubsys.c",775
00000891 B881                    		MOVU.W 04H[R0], R1
00000893 7701FFFF00              		CMP #0FFFFH, R1
00000898 18                   S  		BNE L190
00000899                         L189:	; bb51
                                 ;     776         {
                                 ;     777             USB_PRINTF0("### Configuration descriptor error !\n");
                                 ;     778             checkerr = USB_ERROR;
                                 		.LINE  "C:\Workspace\e2studio\git\MT01_master\r_usb_basic\src\driver\host\r_usb_hhubsys.c",778
00000899 F90901FFFF              		MOV.W #0FFFFH, 02H[R0]
0000089E 38rrrr               W  		BRA L251
000008A1                         L190:	; bb57
                                 ;     779             break;
                                 ;     780         }
                                 ;     781         /* Interface Descriptor check */
                                 ;     782         retval = usb_hhub_ChkInterface((uint16_t**)&table, (uint16_t)usb_shhub_Spec[ptr->ip]);
                                 		.LINE  "C:\Workspace\e2studio\git\MT01_master\r_usb_basic\src\driver\host\r_usb_hhubsys.c",782
000008A1 AA81                    		MOV.L 28H[R0], R1
000008A3 B991                    		MOVU.W 0CH[R1], R1
000008A5 FBE2rrrrrrrr            		MOV.L #_usb_shhub_Spec, R14
000008AB FED1E2                  		MOVU.W [R1,R14], R2
000008AE 710108                  		ADD #08H, R0, R1
000008B1 39rrrr               W  		BSR __$usb_hhub_ChkInterface
000008B4 9081                    		MOV.W R1, 04H[R0]
000008B6                         L191:	; bb57.split
                                 ;     783         if( USB_ERROR == retval )
                                 		.LINE  "C:\Workspace\e2studio\git\MT01_master\r_usb_basic\src\driver\host\r_usb_hhubsys.c",783
000008B6 B881                    		MOVU.W 04H[R0], R1
000008B8 7701FFFF00              		CMP #0FFFFH, R1
000008BD 18                   S  		BNE L193
000008BE                         L192:	; bb67
                                 ;     784         {
                                 ;     785             USB_PRINTF0("### Interface descriptor error !\n");
                                 ;     786             checkerr = USB_ERROR;
                                 		.LINE  "C:\Workspace\e2studio\git\MT01_master\r_usb_basic\src\driver\host\r_usb_hhubsys.c",786
000008BE F90901FFFF              		MOV.W #0FFFFH, 02H[R0]
000008C3 38rrrr               W  		BRA L251
000008C6                         L193:	; bb74
                                 ;     787             break;
                                 ;     788         }
                                 ;     789 
                                 ;     790         /* String descriptor */
                                 ;     791         usb_shhub_Process[ptr->ip] = USB_MSG_CLS_CHECKREQUEST;
                                 		.LINE  "C:\Workspace\e2studio\git\MT01_master\r_usb_basic\src\driver\host\r_usb_hhubsys.c",791
000008C6 AA81                    		MOV.L 28H[R0], R1
000008C8 B991                    		MOVU.W 0CH[R1], R1
000008CA FBE2rrrrrrrr            		MOV.L #_usb_shhub_Process, R14
000008D0 FBFA0102                		MOV.L #00000201H, R15
000008D4 FE11EF                  		MOV.W R15, [R1,R14]
000008D7                         L194:	; bb74.split
                                 ;     792         usb_hstd_GetStringDescriptor1( ptr, usb_shhub_DevAddr[ptr->ip], (uint16_t)15,
                                 		.LINE  "C:\Workspace\e2studio\git\MT01_master\r_usb_basic\src\driver\host\r_usb_hhubsys.c",792
000008D7 AA81                    		MOV.L 28H[R0], R1
000008D9 B992                    		MOVU.W 0CH[R1], R2
000008DB FBE2rrrrrrrr            		MOV.L #_usb_shhub_DevAddr, R14
000008E1 FED2E2                  		MOVU.W [R2,R14], R2
000008E4 FB42rrrrrrrr            		MOV.L #__$usb_hhub_class_request_complete, R4
000008EA 66F3                    		MOV.L #0000000FH, R3
000008EC 39rrrr               W  		BSR _usb_hstd_GetStringDescriptor1
000008EF 38rrrr               W  		BRA L251
000008F2                         L195:	; bb88
                                 ;     793                                        (USB_CB_t)&usb_hhub_class_request_complete);
                                 ;     794         break;
                                 ;     795 
                                 ;     796     case USB_SEQ_1:
                                 ;     797         /* String descriptor check */
                                 ;     798         retval = usb_hstd_GetStringDescriptor1Check(checkerr);
                                 		.LINE  "C:\Workspace\e2studio\git\MT01_master\r_usb_basic\src\driver\host\r_usb_hhubsys.c",798
000008F2 B809                    		MOVU.W 02H[R0], R1
000008F4 39rrrr               W  		BSR _usb_hstd_GetStringDescriptor1Check
000008F7 9081                    		MOV.W R1, 04H[R0]
000008F9                         L196:	; bb88.split
                                 ;     799         if( USB_DONE == retval )
                                 		.LINE  "C:\Workspace\e2studio\git\MT01_master\r_usb_basic\src\driver\host\r_usb_hhubsys.c",799
000008F9 B881                    		MOVU.W 04H[R0], R1
000008FB 6101                    		CMP #00H, R1
000008FD AA81                    		MOV.L 28H[R0], R1
000008FF B991                    		MOVU.W 0CH[R1], R1
00000901 21rr                    		BNE L200
00000903                         L197:	; bb92
                                 ;     800         {
                                 ;     801             string = usb_shhub_DeviceTable[ptr->ip][15];
                                 		.LINE  "C:\Workspace\e2studio\git\MT01_master\r_usb_basic\src\driver\host\r_usb_hhubsys.c",801
00000903 FBE2rrrrrrrr            		MOV.L #_usb_shhub_DeviceTable, R14
00000909 FE61E1                  		MOV.L [R1,R14], R1
0000090C C5100F07                		MOV.B 0FH[R1], 07H[R0]
00000910                         L198:	; bb92.split
                                 ;     802             /* String descriptor */
                                 ;     803             usb_shhub_Process[ptr->ip] = USB_MSG_CLS_CHECKREQUEST;
                                 		.LINE  "C:\Workspace\e2studio\git\MT01_master\r_usb_basic\src\driver\host\r_usb_hhubsys.c",803
00000910 AA81                    		MOV.L 28H[R0], R1
00000912 B991                    		MOVU.W 0CH[R1], R1
00000914 FBE2rrrrrrrr            		MOV.L #_usb_shhub_Process, R14
0000091A FBFA0102                		MOV.L #00000201H, R15
0000091E FE11EF                  		MOV.W R15, [R1,R14]
00000921                         L199:	; bb92.split5
                                 ;     804             usb_hstd_GetStringDescriptor2( ptr, usb_shhub_DevAddr[ptr->ip], (uint16_t)string,
                                 		.LINE  "C:\Workspace\e2studio\git\MT01_master\r_usb_basic\src\driver\host\r_usb_hhubsys.c",804
00000921 AA81                    		MOV.L 28H[R0], R1
00000923 B992                    		MOVU.W 0CH[R1], R2
00000925 FBE2rrrrrrrr            		MOV.L #_usb_shhub_DevAddr, R14
0000092B FED2E2                  		MOVU.W [R2,R14], R2
0000092E B18B                    		MOVU.B 07H[R0], R3
00000930 FB42rrrrrrrr            		MOV.L #__$usb_hhub_class_request_complete, R4
00000936 39rrrr               W  		BSR _usb_hstd_GetStringDescriptor2
00000939 38rrrr               W  		BRA L251
0000093C                         L200:	; bb116
                                 ;     805                                            (USB_CB_t)&usb_hhub_class_request_complete);
                                 ;     806         }
                                 ;     807         else
                                 ;     808         {
                                 ;     809             /* If USB_ERROR, Go case 3 (checkerr==USB_ERROR) */
                                 ;     810             usb_shhub_ClassSeq[ptr->ip] = USB_SEQ_2;
                                 		.LINE  "C:\Workspace\e2studio\git\MT01_master\r_usb_basic\src\driver\host\r_usb_hhubsys.c",810
0000093C FBE2rrrrrrrr            		MOV.L #_usb_shhub_ClassSeq, R14
00000942 662F                    		MOV.L #00000002H, R15
00000944 FE11EF                  		MOV.W R15, [R1,R14]
00000947                         L201:	; bb116.split
                                 ;     811             /* Next sequence */
                                 ;     812             usb_hhub_CheckRequest(ptr, USB_ERROR);
                                 		.LINE  "C:\Workspace\e2studio\git\MT01_master\r_usb_basic\src\driver\host\r_usb_hhubsys.c",812
00000947 AA81                    		MOV.L 28H[R0], R1
00000949 FB2EFFFF00              		MOV.L #0000FFFFH, R2
0000094E 39rrrr               W  		BSR __$usb_hhub_CheckRequest
00000951                         L202:	; bb116.split6
                                 ;     813             checkerr = USB_DONE;
                                 		.LINE  "C:\Workspace\e2studio\git\MT01_master\r_usb_basic\src\driver\host\r_usb_hhubsys.c",813
00000951 3D0100                  		MOV.W #0000H, 02H[R0]
00000954 38rrrr               W  		BRA L251
00000957                         L203:	; bb129
                                 ;     814         }
                                 ;     815         break;
                                 ;     816         
                                 ;     817     case USB_SEQ_2:
                                 ;     818         /* String descriptor check */
                                 ;     819         retval = usb_hstd_GetStringDescriptor2Check(checkerr);
                                 		.LINE  "C:\Workspace\e2studio\git\MT01_master\r_usb_basic\src\driver\host\r_usb_hhubsys.c",819
00000957 B809                    		MOVU.W 02H[R0], R1
00000959 39rrrr               W  		BSR _usb_hstd_GetStringDescriptor2Check
0000095C 9081                    		MOV.W R1, 04H[R0]
0000095E                         L204:	; bb129.split
                                 ;     820         if( USB_DONE == retval )
                                 		.LINE  "C:\Workspace\e2studio\git\MT01_master\r_usb_basic\src\driver\host\r_usb_hhubsys.c",820
0000095E B881                    		MOVU.W 04H[R0], R1
00000960 6101                    		CMP #00H, R1
00000962 3Brrrr               W  		BNE L251
00000965                         L205:	; bb133
                                 ;     821         {
                                 ;     822             /* Next sequence */
                                 ;     823             usb_hhub_CheckRequest(ptr, checkerr);
                                 		.LINE  "C:\Workspace\e2studio\git\MT01_master\r_usb_basic\src\driver\host\r_usb_hhubsys.c",823
00000965 B80A                    		MOVU.W 02H[R0], R2
00000967 AA81                    		MOV.L 28H[R0], R1
00000969 39rrrr               W  		BSR __$usb_hhub_CheckRequest
0000096C 38rrrr               W  		BRA L251
0000096F                         L206:	; bb143
                                 ;     824         }
                                 ;     825         break;
                                 ;     826     
                                 ;     827     case USB_SEQ_3:
                                 ;     828         /* String descriptor check */
                                 ;     829         if( checkerr == USB_DONE )
                                 		.LINE  "C:\Workspace\e2studio\git\MT01_master\r_usb_basic\src\driver\host\r_usb_hhubsys.c",829
0000096F B809                    		MOVU.W 02H[R0], R1
00000971 6101                    		CMP #00H, R1
00000973 21rr                    		BNE L211
00000975                         L207:	; bb145
                                 ;     830         {
                                 ;     831             if( usb_ghstd_ClassData[ptr->ip][0] < (uint8_t)(32 * 2 + 2) )
                                 		.LINE  "C:\Workspace\e2studio\git\MT01_master\r_usb_basic\src\driver\host\r_usb_hhubsys.c",831
00000975 AA81                    		MOV.L 28H[R0], R1
00000977 B991                    		MOVU.W 0CH[R1], R1
00000979 6C91                    		SHLL #09H, R1
0000097B FBE2rrrrrrrr            		MOV.L #_usb_ghstd_ClassData, R14
00000981 FECE1F                  		MOVU.B [R14,R1], R15
00000984 4B1E                    		ADD R1, R14
00000986 755F41                  		CMP #41H, R15
00000989 2Arr                    		BGT L210
0000098B                         L208:	; bb146
                                 ;     832             {
                                 ;     833                 usb_ghstd_ClassData[ptr->ip][0] = (uint8_t)(usb_ghstd_ClassData[ptr->ip][0] / 2);
                                 		.LINE  "C:\Workspace\e2studio\git\MT01_master\r_usb_basic\src\driver\host\r_usb_hhubsys.c",833
0000098B AA81                    		MOV.L 28H[R0], R1
0000098D B991                    		MOVU.W 0CH[R1], R1
0000098F 6C91                    		SHLL #09H, R1
00000991 FBF2rrrrrrrr            		MOV.L #_usb_ghstd_ClassData, R15
00000997 FECF1F                  		MOVU.B [R15,R1], R15
0000099A 681F                    		SHLR #01H, R15
0000099C C3EF                    		MOV.B R15, [R14]
0000099E                         L209:	; bb146.split
                                 ;     834                 usb_ghstd_ClassData[ptr->ip][0] = (uint8_t)(usb_ghstd_ClassData[ptr->ip][0] - 1);
                                 		.LINE  "C:\Workspace\e2studio\git\MT01_master\r_usb_basic\src\driver\host\r_usb_hhubsys.c",834
0000099E ED0E0A                  		MOV.L 28H[R0], R14
000009A1 5DEE06                  		MOVU.W 0CH[R14], R14
000009A4 6C9E                    		SHLL #09H, R14
000009A6 FBF2rrrrrrrr            		MOV.L #_usb_ghstd_ClassData, R15
000009AC FECFE5                  		MOVU.B [R15,R14], R5
000009AF 6015                    		SUB #01H, R5
000009B1 FE0FE5                  		MOV.B R5, [R15,R14]
000009B4 08                   S  		BRA L212
000009B5                         L210:	; bb183
                                 ;     835             }
                                 ;     836             else
                                 ;     837             {
                                 ;     838                 usb_ghstd_ClassData[ptr->ip][0] = (uint8_t)32;
                                 		.LINE  "C:\Workspace\e2studio\git\MT01_master\r_usb_basic\src\driver\host\r_usb_hhubsys.c",838
000009B5 F8E420                  		MOV.B #20H, [R14]
000009B8 08                   S  		BRA L212
000009B9                         L211:	; bb204
                                 ;     839             }
                                 ;     840 /* Condition compilation by the difference of useful function */
                                 ;     841 #if defined(USB_DEBUGUART_PP) || defined(USB_DEBUGPRINT_PP)
                                 ;     842             for( j = (uint16_t)0; j < usb_ghstd_ClassData[ptr->ip][0]; j++ )
                                 ;     843             {
                                 ;     844                 pdata[j] = usb_ghstd_ClassData[ptr->ip][j * (uint16_t)2 + (uint16_t)2];
                                 ;     845             }
                                 ;     846             pdata[usb_ghstd_ClassData[ptr->ip][0]] = 0;
                                 ;     847             USB_PRINTF1("    Product name : %s\n", pdata);
                                 ;     848 #endif  /* USB_DEBUGUART_PP || USB_DEBUGPRINT_PP */
                                 ;     849         }
                                 ;     850         else
                                 ;     851         {
                                 ;     852             USB_PRINTF0("*** Product name error\n");
                                 ;     853             checkerr = USB_DONE;
                                 		.LINE  "C:\Workspace\e2studio\git\MT01_master\r_usb_basic\src\driver\host\r_usb_hhubsys.c",853
000009B9 3D0100                  		MOV.W #0000H, 02H[R0]
000009BC                         L212:	; bb210
                                 ;     854         }
                                 ;     855         
                                 ;     856         /* Get HUB descriptor */
                                 ;     857         usb_shhub_Process[ptr->ip] = USB_MSG_CLS_CHECKREQUEST;
                                 		.LINE  "C:\Workspace\e2studio\git\MT01_master\r_usb_basic\src\driver\host\r_usb_hhubsys.c",857
000009BC AA81                    		MOV.L 28H[R0], R1
000009BE B991                    		MOVU.W 0CH[R1], R1
000009C0 FBE2rrrrrrrr            		MOV.L #_usb_shhub_Process, R14
000009C6 FBFA0102                		MOV.L #00000201H, R15
000009CA FE11EF                  		MOV.W R15, [R1,R14]
000009CD                         L213:	; bb210.split
                                 ;     858         checkerr = R_usb_hhub_GetHubInformation( ptr, usb_shhub_DevAddr[ptr->ip], usb_hhub_class_request_complete );
                                 		.LINE  "C:\Workspace\e2studio\git\MT01_master\r_usb_basic\src\driver\host\r_usb_hhubsys.c",858
000009CD AA81                    		MOV.L 28H[R0], R1
000009CF B992                    		MOVU.W 0CH[R1], R2
000009D1 FBE2rrrrrrrr            		MOV.L #_usb_shhub_DevAddr, R14
000009D7 FED2E2                  		MOVU.W [R2,R14], R2
000009DA FB32rrrrrrrr            		MOV.L #__$usb_hhub_class_request_complete, R3
000009E0 39rrrr               W  		BSR _R_usb_hhub_GetHubInformation
000009E3 9009                    		MOV.W R1, 02H[R0]
000009E5                         L214:	; bb210.split7
                                 ;     859         /* Submit overlap error */
                                 ;     860         if( USB_HUB_QOVR == checkerr )
                                 		.LINE  "C:\Workspace\e2studio\git\MT01_master\r_usb_basic\src\driver\host\r_usb_hhubsys.c",860
000009E5 B809                    		MOVU.W 02H[R0], R1
000009E7 7701FEFF00              		CMP #0FFFEH, R1
000009EC 3Brrrr               W  		BNE L251
000009EF                         L215:	; bb225
                                 ;     861         {
                                 ;     862             usb_hhub_SpecifiedPathWait(ptr, (uint16_t)10);
                                 		.LINE  "C:\Workspace\e2studio\git\MT01_master\r_usb_basic\src\driver\host\r_usb_hhubsys.c",862
000009EF AA81                    		MOV.L 28H[R0], R1
000009F1 66A2                    		MOV.L #0000000AH, R2
000009F3 39rrrr               W  		BSR __$usb_hhub_SpecifiedPathWait
000009F6 38rrrr               W  		BRA L251
000009F9                         L216:	; bb233
                                 ;     863         }
                                 ;     864         break;
                                 ;     865         
                                 ;     866     case USB_SEQ_4:
                                 ;     867         /* Get HUB descriptor Check */
                                 ;     868         retval = usb_hhub_request_result(checkerr);
                                 		.LINE  "C:\Workspace\e2studio\git\MT01_master\r_usb_basic\src\driver\host\r_usb_hhubsys.c",868
000009F9 B809                    		MOVU.W 02H[R0], R1
000009FB 39rrrr               W  		BSR __$usb_hhub_request_result
000009FE 9081                    		MOV.W R1, 04H[R0]
00000A00                         L217:	; bb233.split
                                 ;     869         if( USB_DONE == retval )
                                 		.LINE  "C:\Workspace\e2studio\git\MT01_master\r_usb_basic\src\driver\host\r_usb_hhubsys.c",869
00000A00 B881                    		MOVU.W 04H[R0], R1
00000A02 6101                    		CMP #00H, R1
00000A04 3Brrrr               W  		BNE L251
00000A07                         L218:	; bb237
                                 ;     870         {
                                 ;     871             usb_hhub_CheckRequest(ptr, checkerr);   /* Next sequence */
                                 		.LINE  "C:\Workspace\e2studio\git\MT01_master\r_usb_basic\src\driver\host\r_usb_hhubsys.c",871
00000A07 B80A                    		MOVU.W 02H[R0], R2
00000A09 AA81                    		MOV.L 28H[R0], R1
00000A0B 39rrrr               W  		BSR __$usb_hhub_CheckRequest
00000A0E 38rrrr               W  		BRA L251
00000A11                         L219:	; bb247
                                 ;     872         }
                                 ;     873         break;
                                 ;     874         
                                 ;     875     case USB_SEQ_5:
                                 ;     876         /* Get HUB descriptor Check */
                                 ;     877         if( checkerr == USB_DONE )
                                 		.LINE  "C:\Workspace\e2studio\git\MT01_master\r_usb_basic\src\driver\host\r_usb_hhubsys.c",877
00000A11 B809                    		MOVU.W 02H[R0], R1
00000A13 6101                    		CMP #00H, R1
00000A15 21rr                    		BNE L225
00000A17                         L220:	; bb248
                                 ;     878         {
                                 ;     879             retval = usb_hstd_CheckDescriptor( usb_ghhub_Descriptor[ptr->ip], (uint16_t)USB_DT_HUBDESCRIPTOR );
                                 		.LINE  "C:\Workspace\e2studio\git\MT01_master\r_usb_basic\src\driver\host\r_usb_hhubsys.c",879
00000A17 AA81                    		MOV.L 28H[R0], R1
00000A19 B992                    		MOVU.W 0CH[R1], R2
00000A1B 6C82                    		SHLL #08H, R2
00000A1D FB12rrrrrrrr            		MOV.L #_usb_ghhub_Descriptor, R1
00000A23 4B21                    		ADD R2, R1
00000A25 754229                  		MOV.L #00000029H, R2
00000A28 39rrrr               W  		BSR _usb_hstd_CheckDescriptor
00000A2B 9081                    		MOV.W R1, 04H[R0]
00000A2D                         L221:	; bb248.split
                                 ;     880             if( USB_ERROR == retval )
                                 		.LINE  "C:\Workspace\e2studio\git\MT01_master\r_usb_basic\src\driver\host\r_usb_hhubsys.c",880
00000A2D B881                    		MOVU.W 04H[R0], R1
00000A2F 7701FFFF00              		CMP #0FFFFH, R1
00000A34 18                   S  		BNE L223
00000A35                         L222:	; bb257
                                 ;     881             {
                                 ;     882                 USB_PRINTF0("### HUB descriptor error !\n");
                                 ;     883                 checkerr = USB_ERROR;
                                 		.LINE  "C:\Workspace\e2studio\git\MT01_master\r_usb_basic\src\driver\host\r_usb_hhubsys.c",883
00000A35 F90901FFFF              		MOV.W #0FFFFH, 02H[R0]
00000A3A 2Err                 B  		BRA L226
00000A3C                         L223:	; bb259
                                 ;     884             }
                                 ;     885             else if( usb_ghhub_Descriptor[ptr->ip][2] > USB_HUBDOWNPORT )
                                 		.LINE  "C:\Workspace\e2studio\git\MT01_master\r_usb_basic\src\driver\host\r_usb_hhubsys.c",885
00000A3C AA81                    		MOV.L 28H[R0], R1
00000A3E B991                    		MOVU.W 0CH[R1], R1
00000A40 6C81                    		SHLL #08H, R1
00000A42 FB22rrrrrrrr            		MOV.L #_usb_ghhub_Descriptor, R2
00000A48 4B12                    		ADD R1, R2
00000A4A B0A1                    		MOVU.B 02H[R2], R1
00000A4C 6151                    		CMP #05H, R1
00000A4E 23rr                    		BLTU L226
00000A50                         L224:	; bb260
                                 ;     886             {
                                 ;     887                 USB_PRINTF0("### HUB Port number over\n");
                                 ;     888                 checkerr = USB_ERROR;
                                 		.LINE  "C:\Workspace\e2studio\git\MT01_master\r_usb_basic\src\driver\host\r_usb_hhubsys.c",888
00000A50 F90901FFFF              		MOV.W #0FFFFH, 02H[R0]
00000A55 08                   S  		BRA L226
00000A56                         L225:	; bb281
                                 ;     889             }
                                 ;     890             else
                                 ;     891             {
                                 ;     892                 USB_PRINTF1("    Attached %d port HUB\n", usb_ghhub_Descriptor[ptr->ip][2]);
                                 ;     893             }
                                 ;     894         }
                                 ;     895         else
                                 ;     896         {
                                 ;     897             USB_PRINTF0("### HUB Descriptor over\n");
                                 ;     898             checkerr = USB_ERROR;
                                 		.LINE  "C:\Workspace\e2studio\git\MT01_master\r_usb_basic\src\driver\host\r_usb_hhubsys.c",898
00000A56 F90901FFFF              		MOV.W #0FFFFH, 02H[R0]
00000A5B                         L226:	; bb287
                                 ;     899         }
                                 ;     900 
                                 ;     901         /* Pipe Information table set */
                                 ;     902         switch( usb_shhub_Spec[ptr->ip] )
                                 		.LINE  "C:\Workspace\e2studio\git\MT01_master\r_usb_basic\src\driver\host\r_usb_hhubsys.c",902
00000A5B AA81                    		MOV.L 28H[R0], R1
00000A5D B991                    		MOVU.W 0CH[R1], R1
00000A5F FBE2rrrrrrrr            		MOV.L #_usb_shhub_Spec, R14
00000A65 FED1EE                  		MOVU.W [R1,R14], R14
00000A68 613E                    		CMP #03H, R14
00000A6A 3Arrrr               W  		BEQ L239
00000A6D                         L227:	; bb287
00000A6D 612E                    		CMP #02H, R14
00000A6F 20rr                    		BEQ L234
00000A71                         L228:	; bb287
00000A71 611E                    		CMP #01H, R14
00000A73 3Brrrr               W  		BNE L247
00000A76                         L229:	; bb296
                                 ;     903         {
                                 ;     904         case USB_FSHUB:     /* Full Speed Hub */
                                 ;     905             if( USB_FSCONNECT == usb_shhub_Speed[ptr->ip] )
                                 		.LINE  "C:\Workspace\e2studio\git\MT01_master\r_usb_basic\src\driver\host\r_usb_hhubsys.c",905
00000A76 AA81                    		MOV.L 28H[R0], R1
00000A78 B991                    		MOVU.W 0CH[R1], R1
00000A7A FBE2rrrrrrrr            		MOV.L #_usb_shhub_Speed, R14
00000A80 FED1EE                  		MOVU.W [R1,R14], R14
00000A83 755E80                  		CMP #80H, R14
00000A86 21rr                    		BNE L233
00000A88                         L230:	; bb297
                                 ;     906             {
                                 ;     907                 retval = usb_hhub_pipe_info( ptr, (uint8_t *)usb_shhub_InterfaceTable[ptr->ip],
                                 		.LINE  "C:\Workspace\e2studio\git\MT01_master\r_usb_basic\src\driver\host\r_usb_hhubsys.c",907
00000A88 AA81                    		MOV.L 28H[R0], R1
00000A8A B995                    		MOVU.W 0CH[R1], R5
00000A8C FBE2rrrrrrrr            		MOV.L #_usb_shhub_Speed, R14
00000A92 FED5E4                  		MOVU.W [R5,R14], R4
00000A95 FBE2rrrrrrrr            		MOV.L #_usb_shhub_Index, R14
00000A9B FED5E3                  		MOVU.W [R5,R14], R3
00000A9E FBE2rrrrrrrr            		MOV.L #_usb_shhub_InterfaceTable, R14
00000AA4 FE65E2                  		MOV.L [R5,R14], R2
00000AA7 FBE2rrrrrrrr            		MOV.L #_usb_shhub_ConfigTable, R14
00000AAD FE65E5                  		MOV.L [R5,R14], R5
00000AB0 B0D5                    		MOVU.B 02H[R5], R5
00000AB2 6040                    		SUB #04H, R0
00000AB4 D305                    		MOV.W R5, [R0]
00000AB6 39rrrr               W  		BSR __$usb_hhub_pipe_info
00000AB9 6240                    		ADD #04H, R0
00000ABB 9081                    		MOV.W R1, 04H[R0]
00000ABD                         L231:	; bb297.split
                                 ;     908                                             usb_shhub_Index[ptr->ip], usb_shhub_Speed[ptr->ip],
                                 ;     909                                             (uint16_t)usb_shhub_ConfigTable[ptr->ip][2]);
                                 ;     910                 if( USB_ERROR == retval )
                                 		.LINE  "C:\Workspace\e2studio\git\MT01_master\r_usb_basic\src\driver\host\r_usb_hhubsys.c",910
00000ABD B881                    		MOVU.W 04H[R0], R1
00000ABF 7701FFFF00              		CMP #0FFFFH, R1
00000AC4 3Brrrr               W  		BNE L248
00000AC7                         L232:	; bb328
                                 ;     911                 {
                                 ;     912                     USB_PRINTF0("### Device information error(HUB) !\n");
                                 ;     913                     checkerr = USB_ERROR;
                                 		.LINE  "C:\Workspace\e2studio\git\MT01_master\r_usb_basic\src\driver\host\r_usb_hhubsys.c",913
00000AC7 F90901FFFF              		MOV.W #0FFFFH, 02H[R0]
00000ACC 38rrrr               W  		BRA L248
00000ACF                         L233:	; bb335
                                 ;     914                 }
                                 ;     915             }
                                 ;     916             else
                                 ;     917             {
                                 ;     918                 USB_PRINTF0("### HUB Descriptor speed error\n");
                                 ;     919                 checkerr = USB_ERROR;
                                 		.LINE  "C:\Workspace\e2studio\git\MT01_master\r_usb_basic\src\driver\host\r_usb_hhubsys.c",919
00000ACF F90901FFFF              		MOV.W #0FFFFH, 02H[R0]
00000AD4 38rrrr               W  		BRA L248
00000AD7                         L234:	; bb348
                                 ;     920             }
                                 ;     921             break;
                                 ;     922 
                                 ;     923         case USB_HSHUBS:    /* Hi Speed Hub(Single) */
                                 ;     924             if( USB_HSCONNECT == usb_shhub_Speed[ptr->ip] )
                                 		.LINE  "C:\Workspace\e2studio\git\MT01_master\r_usb_basic\src\driver\host\r_usb_hhubsys.c",924
00000AD7 AA81                    		MOV.L 28H[R0], R1
00000AD9 B991                    		MOVU.W 0CH[R1], R1
00000ADB FBE2rrrrrrrr            		MOV.L #_usb_shhub_Speed, R14
00000AE1 FED1EE                  		MOVU.W [R1,R14], R14
00000AE4 755EC0                  		CMP #0C0H, R14
00000AE7 21rr                    		BNE L238
00000AE9                         L235:	; bb349
                                 ;     925             {
                                 ;     926                 retval = usb_hhub_pipe_info( ptr, (uint8_t *)usb_shhub_InterfaceTable[ptr->ip],
                                 		.LINE  "C:\Workspace\e2studio\git\MT01_master\r_usb_basic\src\driver\host\r_usb_hhubsys.c",926
00000AE9 AA81                    		MOV.L 28H[R0], R1
00000AEB B995                    		MOVU.W 0CH[R1], R5
00000AED FBE2rrrrrrrr            		MOV.L #_usb_shhub_Speed, R14
00000AF3 FED5E4                  		MOVU.W [R5,R14], R4
00000AF6 FBE2rrrrrrrr            		MOV.L #_usb_shhub_Index, R14
00000AFC FED5E3                  		MOVU.W [R5,R14], R3
00000AFF FBE2rrrrrrrr            		MOV.L #_usb_shhub_InterfaceTable, R14
00000B05 FE65E2                  		MOV.L [R5,R14], R2
00000B08 FBE2rrrrrrrr            		MOV.L #_usb_shhub_ConfigTable, R14
00000B0E FE65E5                  		MOV.L [R5,R14], R5
00000B11 B0D5                    		MOVU.B 02H[R5], R5
00000B13 6040                    		SUB #04H, R0
00000B15 D305                    		MOV.W R5, [R0]
00000B17 39rrrr               W  		BSR __$usb_hhub_pipe_info
00000B1A 6240                    		ADD #04H, R0
00000B1C 9081                    		MOV.W R1, 04H[R0]
00000B1E                         L236:	; bb349.split
                                 ;     927                                             usb_shhub_Index[ptr->ip], usb_shhub_Speed[ptr->ip],
                                 ;     928                                             (uint16_t)usb_shhub_ConfigTable[ptr->ip][2]);
                                 ;     929                 if( USB_ERROR == retval )
                                 		.LINE  "C:\Workspace\e2studio\git\MT01_master\r_usb_basic\src\driver\host\r_usb_hhubsys.c",929
00000B1E B881                    		MOVU.W 04H[R0], R1
00000B20 7701FFFF00              		CMP #0FFFFH, R1
00000B25 3Brrrr               W  		BNE L248
00000B28                         L237:	; bb380
                                 ;     930                 {
                                 ;     931                     USB_PRINTF0("### Device information error(HUB) !\n");
                                 ;     932                     checkerr = USB_ERROR;
                                 		.LINE  "C:\Workspace\e2studio\git\MT01_master\r_usb_basic\src\driver\host\r_usb_hhubsys.c",932
00000B28 F90901FFFF              		MOV.W #0FFFFH, 02H[R0]
00000B2D 38rrrr               W  		BRA L248
00000B30                         L238:	; bb387
                                 ;     933                 }
                                 ;     934             }
                                 ;     935             else
                                 ;     936             {
                                 ;     937                 USB_PRINTF0("### HUB Descriptor speed error\n");
                                 ;     938                 checkerr = USB_ERROR;
                                 		.LINE  "C:\Workspace\e2studio\git\MT01_master\r_usb_basic\src\driver\host\r_usb_hhubsys.c",938
00000B30 F90901FFFF              		MOV.W #0FFFFH, 02H[R0]
00000B35 38rrrr               W  		BRA L248
00000B38                         L239:	; bb400
                                 ;     939             }
                                 ;     940             break;
                                 ;     941 
                                 ;     942         case USB_HSHUBM:    /* Hi Speed Hub(Multi) */
                                 ;     943             if( USB_HSCONNECT == usb_shhub_Speed[ptr->ip] )
                                 		.LINE  "C:\Workspace\e2studio\git\MT01_master\r_usb_basic\src\driver\host\r_usb_hhubsys.c",943
00000B38 AA81                    		MOV.L 28H[R0], R1
00000B3A B991                    		MOVU.W 0CH[R1], R1
00000B3C FBE2rrrrrrrr            		MOV.L #_usb_shhub_Speed, R14
00000B42 FED1EE                  		MOVU.W [R1,R14], R14
00000B45 755EC0                  		CMP #0C0H, R14
00000B48 3Brrrr               W  		BNE L246
00000B4B                         L240:	; bb401
                                 ;     944             {
                                 ;     945                 /* Set pipe information */
                                 ;     946                 retval = usb_hhub_pipe_info( ptr, (uint8_t *)usb_shhub_InterfaceTable[ptr->ip],
                                 		.LINE  "C:\Workspace\e2studio\git\MT01_master\r_usb_basic\src\driver\host\r_usb_hhubsys.c",946
00000B4B AA81                    		MOV.L 28H[R0], R1
00000B4D B995                    		MOVU.W 0CH[R1], R5
00000B4F FBE2rrrrrrrr            		MOV.L #_usb_shhub_Speed, R14
00000B55 FED5E4                  		MOVU.W [R5,R14], R4
00000B58 FBE2rrrrrrrr            		MOV.L #_usb_shhub_Index, R14
00000B5E FED5E3                  		MOVU.W [R5,R14], R3
00000B61 FBE2rrrrrrrr            		MOV.L #_usb_shhub_InterfaceTable, R14
00000B67 FE65E2                  		MOV.L [R5,R14], R2
00000B6A FBE2rrrrrrrr            		MOV.L #_usb_shhub_ConfigTable, R14
00000B70 FE65E5                  		MOV.L [R5,R14], R5
00000B73 B0D5                    		MOVU.B 02H[R5], R5
00000B75 6040                    		SUB #04H, R0
00000B77 D305                    		MOV.W R5, [R0]
00000B79 39rrrr               W  		BSR __$usb_hhub_pipe_info
00000B7C 6240                    		ADD #04H, R0
00000B7E 9081                    		MOV.W R1, 04H[R0]
00000B80                         L241:	; bb401.split
                                 ;     947                                             usb_shhub_Index[ptr->ip], usb_shhub_Speed[ptr->ip],
                                 ;     948                                             (uint16_t)usb_shhub_ConfigTable[ptr->ip][2]);
                                 ;     949                 if( USB_ERROR == retval )
                                 		.LINE  "C:\Workspace\e2studio\git\MT01_master\r_usb_basic\src\driver\host\r_usb_hhubsys.c",949
00000B80 B881                    		MOVU.W 04H[R0], R1
00000B82 7701FFFF00              		CMP #0FFFFH, R1
00000B87 18                   S  		BNE L243
00000B88                         L242:	; bb432
                                 ;     950                 {
                                 ;     951                     USB_PRINTF0("### Device information error(HUB) !\n");
                                 ;     952                     checkerr = USB_ERROR;
                                 		.LINE  "C:\Workspace\e2studio\git\MT01_master\r_usb_basic\src\driver\host\r_usb_hhubsys.c",952
00000B88 F90901FFFF              		MOV.W #0FFFFH, 02H[R0]
00000B8D                         L243:	; bb438
                                 ;     953                 }
                                 ;     954                 /* Set pipe information */
                                 ;     955                 retval = usb_hhub_pipe_info( ptr, (uint8_t *)usb_shhub_InterfaceTable[ptr->ip],
                                 		.LINE  "C:\Workspace\e2studio\git\MT01_master\r_usb_basic\src\driver\host\r_usb_hhubsys.c",955
00000B8D AA81                    		MOV.L 28H[R0], R1
00000B8F B995                    		MOVU.W 0CH[R1], R5
00000B91 FBE2rrrrrrrr            		MOV.L #_usb_shhub_Speed, R14
00000B97 FED5E4                  		MOVU.W [R5,R14], R4
00000B9A FBE2rrrrrrrr            		MOV.L #_usb_shhub_Index, R14
00000BA0 FED5E3                  		MOVU.W [R5,R14], R3
00000BA3 FBE2rrrrrrrr            		MOV.L #_usb_shhub_InterfaceTable, R14
00000BA9 FE65E2                  		MOV.L [R5,R14], R2
00000BAC FBE2rrrrrrrr            		MOV.L #_usb_shhub_ConfigTable, R14
00000BB2 FE65E5                  		MOV.L [R5,R14], R5
00000BB5 B0D5                    		MOVU.B 02H[R5], R5
00000BB7 6040                    		SUB #04H, R0
00000BB9 D305                    		MOV.W R5, [R0]
00000BBB 39rrrr               W  		BSR __$usb_hhub_pipe_info
00000BBE 6240                    		ADD #04H, R0
00000BC0 9081                    		MOV.W R1, 04H[R0]
00000BC2                         L244:	; bb438.split
                                 ;     956                                             usb_shhub_Index[ptr->ip], usb_shhub_Speed[ptr->ip],
                                 ;     957                                             (uint16_t)usb_shhub_ConfigTable[ptr->ip][2]);
                                 ;     958                 if( USB_ERROR == retval )
                                 		.LINE  "C:\Workspace\e2studio\git\MT01_master\r_usb_basic\src\driver\host\r_usb_hhubsys.c",958
00000BC2 B881                    		MOVU.W 04H[R0], R1
00000BC4 7701FFFF00              		CMP #0FFFFH, R1
00000BC9 21rr                    		BNE L248
00000BCB                         L245:	; bb469
                                 ;     959                 {
                                 ;     960                     USB_PRINTF0("### Device information error(HUB) !\n");
                                 ;     961                     checkerr= USB_ERROR;
                                 		.LINE  "C:\Workspace\e2studio\git\MT01_master\r_usb_basic\src\driver\host\r_usb_hhubsys.c",961
00000BCB F90901FFFF              		MOV.W #0FFFFH, 02H[R0]
00000BD0 2Err                 B  		BRA L248
00000BD2                         L246:	; bb476
                                 ;     962                 }
                                 ;     963             }
                                 ;     964             else
                                 ;     965             {
                                 ;     966                 USB_PRINTF0("### HUB Descriptor speed error\n");
                                 ;     967                 checkerr = USB_ERROR;
                                 		.LINE  "C:\Workspace\e2studio\git\MT01_master\r_usb_basic\src\driver\host\r_usb_hhubsys.c",967
00000BD2 F90901FFFF              		MOV.W #0FFFFH, 02H[R0]
00000BD7 08                   S  		BRA L248
00000BD8                         L247:	; bb488
                                 ;     968             }
                                 ;     969             break;
                                 ;     970         default:
                                 ;     971             checkerr = USB_ERROR;
                                 		.LINE  "C:\Workspace\e2studio\git\MT01_master\r_usb_basic\src\driver\host\r_usb_hhubsys.c",971
00000BD8 F90901FFFF              		MOV.W #0FFFFH, 02H[R0]
00000BDD                         L248:	; bb489
                                 ;     972             break;
                                 ;     973         }
                                 ;     974         /* Port number set */
                                 ;     975         usb_shhub_InfoData[ptr->ip][usb_shhub_DevAddr[ptr->ip]].port_num = usb_ghhub_Descriptor[ptr->ip][2];
                                 		.LINE  "C:\Workspace\e2studio\git\MT01_master\r_usb_basic\src\driver\host\r_usb_hhubsys.c",975
00000BDD AA81                    		MOV.L 28H[R0], R1
00000BDF B991                    		MOVU.W 0CH[R1], R1
00000BE1 FBE2rrrrrrrr            		MOV.L #_usb_shhub_DevAddr, R14
00000BE7 FED1EE                  		MOVU.W [R1,R14], R14
00000BEA EF1F                    		MOV.L R1, R15
00000BEC 751F58                  		MUL #58H, R15
00000BEF FB22rrrrrrrr            		MOV.L #_usb_shhub_InfoData, R2
00000BF5 4BF2                    		ADD R15, R2
00000BF7 6C3E                    		SHLL #03H, R14
00000BF9 4BE2                    		ADD R14, R2
00000BFB 6C81                    		SHLL #08H, R1
00000BFD FB32rrrrrrrr            		MOV.L #_usb_ghhub_Descriptor, R3
00000C03 4B13                    		ADD R1, R3
00000C05 B0B1                    		MOVU.B 02H[R3], R1
00000C07 90A1                    		MOV.W R1, 04H[R2]
00000C09                         L249:	; bb489.split
                                 ;     976         usb_shhub_Process[ptr->ip] = USB_NONE;
                                 		.LINE  "C:\Workspace\e2studio\git\MT01_master\r_usb_basic\src\driver\host\r_usb_hhubsys.c",976
00000C09 AA81                    		MOV.L 28H[R0], R1
00000C0B B991                    		MOVU.W 0CH[R1], R1
00000C0D FBE2rrrrrrrr            		MOV.L #_usb_shhub_Process, R14
00000C13 660F                    		MOV.L #00000000H, R15
00000C15 FE11EF                  		MOV.W R15, [R1,R14]
00000C18                         L250:	; bb489.split8
                                 ;     977         /* Return to MGR */
                                 ;     978         R_usb_hstd_ReturnEnuMGR((USB_UTR_t *)ptr, checkerr);
                                 		.LINE  "C:\Workspace\e2studio\git\MT01_master\r_usb_basic\src\driver\host\r_usb_hhubsys.c",978
00000C18 B80A                    		MOVU.W 02H[R0], R2
00000C1A AA81                    		MOV.L 28H[R0], R1
00000C1C 05rrrrrr             A  		BSR _R_usb_hstd_ReturnEnuMGR
00000C20                         L251:	; bb522
                                 ;     979         break;
                                 ;     980     }
                                 ;     981 
                                 ;     982     switch( checkerr )
                                 		.LINE  "C:\Workspace\e2studio\git\MT01_master\r_usb_basic\src\driver\host\r_usb_hhubsys.c",982
00000C20 B809                    		MOVU.W 02H[R0], R1
00000C22 7701FFFF00              		CMP #0FFFFH, R1
00000C27 20rr                    		BEQ L255
00000C29                         L252:	; bb522
00000C29 7701FEFF00              		CMP #0FFFEH, R1
00000C2E 20rr                    		BEQ L259
00000C30                         L253:	; bb522
00000C30 6101                    		CMP #00H, R1
00000C32 21rr                    		BNE L257
00000C34                         L254:	; bb525
                                 ;     983     {
                                 ;     984     /* Driver open */
                                 ;     985     case USB_DONE:
                                 ;     986         usb_shhub_ClassSeq[ptr->ip]++;
                                 		.LINE  "C:\Workspace\e2studio\git\MT01_master\r_usb_basic\src\driver\host\r_usb_hhubsys.c",986
00000C34 AA81                    		MOV.L 28H[R0], R1
00000C36 B991                    		MOVU.W 0CH[R1], R1
00000C38 FBE2rrrrrrrr            		MOV.L #_usb_shhub_ClassSeq, R14
00000C3E FE51EF                  		MOV.W [R1,R14], R15
00000C41 621F                    		ADD #01H, R15
00000C43 FE11EF                  		MOV.W R15, [R1,R14]
00000C46 670B                    		RTSD #2CH
00000C48                         L255:	; bb534
                                 ;     987         break;
                                 ;     988 
                                 ;     989     /* Submit overlap error */
                                 ;     990     case USB_HUB_QOVR:
                                 ;     991         break;
                                 ;     992 
                                 ;     993     /* Descriptor error */
                                 ;     994     case USB_ERROR:
                                 ;     995         USB_PRINTF0("### Enumeration is stoped(ClassCode-ERROR)\n");
                                 ;     996         usb_shhub_Process[ptr->ip] = USB_NONE;
                                 		.LINE  "C:\Workspace\e2studio\git\MT01_master\r_usb_basic\src\driver\host\r_usb_hhubsys.c",996
00000C48 AA81                    		MOV.L 28H[R0], R1
00000C4A B991                    		MOVU.W 0CH[R1], R1
00000C4C FBE2rrrrrrrr            		MOV.L #_usb_shhub_Process, R14
00000C52 660F                    		MOV.L #00000000H, R15
00000C54 FE11EF                  		MOV.W R15, [R1,R14]
00000C57                         L256:	; bb534.split
                                 ;     997         /* Return to MGR */
                                 ;     998         R_usb_hstd_ReturnEnuMGR((USB_UTR_t *)ptr, USB_ERROR);
                                 		.LINE  "C:\Workspace\e2studio\git\MT01_master\r_usb_basic\src\driver\host\r_usb_hhubsys.c",998
00000C57 AA81                    		MOV.L 28H[R0], R1
00000C59 FB2EFFFF00              		MOV.L #0000FFFFH, R2
00000C5E 05rrrrrr             A  		BSR _R_usb_hstd_ReturnEnuMGR
00000C62 670B                    		RTSD #2CH
00000C64                         L257:	; bb541
                                 ;     999         break;
                                 ;    1000 
                                 ;    1001     default:
                                 ;    1002         usb_shhub_Process[ptr->ip] = USB_NONE;
                                 		.LINE  "C:\Workspace\e2studio\git\MT01_master\r_usb_basic\src\driver\host\r_usb_hhubsys.c",1002
00000C64 AA81                    		MOV.L 28H[R0], R1
00000C66 B991                    		MOVU.W 0CH[R1], R1
00000C68 FBE2rrrrrrrr            		MOV.L #_usb_shhub_Process, R14
00000C6E 660F                    		MOV.L #00000000H, R15
00000C70 FE11EF                  		MOV.W R15, [R1,R14]
00000C73                         L258:	; bb541.split
                                 ;    1003         /* Return to MGR */
                                 ;    1004         R_usb_hstd_ReturnEnuMGR((USB_UTR_t *)ptr, USB_ERROR);
                                 		.LINE  "C:\Workspace\e2studio\git\MT01_master\r_usb_basic\src\driver\host\r_usb_hhubsys.c",1004
00000C73 AA81                    		MOV.L 28H[R0], R1
00000C75 FB2EFFFF00              		MOV.L #0000FFFFH, R2
00000C7A 05rrrrrr             A  		BSR _R_usb_hstd_ReturnEnuMGR
00000C7E 670B                    		RTSD #2CH
00000C80                         L259:	; return
                                 ;    1005         break;
                                 ;    1006     }
                                 ;    1007 }   /* eof usb_hhub_enumeration() */
                                 		.LINE  "C:\Workspace\e2studio\git\MT01_master\r_usb_basic\src\driver\host\r_usb_hhubsys.c",1007
00000C80 670B                    		RTSD #2CH
00000C82                         __$usb_hhub_InitDownPort:
                                 		.STACK	__$usb_hhub_InitDownPort=32
                                 ;    1008 
                                 ;    1009 
                                 ;    1010 /******************************************************************************
                                 ;    1011 Function Name   : usb_hhub_InitDownPort
                                 ;    1012 Description     : Down port initialized
                                 ;    1013 Arguments       : uint16_t hubaddr          : hub address
                                 ;    1014                 : USB_CLSINFO_t *mess
                                 ;    1015 Return value    : none
                                 ;    1016 ******************************************************************************/
                                 ;    1017 void usb_hhub_InitDownPort(USB_UTR_t *ptr, uint16_t hubaddr, USB_CLSINFO_t *mess)
                                 		.LINE  "C:\Workspace\e2studio\git\MT01_master\r_usb_basic\src\driver\host\r_usb_hhubsys.c",1017
00000C82 7100E8                  		ADD #0FFFFFFE8H, R0
00000C85 A109                    		MOV.L R1, 14H[R0]
00000C87 920A                    		MOV.W R2, 12H[R0]
00000C89 A08B                    		MOV.L R3, 0CH[R0]
                                 ;    1018 {
                                 ;    1019     USB_ER_t        err;
                                 ;    1020     uint16_t        retval;
                                 ;    1021 
                                 ;    1022     hubaddr = usb_shhub_HubAddr[ptr->ip];
                                 		.LINE  "C:\Workspace\e2studio\git\MT01_master\r_usb_basic\src\driver\host\r_usb_hhubsys.c",1022
00000C8B A909                    		MOV.L 14H[R0], R1
00000C8D B991                    		MOVU.W 0CH[R1], R1
00000C8F FBE2rrrrrrrr            		MOV.L #_usb_shhub_HubAddr, R14
00000C95 FE51E1                  		MOV.W [R1,R14], R1
00000C98 9209                    		MOV.W R1, 12H[R0]
00000C9A                         L261:	; entry.split
                                 ;    1023     retval = USB_DONE;
                                 		.LINE  "C:\Workspace\e2studio\git\MT01_master\r_usb_basic\src\driver\host\r_usb_hhubsys.c",1023
00000C9A 3D0500                  		MOV.W #0000H, 0AH[R0]
00000C9D                         L262:	; entry.split1
                                 ;    1024 
                                 ;    1025     if( USB_MSG_CLS_INIT != usb_shhub_Process[ptr->ip] )        /* Check Hub Process */
                                 		.LINE  "C:\Workspace\e2studio\git\MT01_master\r_usb_basic\src\driver\host\r_usb_hhubsys.c",1025
00000C9D A909                    		MOV.L 14H[R0], R1
00000C9F B991                    		MOVU.W 0CH[R1], R1
00000CA1 FBE2rrrrrrrr            		MOV.L #_usb_shhub_Process, R14
00000CA7 FED1EE                  		MOVU.W [R1,R14], R14
00000CAA 760E0202                		CMP #0202H, R14
00000CAE 20rr                    		BEQ L265
00000CB0                         L263:	; bb11
                                 ;    1026     {
                                 ;    1027         err = USB_SND_MSG( USB_HUB_MBX, (USB_MSG_t*)mess );
                                 		.LINE  "C:\Workspace\e2studio\git\MT01_master\r_usb_basic\src\driver\host\r_usb_hhubsys.c",1027
00000CB0 A88A                    		MOV.L 0CH[R0], R2
00000CB2 6631                    		MOV.L #00000003H, R1
00000CB4 05rrrrrr             A  		BSR _usb_cstd_SndMsg
00000CB8 A009                    		MOV.L R1, 04H[R0]
00000CBA                         L264:	; bb11.split
                                 ;    1028         if( USB_OK != err )
                                 		.LINE  "C:\Workspace\e2studio\git\MT01_master\r_usb_basic\src\driver\host\r_usb_hhubsys.c",1028
00000CBA 6706                    		RTSD #18H
00000CBC                         L265:	; bb21
                                 ;    1029         {
                                 ;    1030             USB_PRINTF0("### HUB snd_msg error\n");             /* Send Message failure */
                                 ;    1031         }
                                 ;    1032     }
                                 ;    1033     else
                                 ;    1034     {
                                 ;    1035         switch( usb_shhub_InitSeq[ptr->ip] )
                                 		.LINE  "C:\Workspace\e2studio\git\MT01_master\r_usb_basic\src\driver\host\r_usb_hhubsys.c",1035
00000CBC A909                    		MOV.L 14H[R0], R1
00000CBE B991                    		MOVU.W 0CH[R1], R1
00000CC0 FBE2rrrrrrrr            		MOV.L #_usb_shhub_InitSeq, R14
00000CC6 FED1EE                  		MOVU.W [R1,R14], R14
00000CC9 614E                    		CMP #04H, R14
00000CCB 3Arrrr               W  		BEQ L295
00000CCE                         L266:	; bb21
00000CCE 611E                    		CMP #01H, R14
00000CD0 20rr                    		BEQ L277
00000CD2                         L267:	; bb21
00000CD2 612E                    		CMP #02H, R14
00000CD4 3Arrrr               W  		BEQ L282
00000CD7                         L268:	; bb21
00000CD7 613E                    		CMP #03H, R14
00000CD9 3Arrrr               W  		BEQ L290
00000CDC                         L269:	; bb21
00000CDC 610E                    		CMP #00H, R14
00000CDE 3Brrrr               W  		BNE L305
00000CE1                         L270:	; bb29
                                 ;    1036         {
                                 ;    1037         case USB_SEQ_0:                                         /* HUB port power */
                                 ;    1038             hubaddr = mess->keyword;
                                 		.LINE  "C:\Workspace\e2studio\git\MT01_master\r_usb_basic\src\driver\host\r_usb_hhubsys.c",1038
00000CE1 A889                    		MOV.L 0CH[R0], R1
00000CE3 D5100309                		MOV.W 06H[R1], 12H[R0]
00000CE7                         L271:	; bb29.split
                                 ;    1039             usb_shhub_HubAddr[ptr->ip] = hubaddr;
                                 		.LINE  "C:\Workspace\e2studio\git\MT01_master\r_usb_basic\src\driver\host\r_usb_hhubsys.c",1039
00000CE7 A909                    		MOV.L 14H[R0], R1
00000CE9 B991                    		MOVU.W 0CH[R1], R1
00000CEB FBE2rrrrrrrr            		MOV.L #_usb_shhub_HubAddr, R14
00000CF1 9A0A                    		MOV.W 12H[R0], R2
00000CF3 FE11E2                  		MOV.W R2, [R1,R14]
00000CF6                         L272:	; bb29.split2
                                 ;    1040 
                                 ;    1041             usb_hstd_DeviceDescripInfo(ptr);
                                 		.LINE  "C:\Workspace\e2studio\git\MT01_master\r_usb_basic\src\driver\host\r_usb_hhubsys.c",1041
00000CF6 A909                    		MOV.L 14H[R0], R1
00000CF8 39rrrr               W  		BSR __$usb_hstd_DeviceDescripInfo
00000CFB                         L273:	; bb29.split3
                                 ;    1042             usb_hstd_ConfigDescripInfo(ptr);
                                 		.LINE  "C:\Workspace\e2studio\git\MT01_master\r_usb_basic\src\driver\host\r_usb_hhubsys.c",1042
00000CFB A909                    		MOV.L 14H[R0], R1
00000CFD 39rrrr               W  		BSR __$usb_hstd_ConfigDescripInfo
00000D00                         L274:	; bb29.split4
                                 ;    1043             USB_PRINTF0("\nHHHHHHHHHHHHHHHHHHHHHHHHH\n");
                                 ;    1044             USB_PRINTF0("         USB HOST        \n");
                                 ;    1045             USB_PRINTF0("      HUB CLASS DEMO     \n");
                                 ;    1046             USB_PRINTF0("HHHHHHHHHHHHHHHHHHHHHHHHH\n\n");
                                 ;    1047             usb_shhub_InitSeq[ptr->ip] = USB_SEQ_1;             /* Next Sequence */
                                 		.LINE  "C:\Workspace\e2studio\git\MT01_master\r_usb_basic\src\driver\host\r_usb_hhubsys.c",1047
00000D00 A909                    		MOV.L 14H[R0], R1
00000D02 B991                    		MOVU.W 0CH[R1], R1
00000D04 FBE2rrrrrrrr            		MOV.L #_usb_shhub_InitSeq, R14
00000D0A 661F                    		MOV.L #00000001H, R15
00000D0C FE11EF                  		MOV.W R15, [R1,R14]
00000D0F                         L275:	; bb29.split5
                                 ;    1048             usb_shhub_InitPort[ptr->ip] = USB_HUB_P1;
                                 		.LINE  "C:\Workspace\e2studio\git\MT01_master\r_usb_basic\src\driver\host\r_usb_hhubsys.c",1048
00000D0F A909                    		MOV.L 14H[R0], R1
00000D11 B991                    		MOVU.W 0CH[R1], R1
00000D13 FBE2rrrrrrrr            		MOV.L #_usb_shhub_InitPort, R14
00000D19 661F                    		MOV.L #00000001H, R15
00000D1B FE11EF                  		MOV.W R15, [R1,R14]
00000D1E                         L276:	; bb29.split6
                                 ;    1049             usb_hhub_SpecifiedPath(mess);                       /* Next Process Selector */
                                 		.LINE  "C:\Workspace\e2studio\git\MT01_master\r_usb_basic\src\driver\host\r_usb_hhubsys.c",1049
00000D1E A889                    		MOV.L 0CH[R0], R1
00000D20 39rrrr               W  		BSR __$usb_hhub_SpecifiedPath
00000D23 38rrrr               W  		BRA L306
00000D26                         L277:	; bb52
                                 ;    1050             break;
                                 ;    1051 
                                 ;    1052         case USB_SEQ_1:                                         /* Request */
                                 ;    1053             retval = usb_hhub_PortSetFeature( ptr, hubaddr, usb_shhub_InitPort[ptr->ip],
                                 		.LINE  "C:\Workspace\e2studio\git\MT01_master\r_usb_basic\src\driver\host\r_usb_hhubsys.c",1053
00000D26 A909                    		MOV.L 14H[R0], R1
00000D28 B992                    		MOVU.W 0CH[R1], R2
00000D2A FBE2rrrrrrrr            		MOV.L #_usb_shhub_InitPort, R14
00000D30 FED2E3                  		MOVU.W [R2,R14], R3
00000D33 BA0A                    		MOVU.W 12H[R0], R2
00000D35 6040                    		SUB #04H, R0
00000D37 FBE2rrrrrrrr            		MOV.L #__$usb_hhub_class_request_complete, R14
00000D3D E30E                    		MOV.L R14, [R0]
00000D3F 6684                    		MOV.L #00000008H, R4
00000D41 39rrrr               W  		BSR __$usb_hhub_PortSetFeature
00000D44 6240                    		ADD #04H, R0
00000D46 9109                    		MOV.W R1, 0AH[R0]
00000D48                         L278:	; bb52.split
                                 ;    1054                 (uint16_t)USB_HUB_PORT_POWER, usb_hhub_class_request_complete);    /* SetFeature request */
                                 ;    1055             if( USB_HUB_QOVR == retval )                        /* Submit overlap error */
                                 		.LINE  "C:\Workspace\e2studio\git\MT01_master\r_usb_basic\src\driver\host\r_usb_hhubsys.c",1055
00000D48 B909                    		MOVU.W 0AH[R0], R1
00000D4A 7701FEFF00              		CMP #0FFFEH, R1
00000D4F 21rr                    		BNE L280
00000D51                         L279:	; bb63
                                 ;    1056             {
                                 ;    1057                 usb_hhub_SpecifiedPathWait( mess, (uint16_t)10 );
                                 		.LINE  "C:\Workspace\e2studio\git\MT01_master\r_usb_basic\src\driver\host\r_usb_hhubsys.c",1057
00000D51 A889                    		MOV.L 0CH[R0], R1
00000D53 66A2                    		MOV.L #0000000AH, R2
00000D55 39rrrr               W  		BSR __$usb_hhub_SpecifiedPathWait
00000D58 38rrrr               W  		BRA L306
00000D5B                         L280:	; bb65
                                 ;    1058             }
                                 ;    1059             else
                                 ;    1060             {
                                 ;    1061                 usb_shhub_InitPort[ptr->ip]++;                  /* Next Port */
                                 		.LINE  "C:\Workspace\e2studio\git\MT01_master\r_usb_basic\src\driver\host\r_usb_hhubsys.c",1061
00000D5B A909                    		MOV.L 14H[R0], R1
00000D5D B991                    		MOVU.W 0CH[R1], R1
00000D5F FBE2rrrrrrrr            		MOV.L #_usb_shhub_InitPort, R14
00000D65 FE51EF                  		MOV.W [R1,R14], R15
00000D68 621F                    		ADD #01H, R15
00000D6A FE11EF                  		MOV.W R15, [R1,R14]
00000D6D                         L281:	; bb65.split
                                 ;    1062                 usb_shhub_InitSeq[ptr->ip] = USB_SEQ_2;         /* Next Sequence */
                                 		.LINE  "C:\Workspace\e2studio\git\MT01_master\r_usb_basic\src\driver\host\r_usb_hhubsys.c",1062
00000D6D A909                    		MOV.L 14H[R0], R1
00000D6F B991                    		MOVU.W 0CH[R1], R1
00000D71 FBE2rrrrrrrr            		MOV.L #_usb_shhub_InitSeq, R14
00000D77 662F                    		MOV.L #00000002H, R15
00000D79 FE11EF                  		MOV.W R15, [R1,R14]
00000D7C 38rrrr               W  		BRA L306
00000D7F                         L282:	; bb85
                                 ;    1063             }
                                 ;    1064             break;
                                 ;    1065 
                                 ;    1066         case USB_SEQ_2:                                         /* Request Result Check */
                                 ;    1067             retval = usb_hhub_request_result(mess->result);
                                 		.LINE  "C:\Workspace\e2studio\git\MT01_master\r_usb_basic\src\driver\host\r_usb_hhubsys.c",1067
00000D7F A889                    		MOV.L 0CH[R0], R1
00000D81 B999                    		MOVU.W 0EH[R1], R1
00000D83 39rrrr               W  		BSR __$usb_hhub_request_result
00000D86 9109                    		MOV.W R1, 0AH[R0]
00000D88                         L283:	; bb85.split
                                 ;    1068             if( USB_DONE == retval )
                                 		.LINE  "C:\Workspace\e2studio\git\MT01_master\r_usb_basic\src\driver\host\r_usb_hhubsys.c",1068
00000D88 B909                    		MOVU.W 0AH[R0], R1
00000D8A 6101                    		CMP #00H, R1
00000D8C 3Brrrr               W  		BNE L306
00000D8F                         L284:	; bb92
                                 ;    1069             {
                                 ;    1070                 if( usb_shhub_InitPort[ptr->ip] > usb_shhub_InfoData[ptr->ip][hubaddr].port_num )
                                 		.LINE  "C:\Workspace\e2studio\git\MT01_master\r_usb_basic\src\driver\host\r_usb_hhubsys.c",1070
00000D8F A909                    		MOV.L 14H[R0], R1
00000D91 B991                    		MOVU.W 0CH[R1], R1
00000D93 FBE2rrrrrrrr            		MOV.L #_usb_shhub_InitPort, R14
00000D99 FED1EE                  		MOVU.W [R1,R14], R14
00000D9C EF1F                    		MOV.L R1, R15
00000D9E 751F58                  		MUL #58H, R15
00000DA1 FB52rrrrrrrr            		MOV.L #_usb_shhub_InfoData, R5
00000DA7 4BF5                    		ADD R15, R5
00000DA9 BA0A                    		MOVU.W 12H[R0], R2
00000DAB 6C32                    		SHLL #03H, R2
00000DAD 4B25                    		ADD R2, R5
00000DAF 06C55E02                		CMP 04H[R5].UW, R14
00000DB3 2Brr                    		BLE L288
00000DB5                         L285:	; bb93
                                 ;    1071                 {
                                 ;    1072                     usb_shhub_InitPort[ptr->ip] = USB_HUB_P1;   /* Port Clear */
                                 		.LINE  "C:\Workspace\e2studio\git\MT01_master\r_usb_basic\src\driver\host\r_usb_hhubsys.c",1072
00000DB5 FBE2rrrrrrrr            		MOV.L #_usb_shhub_InitPort, R14
00000DBB 661F                    		MOV.L #00000001H, R15
00000DBD FE11EF                  		MOV.W R15, [R1,R14]
00000DC0                         L286:	; bb93.split
                                 ;    1073                     usb_shhub_InitSeq[ptr->ip] = USB_SEQ_3;     /* Next Sequence */
                                 		.LINE  "C:\Workspace\e2studio\git\MT01_master\r_usb_basic\src\driver\host\r_usb_hhubsys.c",1073
00000DC0 A909                    		MOV.L 14H[R0], R1
00000DC2 B991                    		MOVU.W 0CH[R1], R1
00000DC4 FBE2rrrrrrrr            		MOV.L #_usb_shhub_InitSeq, R14
00000DCA 663F                    		MOV.L #00000003H, R15
00000DCC FE11EF                  		MOV.W R15, [R1,R14]
00000DCF                         L287:	; bb93.split7
                                 ;    1074                     usb_hhub_SpecifiedPath(mess);               /* Next Process Selector */
                                 		.LINE  "C:\Workspace\e2studio\git\MT01_master\r_usb_basic\src\driver\host\r_usb_hhubsys.c",1074
00000DCF A889                    		MOV.L 0CH[R0], R1
00000DD1 39rrrr               W  		BSR __$usb_hhub_SpecifiedPath
00000DD4 38rrrr               W  		BRA L306
00000DD7                         L288:	; bb105
                                 ;    1075                 }
                                 ;    1076                 else
                                 ;    1077                 {
                                 ;    1078                     usb_shhub_InitSeq[ptr->ip] = USB_SEQ_1;     /* Loop Sequence */
                                 		.LINE  "C:\Workspace\e2studio\git\MT01_master\r_usb_basic\src\driver\host\r_usb_hhubsys.c",1078
00000DD7 FBE2rrrrrrrr            		MOV.L #_usb_shhub_InitSeq, R14
00000DDD 661F                    		MOV.L #00000001H, R15
00000DDF FE11EF                  		MOV.W R15, [R1,R14]
00000DE2                         L289:	; bb105.split
                                 ;    1079                     usb_hhub_SpecifiedPath(mess);               /* Next Process Selector */
                                 		.LINE  "C:\Workspace\e2studio\git\MT01_master\r_usb_basic\src\driver\host\r_usb_hhubsys.c",1079
00000DE2 A889                    		MOV.L 0CH[R0], R1
00000DE4 39rrrr               W  		BSR __$usb_hhub_SpecifiedPath
00000DE7 38rrrr               W  		BRA L306
00000DEA                         L290:	; bb141
                                 ;    1080                 }
                                 ;    1081             }
                                 ;    1082             break;
                                 ;    1083 
                                 ;    1084         case USB_SEQ_3:                                         /* HUB downport initialize */
                                 ;    1085             retval = usb_hhub_PortClrFeature( ptr,hubaddr, usb_shhub_InitPort[ptr->ip],
                                 		.LINE  "C:\Workspace\e2studio\git\MT01_master\r_usb_basic\src\driver\host\r_usb_hhubsys.c",1085
00000DEA A909                    		MOV.L 14H[R0], R1
00000DEC B992                    		MOVU.W 0CH[R1], R2
00000DEE FBE2rrrrrrrr            		MOV.L #_usb_shhub_InitPort, R14
00000DF4 FED2E3                  		MOVU.W [R2,R14], R3
00000DF7 BA0A                    		MOVU.W 12H[R0], R2
00000DF9 6040                    		SUB #04H, R0
00000DFB FBE2rrrrrrrr            		MOV.L #__$usb_hhub_class_request_complete, R14
00000E01 E30E                    		MOV.L R14, [R0]
00000E03 754410                  		MOV.L #00000010H, R4
00000E06 39rrrr               W  		BSR __$usb_hhub_PortClrFeature
00000E09 6240                    		ADD #04H, R0
00000E0B 9109                    		MOV.W R1, 0AH[R0]
00000E0D                         L291:	; bb141.split
                                 ;    1086                 (uint16_t)USB_HUB_C_PORT_CONNECTION, usb_hhub_class_request_complete);      /* Request */
                                 ;    1087             if( USB_HUB_QOVR == retval )                        /* Submit overlap error */
                                 		.LINE  "C:\Workspace\e2studio\git\MT01_master\r_usb_basic\src\driver\host\r_usb_hhubsys.c",1087
00000E0D B909                    		MOVU.W 0AH[R0], R1
00000E0F 7701FEFF00              		CMP #0FFFEH, R1
00000E14 21rr                    		BNE L293
00000E16                         L292:	; bb152
                                 ;    1088             {
                                 ;    1089                 usb_hhub_SpecifiedPathWait( mess, (uint16_t)10 );
                                 		.LINE  "C:\Workspace\e2studio\git\MT01_master\r_usb_basic\src\driver\host\r_usb_hhubsys.c",1089
00000E16 A889                    		MOV.L 0CH[R0], R1
00000E18 66A2                    		MOV.L #0000000AH, R2
00000E1A 39rrrr               W  		BSR __$usb_hhub_SpecifiedPathWait
00000E1D 38rrrr               W  		BRA L306
00000E20                         L293:	; bb154
                                 ;    1090             }
                                 ;    1091             else
                                 ;    1092             {
                                 ;    1093                 usb_shhub_InitPort[ptr->ip]++;                  /* Next Port */
                                 		.LINE  "C:\Workspace\e2studio\git\MT01_master\r_usb_basic\src\driver\host\r_usb_hhubsys.c",1093
00000E20 A909                    		MOV.L 14H[R0], R1
00000E22 B991                    		MOVU.W 0CH[R1], R1
00000E24 FBE2rrrrrrrr            		MOV.L #_usb_shhub_InitPort, R14
00000E2A FE51EF                  		MOV.W [R1,R14], R15
00000E2D 621F                    		ADD #01H, R15
00000E2F FE11EF                  		MOV.W R15, [R1,R14]
00000E32                         L294:	; bb154.split
                                 ;    1094                 usb_shhub_InitSeq[ptr->ip] = USB_SEQ_4;         /* Next Sequence */
                                 		.LINE  "C:\Workspace\e2studio\git\MT01_master\r_usb_basic\src\driver\host\r_usb_hhubsys.c",1094
00000E32 A909                    		MOV.L 14H[R0], R1
00000E34 B991                    		MOVU.W 0CH[R1], R1
00000E36 FBE2rrrrrrrr            		MOV.L #_usb_shhub_InitSeq, R14
00000E3C 664F                    		MOV.L #00000004H, R15
00000E3E FE11EF                  		MOV.W R15, [R1,R14]
00000E41 38rrrr               W  		BRA L306
00000E44                         L295:	; bb173
                                 ;    1095             }
                                 ;    1096             break;
                                 ;    1097 
                                 ;    1098         /* Request Result Check */
                                 ;    1099         case USB_SEQ_4:
                                 ;    1100             retval = usb_hhub_request_result(mess->result);
                                 		.LINE  "C:\Workspace\e2studio\git\MT01_master\r_usb_basic\src\driver\host\r_usb_hhubsys.c",1100
00000E44 A889                    		MOV.L 0CH[R0], R1
00000E46 B999                    		MOVU.W 0EH[R1], R1
00000E48 39rrrr               W  		BSR __$usb_hhub_request_result
00000E4B 9109                    		MOV.W R1, 0AH[R0]
00000E4D                         L296:	; bb173.split
                                 ;    1101             if( USB_DONE == retval )
                                 		.LINE  "C:\Workspace\e2studio\git\MT01_master\r_usb_basic\src\driver\host\r_usb_hhubsys.c",1101
00000E4D B909                    		MOVU.W 0AH[R0], R1
00000E4F 6101                    		CMP #00H, R1
00000E51 3Brrrr               W  		BNE L306
00000E54                         L297:	; bb180
                                 ;    1102             {
                                 ;    1103                 if( usb_shhub_InitPort[ptr->ip] > usb_shhub_InfoData[ptr->ip][hubaddr].port_num )
                                 		.LINE  "C:\Workspace\e2studio\git\MT01_master\r_usb_basic\src\driver\host\r_usb_hhubsys.c",1103
00000E54 A909                    		MOV.L 14H[R0], R1
00000E56 B991                    		MOVU.W 0CH[R1], R1
00000E58 FBE2rrrrrrrr            		MOV.L #_usb_shhub_InitPort, R14
00000E5E FED1EE                  		MOVU.W [R1,R14], R14
00000E61 EF1F                    		MOV.L R1, R15
00000E63 751F58                  		MUL #58H, R15
00000E66 FB52rrrrrrrr            		MOV.L #_usb_shhub_InfoData, R5
00000E6C 4BF5                    		ADD R15, R5
00000E6E BA0A                    		MOVU.W 12H[R0], R2
00000E70 6C32                    		SHLL #03H, R2
00000E72 4B25                    		ADD R2, R5
00000E74 06C55E02                		CMP 04H[R5].UW, R14
00000E78 2Brr                    		BLE L303
00000E7A                         L298:	; bb181
                                 ;    1104                 {
                                 ;    1105                     usb_shhub_InitSeq[ptr->ip] = USB_SEQ_0;             /* Sequence Clear */
                                 		.LINE  "C:\Workspace\e2studio\git\MT01_master\r_usb_basic\src\driver\host\r_usb_hhubsys.c",1105
00000E7A FBE2rrrrrrrr            		MOV.L #_usb_shhub_InitSeq, R14
00000E80 660F                    		MOV.L #00000000H, R15
00000E82 FE11EF                  		MOV.W R15, [R1,R14]
00000E85                         L299:	; bb181.split
                                 ;    1106                     usb_shhub_InitPort[ptr->ip] = USB_HUB_P1;           /* Port Clear */
                                 		.LINE  "C:\Workspace\e2studio\git\MT01_master\r_usb_basic\src\driver\host\r_usb_hhubsys.c",1106
00000E85 A909                    		MOV.L 14H[R0], R1
00000E87 B991                    		MOVU.W 0CH[R1], R1
00000E89 FBE2rrrrrrrr            		MOV.L #_usb_shhub_InitPort, R14
00000E8F 661F                    		MOV.L #00000001H, R15
00000E91 FE11EF                  		MOV.W R15, [R1,R14]
00000E94                         L300:	; bb181.split8
                                 ;    1107                     usb_shhub_Info[ptr->ip] = USB_MSG_CLS_INIT;
                                 		.LINE  "C:\Workspace\e2studio\git\MT01_master\r_usb_basic\src\driver\host\r_usb_hhubsys.c",1107
00000E94 A909                    		MOV.L 14H[R0], R1
00000E96 B991                    		MOVU.W 0CH[R1], R1
00000E98 FBE2rrrrrrrr            		MOV.L #_usb_shhub_Info, R14
00000E9E FBFA0202                		MOV.L #00000202H, R15
00000EA2 FE11EF                  		MOV.W R15, [R1,R14]
00000EA5                         L301:	; bb181.split9
                                 ;    1108                     usb_shhub_Process[ptr->ip] = USB_MSG_HUB_EVENT;     /* Next Attach Process */
                                 		.LINE  "C:\Workspace\e2studio\git\MT01_master\r_usb_basic\src\driver\host\r_usb_hhubsys.c",1108
00000EA5 A909                    		MOV.L 14H[R0], R1
00000EA7 B991                    		MOVU.W 0CH[R1], R1
00000EA9 FBE2rrrrrrrr            		MOV.L #_usb_shhub_Process, R14
00000EAF FBFA3501                		MOV.L #00000135H, R15
00000EB3 FE11EF                  		MOV.W R15, [R1,R14]
00000EB6                         L302:	; bb181.split10
                                 ;    1109                     usb_hhub_SpecifiedPath(mess);                       /* Next Process Selector */
                                 		.LINE  "C:\Workspace\e2studio\git\MT01_master\r_usb_basic\src\driver\host\r_usb_hhubsys.c",1109
00000EB6 A889                    		MOV.L 0CH[R0], R1
00000EB8 39rrrr               W  		BSR __$usb_hhub_SpecifiedPath
00000EBB 2Err                 B  		BRA L306
00000EBD                         L303:	; bb203
                                 ;    1110                 }
                                 ;    1111                 else
                                 ;    1112                 {
                                 ;    1113                     usb_shhub_InitSeq[ptr->ip] = USB_SEQ_3;             /* Loop Sequence */
                                 		.LINE  "C:\Workspace\e2studio\git\MT01_master\r_usb_basic\src\driver\host\r_usb_hhubsys.c",1113
00000EBD FBE2rrrrrrrr            		MOV.L #_usb_shhub_InitSeq, R14
00000EC3 663F                    		MOV.L #00000003H, R15
00000EC5 FE11EF                  		MOV.W R15, [R1,R14]
00000EC8                         L304:	; bb203.split
                                 ;    1114                     usb_hhub_SpecifiedPath(mess);                       /* Next Process Selector */
                                 		.LINE  "C:\Workspace\e2studio\git\MT01_master\r_usb_basic\src\driver\host\r_usb_hhubsys.c",1114
00000EC8 A889                    		MOV.L 0CH[R0], R1
00000ECA 39rrrr               W  		BSR __$usb_hhub_SpecifiedPath
00000ECD 08                   S  		BRA L306
00000ECE                         L305:	; bb239
                                 ;    1115                 }
                                 ;    1116             }
                                 ;    1117             break;
                                 ;    1118 
                                 ;    1119         default:
                                 ;    1120             retval = USB_NG;
                                 		.LINE  "C:\Workspace\e2studio\git\MT01_master\r_usb_basic\src\driver\host\r_usb_hhubsys.c",1120
00000ECE F90905FFFF              		MOV.W #0FFFFH, 0AH[R0]
00000ED3                         L306:	; bb241
                                 ;    1121             break;
                                 ;    1122         }
                                 ;    1123 
                                 ;    1124         if( ( USB_DONE != retval ) && ( USB_HUB_QOVR != retval ) ) 
                                 		.LINE  "C:\Workspace\e2studio\git\MT01_master\r_usb_basic\src\driver\host\r_usb_hhubsys.c",1124
00000ED3 B909                    		MOVU.W 0AH[R0], R1
00000ED5 6101                    		CMP #00H, R1
00000ED7 21rr                    		BNE L311
00000ED9 2Err                 B  		BRA L313
00000EDB                         L307:	; bb242
                                 ;    1125         {
                                 ;    1126             usb_shhub_InitPort[ptr->ip] = USB_HUB_P1;                   /* Port Clear */
                                 		.LINE  "C:\Workspace\e2studio\git\MT01_master\r_usb_basic\src\driver\host\r_usb_hhubsys.c",1126
00000EDB A909                    		MOV.L 14H[R0], R1
00000EDD B991                    		MOVU.W 0CH[R1], R1
00000EDF FBE2rrrrrrrr            		MOV.L #_usb_shhub_InitPort, R14
00000EE5 661F                    		MOV.L #00000001H, R15
00000EE7 FE11EF                  		MOV.W R15, [R1,R14]
00000EEA                         L308:	; bb242.split
                                 ;    1127             usb_shhub_InitSeq[ptr->ip] = USB_SEQ_0;                     /* Sequence Clear */
                                 		.LINE  "C:\Workspace\e2studio\git\MT01_master\r_usb_basic\src\driver\host\r_usb_hhubsys.c",1127
00000EEA A909                    		MOV.L 14H[R0], R1
00000EEC B991                    		MOVU.W 0CH[R1], R1
00000EEE FBE2rrrrrrrr            		MOV.L #_usb_shhub_InitSeq, R14
00000EF4 660F                    		MOV.L #00000000H, R15
00000EF6 FE11EF                  		MOV.W R15, [R1,R14]
00000EF9                         L309:	; bb242.split11
                                 ;    1128             usb_shhub_Info[ptr->ip] = USB_NONE;                         /* Clear */
                                 		.LINE  "C:\Workspace\e2studio\git\MT01_master\r_usb_basic\src\driver\host\r_usb_hhubsys.c",1128
00000EF9 A909                    		MOV.L 14H[R0], R1
00000EFB B991                    		MOVU.W 0CH[R1], R1
00000EFD FBE2rrrrrrrr            		MOV.L #_usb_shhub_Info, R14
00000F03 660F                    		MOV.L #00000000H, R15
00000F05 FE11EF                  		MOV.W R15, [R1,R14]
00000F08                         L310:	; bb242.split12
                                 ;    1129             usb_shhub_Process[ptr->ip] = USB_NONE;                      /* Clear */
                                 		.LINE  "C:\Workspace\e2studio\git\MT01_master\r_usb_basic\src\driver\host\r_usb_hhubsys.c",1129
00000F08 A909                    		MOV.L 14H[R0], R1
00000F0A B991                    		MOVU.W 0CH[R1], R1
00000F0C FBE2rrrrrrrr            		MOV.L #_usb_shhub_Process, R14
00000F12 660F                    		MOV.L #00000000H, R15
00000F14 FE11EF                  		MOV.W R15, [R1,R14]
00000F17 2Err                 B  		BRA L315
00000F19                         L311:	; bb267
00000F19 B909                    		MOVU.W 0AH[R0], R1
00000F1B 7701FEFF00              		CMP #0FFFEH, R1
00000F20 10                   S  		BEQ L313
00000F21                         L312:	; bb272
00000F21 F80601                  		MOV.L #00000001H, [R0]
00000F24 08                   S  		BRA L314
00000F25                         L313:	; bb273
00000F25 F80600                  		MOV.L #00000000H, [R0]
00000F28                         L314:	; bb274
00000F28 EC01                    		MOV.L [R0], R1
00000F2A 6101                    		CMP #00H, R1
00000F2C 21rr                    		BNE L307
00000F2E                         L315:	; bb279
                                 ;    1130         }
                                 ;    1131 
                                 ;    1132         err = USB_REL_BLK(USB_HUB_MPL,(USB_MH_t)mess);
                                 		.LINE  "C:\Workspace\e2studio\git\MT01_master\r_usb_basic\src\driver\host\r_usb_hhubsys.c",1132
00000F2E A88A                    		MOV.L 0CH[R0], R2
00000F30 6631                    		MOV.L #00000003H, R1
00000F32 05rrrrrr             A  		BSR _usb_cstd_RelBlk
00000F36 A009                    		MOV.L R1, 04H[R0]
00000F38                         L316:	; bb279.split
                                 ;    1133         if( USB_OK != err )
                                 		.LINE  "C:\Workspace\e2studio\git\MT01_master\r_usb_basic\src\driver\host\r_usb_hhubsys.c",1133
00000F38 6706                    		RTSD #18H
00000F3A                         __$usb_hhub_PortAttach:
                                 		.STACK	__$usb_hhub_PortAttach=44
                                 ;    1134         {                                                       /* Release Memoryblock failure */
                                 ;    1135             USB_PRINTF0("### USB HostHubClass rel_blk error\n");
                                 ;    1136         }
                                 ;    1137     }
                                 ;    1138 }   /* eof usb_hhub_InitDownPort() */
                                 ;    1139 
                                 ;    1140 
                                 ;    1141 /******************************************************************************
                                 ;    1142 Function Name   : usb_hhub_PortAttach
                                 ;    1143 Description     : port attach
                                 ;    1144 Arguments       : uint16_t hubaddr          : hub address
                                 ;    1145                 : uint16_t portnum          : down port number
                                 ;    1146                 : USB_CLSINFO_t *mess
                                 ;    1147 Return value    : uint16_t                  : Manager Mode
                                 ;    1148 ******************************************************************************/
                                 ;    1149 uint16_t usb_hhub_PortAttach(uint16_t hubaddr, uint16_t portnum, USB_CLSINFO_t *mess)
                                 		.LINE  "C:\Workspace\e2studio\git\MT01_master\r_usb_basic\src\driver\host\r_usb_hhubsys.c",1149
00000F3A 7100DC                  		ADD #0FFFFFFDCH, R0
00000F3D 9409                    		MOV.W R1, 22H[R0]
00000F3F 9402                    		MOV.W R2, 20H[R0]
00000F41 A18B                    		MOV.L R3, 1CH[R0]
                                 ;    1150 {
                                 ;    1151     uint16_t        rootport, devaddr, retval;
                                 ;    1152     uint16_t        hpphub, hubport, buffer;
                                 ;    1153     USB_ER_t        err;
                                 ;    1154     USB_UTR_t       *ptr;
                                 ;    1155 
                                 ;    1156     ptr     = (USB_UTR_t *)mess;
                                 		.LINE  "C:\Workspace\e2studio\git\MT01_master\r_usb_basic\src\driver\host\r_usb_hhubsys.c",1156
00000F43 A10B                    		MOV.L R3, 14H[R0]
00000F45                         L318:	; entry.split
                                 ;    1157     hubaddr = usb_shhub_HubAddr[ptr->ip];
                                 		.LINE  "C:\Workspace\e2studio\git\MT01_master\r_usb_basic\src\driver\host\r_usb_hhubsys.c",1157
00000F45 A909                    		MOV.L 14H[R0], R1
00000F47 B991                    		MOVU.W 0CH[R1], R1
00000F49 FBE2rrrrrrrr            		MOV.L #_usb_shhub_HubAddr, R14
00000F4F FE51E1                  		MOV.W [R1,R14], R1
00000F52 9409                    		MOV.W R1, 22H[R0]
00000F54                         L319:	; entry.split1
                                 ;    1158     portnum = usb_shhub_EventPort[ptr->ip];
                                 		.LINE  "C:\Workspace\e2studio\git\MT01_master\r_usb_basic\src\driver\host\r_usb_hhubsys.c",1158
00000F54 A909                    		MOV.L 14H[R0], R1
00000F56 B991                    		MOVU.W 0CH[R1], R1
00000F58 FBE2rrrrrrrr            		MOV.L #_usb_shhub_EventPort, R14
00000F5E FE51E1                  		MOV.W [R1,R14], R1
00000F61 9401                    		MOV.W R1, 20H[R0]
00000F63                         L320:	; entry.split2
                                 ;    1159 
                                 ;    1160     if( USB_MSG_HUB_ATTACH != usb_shhub_Process[ptr->ip] )
                                 		.LINE  "C:\Workspace\e2studio\git\MT01_master\r_usb_basic\src\driver\host\r_usb_hhubsys.c",1160
00000F63 A909                    		MOV.L 14H[R0], R1
00000F65 B991                    		MOVU.W 0CH[R1], R1
00000F67 FBE2rrrrrrrr            		MOV.L #_usb_shhub_Process, R14
00000F6D FED1EE                  		MOVU.W [R1,R14], R14
00000F70 760E3601                		CMP #0136H, R14
00000F74 20rr                    		BEQ L322
00000F76                         L321:	; bb26
                                 ;    1161     {
                                 ;    1162         err = USB_SND_MSG( USB_HUB_MBX, (USB_MSG_t*)mess );
                                 		.LINE  "C:\Workspace\e2studio\git\MT01_master\r_usb_basic\src\driver\host\r_usb_hhubsys.c",1162
00000F76 A98A                    		MOV.L 1CH[R0], R2
00000F78 6631                    		MOV.L #00000003H, R1
00000F7A 05rrrrrr             A  		BSR _usb_cstd_SndMsg
00000F7E A101                    		MOV.L R1, 10H[R0]
00000F80 38rrrr               W  		BRA L402
00000F83                         L322:	; bb36
                                 ;    1163         if( USB_OK != err )
                                 ;    1164         {
                                 ;    1165             /* Send Message failure */
                                 ;    1166             USB_PRINTF0("### HUB snd_msg error\n");
                                 ;    1167         }
                                 ;    1168     }
                                 ;    1169     else
                                 ;    1170     {
                                 ;    1171         switch( usb_shhub_AttachSeq[ptr->ip] )
                                 		.LINE  "C:\Workspace\e2studio\git\MT01_master\r_usb_basic\src\driver\host\r_usb_hhubsys.c",1171
00000F83 A909                    		MOV.L 14H[R0], R1
00000F85 B991                    		MOVU.W 0CH[R1], R1
00000F87 FBE2rrrrrrrr            		MOV.L #_usb_shhub_AttachSeq, R14
00000F8D FED1EE                  		MOVU.W [R1,R14], R14
00000F90 615E                    		CMP #05H, R14
00000F92 3Arrrr               W  		BEQ L390
00000F95                         L323:	; bb36
00000F95 611E                    		CMP #01H, R14
00000F97 20rr                    		BEQ L333
00000F99                         L324:	; bb36
00000F99 612E                    		CMP #02H, R14
00000F9B 3Arrrr               W  		BEQ L369
00000F9E                         L325:	; bb36
00000F9E 613E                    		CMP #03H, R14
00000FA0 3Arrrr               W  		BEQ L381
00000FA3                         L326:	; bb36
00000FA3 614E                    		CMP #04H, R14
00000FA5 3Arrrr               W  		BEQ L384
00000FA8                         L327:	; bb36
00000FA8 610E                    		CMP #00H, R14
00000FAA 3Brrrr               W  		BNE L398
00000FAD                         L328:	; bb45
                                 ;    1172         {
                                 ;    1173         case USB_SEQ_0:
                                 ;    1174             if( USB_NULL == usb_gcstd_Pipe[ptr->ip][USB_PIPE0] )
                                 		.LINE  "C:\Workspace\e2studio\git\MT01_master\r_usb_basic\src\driver\host\r_usb_hhubsys.c",1174
00000FAD A909                    		MOV.L 14H[R0], R1
00000FAF B991                    		MOVU.W 0CH[R1], R1
00000FB1 EF1E                    		MOV.L R1, R14
00000FB3 751E28                  		MUL #28H, R14
00000FB6 FBF2rrrrrrrr            		MOV.L #_usb_gcstd_Pipe, R15
00000FBC 4BEF                    		ADD R14, R15
00000FBE ECFE                    		MOV.L [R15], R14
00000FC0 610E                    		CMP #00H, R14
00000FC2 21rr                    		BNE L331
00000FC4                         L329:	; bb46
                                 ;    1175             {
                                 ;    1176                 usb_shhub_AttachSeq[ptr->ip] = USB_SEQ_1;
                                 		.LINE  "C:\Workspace\e2studio\git\MT01_master\r_usb_basic\src\driver\host\r_usb_hhubsys.c",1176
00000FC4 FBE2rrrrrrrr            		MOV.L #_usb_shhub_AttachSeq, R14
00000FCA 661F                    		MOV.L #00000001H, R15
00000FCC FE11EF                  		MOV.W R15, [R1,R14]
00000FCF                         L330:	; bb46.split
                                 ;    1177                 usb_shhub_Process[ptr->ip] = USB_MSG_HUB_RESET;
                                 		.LINE  "C:\Workspace\e2studio\git\MT01_master\r_usb_basic\src\driver\host\r_usb_hhubsys.c",1177
00000FCF A909                    		MOV.L 14H[R0], R1
00000FD1 B991                    		MOVU.W 0CH[R1], R1
00000FD3 FBE2rrrrrrrr            		MOV.L #_usb_shhub_Process, R14
00000FD9 FBFA3701                		MOV.L #00000137H, R15
00000FDD FE11EF                  		MOV.W R15, [R1,R14]
00000FE0 2Err                 B  		BRA L332
00000FE2                         L331:	; bb57
                                 ;    1178             }
                                 ;    1179             else
                                 ;    1180             {
                                 ;    1181                 usb_shhub_AttachSeq[ptr->ip] = USB_SEQ_0;
                                 		.LINE  "C:\Workspace\e2studio\git\MT01_master\r_usb_basic\src\driver\host\r_usb_hhubsys.c",1181
00000FE2 FBE2rrrrrrrr            		MOV.L #_usb_shhub_AttachSeq, R14
00000FE8 660F                    		MOV.L #00000000H, R15
00000FEA FE11EF                  		MOV.W R15, [R1,R14]
00000FED                         L332:	; bb74
                                 ;    1182             }
                                 ;    1183             /* Next Process Selector */
                                 ;    1184             usb_hhub_SpecifiedPath(mess);
                                 		.LINE  "C:\Workspace\e2studio\git\MT01_master\r_usb_basic\src\driver\host\r_usb_hhubsys.c",1184
00000FED A989                    		MOV.L 1CH[R0], R1
00000FEF 39rrrr               W  		BSR __$usb_hhub_SpecifiedPath
00000FF2 38rrrr               W  		BRA L401
00000FF5                         L333:	; bb76
                                 ;    1185             break;
                                 ;    1186 
                                 ;    1187         case USB_SEQ_1:
                                 ;    1188             /* Device Enumeration */
                                 ;    1189             switch( (uint16_t)(usb_ghhub_Data[ptr->ip][hubaddr][1] & (uint8_t)0x06) )
                                 		.LINE  "C:\Workspace\e2studio\git\MT01_master\r_usb_basic\src\driver\host\r_usb_hhubsys.c",1189
00000FF5 A909                    		MOV.L 14H[R0], R1
00000FF7 B991                    		MOVU.W 0CH[R1], R1
00000FF9 751158                  		MUL #58H, R1
00000FFC FB22rrrrrrrr            		MOV.L #_usb_ghhub_Data, R2
00001002 4B12                    		ADD R1, R2
00001004 BC09                    		MOVU.W 22H[R0], R1
00001006 6C31                    		SHLL #03H, R1
00001008 4B12                    		ADD R1, R2
0000100A B029                    		MOVU.B 01H[R2], R1
0000100C 6461                    		AND #06H, R1
0000100E 6141                    		CMP #04H, R1
00001010 20rr                    		BEQ L338
00001012                         L334:	; bb76
00001012 6121                    		CMP #02H, R1
00001014 20rr                    		BEQ L337
00001016                         L335:	; bb76
00001016 6101                    		CMP #00H, R1
00001018 21rr                    		BNE L339
0000101A                         L336:	; bb93
                                 ;    1190             {
                                 ;    1191             case 0x00:
                                 ;    1192                 usb_ghstd_DeviceSpeed[ptr->ip] = USB_FSCONNECT;
                                 		.LINE  "C:\Workspace\e2studio\git\MT01_master\r_usb_basic\src\driver\host\r_usb_hhubsys.c",1192
0000101A A909                    		MOV.L 14H[R0], R1
0000101C B991                    		MOVU.W 0CH[R1], R1
0000101E FBE2rrrrrrrr            		MOV.L #_usb_ghstd_DeviceSpeed, R14
00001024 754F80                  		MOV.L #00000080H, R15
00001027 FE11EF                  		MOV.W R15, [R1,R14]
0000102A 2Err                 B  		BRA L340
0000102C                         L337:	; bb99
                                 ;    1193                 USB_PRINTF0(" Full-Speed Device\n");
                                 ;    1194                 break;
                                 ;    1195             case 0x02:
                                 ;    1196                 usb_ghstd_DeviceSpeed[ptr->ip] = USB_LSCONNECT;
                                 		.LINE  "C:\Workspace\e2studio\git\MT01_master\r_usb_basic\src\driver\host\r_usb_hhubsys.c",1196
0000102C A909                    		MOV.L 14H[R0], R1
0000102E B991                    		MOVU.W 0CH[R1], R1
00001030 FBE2rrrrrrrr            		MOV.L #_usb_ghstd_DeviceSpeed, R14
00001036 754F40                  		MOV.L #00000040H, R15
00001039 FE11EF                  		MOV.W R15, [R1,R14]
0000103C 2Err                 B  		BRA L340
0000103E                         L338:	; bb105
                                 ;    1197                 USB_PRINTF0(" Low-Speed Device\n");
                                 ;    1198                 break;
                                 ;    1199             case 0x04:
                                 ;    1200                 usb_ghstd_DeviceSpeed[ptr->ip] = USB_HSCONNECT;
                                 		.LINE  "C:\Workspace\e2studio\git\MT01_master\r_usb_basic\src\driver\host\r_usb_hhubsys.c",1200
0000103E A909                    		MOV.L 14H[R0], R1
00001040 B991                    		MOVU.W 0CH[R1], R1
00001042 FBE2rrrrrrrr            		MOV.L #_usb_ghstd_DeviceSpeed, R14
00001048 754FC0                  		MOV.L #000000C0H, R15
0000104B FE11EF                  		MOV.W R15, [R1,R14]
0000104E 2Err                 B  		BRA L340
00001050                         L339:	; bb111
                                 ;    1201                 USB_PRINTF0(" Hi-Speed Device\n");
                                 ;    1202                 break;
                                 ;    1203             default:
                                 ;    1204                 usb_ghstd_DeviceSpeed[ptr->ip] = USB_NOCONNECT;
                                 		.LINE  "C:\Workspace\e2studio\git\MT01_master\r_usb_basic\src\driver\host\r_usb_hhubsys.c",1204
00001050 A909                    		MOV.L 14H[R0], R1
00001052 B991                    		MOVU.W 0CH[R1], R1
00001054 FBE2rrrrrrrr            		MOV.L #_usb_ghstd_DeviceSpeed, R14
0000105A 660F                    		MOV.L #00000000H, R15
0000105C FE11EF                  		MOV.W R15, [R1,R14]
0000105F                         L340:	; bb117
                                 ;    1205                 USB_PRINTF0(" Detach Detached\n");
                                 ;    1206                 break;
                                 ;    1207             }
                                 ;    1208             rootport = usb_hstd_GetRootport(ptr, 
                                 		.LINE  "C:\Workspace\e2studio\git\MT01_master\r_usb_basic\src\driver\host\r_usb_hhubsys.c",1208
0000105F 9C0A                    		MOV.W 22H[R0], R2
00001061 A909                    		MOV.L 14H[R0], R1
00001063 6CC2                    		SHLL #0CH, R2
00001065 5F22                    		MOVU.W R2, R2
00001067 05rrrrrr             A  		BSR _usb_hstd_GetRootport
0000106B 9081                    		MOV.W R1, 04H[R0]
0000106D                         L341:	; bb117.split
                                 ;    1209                 (uint16_t)(hubaddr << USB_DEVADDRBIT));
                                 ;    1210             /* Now downport device search */
                                 ;    1211             devaddr = usb_hhub_GetCnnDevaddr(ptr, hubaddr, portnum);
                                 		.LINE  "C:\Workspace\e2studio\git\MT01_master\r_usb_basic\src\driver\host\r_usb_hhubsys.c",1211
0000106D BC03                    		MOVU.W 20H[R0], R3
0000106F BC0A                    		MOVU.W 22H[R0], R2
00001071 A909                    		MOV.L 14H[R0], R1
00001073 39rrrr               W  		BSR __$usb_hhub_GetCnnDevaddr
00001076 9089                    		MOV.W R1, 06H[R0]
00001078                         L342:	; bb117.split3
                                 ;    1212             usb_ghstd_DeviceAddr[ptr->ip] = devaddr;
                                 		.LINE  "C:\Workspace\e2studio\git\MT01_master\r_usb_basic\src\driver\host\r_usb_hhubsys.c",1212
00001078 A909                    		MOV.L 14H[R0], R1
0000107A B991                    		MOVU.W 0CH[R1], R1
0000107C FBE2rrrrrrrr            		MOV.L #_usb_ghstd_DeviceAddr, R14
00001082 988A                    		MOV.W 06H[R0], R2
00001084 FE11E2                  		MOV.W R2, [R1,R14]
00001087                         L343:	; bb117.split4
                                 ;    1213             devaddr = (uint16_t)(devaddr << USB_DEVADDRBIT);
                                 		.LINE  "C:\Workspace\e2studio\git\MT01_master\r_usb_basic\src\driver\host\r_usb_hhubsys.c",1213
00001087 9889                    		MOV.W 06H[R0], R1
00001089 6CC1                    		SHLL #0CH, R1
0000108B 9089                    		MOV.W R1, 06H[R0]
0000108D                         L344:	; bb117.split5
                                 ;    1214             usb_ghstd_MgrMode[ptr->ip][rootport] = USB_DEFAULT;
                                 		.LINE  "C:\Workspace\e2studio\git\MT01_master\r_usb_basic\src\driver\host\r_usb_hhubsys.c",1214
0000108D A909                    		MOV.L 14H[R0], R1
0000108F B991                    		MOVU.W 0CH[R1], R1
00001091 6C21                    		SHLL #02H, R1
00001093 FBE2rrrrrrrr            		MOV.L #_usb_ghstd_MgrMode, R14
00001099 4B1E                    		ADD R1, R14
0000109B 754F28                  		MOV.L #00000028H, R15
0000109E B881                    		MOVU.W 04H[R0], R1
000010A0 FE11EF                  		MOV.W R15, [R1,R14]
000010A3                         L345:	; bb117.split6
                                 ;    1215             if( 0 != devaddr )
                                 		.LINE  "C:\Workspace\e2studio\git\MT01_master\r_usb_basic\src\driver\host\r_usb_hhubsys.c",1215
000010A3 B889                    		MOVU.W 06H[R0], R1
000010A5 6101                    		CMP #00H, R1
000010A7 A909                    		MOV.L 14H[R0], R1
000010A9 3Arrrr               W  		BEQ L367
000010AC                         L346:	; bb148
                                 ;    1216             {
                                 ;    1217                 usb_hstd_SetHubPort(ptr, devaddr, (uint16_t)(hubaddr << 11), (uint16_t)(portnum << 8));
                                 		.LINE  "C:\Workspace\e2studio\git\MT01_master\r_usb_basic\src\driver\host\r_usb_hhubsys.c",1217
000010AC 9C03                    		MOV.W 20H[R0], R3
000010AE 9C0D                    		MOV.W 22H[R0], R5
000010B0 B88A                    		MOVU.W 06H[R0], R2
000010B2 6C83                    		SHLL #08H, R3
000010B4 5F34                    		MOVU.W R3, R4
000010B6 6CB5                    		SHLL #0BH, R5
000010B8 5F53                    		MOVU.W R5, R3
000010BA 05rrrrrr             A  		BSR _usb_hstd_SetHubPort
000010BE                         L347:	; bb148.split
                                 ;    1218                 /* Get DEVADDR register */
                                 ;    1219                 buffer = usb_hreg_read_devadd( ptr, devaddr );
                                 		.LINE  "C:\Workspace\e2studio\git\MT01_master\r_usb_basic\src\driver\host\r_usb_hhubsys.c",1219
000010BE B88A                    		MOVU.W 06H[R0], R2
000010C0 A909                    		MOV.L 14H[R0], R1
000010C2 05rrrrrr             A  		BSR _usb_hreg_read_devadd
000010C6 9189                    		MOV.W R1, 0EH[R0]
000010C8                         L348:	; bb162
                                 ;    1220                 do
                                 ;    1221                 {
                                 ;    1222                     hpphub  = (uint16_t)(buffer & USB_UPPHUB);
                                 		.LINE  "C:\Workspace\e2studio\git\MT01_master\r_usb_basic\src\driver\host\r_usb_hhubsys.c",1222
000010C8 B989                    		MOVU.W 0EH[R0], R1
000010CA 76210078                		AND #7800H, R1
000010CE 9109                    		MOV.W R1, 0AH[R0]
000010D0                         L349:	; bb162.split
                                 ;    1223                     hubport = (uint16_t)(buffer & USB_HUBPORT);
                                 		.LINE  "C:\Workspace\e2studio\git\MT01_master\r_usb_basic\src\driver\host\r_usb_hhubsys.c",1223
000010D0 B989                    		MOVU.W 0EH[R0], R1
000010D2 76210007                		AND #0700H, R1
000010D6 9181                    		MOV.W R1, 0CH[R0]
000010D8                         L350:	; bb162.split7
                                 ;    1224                     devaddr = (uint16_t)(hpphub << 1);
                                 		.LINE  "C:\Workspace\e2studio\git\MT01_master\r_usb_basic\src\driver\host\r_usb_hhubsys.c",1224
000010D8 9909                    		MOV.W 0AH[R0], R1
000010DA 6C11                    		SHLL #01H, R1
000010DC 9089                    		MOV.W R1, 06H[R0]
000010DE                         L351:	; bb162.split8
                                 ;    1225                     /* Get DEVADDR register */
                                 ;    1226                     buffer = usb_hreg_read_devadd( ptr, devaddr );
                                 		.LINE  "C:\Workspace\e2studio\git\MT01_master\r_usb_basic\src\driver\host\r_usb_hhubsys.c",1226
000010DE B88A                    		MOVU.W 06H[R0], R2
000010E0 A909                    		MOV.L 14H[R0], R1
000010E2 05rrrrrr             A  		BSR _usb_hreg_read_devadd
000010E6 9189                    		MOV.W R1, 0EH[R0]
000010E8                         L352:	; bb162.split9
                                 		.LINE  "C:\Workspace\e2studio\git\MT01_master\r_usb_basic\src\driver\host\r_usb_hhubsys.c",1220
000010E8 B989                    		MOVU.W 0EH[R0], R1
000010EA 7621C000                		AND #0C0H, R1
000010EE 7551C0                  		CMP #0C0H, R1
000010F1 10                   S  		BEQ L355
000010F2                         L353:	; bb183
000010F2 B889                    		MOVU.W 06H[R0], R1
000010F4 6101                    		CMP #00H, R1
000010F6 10                   S  		BEQ L355
000010F7                         L354:	; bb188
000010F7 F80601                  		MOV.L #00000001H, [R0]
000010FA 08                   S  		BRA L356
000010FB                         L355:	; bb189
000010FB F80600                  		MOV.L #00000000H, [R0]
000010FE                         L356:	; bb190
000010FE EC01                    		MOV.L [R0], R1
00001100 6101                    		CMP #00H, R1
00001102 21rr                    		BNE L348
00001104                         L357:	; bb195
                                 ;    1227                 }
                                 ;    1228                 while( ( USB_HSCONNECT != ( buffer & USB_USBSPD ) ) && ( USB_DEVICE_0 != devaddr ) );
                                 ;    1229 
                                 ;    1230                 usb_hstd_SetDevAddr(ptr, (uint16_t)USB_DEVICE_0, usb_ghstd_DeviceSpeed[ptr->ip], rootport);
                                 		.LINE  "C:\Workspace\e2studio\git\MT01_master\r_usb_basic\src\driver\host\r_usb_hhubsys.c",1230
00001104 A909                    		MOV.L 14H[R0], R1
00001106 B992                    		MOVU.W 0CH[R1], R2
00001108 FBE2rrrrrrrr            		MOV.L #_usb_ghstd_DeviceSpeed, R14
0000110E FED2E3                  		MOVU.W [R2,R14], R3
00001111 B884                    		MOVU.W 04H[R0], R4
00001113 6602                    		MOV.L #00000000H, R2
00001115 05rrrrrr             A  		BSR _usb_hstd_SetDevAddr
00001119                         L358:	; bb195.split
                                 ;    1231                 /* Set up-port hub */
                                 ;    1232                 usb_hstd_SetHubPort(ptr, (uint16_t)USB_DEVICE_0, hpphub, hubport);
                                 		.LINE  "C:\Workspace\e2studio\git\MT01_master\r_usb_basic\src\driver\host\r_usb_hhubsys.c",1232
00001119 B984                    		MOVU.W 0CH[R0], R4
0000111B B90B                    		MOVU.W 0AH[R0], R3
0000111D A909                    		MOV.L 14H[R0], R1
0000111F 6602                    		MOV.L #00000000H, R2
00001121 05rrrrrr             A  		BSR _usb_hstd_SetHubPort
00001125                         L359:	; bb195.split10
                                 ;    1233                 /* Set up-port hub */
                                 ;    1234                 usb_hstd_SetHubPort(ptr, (uint16_t)(usb_ghstd_DeviceAddr[ptr->ip] << USB_DEVADDRBIT), hpphub, hubport);
                                 		.LINE  "C:\Workspace\e2studio\git\MT01_master\r_usb_basic\src\driver\host\r_usb_hhubsys.c",1234
00001125 A909                    		MOV.L 14H[R0], R1
00001127 B992                    		MOVU.W 0CH[R1], R2
00001129 FBE2rrrrrrrr            		MOV.L #_usb_ghstd_DeviceAddr, R14
0000112F FE52EE                  		MOV.W [R2,R14], R14
00001132 B984                    		MOVU.W 0CH[R0], R4
00001134 B90B                    		MOVU.W 0AH[R0], R3
00001136 6CCE                    		SHLL #0CH, R14
00001138 5FE2                    		MOVU.W R14, R2
0000113A 05rrrrrr             A  		BSR _usb_hstd_SetHubPort
0000113E                         L360:	; bb195.split11
                                 ;    1235                 /* Clear Enumeration Sequence Number */
                                 ;    1236                 usb_ghstd_EnumSeq[ptr->ip] = 0;
                                 		.LINE  "C:\Workspace\e2studio\git\MT01_master\r_usb_basic\src\driver\host\r_usb_hhubsys.c",1236
0000113E A909                    		MOV.L 14H[R0], R1
00001140 B991                    		MOVU.W 0CH[R1], R1
00001142 FBE2rrrrrrrr            		MOV.L #_usb_ghstd_EnumSeq, R14
00001148 660F                    		MOV.L #00000000H, R15
0000114A FE11EF                  		MOV.W R15, [R1,R14]
0000114D                         L361:	; bb195.split12
                                 ;    1237                 if( USB_NOCONNECT != usb_ghstd_DeviceSpeed[ptr->ip] )
                                 		.LINE  "C:\Workspace\e2studio\git\MT01_master\r_usb_basic\src\driver\host\r_usb_hhubsys.c",1237
0000114D A909                    		MOV.L 14H[R0], R1
0000114F B991                    		MOVU.W 0CH[R1], R1
00001151 FBE2rrrrrrrr            		MOV.L #_usb_ghstd_DeviceSpeed, R14
00001157 FED1EE                  		MOVU.W [R1,R14], R14
0000115A 610E                    		CMP #00H, R14
0000115C 20rr                    		BEQ L365
0000115E                         L362:	; bb225
                                 ;    1238                 {
                                 ;    1239                     (*usb_ghstd_EnumarationProcess[0])(ptr, (uint16_t)USB_DEVICE_0, (uint16_t)0);
                                 		.LINE  "C:\Workspace\e2studio\git\MT01_master\r_usb_basic\src\driver\host\r_usb_hhubsys.c",1239
0000115E FBE2rrrrrrrr            		MOV.L #_usb_ghstd_EnumarationProcess, R14
00001164 ECEE                    		MOV.L [R14], R14
00001166 A909                    		MOV.L 14H[R0], R1
00001168 6602                    		MOV.L #00000000H, R2
0000116A EF23                    		MOV.L R2, R3
0000116C 7F1E                    		JSR R14
0000116E                         L363:	; bb225.split
                                 ;    1240                     usb_shhub_AttachSeq[ptr->ip] = USB_SEQ_2;
                                 		.LINE  "C:\Workspace\e2studio\git\MT01_master\r_usb_basic\src\driver\host\r_usb_hhubsys.c",1240
0000116E A909                    		MOV.L 14H[R0], R1
00001170 B991                    		MOVU.W 0CH[R1], R1
00001172 FBE2rrrrrrrr            		MOV.L #_usb_shhub_AttachSeq, R14
00001178 662F                    		MOV.L #00000002H, R15
0000117A FE11EF                  		MOV.W R15, [R1,R14]
0000117D                         L364:	; bb225.split13
                                 ;    1241                     usb_hhub_SpecifiedPathWait(mess, 3u);
                                 		.LINE  "C:\Workspace\e2studio\git\MT01_master\r_usb_basic\src\driver\host\r_usb_hhubsys.c",1241
0000117D A989                    		MOV.L 1CH[R0], R1
0000117F 6632                    		MOV.L #00000003H, R2
00001181 39rrrr               W  		BSR __$usb_hhub_SpecifiedPathWait
00001184 38rrrr               W  		BRA L401
00001187                         L365:	; bb234
                                 ;    1242                 }
                                 ;    1243                 else
                                 ;    1244                 {
                                 ;    1245                     usb_shhub_AttachSeq[ptr->ip] = USB_SEQ_3;
                                 		.LINE  "C:\Workspace\e2studio\git\MT01_master\r_usb_basic\src\driver\host\r_usb_hhubsys.c",1245
00001187 A909                    		MOV.L 14H[R0], R1
00001189 B991                    		MOVU.W 0CH[R1], R1
0000118B FBE2rrrrrrrr            		MOV.L #_usb_shhub_AttachSeq, R14
00001191 663F                    		MOV.L #00000003H, R15
00001193 FE11EF                  		MOV.W R15, [R1,R14]
00001196                         L366:	; bb234.split
                                 ;    1246                     /* Next Process Selector */
                                 ;    1247                     usb_hhub_SpecifiedPath(mess);
                                 		.LINE  "C:\Workspace\e2studio\git\MT01_master\r_usb_basic\src\driver\host\r_usb_hhubsys.c",1247
00001196 A989                    		MOV.L 1CH[R0], R1
00001198 39rrrr               W  		BSR __$usb_hhub_SpecifiedPath
0000119B 38rrrr               W  		BRA L401
0000119E                         L367:	; bb252
                                 ;    1248                 }
                                 ;    1249             }
                                 ;    1250             else
                                 ;    1251             {
                                 ;    1252                 usb_shhub_AttachSeq[ptr->ip] = USB_SEQ_3;
                                 		.LINE  "C:\Workspace\e2studio\git\MT01_master\r_usb_basic\src\driver\host\r_usb_hhubsys.c",1252
0000119E B991                    		MOVU.W 0CH[R1], R1
000011A0 FBE2rrrrrrrr            		MOV.L #_usb_shhub_AttachSeq, R14
000011A6 663F                    		MOV.L #00000003H, R15
000011A8 FE11EF                  		MOV.W R15, [R1,R14]
000011AB                         L368:	; bb252.split
                                 ;    1253                 /* Next Process Selector */
                                 ;    1254                 usb_hhub_SpecifiedPath(mess);
                                 		.LINE  "C:\Workspace\e2studio\git\MT01_master\r_usb_basic\src\driver\host\r_usb_hhubsys.c",1254
000011AB A989                    		MOV.L 1CH[R0], R1
000011AD 39rrrr               W  		BSR __$usb_hhub_SpecifiedPath
000011B0 38rrrr               W  		BRA L401
000011B3                         L369:	; bb265
                                 ;    1255             }
                                 ;    1256             break;
                                 ;    1257 
                                 ;    1258         case USB_SEQ_2:
                                 ;    1259             /* Get Port Number */
                                 ;    1260             rootport = usb_hstd_GetRootport(ptr, (uint16_t)(hubaddr << USB_DEVADDRBIT));
                                 		.LINE  "C:\Workspace\e2studio\git\MT01_master\r_usb_basic\src\driver\host\r_usb_hhubsys.c",1260
000011B3 9C0A                    		MOV.W 22H[R0], R2
000011B5 A909                    		MOV.L 14H[R0], R1
000011B7 6CC2                    		SHLL #0CH, R2
000011B9 5F22                    		MOVU.W R2, R2
000011BB 05rrrrrr             A  		BSR _usb_hstd_GetRootport
000011BF 9081                    		MOV.W R1, 04H[R0]
000011C1                         L370:	; bb265.split
                                 ;    1261             if( ( USB_CONFIGURED == usb_ghstd_MgrMode[ptr->ip][rootport] )
                                 		.LINE  "C:\Workspace\e2studio\git\MT01_master\r_usb_basic\src\driver\host\r_usb_hhubsys.c",1261
000011C1 A909                    		MOV.L 14H[R0], R1
000011C3 B991                    		MOVU.W 0CH[R1], R1
000011C5 6C21                    		SHLL #02H, R1
000011C7 FBE2rrrrrrrr            		MOV.L #_usb_ghstd_MgrMode, R14
000011CD 4B1E                    		ADD R1, R14
000011CF B881                    		MOVU.W 04H[R0], R1
000011D1 FED1EE                  		MOVU.W [R1,R14], R14
000011D4 755E46                  		CMP #46H, R14
000011D7 20rr                    		BEQ L378
000011D9 2Err                 B  		BRA L377
000011DB                         L371:	; bb273
000011DB 661E                    		MOV.L #00000001H, R14
                                 ;    1262              || ( USB_DEFAULT != usb_ghstd_MgrMode[ptr->ip][rootport] ) )
                                 ;    1263             {
                                 ;    1264                 /* HUB downport status */
                                 ;    1265                 usb_shhub_DownPort[ptr->ip][hubaddr] |= USB_BITSET(portnum);
                                 		.LINE  "C:\Workspace\e2studio\git\MT01_master\r_usb_basic\src\driver\host\r_usb_hhubsys.c",1265
000011DD BC02                    		MOVU.W 20H[R0], R2
000011DF FD622E                  		SHLL R2, R14
000011E2 751116                  		MUL #16H, R1
000011E5 FBF2rrrrrrrr            		MOV.L #_usb_shhub_DownPort, R15
000011EB 4B1F                    		ADD R1, R15
000011ED BC09                    		MOVU.W 22H[R0], R1
000011EF FDC115                  		SHLL #01H, R1, R5
000011F2 4BF5                    		ADD R15, R5
000011F4 06545E                  		OR [R5].W, R14
000011F7 FE11FE                  		MOV.W R14, [R1,R15]
000011FA                         L372:	; bb273.split
                                 ;    1266                 usb_shhub_AttachSeq[ptr->ip] = USB_SEQ_0;
                                 		.LINE  "C:\Workspace\e2studio\git\MT01_master\r_usb_basic\src\driver\host\r_usb_hhubsys.c",1266
000011FA A909                    		MOV.L 14H[R0], R1
000011FC B991                    		MOVU.W 0CH[R1], R1
000011FE FBE2rrrrrrrr            		MOV.L #_usb_shhub_AttachSeq, R14
00001204 660F                    		MOV.L #00000000H, R15
00001206 FE11EF                  		MOV.W R15, [R1,R14]
00001209                         L373:	; bb273.split14
                                 ;    1267                 usb_shhub_Process[ptr->ip] = USB_MSG_HUB_EVENT;
                                 		.LINE  "C:\Workspace\e2studio\git\MT01_master\r_usb_basic\src\driver\host\r_usb_hhubsys.c",1267
00001209 A909                    		MOV.L 14H[R0], R1
0000120B B991                    		MOVU.W 0CH[R1], R1
0000120D FBE2rrrrrrrr            		MOV.L #_usb_shhub_Process, R14
00001213 FBFA3501                		MOV.L #00000135H, R15
00001217 FE11EF                  		MOV.W R15, [R1,R14]
0000121A                         L374:	; bb273.split15
                                 ;    1268                 usb_hhub_SpecifiedPath(mess);
                                 		.LINE  "C:\Workspace\e2studio\git\MT01_master\r_usb_basic\src\driver\host\r_usb_hhubsys.c",1268
0000121A A989                    		MOV.L 1CH[R0], R1
0000121C 39rrrr               W  		BSR __$usb_hhub_SpecifiedPath
0000121F 38rrrr               W  		BRA L401
00001222                         L375:	; bb303
                                 ;    1269             }
                                 ;    1270             else
                                 ;    1271             {
                                 ;    1272                 usb_shhub_AttachSeq[ptr->ip] = USB_SEQ_2;
                                 		.LINE  "C:\Workspace\e2studio\git\MT01_master\r_usb_basic\src\driver\host\r_usb_hhubsys.c",1272
00001222 FBE2rrrrrrrr            		MOV.L #_usb_shhub_AttachSeq, R14
00001228 662F                    		MOV.L #00000002H, R15
0000122A FE11EF                  		MOV.W R15, [R1,R14]
0000122D                         L376:	; bb303.split
                                 ;    1273                 usb_hhub_SpecifiedPathWait(mess, 3u);
                                 		.LINE  "C:\Workspace\e2studio\git\MT01_master\r_usb_basic\src\driver\host\r_usb_hhubsys.c",1273
0000122D A989                    		MOV.L 1CH[R0], R1
0000122F 6632                    		MOV.L #00000003H, R2
00001231 39rrrr               W  		BSR __$usb_hhub_SpecifiedPathWait
00001234 38rrrr               W  		BRA L401
00001237                         L377:	; bb323
00001237 A909                    		MOV.L 14H[R0], R1
00001239 B991                    		MOVU.W 0CH[R1], R1
0000123B 6C21                    		SHLL #02H, R1
0000123D FBE2rrrrrrrr            		MOV.L #_usb_ghstd_MgrMode, R14
00001243 4B1E                    		ADD R1, R14
00001245 B881                    		MOVU.W 04H[R0], R1
00001247 FED1EE                  		MOVU.W [R1,R14], R14
0000124A 755E28                  		CMP #28H, R14
0000124D 10                   S  		BEQ L379
0000124E                         L378:	; bb337
0000124E F80601                  		MOV.L #00000001H, [R0]
00001251 08                   S  		BRA L380
00001252                         L379:	; bb338
00001252 F80600                  		MOV.L #00000000H, [R0]
00001255                         L380:	; bb339
00001255 EC01                    		MOV.L [R0], R1
00001257 6101                    		CMP #00H, R1
00001259 A909                    		MOV.L 14H[R0], R1
0000125B B991                    		MOVU.W 0CH[R1], R1
0000125D 3Brrrr               W  		BNE L371
00001260 2Err                 B  		BRA L375
00001262                         L381:	; bb345
                                 ;    1274             }
                                 ;    1275             break;
                                 ;    1276 
                                 ;    1277         case USB_SEQ_3:
                                 ;    1278             usb_shhub_AttachSeq[ptr->ip] = USB_SEQ_4;
                                 		.LINE  "C:\Workspace\e2studio\git\MT01_master\r_usb_basic\src\driver\host\r_usb_hhubsys.c",1278
00001262 A909                    		MOV.L 14H[R0], R1
00001264 B991                    		MOVU.W 0CH[R1], R1
00001266 FBE2rrrrrrrr            		MOV.L #_usb_shhub_AttachSeq, R14
0000126C 664F                    		MOV.L #00000004H, R15
0000126E FE11EF                  		MOV.W R15, [R1,R14]
00001271                         L382:	; bb345.split
                                 ;    1279             usb_shhub_Process[ptr->ip] = USB_MSG_HUB_RESET;
                                 		.LINE  "C:\Workspace\e2studio\git\MT01_master\r_usb_basic\src\driver\host\r_usb_hhubsys.c",1279
00001271 A909                    		MOV.L 14H[R0], R1
00001273 B991                    		MOVU.W 0CH[R1], R1
00001275 FBE2rrrrrrrr            		MOV.L #_usb_shhub_Process, R14
0000127B FBFA3701                		MOV.L #00000137H, R15
0000127F FE11EF                  		MOV.W R15, [R1,R14]
00001282                         L383:	; bb345.split16
                                 ;    1280             /* Next Process Selector */
                                 ;    1281             usb_hhub_SpecifiedPath(mess);
                                 		.LINE  "C:\Workspace\e2studio\git\MT01_master\r_usb_basic\src\driver\host\r_usb_hhubsys.c",1281
00001282 A989                    		MOV.L 1CH[R0], R1
00001284 39rrrr               W  		BSR __$usb_hhub_SpecifiedPath
00001287 38rrrr               W  		BRA L401
0000128A                         L384:	; bb357
                                 ;    1282             break;
                                 ;    1283 
                                 ;    1284         case USB_SEQ_4:
                                 ;    1285             retval = usb_hhub_request_result(mess->result);
                                 		.LINE  "C:\Workspace\e2studio\git\MT01_master\r_usb_basic\src\driver\host\r_usb_hhubsys.c",1285
0000128A A989                    		MOV.L 1CH[R0], R1
0000128C B999                    		MOVU.W 0EH[R1], R1
0000128E 39rrrr               W  		BSR __$usb_hhub_request_result
00001291 9101                    		MOV.W R1, 08H[R0]
00001293                         L385:	; bb357.split
                                 ;    1286             if( USB_DONE == retval )
                                 		.LINE  "C:\Workspace\e2studio\git\MT01_master\r_usb_basic\src\driver\host\r_usb_hhubsys.c",1286
00001293 B901                    		MOVU.W 08H[R0], R1
00001295 6101                    		CMP #00H, R1
00001297 3Brrrr               W  		BNE L401
0000129A                         L386:	; bb363
                                 ;    1287             {
                                 ;    1288                 /* Hub Port Set Feature Request */
                                 ;    1289                 retval = usb_hhub_PortSetFeature( ptr, hubaddr, portnum, USB_HUB_PORT_SUSPEND,
                                 		.LINE  "C:\Workspace\e2studio\git\MT01_master\r_usb_basic\src\driver\host\r_usb_hhubsys.c",1289
0000129A BC03                    		MOVU.W 20H[R0], R3
0000129C BC0A                    		MOVU.W 22H[R0], R2
0000129E A909                    		MOV.L 14H[R0], R1
000012A0 6040                    		SUB #04H, R0
000012A2 FBE2rrrrrrrr            		MOV.L #__$usb_hhub_class_request_complete, R14
000012A8 E30E                    		MOV.L R14, [R0]
000012AA 6624                    		MOV.L #00000002H, R4
000012AC 39rrrr               W  		BSR __$usb_hhub_PortSetFeature
000012AF 6240                    		ADD #04H, R0
000012B1 9101                    		MOV.W R1, 08H[R0]
000012B3                         L387:	; bb363.split
                                 ;    1290                                                   usb_hhub_class_request_complete);
                                 ;    1291                 /* Submit overlap error */
                                 ;    1292                 if( USB_HUB_QOVR == retval )
                                 		.LINE  "C:\Workspace\e2studio\git\MT01_master\r_usb_basic\src\driver\host\r_usb_hhubsys.c",1292
000012B3 B901                    		MOVU.W 08H[R0], R1
000012B5 7701FEFF00              		CMP #0FFFEH, R1
000012BA 21rr                    		BNE L389
000012BC                         L388:	; bb369
                                 ;    1293                 {
                                 ;    1294                     usb_hhub_SpecifiedPathWait( mess, (uint16_t)10 );
                                 		.LINE  "C:\Workspace\e2studio\git\MT01_master\r_usb_basic\src\driver\host\r_usb_hhubsys.c",1294
000012BC A989                    		MOV.L 1CH[R0], R1
000012BE 66A2                    		MOV.L #0000000AH, R2
000012C0 39rrrr               W  		BSR __$usb_hhub_SpecifiedPathWait
000012C3 38rrrr               W  		BRA L401
000012C6                         L389:	; bb371
                                 ;    1295                 }
                                 ;    1296                 else
                                 ;    1297                 {
                                 ;    1298                     usb_shhub_AttachSeq[ptr->ip] = USB_SEQ_5;
                                 		.LINE  "C:\Workspace\e2studio\git\MT01_master\r_usb_basic\src\driver\host\r_usb_hhubsys.c",1298
000012C6 A909                    		MOV.L 14H[R0], R1
000012C8 B991                    		MOVU.W 0CH[R1], R1
000012CA FBE2rrrrrrrr            		MOV.L #_usb_shhub_AttachSeq, R14
000012D0 665F                    		MOV.L #00000005H, R15
000012D2 FE11EF                  		MOV.W R15, [R1,R14]
000012D5 38rrrr               W  		BRA L401
000012D8                         L390:	; bb389
                                 ;    1299                 }
                                 ;    1300             }
                                 ;    1301             break;
                                 ;    1302 
                                 ;    1303         case USB_SEQ_5:
                                 ;    1304             retval = usb_hhub_request_result(mess->result);
                                 		.LINE  "C:\Workspace\e2studio\git\MT01_master\r_usb_basic\src\driver\host\r_usb_hhubsys.c",1304
000012D8 A989                    		MOV.L 1CH[R0], R1
000012DA B999                    		MOVU.W 0EH[R1], R1
000012DC 39rrrr               W  		BSR __$usb_hhub_request_result
000012DF 9101                    		MOV.W R1, 08H[R0]
000012E1                         L391:	; bb389.split
                                 ;    1305             if( USB_DONE == retval )
                                 		.LINE  "C:\Workspace\e2studio\git\MT01_master\r_usb_basic\src\driver\host\r_usb_hhubsys.c",1305
000012E1 B901                    		MOVU.W 08H[R0], R1
000012E3 6101                    		CMP #00H, R1
000012E5 3Brrrr               W  		BNE L401
000012E8                         L392:	; bb395
                                 ;    1306             {
                                 ;    1307                 usb_hhub_port_detach(ptr, hubaddr, portnum);
                                 		.LINE  "C:\Workspace\e2studio\git\MT01_master\r_usb_basic\src\driver\host\r_usb_hhubsys.c",1307
000012E8 BC03                    		MOVU.W 20H[R0], R3
000012EA BC0A                    		MOVU.W 22H[R0], R2
000012EC A909                    		MOV.L 14H[R0], R1
000012EE 39rrrr               W  		BSR __$usb_hhub_port_detach
000012F1                         L393:	; bb395.split
                                 ;    1308                 usb_shhub_InfoData[ptr->ip][devaddr].up_addr     = 0;            /* Up-hubaddr clear */
                                 		.LINE  "C:\Workspace\e2studio\git\MT01_master\r_usb_basic\src\driver\host\r_usb_hhubsys.c",1308
000012F1 A909                    		MOV.L 14H[R0], R1
000012F3 B991                    		MOVU.W 0CH[R1], R1
000012F5 751158                  		MUL #58H, R1
000012F8 FBE2rrrrrrrr            		MOV.L #_usb_shhub_InfoData, R14
000012FE 4B1E                    		ADD R1, R14
00001300 B889                    		MOVU.W 06H[R0], R1
00001302 6C31                    		SHLL #03H, R1
00001304 4B1E                    		ADD R1, R14
00001306 F8E500                  		MOV.W #0000H, [R14]
00001309                         L394:	; bb395.split17
                                 ;    1309                 usb_shhub_InfoData[ptr->ip][devaddr].up_port_num = 0;            /* Up-hubport clear */
                                 		.LINE  "C:\Workspace\e2studio\git\MT01_master\r_usb_basic\src\driver\host\r_usb_hhubsys.c",1309
00001309 A909                    		MOV.L 14H[R0], R1
0000130B B991                    		MOVU.W 0CH[R1], R1
0000130D 751158                  		MUL #58H, R1
00001310 FB22rrrrrrrr            		MOV.L #_usb_shhub_InfoData, R2
00001316 4B12                    		ADD R1, R2
00001318 B889                    		MOVU.W 06H[R0], R1
0000131A 6C31                    		SHLL #03H, R1
0000131C 4B12                    		ADD R1, R2
0000131E 3D2100                  		MOV.W #0000H, 02H[R2]
00001321                         L395:	; bb395.split18
                                 ;    1310                 usb_shhub_AttachSeq[ptr->ip] = USB_SEQ_0;
                                 		.LINE  "C:\Workspace\e2studio\git\MT01_master\r_usb_basic\src\driver\host\r_usb_hhubsys.c",1310
00001321 A909                    		MOV.L 14H[R0], R1
00001323 B991                    		MOVU.W 0CH[R1], R1
00001325 FBE2rrrrrrrr            		MOV.L #_usb_shhub_AttachSeq, R14
0000132B 660F                    		MOV.L #00000000H, R15
0000132D FE11EF                  		MOV.W R15, [R1,R14]
00001330                         L396:	; bb395.split19
                                 ;    1311                 usb_shhub_Process[ptr->ip] = USB_MSG_HUB_EVENT;
                                 		.LINE  "C:\Workspace\e2studio\git\MT01_master\r_usb_basic\src\driver\host\r_usb_hhubsys.c",1311
00001330 A909                    		MOV.L 14H[R0], R1
00001332 B991                    		MOVU.W 0CH[R1], R1
00001334 FBE2rrrrrrrr            		MOV.L #_usb_shhub_Process, R14
0000133A FBFA3501                		MOV.L #00000135H, R15
0000133E FE11EF                  		MOV.W R15, [R1,R14]
00001341                         L397:	; bb395.split20
                                 ;    1312                 usb_hhub_SpecifiedPath(mess);
                                 		.LINE  "C:\Workspace\e2studio\git\MT01_master\r_usb_basic\src\driver\host\r_usb_hhubsys.c",1312
00001341 A989                    		MOV.L 1CH[R0], R1
00001343 39rrrr               W  		BSR __$usb_hhub_SpecifiedPath
00001346 2Err                 B  		BRA L401
00001348                         L398:	; bb436
                                 ;    1313             }
                                 ;    1314             break;
                                 ;    1315 
                                 ;    1316         default:
                                 ;    1317             usb_shhub_AttachSeq[ptr->ip] = USB_SEQ_0;
                                 		.LINE  "C:\Workspace\e2studio\git\MT01_master\r_usb_basic\src\driver\host\r_usb_hhubsys.c",1317
00001348 A909                    		MOV.L 14H[R0], R1
0000134A B991                    		MOVU.W 0CH[R1], R1
0000134C FBE2rrrrrrrr            		MOV.L #_usb_shhub_AttachSeq, R14
00001352 660F                    		MOV.L #00000000H, R15
00001354 FE11EF                  		MOV.W R15, [R1,R14]
00001357                         L399:	; bb436.split
                                 ;    1318             usb_shhub_Process[ptr->ip] = USB_NONE;
                                 		.LINE  "C:\Workspace\e2studio\git\MT01_master\r_usb_basic\src\driver\host\r_usb_hhubsys.c",1318
00001357 A909                    		MOV.L 14H[R0], R1
00001359 B991                    		MOVU.W 0CH[R1], R1
0000135B FBE2rrrrrrrr            		MOV.L #_usb_shhub_Process, R14
00001361 660F                    		MOV.L #00000000H, R15
00001363 FE11EF                  		MOV.W R15, [R1,R14]
00001366                         L400:	; bb436.split21
                                 ;    1319             usb_shhub_Info[ptr->ip] = USB_NONE;
                                 		.LINE  "C:\Workspace\e2studio\git\MT01_master\r_usb_basic\src\driver\host\r_usb_hhubsys.c",1319
00001366 A909                    		MOV.L 14H[R0], R1
00001368 B991                    		MOVU.W 0CH[R1], R1
0000136A FBE2rrrrrrrr            		MOV.L #_usb_shhub_Info, R14
00001370 660F                    		MOV.L #00000000H, R15
00001372 FE11EF                  		MOV.W R15, [R1,R14]
00001375                         L401:	; bb452
                                 ;    1320             break;
                                 ;    1321         }
                                 ;    1322 
                                 ;    1323         err = USB_REL_BLK(USB_HUB_MPL,(USB_MH_t)mess);
                                 		.LINE  "C:\Workspace\e2studio\git\MT01_master\r_usb_basic\src\driver\host\r_usb_hhubsys.c",1323
00001375 A98A                    		MOV.L 1CH[R0], R2
00001377 6631                    		MOV.L #00000003H, R1
00001379 05rrrrrr             A  		BSR _usb_cstd_RelBlk
0000137D A101                    		MOV.L R1, 10H[R0]
0000137F                         L402:	; bb474
                                 ;    1324         if( USB_OK != err )
                                 ;    1325         {
                                 ;    1326             USB_PRINTF0("### USB HostHubClass rel_blk error\n");
                                 ;    1327         }
                                 ;    1328     }
                                 ;    1329     return USB_DONE;
                                 		.LINE  "C:\Workspace\e2studio\git\MT01_master\r_usb_basic\src\driver\host\r_usb_hhubsys.c",1329
0000137F 3D0D00                  		MOV.W #0000H, 1AH[R0]
00001382 9B09                    		MOV.W 1AH[R0], R1
00001384                         L403:	; bb474.split
                                 ;    1330 }   /* eof usb_hhub_PortAttach() */
                                 		.LINE  "C:\Workspace\e2studio\git\MT01_master\r_usb_basic\src\driver\host\r_usb_hhubsys.c",1330
00001384 5F11                    		MOVU.W R1, R1
00001386 6709                    		RTSD #24H
00001388                         __$usb_hhub_event:
                                 		.STACK	__$usb_hhub_event=36
                                 ;    1331 
                                 ;    1332 
                                 ;    1333 /******************************************************************************
                                 ;    1334 Function Name   : usb_hhub_event
                                 ;    1335 Description     : USB Hub Event process.
                                 ;    1336 Arguments       : USB_CLSINFO_t *mess    : USB system internal message.
                                 ;    1337 Return value    : none
                                 ;    1338 ******************************************************************************/
                                 ;    1339 void usb_hhub_event(USB_CLSINFO_t *mess)
                                 		.LINE  "C:\Workspace\e2studio\git\MT01_master\r_usb_basic\src\driver\host\r_usb_hhubsys.c",1339
00001388 7100E4                  		ADD #0FFFFFFE4H, R0
0000138B A181                    		MOV.L R1, 18H[R0]
                                 ;    1340 {
                                 ;    1341     USB_ER_t        err;
                                 ;    1342     uint16_t        hubaddr, devaddr, retval;
                                 ;    1343     USB_UTR_t       *ptr;
                                 ;    1344     uint32_t        port_status;
                                 ;    1345     uint16_t        next_port_check = USB_NO;
                                 		.LINE  "C:\Workspace\e2studio\git\MT01_master\r_usb_basic\src\driver\host\r_usb_hhubsys.c",1345
0000138D 3D0A00                  		MOV.W #0000H, 14H[R0]
00001390                         L405:	; entry.split
                                 ;    1346     uint16_t        port_clr_feature_type;
                                 ;    1347 
                                 ;    1348     ptr = (USB_UTR_t *)mess;
                                 		.LINE  "C:\Workspace\e2studio\git\MT01_master\r_usb_basic\src\driver\host\r_usb_hhubsys.c",1348
00001390 E5000603                		MOV.L 18H[R0], 0CH[R0]
00001394                         L406:	; entry.split1
                                 ;    1349     hubaddr = usb_shhub_HubAddr[ptr->ip];
                                 		.LINE  "C:\Workspace\e2studio\git\MT01_master\r_usb_basic\src\driver\host\r_usb_hhubsys.c",1349
00001394 A889                    		MOV.L 0CH[R0], R1
00001396 B991                    		MOVU.W 0CH[R1], R1
00001398 FBE2rrrrrrrr            		MOV.L #_usb_shhub_HubAddr, R14
0000139E FE51E1                  		MOV.W [R1,R14], R1
000013A1 9089                    		MOV.W R1, 06H[R0]
000013A3                         L407:	; entry.split2
                                 ;    1350 
                                 ;    1351     if( USB_MSG_HUB_EVENT != usb_shhub_Process[ptr->ip] )
                                 		.LINE  "C:\Workspace\e2studio\git\MT01_master\r_usb_basic\src\driver\host\r_usb_hhubsys.c",1351
000013A3 A889                    		MOV.L 0CH[R0], R1
000013A5 B991                    		MOVU.W 0CH[R1], R1
000013A7 FBE2rrrrrrrr            		MOV.L #_usb_shhub_Process, R14
000013AD FED1EE                  		MOVU.W [R1,R14], R14
000013B0 760E3501                		CMP #0135H, R14
000013B4 20rr                    		BEQ L410
000013B6                         L408:	; bb16
                                 ;    1352     {
                                 ;    1353         err = USB_SND_MSG( USB_HUB_MBX, (USB_MSG_t*)mess );
                                 		.LINE  "C:\Workspace\e2studio\git\MT01_master\r_usb_basic\src\driver\host\r_usb_hhubsys.c",1353
000013B6 A982                    		MOV.L 18H[R0], R2
000013B8 6631                    		MOV.L #00000003H, R1
000013BA 05rrrrrr             A  		BSR _usb_cstd_SndMsg
000013BE E301                    		MOV.L R1, [R0]
000013C0                         L409:	; bb16.split
                                 ;    1354         if( USB_OK != err )
                                 		.LINE  "C:\Workspace\e2studio\git\MT01_master\r_usb_basic\src\driver\host\r_usb_hhubsys.c",1354
000013C0 6707                    		RTSD #1CH
000013C2                         L410:	; bb26
                                 ;    1355         {
                                 ;    1356             USB_PRINTF0("### HUB snd_msg error\n");
                                 ;    1357         }
                                 ;    1358     }
                                 ;    1359     else
                                 ;    1360     {
                                 ;    1361         switch( usb_shhub_EventSeq[ptr->ip] )
                                 		.LINE  "C:\Workspace\e2studio\git\MT01_master\r_usb_basic\src\driver\host\r_usb_hhubsys.c",1361
000013C2 A889                    		MOV.L 0CH[R0], R1
000013C4 B991                    		MOVU.W 0CH[R1], R1
000013C6 FBE2rrrrrrrr            		MOV.L #_usb_shhub_EventSeq, R14
000013CC FED1EE                  		MOVU.W [R1,R14], R14
000013CF 614E                    		CMP #04H, R14
000013D1 3Arrrr               W  		BEQ L480
000013D4                         L411:	; bb26
000013D4 611E                    		CMP #01H, R14
000013D6 3Arrrr               W  		BEQ L426
000013D9                         L412:	; bb26
000013D9 612E                    		CMP #02H, R14
000013DB 3Arrrr               W  		BEQ L452
000013DE                         L413:	; bb26
000013DE 613E                    		CMP #03H, R14
000013E0 3Arrrr               W  		BEQ L457
000013E3                         L414:	; bb26
000013E3 610E                    		CMP #00H, R14
000013E5 3Brrrr               W  		BNE L481
000013E8                         L415:	; bb35
                                 ;    1362         {
                                 ;    1363         case USB_SEQ_0:        /* Request */
                                 ;    1364             if( USB_MSG_HUB_SUBMITRESULT == usb_shhub_Info[ptr->ip] )        /* Event Check */
                                 		.LINE  "C:\Workspace\e2studio\git\MT01_master\r_usb_basic\src\driver\host\r_usb_hhubsys.c",1364
000013E8 A889                    		MOV.L 0CH[R0], R1
000013EA B992                    		MOVU.W 0CH[R1], R2
000013EC FBE2rrrrrrrr            		MOV.L #_usb_shhub_Info, R14
000013F2 FED2EE                  		MOVU.W [R2,R14], R14
000013F5 760E3401                		CMP #0134H, R14
000013F9 21rr                    		BNE L422
000013FB                         L416:	; bb37
                                 ;    1365             {
                                 ;    1366                 /* Hub and Port Status Change Bitmap(b0:Hub,b1:DownPort1change detected,b2:DownPort2,...) */
                                 ;    1367                 if( 0 != ( usb_ghhub_Data[ptr->ip][hubaddr][0] & USB_BITSET(usb_shhub_EventPort[ptr->ip]) ) )
                                 		.LINE  "C:\Workspace\e2studio\git\MT01_master\r_usb_basic\src\driver\host\r_usb_hhubsys.c",1367
000013FB A88A                    		MOV.L 0CH[R0], R2
000013FD B9A2                    		MOVU.W 0CH[R2], R2
000013FF FBE2rrrrrrrr            		MOV.L #_usb_shhub_EventPort, R14
00001405 FED2EE                  		MOVU.W [R2,R14], R14
00001408 B991                    		MOVU.W 0CH[R1], R1
0000140A 751158                  		MUL #58H, R1
0000140D FBF2rrrrrrrr            		MOV.L #_usb_ghhub_Data, R15
00001413 4B1F                    		ADD R1, R15
00001415 B889                    		MOVU.W 06H[R0], R1
00001417 6C31                    		SHLL #03H, R1
00001419 FECF1F                  		MOVU.B [R15,R1], R15
0000141C FC6BFE                  		BTST R14, R15
0000141F 20rr                    		BEQ L421
00001421                         L417:	; bb38
                                 ;    1368                 {
                                 ;    1369                     USB_PRINTF1(" *** HUB port %d \t",usb_shhub_EventPort[ptr->ip]);
                                 ;    1370                     /* GetStatus request */
                                 ;    1371                     retval = R_usb_hhub_GetPortInformation( ptr, hubaddr, usb_shhub_EventPort[ptr->ip],
                                 		.LINE  "C:\Workspace\e2studio\git\MT01_master\r_usb_basic\src\driver\host\r_usb_hhubsys.c",1371
00001421 A889                    		MOV.L 0CH[R0], R1
00001423 B992                    		MOVU.W 0CH[R1], R2
00001425 FBE2rrrrrrrr            		MOV.L #_usb_shhub_EventPort, R14
0000142B FED2E3                  		MOVU.W [R2,R14], R3
0000142E B88A                    		MOVU.W 06H[R0], R2
00001430 FB42rrrrrrrr            		MOV.L #__$usb_hhub_class_request_complete, R4
00001436 39rrrr               W  		BSR _R_usb_hhub_GetPortInformation
00001439 9109                    		MOV.W R1, 0AH[R0]
0000143B                         L418:	; bb38.split
                                 ;    1372                                                             usb_hhub_class_request_complete );
                                 ;    1373                     if( USB_HUB_QOVR == retval )                            /* Submit overlap error */
                                 		.LINE  "C:\Workspace\e2studio\git\MT01_master\r_usb_basic\src\driver\host\r_usb_hhubsys.c",1373
0000143B B909                    		MOVU.W 0AH[R0], R1
0000143D 7701FEFF00              		CMP #0FFFEH, R1
00001442 21rr                    		BNE L420
00001444                         L419:	; bb49
                                 ;    1374                     {
                                 ;    1375                         usb_hhub_SpecifiedPathWait( mess, (uint16_t)10 );   /* Retry */
                                 		.LINE  "C:\Workspace\e2studio\git\MT01_master\r_usb_basic\src\driver\host\r_usb_hhubsys.c",1375
00001444 A981                    		MOV.L 18H[R0], R1
00001446 66A2                    		MOV.L #0000000AH, R2
00001448 39rrrr               W  		BSR __$usb_hhub_SpecifiedPathWait
0000144B 38rrrr               W  		BRA L481
0000144E                         L420:	; bb51
                                 ;    1376                     }
                                 ;    1377                     else
                                 ;    1378                     {
                                 ;    1379                         usb_shhub_EventSeq[ptr->ip] = USB_SEQ_1;
                                 		.LINE  "C:\Workspace\e2studio\git\MT01_master\r_usb_basic\src\driver\host\r_usb_hhubsys.c",1379
0000144E A889                    		MOV.L 0CH[R0], R1
00001450 B991                    		MOVU.W 0CH[R1], R1
00001452 FBE2rrrrrrrr            		MOV.L #_usb_shhub_EventSeq, R14
00001458 661F                    		MOV.L #00000001H, R15
0000145A FE11EF                  		MOV.W R15, [R1,R14]
0000145D 38rrrr               W  		BRA L481
00001460                         L421:	; bb63
                                 ;    1380                     }
                                 ;    1381                 }
                                 ;    1382                 else
                                 ;    1383                 {
                                 ;    1384                     /* Port check end */
                                 ;    1385                     next_port_check = USB_YES;
                                 		.LINE  "C:\Workspace\e2studio\git\MT01_master\r_usb_basic\src\driver\host\r_usb_hhubsys.c",1385
00001460 3D0A01                  		MOV.W #0001H, 14H[R0]
00001463 38rrrr               W  		BRA L481
00001466                         L422:	; bb92
                                 ;    1386                 }
                                 ;    1387             }
                                 ;    1388             else
                                 ;    1389 //            if( USB_MSG_CLS_INIT == usb_shhub_Info[ptr->ip] )           /* Event Check */
                                 ;    1390             {                                                           /* USB_MSG_HUB_INIT */
                                 ;    1391                 USB_PRINTF2(" *** address %d downport %d \t", hubaddr, usb_shhub_EventPort[ptr->ip]);
                                 ;    1392 
                                 ;    1393                 /* GetStatus request */
                                 ;    1394                 retval = R_usb_hhub_GetPortInformation(ptr, hubaddr, usb_shhub_EventPort[ptr->ip],
                                 		.LINE  "C:\Workspace\e2studio\git\MT01_master\r_usb_basic\src\driver\host\r_usb_hhubsys.c",1394
00001466 A88A                    		MOV.L 0CH[R0], R2
00001468 B9A2                    		MOVU.W 0CH[R2], R2
0000146A FBE2rrrrrrrr            		MOV.L #_usb_shhub_EventPort, R14
00001470 FED2E3                  		MOVU.W [R2,R14], R3
00001473 B88A                    		MOVU.W 06H[R0], R2
00001475 FB42rrrrrrrr            		MOV.L #__$usb_hhub_class_request_complete, R4
0000147B 39rrrr               W  		BSR _R_usb_hhub_GetPortInformation
0000147E 9109                    		MOV.W R1, 0AH[R0]
00001480                         L423:	; bb92.split
                                 ;    1395                                                         usb_hhub_class_request_complete);
                                 ;    1396                 if( USB_HUB_QOVR == retval )                            /* Submit overlap error */
                                 		.LINE  "C:\Workspace\e2studio\git\MT01_master\r_usb_basic\src\driver\host\r_usb_hhubsys.c",1396
00001480 B909                    		MOVU.W 0AH[R0], R1
00001482 7701FEFF00              		CMP #0FFFEH, R1
00001487 21rr                    		BNE L425
00001489                         L424:	; bb103
                                 ;    1397                 {
                                 ;    1398                     usb_hhub_SpecifiedPathWait( mess, (uint16_t)10 );   /* Retry */
                                 		.LINE  "C:\Workspace\e2studio\git\MT01_master\r_usb_basic\src\driver\host\r_usb_hhubsys.c",1398
00001489 A981                    		MOV.L 18H[R0], R1
0000148B 66A2                    		MOV.L #0000000AH, R2
0000148D 39rrrr               W  		BSR __$usb_hhub_SpecifiedPathWait
00001490 38rrrr               W  		BRA L481
00001493                         L425:	; bb105
                                 ;    1399                 }
                                 ;    1400                 else
                                 ;    1401                 {
                                 ;    1402                     usb_shhub_EventSeq[ptr->ip] = USB_SEQ_3;
                                 		.LINE  "C:\Workspace\e2studio\git\MT01_master\r_usb_basic\src\driver\host\r_usb_hhubsys.c",1402
00001493 A889                    		MOV.L 0CH[R0], R1
00001495 B991                    		MOVU.W 0CH[R1], R1
00001497 FBE2rrrrrrrr            		MOV.L #_usb_shhub_EventSeq, R14
0000149D 663F                    		MOV.L #00000003H, R15
0000149F FE11EF                  		MOV.W R15, [R1,R14]
000014A2 38rrrr               W  		BRA L481
000014A5                         L426:	; bb128
                                 ;    1403                 }
                                 ;    1404             }
                                 ;    1405             break;
                                 ;    1406 
                                 ;    1407         case USB_SEQ_1:        /* Request Result Check & Request */
                                 ;    1408             retval = usb_hhub_request_result(mess->result);
                                 		.LINE  "C:\Workspace\e2studio\git\MT01_master\r_usb_basic\src\driver\host\r_usb_hhubsys.c",1408
000014A5 A981                    		MOV.L 18H[R0], R1
000014A7 B999                    		MOVU.W 0EH[R1], R1
000014A9 39rrrr               W  		BSR __$usb_hhub_request_result
000014AC 9109                    		MOV.W R1, 0AH[R0]
000014AE                         L427:	; bb128.split
                                 ;    1409             if( USB_DONE == retval )
                                 		.LINE  "C:\Workspace\e2studio\git\MT01_master\r_usb_basic\src\driver\host\r_usb_hhubsys.c",1409
000014AE B909                    		MOVU.W 0AH[R0], R1
000014B0 6101                    		CMP #00H, R1
000014B2 3Brrrr               W  		BNE L481
000014B5                         L428:	; bb134
                                 ;    1410             {
                                 ;    1411                 port_status = (uint32_t)usb_ghhub_Data[ptr->ip][hubaddr][0];
                                 		.LINE  "C:\Workspace\e2studio\git\MT01_master\r_usb_basic\src\driver\host\r_usb_hhubsys.c",1411
000014B5 A889                    		MOV.L 0CH[R0], R1
000014B7 B991                    		MOVU.W 0CH[R1], R1
000014B9 751158                  		MUL #58H, R1
000014BC FBE2rrrrrrrr            		MOV.L #_usb_ghhub_Data, R14
000014C2 4B1E                    		ADD R1, R14
000014C4 B889                    		MOVU.W 06H[R0], R1
000014C6 6C31                    		SHLL #03H, R1
000014C8 FECE11                  		MOVU.B [R14,R1], R1
000014CB A101                    		MOV.L R1, 10H[R0]
000014CD                         L429:	; bb134.split
                                 ;    1412                 port_status |= (uint32_t)usb_ghhub_Data[ptr->ip][hubaddr][1] << 8;
                                 		.LINE  "C:\Workspace\e2studio\git\MT01_master\r_usb_basic\src\driver\host\r_usb_hhubsys.c",1412
000014CD A889                    		MOV.L 0CH[R0], R1
000014CF B991                    		MOVU.W 0CH[R1], R1
000014D1 751158                  		MUL #58H, R1
000014D4 FB22rrrrrrrr            		MOV.L #_usb_ghhub_Data, R2
000014DA 4B12                    		ADD R1, R2
000014DC B889                    		MOVU.W 06H[R0], R1
000014DE 6C31                    		SHLL #03H, R1
000014E0 4B12                    		ADD R1, R2
000014E2 B029                    		MOVU.B 01H[R2], R1
000014E4 6C81                    		SHLL #08H, R1
000014E6 06950104                		OR 10H[R0].L, R1
000014EA A101                    		MOV.L R1, 10H[R0]
000014EC                         L430:	; bb134.split3
                                 ;    1413                 port_status |= (uint32_t)usb_ghhub_Data[ptr->ip][hubaddr][2] << 16;
                                 		.LINE  "C:\Workspace\e2studio\git\MT01_master\r_usb_basic\src\driver\host\r_usb_hhubsys.c",1413
000014EC A889                    		MOV.L 0CH[R0], R1
000014EE B991                    		MOVU.W 0CH[R1], R1
000014F0 751158                  		MUL #58H, R1
000014F3 FB22rrrrrrrr            		MOV.L #_usb_ghhub_Data, R2
000014F9 4B12                    		ADD R1, R2
000014FB B889                    		MOVU.W 06H[R0], R1
000014FD 6C31                    		SHLL #03H, R1
000014FF 4B12                    		ADD R1, R2
00001501 B0A1                    		MOVU.B 02H[R2], R1
00001503 6D01                    		SHLL #10H, R1
00001505 06950104                		OR 10H[R0].L, R1
00001509 A101                    		MOV.L R1, 10H[R0]
0000150B                         L431:	; bb134.split4
                                 ;    1414                 port_status |= (uint32_t)usb_ghhub_Data[ptr->ip][hubaddr][3] << 24;
                                 		.LINE  "C:\Workspace\e2studio\git\MT01_master\r_usb_basic\src\driver\host\r_usb_hhubsys.c",1414
0000150B A889                    		MOV.L 0CH[R0], R1
0000150D B991                    		MOVU.W 0CH[R1], R1
0000150F 751158                  		MUL #58H, R1
00001512 FB22rrrrrrrr            		MOV.L #_usb_ghhub_Data, R2
00001518 4B12                    		ADD R1, R2
0000151A B889                    		MOVU.W 06H[R0], R1
0000151C 6C31                    		SHLL #03H, R1
0000151E 4B12                    		ADD R1, R2
00001520 B0A9                    		MOVU.B 03H[R2], R1
00001522 6D81                    		SHLL #18H, R1
00001524 06950104                		OR 10H[R0].L, R1
00001528 A101                    		MOV.L R1, 10H[R0]
0000152A                         L432:	; bb134.split5
                                 ;    1415                 USB_PRINTF2(" [port/status] : %d, 0x%08x\n", usb_shhub_EventPort[ptr->ip], port_status);
                                 ;    1416 
                                 ;    1417                 if( 0 != ( port_status & USB_BIT_C_PORT_CONNECTION ) )      /* C_PORT_CONNECTION */
                                 		.LINE  "C:\Workspace\e2studio\git\MT01_master\r_usb_basic\src\driver\host\r_usb_hhubsys.c",1417
0000152A A889                    		MOV.L 0CH[R0], R1
0000152C B992                    		MOVU.W 0CH[R1], R2
0000152E FBE2rrrrrrrr            		MOV.L #_usb_shhub_EventPort, R14
00001534 FE52EE                  		MOV.W [R2,R14], R14
00001537 A902                    		MOV.L 10H[R0], R2
00001539 7D02                    		BTST #10H, R2
0000153B 988A                    		MOV.W 06H[R0], R2
0000153D 20rr                    		BEQ L437
0000153F                         L433:	; bb197
0000153F 6040                    		SUB #04H, R0
                                 ;    1418                 {
                                 ;    1419                     retval = usb_hhub_PortClrFeature( ptr, hubaddr, usb_shhub_EventPort[ptr->ip],
                                 		.LINE  "C:\Workspace\e2studio\git\MT01_master\r_usb_basic\src\driver\host\r_usb_hhubsys.c",1419
00001541 FBF2rrrrrrrr            		MOV.L #__$usb_hhub_class_request_complete, R15
00001547 E30F                    		MOV.L R15, [R0]
00001549 5FE3                    		MOVU.W R14, R3
0000154B 5F22                    		MOVU.W R2, R2
0000154D 754410                  		MOV.L #00000010H, R4
00001550 39rrrr               W  		BSR __$usb_hhub_PortClrFeature
00001553 6240                    		ADD #04H, R0
00001555 9109                    		MOV.W R1, 0AH[R0]
00001557                         L434:	; bb197.split
                                 ;    1420                                     (uint16_t)USB_HUB_C_PORT_CONNECTION, usb_hhub_class_request_complete );
                                 ;    1421                     if( USB_HUB_QOVR == retval )                            /* Submit overlap error */
                                 		.LINE  "C:\Workspace\e2studio\git\MT01_master\r_usb_basic\src\driver\host\r_usb_hhubsys.c",1421
00001557 B90A                    		MOVU.W 0AH[R0], R2
00001559 7702FEFF00              		CMP #0FFFEH, R2
0000155E 21rr                    		BNE L436
00001560                         L435:	; bb208
                                 ;    1422                     {
                                 ;    1423                         usb_hhub_SpecifiedPathWait( mess, (uint16_t)10 );   /* Retry */
                                 		.LINE  "C:\Workspace\e2studio\git\MT01_master\r_usb_basic\src\driver\host\r_usb_hhubsys.c",1423
00001560 A981                    		MOV.L 18H[R0], R1
00001562 66A2                    		MOV.L #0000000AH, R2
00001564 39rrrr               W  		BSR __$usb_hhub_SpecifiedPathWait
00001567 38rrrr               W  		BRA L481
0000156A                         L436:	; bb210
                                 ;    1424                     }
                                 ;    1425                     else
                                 ;    1426                     {
                                 ;    1427                         usb_shhub_EventSeq[ptr->ip] = USB_SEQ_3;            /* Attach Sequence */
                                 		.LINE  "C:\Workspace\e2studio\git\MT01_master\r_usb_basic\src\driver\host\r_usb_hhubsys.c",1427
0000156A A88A                    		MOV.L 0CH[R0], R2
0000156C B9A2                    		MOVU.W 0CH[R2], R2
0000156E FBE2rrrrrrrr            		MOV.L #_usb_shhub_EventSeq, R14
00001574 663F                    		MOV.L #00000003H, R15
00001576 FE12EF                  		MOV.W R15, [R2,R14]
00001579 38rrrr               W  		BRA L481
0000157C                         L437:	; bb222
                                 ;    1428                     }
                                 ;    1429                 }
                                 ;    1430                 else
                                 ;    1431                 {
                                 ;    1432                     /* Now downport device search */
                                 ;    1433                     devaddr = usb_hhub_GetCnnDevaddr(ptr, hubaddr, usb_shhub_EventPort[ptr->ip]);
                                 		.LINE  "C:\Workspace\e2studio\git\MT01_master\r_usb_basic\src\driver\host\r_usb_hhubsys.c",1433
0000157C 5FE3                    		MOVU.W R14, R3
0000157E 5F22                    		MOVU.W R2, R2
00001580 39rrrr               W  		BSR __$usb_hhub_GetCnnDevaddr
00001583 9101                    		MOV.W R1, 08H[R0]
00001585                         L438:	; bb222.split
                                 ;    1434                     if( 0 != ( port_status & USB_BIT_PORT_ENABLE ) )            /* PORT_ENABLE */
                                 		.LINE  "C:\Workspace\e2studio\git\MT01_master\r_usb_basic\src\driver\host\r_usb_hhubsys.c",1434
00001585 A901                    		MOV.L 10H[R0], R1
00001587 7C11                    		BTST #01H, R1
00001589 10                   S  		BEQ L440
0000158A                         L439:	; bb233
                                 ;    1435                     {
                                 ;    1436                         USB_PRINTF1(" Hubport error address%d\n",devaddr);
                                 ;    1437                         port_clr_feature_type = USB_HUB_C_PORT_ENABLE;          /* C_PORT_ENABLE */
                                 		.LINE  "C:\Workspace\e2studio\git\MT01_master\r_usb_basic\src\driver\host\r_usb_hhubsys.c",1437
0000158A 3D0B11                  		MOV.W #0011H, 16H[R0]
0000158D 2Err                 B  		BRA L447
0000158F                         L440:	; bb235
                                 ;    1438                     }
                                 ;    1439                     else if( 0 != ( port_status & USB_BIT_PORT_SUSPEND ) )      /* PORT_SUSPEND */
                                 		.LINE  "C:\Workspace\e2studio\git\MT01_master\r_usb_basic\src\driver\host\r_usb_hhubsys.c",1439
0000158F A901                    		MOV.L 10H[R0], R1
00001591 7C21                    		BTST #02H, R1
00001593 10                   S  		BEQ L442
00001594                         L441:	; bb236
                                 ;    1440                     {
                                 ;    1441                         USB_PRINTF1(" Hubport suspend(resume complete) address%d\n", devaddr);
                                 ;    1442                         port_clr_feature_type = USB_HUB_C_PORT_SUSPEND;         /* C_PORT_SUSPEND */
                                 		.LINE  "C:\Workspace\e2studio\git\MT01_master\r_usb_basic\src\driver\host\r_usb_hhubsys.c",1442
00001594 3D0B12                  		MOV.W #0012H, 16H[R0]
00001597 2Err                 B  		BRA L447
00001599                         L442:	; bb238
                                 ;    1443                     }
                                 ;    1444                     else if( 0 != (  port_status & USB_BIT_C_PORT_OVER_CURRENT ) )    /* PORT_OVER_CURRENT */
                                 		.LINE  "C:\Workspace\e2studio\git\MT01_master\r_usb_basic\src\driver\host\r_usb_hhubsys.c",1444
00001599 A901                    		MOV.L 10H[R0], R1
0000159B 7D31                    		BTST #13H, R1
0000159D 10                   S  		BEQ L444
0000159E                         L443:	; bb239
                                 ;    1445                     {
                                 ;    1446                         USB_PRINTF1(" Hubport over current address%d\n", devaddr);
                                 ;    1447                         port_clr_feature_type = USB_HUB_C_PORT_OVER_CURRENT;    /* C_PORT_OVER_CURRENT */
                                 		.LINE  "C:\Workspace\e2studio\git\MT01_master\r_usb_basic\src\driver\host\r_usb_hhubsys.c",1447
0000159E 3D0B13                  		MOV.W #0013H, 16H[R0]
000015A1 2Err                 B  		BRA L447
000015A3                         L444:	; bb241
                                 ;    1448                     }
                                 ;    1449                     else if( 0 != ( port_status & USB_BIT_PORT_RESET ) )        /* PORT_RESET */
                                 		.LINE  "C:\Workspace\e2studio\git\MT01_master\r_usb_basic\src\driver\host\r_usb_hhubsys.c",1449
000015A3 A901                    		MOV.L 10H[R0], R1
000015A5 7C41                    		BTST #04H, R1
000015A7 10                   S  		BEQ L446
000015A8                         L445:	; bb242
                                 ;    1450                     {
                                 ;    1451                         USB_PRINTF1(" Hubport reset(reset complete) address%d\n", devaddr);
                                 ;    1452                         port_clr_feature_type = USB_HUB_C_PORT_RESET;           /* C_PORT_RESET */
                                 		.LINE  "C:\Workspace\e2studio\git\MT01_master\r_usb_basic\src\driver\host\r_usb_hhubsys.c",1452
000015A8 3D0B14                  		MOV.W #0014H, 16H[R0]
000015AB 08                   S  		BRA L447
000015AC                         L446:	; bb243
                                 ;    1453                     }
                                 ;    1454                     else
                                 ;    1455                     {
                                 ;    1456                         next_port_check = USB_YES;
                                 		.LINE  "C:\Workspace\e2studio\git\MT01_master\r_usb_basic\src\driver\host\r_usb_hhubsys.c",1456
000015AC 3D0A01                  		MOV.W #0001H, 14H[R0]
000015AF                         L447:	; bb268
                                 ;    1457                     }
                                 ;    1458 
                                 ;    1459                     if( USB_NO == next_port_check )
                                 		.LINE  "C:\Workspace\e2studio\git\MT01_master\r_usb_basic\src\driver\host\r_usb_hhubsys.c",1459
000015AF BA81                    		MOVU.W 14H[R0], R1
000015B1 6101                    		CMP #00H, R1
000015B3 3Brrrr               W  		BNE L481
000015B6                         L448:	; bb269
                                 ;    1460                     {
                                 ;    1461                         /* ClearFeature request */
                                 ;    1462                         retval = usb_hhub_PortClrFeature( ptr, hubaddr, usb_shhub_EventPort[ptr->ip],
                                 		.LINE  "C:\Workspace\e2studio\git\MT01_master\r_usb_basic\src\driver\host\r_usb_hhubsys.c",1462
000015B6 A889                    		MOV.L 0CH[R0], R1
000015B8 B992                    		MOVU.W 0CH[R1], R2
000015BA FBE2rrrrrrrr            		MOV.L #_usb_shhub_EventPort, R14
000015C0 FED2E3                  		MOVU.W [R2,R14], R3
000015C3 BA8C                    		MOVU.W 16H[R0], R4
000015C5 B88A                    		MOVU.W 06H[R0], R2
000015C7 6040                    		SUB #04H, R0
000015C9 FBE2rrrrrrrr            		MOV.L #__$usb_hhub_class_request_complete, R14
000015CF E30E                    		MOV.L R14, [R0]
000015D1 39rrrr               W  		BSR __$usb_hhub_PortClrFeature
000015D4 6240                    		ADD #04H, R0
000015D6 9109                    		MOV.W R1, 0AH[R0]
000015D8                         L449:	; bb269.split
                                 ;    1463                                                           port_clr_feature_type, usb_hhub_class_request_complete );
                                 ;    1464                         if( USB_HUB_QOVR == retval )                            /* Submit overlap error */
                                 		.LINE  "C:\Workspace\e2studio\git\MT01_master\r_usb_basic\src\driver\host\r_usb_hhubsys.c",1464
000015D8 B909                    		MOVU.W 0AH[R0], R1
000015DA 7701FEFF00              		CMP #0FFFEH, R1
000015DF 21rr                    		BNE L451
000015E1                         L450:	; bb281
                                 ;    1465                         {
                                 ;    1466                             usb_hhub_SpecifiedPathWait( mess, (uint16_t)10 );   /* Retry */
                                 		.LINE  "C:\Workspace\e2studio\git\MT01_master\r_usb_basic\src\driver\host\r_usb_hhubsys.c",1466
000015E1 A981                    		MOV.L 18H[R0], R1
000015E3 66A2                    		MOV.L #0000000AH, R2
000015E5 39rrrr               W  		BSR __$usb_hhub_SpecifiedPathWait
000015E8 38rrrr               W  		BRA L481
000015EB                         L451:	; bb283
                                 ;    1467                         }
                                 ;    1468                         else
                                 ;    1469                         {
                                 ;    1470                             usb_shhub_EventSeq[ptr->ip] = USB_SEQ_2;            /* Next Sequence */
                                 		.LINE  "C:\Workspace\e2studio\git\MT01_master\r_usb_basic\src\driver\host\r_usb_hhubsys.c",1470
000015EB A889                    		MOV.L 0CH[R0], R1
000015ED B991                    		MOVU.W 0CH[R1], R1
000015EF FBE2rrrrrrrr            		MOV.L #_usb_shhub_EventSeq, R14
000015F5 662F                    		MOV.L #00000002H, R15
000015F7 FE11EF                  		MOV.W R15, [R1,R14]
000015FA 38rrrr               W  		BRA L481
000015FD                         L452:	; bb313
                                 ;    1471                         }
                                 ;    1472                     }
                                 ;    1473                 }
                                 ;    1474             }
                                 ;    1475             break;
                                 ;    1476 
                                 ;    1477         case USB_SEQ_2:        /* Request Result Check */
                                 ;    1478             retval = usb_hhub_request_result( mess->result );
                                 		.LINE  "C:\Workspace\e2studio\git\MT01_master\r_usb_basic\src\driver\host\r_usb_hhubsys.c",1478
000015FD A981                    		MOV.L 18H[R0], R1
000015FF B999                    		MOVU.W 0EH[R1], R1
00001601 39rrrr               W  		BSR __$usb_hhub_request_result
00001604 9109                    		MOV.W R1, 0AH[R0]
00001606                         L453:	; bb313.split
                                 ;    1479             if( USB_DONE == retval )
                                 		.LINE  "C:\Workspace\e2studio\git\MT01_master\r_usb_basic\src\driver\host\r_usb_hhubsys.c",1479
00001606 B909                    		MOVU.W 0AH[R0], R1
00001608 6101                    		CMP #00H, R1
0000160A 3Brrrr               W  		BNE L481
0000160D                         L454:	; bb320
                                 ;    1480             {
                                 ;    1481                 if( 0 != ( port_status & USB_BIT_PORT_SUSPEND ) )       /* PORT_SUSPEND */
                                 		.LINE  "C:\Workspace\e2studio\git\MT01_master\r_usb_basic\src\driver\host\r_usb_hhubsys.c",1481
0000160D A901                    		MOV.L 10H[R0], R1
0000160F 7C21                    		BTST #02H, R1
00001611 20rr                    		BEQ L456
00001613                         L455:	; bb321
                                 ;    1482                 {                                                       /* C_PORT_SUSPEND */
                                 ;    1483                     /* HUB downport status */
                                 ;    1484                     usb_shhub_Remote[ptr->ip][hubaddr] |= USB_BITSET(usb_shhub_EventPort[ptr->ip]);
                                 		.LINE  "C:\Workspace\e2studio\git\MT01_master\r_usb_basic\src\driver\host\r_usb_hhubsys.c",1484
00001613 A889                    		MOV.L 0CH[R0], R1
00001615 B991                    		MOVU.W 0CH[R1], R1
00001617 FBE2rrrrrrrr            		MOV.L #_usb_shhub_EventPort, R14
0000161D FED1EE                  		MOVU.W [R1,R14], R14
00001620 661F                    		MOV.L #00000001H, R15
00001622 FD62EF                  		SHLL R14, R15
00001625 751116                  		MUL #16H, R1
00001628 FBE2rrrrrrrr            		MOV.L #_usb_shhub_Remote, R14
0000162E 4B1E                    		ADD R1, R14
00001630 B889                    		MOVU.W 06H[R0], R1
00001632 FDC115                  		SHLL #01H, R1, R5
00001635 4BE5                    		ADD R14, R5
00001637 06545F                  		OR [R5].W, R15
0000163A FE11EF                  		MOV.W R15, [R1,R14]
0000163D                         L456:	; bb350
                                 ;    1485                 }
                                 ;    1486                 next_port_check = USB_YES;
                                 		.LINE  "C:\Workspace\e2studio\git\MT01_master\r_usb_basic\src\driver\host\r_usb_hhubsys.c",1486
0000163D 3D0A01                  		MOV.W #0001H, 14H[R0]
00001640 38rrrr               W  		BRA L481
00001643                         L457:	; bb357
                                 ;    1487             }
                                 ;    1488             break;
                                 ;    1489 
                                 ;    1490         case USB_SEQ_3:        /* Attach Sequence */
                                 ;    1491             retval = usb_hhub_request_result(mess->result);
                                 		.LINE  "C:\Workspace\e2studio\git\MT01_master\r_usb_basic\src\driver\host\r_usb_hhubsys.c",1491
00001643 A981                    		MOV.L 18H[R0], R1
00001645 B999                    		MOVU.W 0EH[R1], R1
00001647 39rrrr               W  		BSR __$usb_hhub_request_result
0000164A 9109                    		MOV.W R1, 0AH[R0]
0000164C                         L458:	; bb357.split
                                 ;    1492             if( USB_DONE == retval )
                                 		.LINE  "C:\Workspace\e2studio\git\MT01_master\r_usb_basic\src\driver\host\r_usb_hhubsys.c",1492
0000164C B909                    		MOVU.W 0AH[R0], R1
0000164E 6101                    		CMP #00H, R1
00001650 3Brrrr               W  		BNE L481
00001653                         L459:	; bb363
                                 ;    1493             {
                                 ;    1494                 port_status = (uint32_t)usb_ghhub_Data[ptr->ip][hubaddr][0];
                                 		.LINE  "C:\Workspace\e2studio\git\MT01_master\r_usb_basic\src\driver\host\r_usb_hhubsys.c",1494
00001653 A889                    		MOV.L 0CH[R0], R1
00001655 B991                    		MOVU.W 0CH[R1], R1
00001657 751158                  		MUL #58H, R1
0000165A FBE2rrrrrrrr            		MOV.L #_usb_ghhub_Data, R14
00001660 4B1E                    		ADD R1, R14
00001662 B889                    		MOVU.W 06H[R0], R1
00001664 6C31                    		SHLL #03H, R1
00001666 FECE11                  		MOVU.B [R14,R1], R1
00001669 A101                    		MOV.L R1, 10H[R0]
0000166B                         L460:	; bb363.split
                                 ;    1495                 port_status |= (uint32_t)usb_ghhub_Data[ptr->ip][hubaddr][1] << 8;
                                 		.LINE  "C:\Workspace\e2studio\git\MT01_master\r_usb_basic\src\driver\host\r_usb_hhubsys.c",1495
0000166B A889                    		MOV.L 0CH[R0], R1
0000166D B991                    		MOVU.W 0CH[R1], R1
0000166F 751158                  		MUL #58H, R1
00001672 FB22rrrrrrrr            		MOV.L #_usb_ghhub_Data, R2
00001678 4B12                    		ADD R1, R2
0000167A B889                    		MOVU.W 06H[R0], R1
0000167C 6C31                    		SHLL #03H, R1
0000167E 4B12                    		ADD R1, R2
00001680 B029                    		MOVU.B 01H[R2], R1
00001682 6C81                    		SHLL #08H, R1
00001684 06950104                		OR 10H[R0].L, R1
00001688 A101                    		MOV.L R1, 10H[R0]
0000168A                         L461:	; bb363.split6
                                 ;    1496                 port_status |= (uint32_t)usb_ghhub_Data[ptr->ip][hubaddr][2] << 16;
                                 		.LINE  "C:\Workspace\e2studio\git\MT01_master\r_usb_basic\src\driver\host\r_usb_hhubsys.c",1496
0000168A A889                    		MOV.L 0CH[R0], R1
0000168C B991                    		MOVU.W 0CH[R1], R1
0000168E 751158                  		MUL #58H, R1
00001691 FB22rrrrrrrr            		MOV.L #_usb_ghhub_Data, R2
00001697 4B12                    		ADD R1, R2
00001699 B889                    		MOVU.W 06H[R0], R1
0000169B 6C31                    		SHLL #03H, R1
0000169D 4B12                    		ADD R1, R2
0000169F B0A1                    		MOVU.B 02H[R2], R1
000016A1 6D01                    		SHLL #10H, R1
000016A3 06950104                		OR 10H[R0].L, R1
000016A7 A101                    		MOV.L R1, 10H[R0]
000016A9                         L462:	; bb363.split7
                                 ;    1497                 port_status |= (uint32_t)usb_ghhub_Data[ptr->ip][hubaddr][3] << 24;
                                 		.LINE  "C:\Workspace\e2studio\git\MT01_master\r_usb_basic\src\driver\host\r_usb_hhubsys.c",1497
000016A9 A889                    		MOV.L 0CH[R0], R1
000016AB B991                    		MOVU.W 0CH[R1], R1
000016AD 751158                  		MUL #58H, R1
000016B0 FB22rrrrrrrr            		MOV.L #_usb_ghhub_Data, R2
000016B6 4B12                    		ADD R1, R2
000016B8 B889                    		MOVU.W 06H[R0], R1
000016BA 6C31                    		SHLL #03H, R1
000016BC 4B12                    		ADD R1, R2
000016BE B0A9                    		MOVU.B 03H[R2], R1
000016C0 6D81                    		SHLL #18H, R1
000016C2 06950104                		OR 10H[R0].L, R1
000016C6 A101                    		MOV.L R1, 10H[R0]
000016C8                         L463:	; bb363.split8
                                 ;    1498                 USB_PRINTF2(" [port/status] : %d, 0x%08x\n", usb_shhub_EventPort[ptr->ip], port_status);
                                 ;    1499 
                                 ;    1500                 if( 0 != ( port_status & USB_BIT_PORT_CONNECTION ) )                    /* PORT_CONNECTION */
                                 		.LINE  "C:\Workspace\e2studio\git\MT01_master\r_usb_basic\src\driver\host\r_usb_hhubsys.c",1500
000016C8 A889                    		MOV.L 0CH[R0], R1
000016CA B991                    		MOVU.W 0CH[R1], R1
000016CC FBE2rrrrrrrr            		MOV.L #_usb_shhub_Info, R14
000016D2 FE51EE                  		MOV.W [R1,R14], R14
000016D5 A901                    		MOV.L 10H[R0], R1
000016D7 7C01                    		BTST #00H, R1
000016D9 20rr                    		BEQ L471
000016DB                         L464:	; bb427
                                 ;    1501                 {
                                 ;    1502                     if( USB_MSG_HUB_SUBMITRESULT == usb_shhub_Info[ptr->ip] )
                                 		.LINE  "C:\Workspace\e2studio\git\MT01_master\r_usb_basic\src\driver\host\r_usb_hhubsys.c",1502
000016DB 5FEE                    		MOVU.W R14, R14
000016DD 760E3401                		CMP #0134H, R14
000016E1 ED0E03                  		MOV.L 0CH[R0], R14
000016E4 5DEE06                  		MOVU.W 0CH[R14], R14
000016E7 21rr                    		BNE L469
000016E9                         L465:	; bb429
                                 ;    1503                     {
                                 ;    1504                         if( 0 == ( usb_shhub_DownPort[ptr->ip][hubaddr] & USB_BITSET(usb_shhub_EventPort[ptr->ip] ) ) )
                                 		.LINE  "C:\Workspace\e2studio\git\MT01_master\r_usb_basic\src\driver\host\r_usb_hhubsys.c",1504
000016E9 A889                    		MOV.L 0CH[R0], R1
000016EB B991                    		MOVU.W 0CH[R1], R1
000016ED FBF2rrrrrrrr            		MOV.L #_usb_shhub_EventPort, R15
000016F3 FED1FF                  		MOVU.W [R1,R15], R15
000016F6 6615                    		MOV.L #00000001H, R5
000016F8 FD62F5                  		SHLL R15, R5
000016FB 751E16                  		MUL #16H, R14
000016FE FBF2rrrrrrrr            		MOV.L #_usb_shhub_DownPort, R15
00001704 4BEF                    		ADD R14, R15
00001706 5D0E03                  		MOVU.W 06H[R0], R14
00001709 6C1E                    		SHLL #01H, R14
0000170B 4BEF                    		ADD R14, R15
0000170D 0650F5                  		AND [R15].W, R5
00001710 5F5E                    		MOVU.W R5, R14
00001712 610E                    		CMP #00H, R14
00001714 21rr                    		BNE L468
00001716                         L466:	; bb430
                                 ;    1505                         {
                                 ;    1506                             usb_shhub_EventSeq[ptr->ip] = USB_SEQ_4;                    /* Next Attach sequence */
                                 		.LINE  "C:\Workspace\e2studio\git\MT01_master\r_usb_basic\src\driver\host\r_usb_hhubsys.c",1506
00001716 ED0E03                  		MOV.L 0CH[R0], R14
00001719 5DEE06                  		MOVU.W 0CH[R14], R14
0000171C FBF2rrrrrrrr            		MOV.L #_usb_shhub_EventSeq, R15
00001722 6645                    		MOV.L #00000004H, R5
00001724 FE1EF5                  		MOV.W R5, [R14,R15]
00001727                         L467:	; bb430.split
                                 ;    1507                             usb_hhub_new_connect( mess, (uint16_t)0, (uint16_t)0, mess );
                                 		.LINE  "C:\Workspace\e2studio\git\MT01_master\r_usb_basic\src\driver\host\r_usb_hhubsys.c",1507
00001727 A981                    		MOV.L 18H[R0], R1
00001729 6602                    		MOV.L #00000000H, R2
0000172B EF23                    		MOV.L R2, R3
0000172D EF14                    		MOV.L R1, R4
0000172F 39rrrr               W  		BSR __$usb_hhub_new_connect
00001732 38rrrr               W  		BRA L481
00001735                         L468:	; bb438
                                 ;    1508                         }
                                 ;    1509                         else
                                 ;    1510                         {
                                 ;    1511                             next_port_check = USB_YES;                                  /* Not PORT_CONNECTION */
                                 		.LINE  "C:\Workspace\e2studio\git\MT01_master\r_usb_basic\src\driver\host\r_usb_hhubsys.c",1511
00001735 3D0A01                  		MOV.W #0001H, 14H[R0]
00001738 38rrrr               W  		BRA L481
0000173B                         L469:	; bb465
                                 ;    1512                         }
                                 ;    1513                     }
                                 ;    1514                     else
                                 ;    1515 //                    if( USB_MSG_CLS_INIT == usb_shhub_Info[ptr->ip] )
                                 ;    1516                     {
                                 ;    1517                         usb_shhub_EventSeq[ptr->ip] = USB_SEQ_4;                        /* Next Attach sequence */
                                 		.LINE  "C:\Workspace\e2studio\git\MT01_master\r_usb_basic\src\driver\host\r_usb_hhubsys.c",1517
0000173B FBF2rrrrrrrr            		MOV.L #_usb_shhub_EventSeq, R15
00001741 6645                    		MOV.L #00000004H, R5
00001743 FE1EF5                  		MOV.W R5, [R14,R15]
00001746                         L470:	; bb465.split
                                 ;    1518                         usb_hhub_new_connect( mess, (uint16_t)0, (uint16_t)0, mess );
                                 		.LINE  "C:\Workspace\e2studio\git\MT01_master\r_usb_basic\src\driver\host\r_usb_hhubsys.c",1518
00001746 A981                    		MOV.L 18H[R0], R1
00001748 6602                    		MOV.L #00000000H, R2
0000174A EF23                    		MOV.L R2, R3
0000174C EF14                    		MOV.L R1, R4
0000174E 39rrrr               W  		BSR __$usb_hhub_new_connect
00001751 38rrrr               W  		BRA L481
00001754                         L471:	; bb485
                                 ;    1519                     }
                                 ;    1520                 }
                                 ;    1521                 else
                                 ;    1522                 {                                                                       /* non connect */
                                 ;    1523                     if( USB_MSG_HUB_SUBMITRESULT == usb_shhub_Info[ptr->ip] )           /*  */
                                 		.LINE  "C:\Workspace\e2studio\git\MT01_master\r_usb_basic\src\driver\host\r_usb_hhubsys.c",1523
00001754 5FEE                    		MOVU.W R14, R14
00001756 760E3401                		CMP #0134H, R14
0000175A 3Brrrr               W  		BNE L479
0000175D                         L472:	; bb486
                                 ;    1524                     {
                                 ;    1525                         /* Now downport device search */
                                 ;    1526                         devaddr = usb_hhub_GetCnnDevaddr(ptr, hubaddr, usb_shhub_EventPort[ptr->ip]);
                                 		.LINE  "C:\Workspace\e2studio\git\MT01_master\r_usb_basic\src\driver\host\r_usb_hhubsys.c",1526
0000175D A889                    		MOV.L 0CH[R0], R1
0000175F B992                    		MOVU.W 0CH[R1], R2
00001761 FBE2rrrrrrrr            		MOV.L #_usb_shhub_EventPort, R14
00001767 FED2E3                  		MOVU.W [R2,R14], R3
0000176A B88A                    		MOVU.W 06H[R0], R2
0000176C 39rrrr               W  		BSR __$usb_hhub_GetCnnDevaddr
0000176F 9101                    		MOV.W R1, 08H[R0]
00001771                         L473:	; bb486.split
                                 ;    1527                         if( 0 != devaddr )
                                 		.LINE  "C:\Workspace\e2studio\git\MT01_master\r_usb_basic\src\driver\host\r_usb_hhubsys.c",1527
00001771 B901                    		MOVU.W 08H[R0], R1
00001773 6101                    		CMP #00H, R1
00001775 20rr                    		BEQ L479
00001777                         L474:	; bb497
                                 ;    1528                         {
                                 ;    1529                             usb_hhub_port_detach(ptr, hubaddr, usb_shhub_EventPort[ptr->ip]);
                                 		.LINE  "C:\Workspace\e2studio\git\MT01_master\r_usb_basic\src\driver\host\r_usb_hhubsys.c",1529
00001777 A889                    		MOV.L 0CH[R0], R1
00001779 B992                    		MOVU.W 0CH[R1], R2
0000177B FBE2rrrrrrrr            		MOV.L #_usb_shhub_EventPort, R14
00001781 FED2E3                  		MOVU.W [R2,R14], R3
00001784 B88A                    		MOVU.W 06H[R0], R2
00001786 39rrrr               W  		BSR __$usb_hhub_port_detach
00001789                         L475:	; bb497.split
                                 ;    1530                             USB_PRINTF1(" Hubport disconnect address%d\n", devaddr);
                                 ;    1531                             usb_shhub_InfoData[ptr->ip][devaddr].up_addr = 0;            /* Up-address clear */
                                 		.LINE  "C:\Workspace\e2studio\git\MT01_master\r_usb_basic\src\driver\host\r_usb_hhubsys.c",1531
00001789 A889                    		MOV.L 0CH[R0], R1
0000178B B991                    		MOVU.W 0CH[R1], R1
0000178D 751158                  		MUL #58H, R1
00001790 FBE2rrrrrrrr            		MOV.L #_usb_shhub_InfoData, R14
00001796 4B1E                    		ADD R1, R14
00001798 B901                    		MOVU.W 08H[R0], R1
0000179A 6C31                    		SHLL #03H, R1
0000179C 4B1E                    		ADD R1, R14
0000179E F8E500                  		MOV.W #0000H, [R14]
000017A1                         L476:	; bb497.split9
                                 ;    1532                             usb_shhub_InfoData[ptr->ip][devaddr].up_port_num = 0;        /* Up-port num clear */
                                 		.LINE  "C:\Workspace\e2studio\git\MT01_master\r_usb_basic\src\driver\host\r_usb_hhubsys.c",1532
000017A1 A889                    		MOV.L 0CH[R0], R1
000017A3 B991                    		MOVU.W 0CH[R1], R1
000017A5 751158                  		MUL #58H, R1
000017A8 FB22rrrrrrrr            		MOV.L #_usb_shhub_InfoData, R2
000017AE 4B12                    		ADD R1, R2
000017B0 B901                    		MOVU.W 08H[R0], R1
000017B2 6C31                    		SHLL #03H, R1
000017B4 4B12                    		ADD R1, R2
000017B6 3D2100                  		MOV.W #0000H, 02H[R2]
000017B9                         L477:	; bb497.split10
                                 ;    1533                             usb_shhub_InfoData[ptr->ip][devaddr].port_num = 0;           /* Port number clear */
                                 		.LINE  "C:\Workspace\e2studio\git\MT01_master\r_usb_basic\src\driver\host\r_usb_hhubsys.c",1533
000017B9 A889                    		MOV.L 0CH[R0], R1
000017BB B991                    		MOVU.W 0CH[R1], R1
000017BD 751158                  		MUL #58H, R1
000017C0 FB22rrrrrrrr            		MOV.L #_usb_shhub_InfoData, R2
000017C6 4B12                    		ADD R1, R2
000017C8 B901                    		MOVU.W 08H[R0], R1
000017CA 6C31                    		SHLL #03H, R1
000017CC 4B12                    		ADD R1, R2
000017CE 3D2200                  		MOV.W #0000H, 04H[R2]
000017D1                         L478:	; bb497.split11
                                 ;    1534                             usb_shhub_InfoData[ptr->ip][devaddr].pipe_num = 0;           /* Pipe number clear */
                                 		.LINE  "C:\Workspace\e2studio\git\MT01_master\r_usb_basic\src\driver\host\r_usb_hhubsys.c",1534
000017D1 A889                    		MOV.L 0CH[R0], R1
000017D3 B991                    		MOVU.W 0CH[R1], R1
000017D5 751158                  		MUL #58H, R1
000017D8 FB22rrrrrrrr            		MOV.L #_usb_shhub_InfoData, R2
000017DE 4B12                    		ADD R1, R2
000017E0 B901                    		MOVU.W 08H[R0], R1
000017E2 6C31                    		SHLL #03H, R1
000017E4 4B12                    		ADD R1, R2
000017E6 3D2300                  		MOV.W #0000H, 06H[R2]
000017E9                         L479:	; bb562
                                 ;    1535                         }
                                 ;    1536                     }
                                 ;    1537                     next_port_check = USB_YES;
                                 		.LINE  "C:\Workspace\e2studio\git\MT01_master\r_usb_basic\src\driver\host\r_usb_hhubsys.c",1537
000017E9 3D0A01                  		MOV.W #0001H, 14H[R0]
000017EC 08                   S  		BRA L481
000017ED                         L480:	; bb575
                                 ;    1538                 }
                                 ;    1539             }
                                 ;    1540             break;
                                 ;    1541 
                                 ;    1542         case USB_SEQ_4:        /* Attach */
                                 ;    1543             next_port_check = USB_YES;
                                 		.LINE  "C:\Workspace\e2studio\git\MT01_master\r_usb_basic\src\driver\host\r_usb_hhubsys.c",1543
000017ED 3D0A01                  		MOV.W #0001H, 14H[R0]
000017F0                         L481:	; bb578
                                 ;    1544             break;
                                 ;    1545 
                                 ;    1546         default:
                                 ;    1547             /* error */
                                 ;    1548             break;
                                 ;    1549         }
                                 ;    1550 
                                 ;    1551         if( USB_YES == next_port_check )
                                 		.LINE  "C:\Workspace\e2studio\git\MT01_master\r_usb_basic\src\driver\host\r_usb_hhubsys.c",1551
000017F0 BA81                    		MOVU.W 14H[R0], R1
000017F2 6111                    		CMP #01H, R1
000017F4 3Brrrr               W  		BNE L491
000017F7                         L482:	; bb580
                                 ;    1552         {
                                 ;    1553             if( usb_shhub_EventPort[ptr->ip] >= usb_shhub_InfoData[ptr->ip][hubaddr].port_num )
                                 		.LINE  "C:\Workspace\e2studio\git\MT01_master\r_usb_basic\src\driver\host\r_usb_hhubsys.c",1553
000017F7 A889                    		MOV.L 0CH[R0], R1
000017F9 B992                    		MOVU.W 0CH[R1], R2
000017FB FBE2rrrrrrrr            		MOV.L #_usb_shhub_EventPort, R14
00001801 FED2EE                  		MOVU.W [R2,R14], R14
00001804 751258                  		MUL #58H, R2
00001807 FBF2rrrrrrrr            		MOV.L #_usb_shhub_InfoData, R15
0000180D 4B2F                    		ADD R2, R15
0000180F B88A                    		MOVU.W 06H[R0], R2
00001811 6C32                    		SHLL #03H, R2
00001813 4B2F                    		ADD R2, R15
00001815 06C5FE02                		CMP 04H[R15].UW, R14
00001819 29rr                    		BLT L488
0000181B                         L483:	; bb581
                                 ;    1554             {   /* Port check end */
                                 ;    1555                 usb_hhub_trans_start(ptr, hubaddr, (uint32_t)1, &usb_ghhub_Data[ptr->ip][hubaddr][0],
                                 		.LINE  "C:\Workspace\e2studio\git\MT01_master\r_usb_basic\src\driver\host\r_usb_hhubsys.c",1555
0000181B A88A                    		MOV.L 0CH[R0], R2
0000181D B9A3                    		MOVU.W 0CH[R2], R3
0000181F B88A                    		MOVU.W 06H[R0], R2
00001821 6040                    		SUB #04H, R0
00001823 FBE2rrrrrrrr            		MOV.L #__$usb_hhub_trans_complete, R14
00001829 E30E                    		MOV.L R14, [R0]
0000182B 751358                  		MUL #58H, R3
0000182E FB42rrrrrrrr            		MOV.L #_usb_ghhub_Data, R4
00001834 4B34                    		ADD R3, R4
00001836 FDC32E                  		SHLL #03H, R2, R14
00001839 4BE4                    		ADD R14, R4
0000183B 6613                    		MOV.L #00000001H, R3
0000183D 39rrrr               W  		BSR __$usb_hhub_trans_start
00001840 6240                    		ADD #04H, R0
00001842                         L484:	; bb581.split
                                 ;    1556                                     &usb_hhub_trans_complete);     /* Get Hub and Port Status Change Bitmap */
                                 ;    1557 
                                 ;    1558                 usb_shhub_EventPort[ptr->ip] = USB_HUB_P1;      /* Port Clear */
                                 		.LINE  "C:\Workspace\e2studio\git\MT01_master\r_usb_basic\src\driver\host\r_usb_hhubsys.c",1558
00001842 A889                    		MOV.L 0CH[R0], R1
00001844 B991                    		MOVU.W 0CH[R1], R1
00001846 FBE2rrrrrrrr            		MOV.L #_usb_shhub_EventPort, R14
0000184C 661F                    		MOV.L #00000001H, R15
0000184E FE11EF                  		MOV.W R15, [R1,R14]
00001851                         L485:	; bb581.split12
                                 ;    1559                 usb_shhub_EventSeq[ptr->ip] = USB_SEQ_0;        /* Sequence Clear */
                                 		.LINE  "C:\Workspace\e2studio\git\MT01_master\r_usb_basic\src\driver\host\r_usb_hhubsys.c",1559
00001851 A889                    		MOV.L 0CH[R0], R1
00001853 B991                    		MOVU.W 0CH[R1], R1
00001855 FBE2rrrrrrrr            		MOV.L #_usb_shhub_EventSeq, R14
0000185B 660F                    		MOV.L #00000000H, R15
0000185D FE11EF                  		MOV.W R15, [R1,R14]
00001860                         L486:	; bb581.split13
                                 ;    1560                 usb_shhub_Process[ptr->ip] = USB_NONE;
                                 		.LINE  "C:\Workspace\e2studio\git\MT01_master\r_usb_basic\src\driver\host\r_usb_hhubsys.c",1560
00001860 A889                    		MOV.L 0CH[R0], R1
00001862 B991                    		MOVU.W 0CH[R1], R1
00001864 FBE2rrrrrrrr            		MOV.L #_usb_shhub_Process, R14
0000186A 660F                    		MOV.L #00000000H, R15
0000186C FE11EF                  		MOV.W R15, [R1,R14]
0000186F                         L487:	; bb581.split14
                                 ;    1561                 usb_shhub_Info[ptr->ip] = USB_NONE;
                                 		.LINE  "C:\Workspace\e2studio\git\MT01_master\r_usb_basic\src\driver\host\r_usb_hhubsys.c",1561
0000186F A889                    		MOV.L 0CH[R0], R1
00001871 B991                    		MOVU.W 0CH[R1], R1
00001873 FBE2rrrrrrrr            		MOV.L #_usb_shhub_Info, R14
00001879 660F                    		MOV.L #00000000H, R15
0000187B FE11EF                  		MOV.W R15, [R1,R14]
0000187E 2Err                 B  		BRA L491
00001880                         L488:	; bb615
                                 ;    1562             }
                                 ;    1563             else
                                 ;    1564             {
                                 ;    1565                 usb_shhub_EventPort[ptr->ip]++;                 /* Next port check */
                                 		.LINE  "C:\Workspace\e2studio\git\MT01_master\r_usb_basic\src\driver\host\r_usb_hhubsys.c",1565
00001880 B991                    		MOVU.W 0CH[R1], R1
00001882 FBE2rrrrrrrr            		MOV.L #_usb_shhub_EventPort, R14
00001888 FE51EF                  		MOV.W [R1,R14], R15
0000188B 621F                    		ADD #01H, R15
0000188D FE11EF                  		MOV.W R15, [R1,R14]
00001890                         L489:	; bb615.split
                                 ;    1566                 usb_shhub_EventSeq[ptr->ip] = USB_SEQ_0;        /* Sequence Clear */
                                 		.LINE  "C:\Workspace\e2studio\git\MT01_master\r_usb_basic\src\driver\host\r_usb_hhubsys.c",1566
00001890 A889                    		MOV.L 0CH[R0], R1
00001892 B991                    		MOVU.W 0CH[R1], R1
00001894 FBE2rrrrrrrr            		MOV.L #_usb_shhub_EventSeq, R14
0000189A 660F                    		MOV.L #00000000H, R15
0000189C FE11EF                  		MOV.W R15, [R1,R14]
0000189F                         L490:	; bb615.split15
                                 ;    1567                 usb_hhub_SpecifiedPath(mess);
                                 		.LINE  "C:\Workspace\e2studio\git\MT01_master\r_usb_basic\src\driver\host\r_usb_hhubsys.c",1567
0000189F A981                    		MOV.L 18H[R0], R1
000018A1 39rrrr               W  		BSR __$usb_hhub_SpecifiedPath
000018A4                         L491:	; bb657
                                 ;    1568             }
                                 ;    1569         }
                                 ;    1570 
                                 ;    1571         err = USB_REL_BLK(USB_HUB_MPL,(USB_MH_t)mess);
                                 		.LINE  "C:\Workspace\e2studio\git\MT01_master\r_usb_basic\src\driver\host\r_usb_hhubsys.c",1571
000018A4 A982                    		MOV.L 18H[R0], R2
000018A6 6631                    		MOV.L #00000003H, R1
000018A8 05rrrrrr             A  		BSR _usb_cstd_RelBlk
000018AC E301                    		MOV.L R1, [R0]
000018AE                         L492:	; bb657.split
                                 ;    1572         if( USB_OK != err )
                                 		.LINE  "C:\Workspace\e2studio\git\MT01_master\r_usb_basic\src\driver\host\r_usb_hhubsys.c",1572
000018AE 6707                    		RTSD #1CH
000018B0                         __$usb_hhub_port_reset:
                                 		.STACK	__$usb_hhub_port_reset=32
                                 ;    1573         {
                                 ;    1574             USB_PRINTF0("### USB HostHubClass rel_blk error\n");
                                 ;    1575         }
                                 ;    1576     }
                                 ;    1577 }   /* eof usb_hhub_event() */
                                 ;    1578 
                                 ;    1579 
                                 ;    1580 /******************************************************************************
                                 ;    1581 Function Name   : usb_hhub_port_reset
                                 ;    1582 Description     : HUB down port USB-reset request
                                 ;    1583 Arguments       : uint16_t hubaddr          : hub address
                                 ;    1584                 : uint16_t portnum          : down port number
                                 ;    1585                 : USB_CLSINFO_t *mess
                                 ;    1586 Return value    : none
                                 ;    1587 ******************************************************************************/
                                 ;    1588 void usb_hhub_port_reset(USB_UTR_t *ptr, uint16_t hubaddr, uint16_t portnum, USB_CLSINFO_t *mess)
                                 		.LINE  "C:\Workspace\e2studio\git\MT01_master\r_usb_basic\src\driver\host\r_usb_hhubsys.c",1588
000018B0 7100E8                  		ADD #0FFFFFFE8H, R0
000018B3 A109                    		MOV.L R1, 14H[R0]
000018B5 920A                    		MOV.W R2, 12H[R0]
000018B7 9203                    		MOV.W R3, 10H[R0]
000018B9 A08C                    		MOV.L R4, 0CH[R0]
                                 ;    1589 {
                                 ;    1590     USB_ER_t        err;
                                 ;    1591     uint16_t        retval;
                                 ;    1592     uint32_t        port_status;
                                 ;    1593 
                                 ;    1594     hubaddr = usb_shhub_HubAddr[ptr->ip];
                                 		.LINE  "C:\Workspace\e2studio\git\MT01_master\r_usb_basic\src\driver\host\r_usb_hhubsys.c",1594
000018BB A909                    		MOV.L 14H[R0], R1
000018BD B991                    		MOVU.W 0CH[R1], R1
000018BF FBE2rrrrrrrr            		MOV.L #_usb_shhub_HubAddr, R14
000018C5 FE51E1                  		MOV.W [R1,R14], R1
000018C8 9209                    		MOV.W R1, 12H[R0]
000018CA                         L494:	; entry.split
                                 ;    1595     portnum = usb_shhub_EventPort[ptr->ip];
                                 		.LINE  "C:\Workspace\e2studio\git\MT01_master\r_usb_basic\src\driver\host\r_usb_hhubsys.c",1595
000018CA A909                    		MOV.L 14H[R0], R1
000018CC B991                    		MOVU.W 0CH[R1], R1
000018CE FBE2rrrrrrrr            		MOV.L #_usb_shhub_EventPort, R14
000018D4 FE51E1                  		MOV.W [R1,R14], R1
000018D7 9201                    		MOV.W R1, 10H[R0]
000018D9                         L495:	; entry.split1
                                 ;    1596 
                                 ;    1597     if( usb_shhub_Process[ptr->ip] != USB_MSG_HUB_RESET )
                                 		.LINE  "C:\Workspace\e2studio\git\MT01_master\r_usb_basic\src\driver\host\r_usb_hhubsys.c",1597
000018D9 A909                    		MOV.L 14H[R0], R1
000018DB B991                    		MOVU.W 0CH[R1], R1
000018DD FBE2rrrrrrrr            		MOV.L #_usb_shhub_Process, R14
000018E3 FED1EE                  		MOVU.W [R1,R14], R14
000018E6 760E3701                		CMP #0137H, R14
000018EA 20rr                    		BEQ L498
000018EC                         L496:	; bb19
                                 ;    1598     {
                                 ;    1599         err = USB_SND_MSG( USB_HUB_MBX, (USB_MSG_t*)mess );
                                 		.LINE  "C:\Workspace\e2studio\git\MT01_master\r_usb_basic\src\driver\host\r_usb_hhubsys.c",1599
000018EC A88A                    		MOV.L 0CH[R0], R2
000018EE 6631                    		MOV.L #00000003H, R1
000018F0 05rrrrrr             A  		BSR _usb_cstd_SndMsg
000018F4 E301                    		MOV.L R1, [R0]
000018F6                         L497:	; bb19.split
                                 ;    1600         if( USB_OK != err )
                                 		.LINE  "C:\Workspace\e2studio\git\MT01_master\r_usb_basic\src\driver\host\r_usb_hhubsys.c",1600
000018F6 6706                    		RTSD #18H
000018F8                         L498:	; bb29
                                 ;    1601         {
                                 ;    1602             USB_PRINTF0("### HUB snd_msg error\n");
                                 ;    1603         }
                                 ;    1604     }
                                 ;    1605     else
                                 ;    1606     {
                                 ;    1607         switch( usb_shhub_ResetSeq[ptr->ip] )
                                 		.LINE  "C:\Workspace\e2studio\git\MT01_master\r_usb_basic\src\driver\host\r_usb_hhubsys.c",1607
000018F8 A909                    		MOV.L 14H[R0], R1
000018FA B991                    		MOVU.W 0CH[R1], R1
000018FC FBE2rrrrrrrr            		MOV.L #_usb_shhub_ResetSeq, R14
00001902 FED1EE                  		MOVU.W [R1,R14], R14
00001905 613E                    		CMP #03H, R14
00001907 3Arrrr               W  		BEQ L528
0000190A                         L499:	; bb29
0000190A 611E                    		CMP #01H, R14
0000190C 20rr                    		BEQ L507
0000190E                         L500:	; bb29
0000190E 612E                    		CMP #02H, R14
00001910 3Arrrr               W  		BEQ L514
00001913                         L501:	; bb29
00001913 610E                    		CMP #00H, R14
00001915 3Brrrr               W  		BNE L533
00001918                         L502:	; bb37
00001918 754164                  		MOV.L #00000064H, R1
                                 ;    1608         {
                                 ;    1609         case USB_SEQ_0:
                                 ;    1610             /* Hub port SetFeature */
                                 ;    1611             usb_cpu_DelayXms((uint16_t)100);
                                 		.LINE  "C:\Workspace\e2studio\git\MT01_master\r_usb_basic\src\driver\host\r_usb_hhubsys.c",1611
0000191B 05rrrrrr             A  		BSR _usb_cpu_DelayXms
0000191F                         L503:	; bb37.split
                                 ;    1612             retval = usb_hhub_PortSetFeature( ptr, hubaddr, portnum, (uint16_t)USB_HUB_PORT_RESET,
                                 		.LINE  "C:\Workspace\e2studio\git\MT01_master\r_usb_basic\src\driver\host\r_usb_hhubsys.c",1612
0000191F BA03                    		MOVU.W 10H[R0], R3
00001921 BA0A                    		MOVU.W 12H[R0], R2
00001923 A909                    		MOV.L 14H[R0], R1
00001925 6040                    		SUB #04H, R0
00001927 FBE2rrrrrrrr            		MOV.L #__$usb_hhub_class_request_complete, R14
0000192D E30E                    		MOV.L R14, [R0]
0000192F 6644                    		MOV.L #00000004H, R4
00001931 39rrrr               W  		BSR __$usb_hhub_PortSetFeature
00001934 6240                    		ADD #04H, R0
00001936 9089                    		MOV.W R1, 06H[R0]
00001938                         L504:	; bb37.split2
                                 ;    1613                                               usb_hhub_class_request_complete);
                                 ;    1614             /* Submit overlap error */
                                 ;    1615             if( USB_HUB_QOVR == retval )
                                 		.LINE  "C:\Workspace\e2studio\git\MT01_master\r_usb_basic\src\driver\host\r_usb_hhubsys.c",1615
00001938 B889                    		MOVU.W 06H[R0], R1
0000193A 7701FEFF00              		CMP #0FFFEH, R1
0000193F 21rr                    		BNE L506
00001941                         L505:	; bb43
                                 ;    1616             {
                                 ;    1617                 usb_hhub_SpecifiedPathWait( mess, (uint16_t)10 );
                                 		.LINE  "C:\Workspace\e2studio\git\MT01_master\r_usb_basic\src\driver\host\r_usb_hhubsys.c",1617
00001941 A889                    		MOV.L 0CH[R0], R1
00001943 66A2                    		MOV.L #0000000AH, R2
00001945 39rrrr               W  		BSR __$usb_hhub_SpecifiedPathWait
00001948 38rrrr               W  		BRA L535
0000194B                         L506:	; bb45
                                 ;    1618             }
                                 ;    1619             else
                                 ;    1620             {
                                 ;    1621                 usb_shhub_ResetSeq[ptr->ip] = USB_SEQ_1;
                                 		.LINE  "C:\Workspace\e2studio\git\MT01_master\r_usb_basic\src\driver\host\r_usb_hhubsys.c",1621
0000194B A909                    		MOV.L 14H[R0], R1
0000194D B991                    		MOVU.W 0CH[R1], R1
0000194F FBE2rrrrrrrr            		MOV.L #_usb_shhub_ResetSeq, R14
00001955 661F                    		MOV.L #00000001H, R15
00001957 FE11EF                  		MOV.W R15, [R1,R14]
0000195A 38rrrr               W  		BRA L535
0000195D                         L507:	; bb57
                                 ;    1622             }
                                 ;    1623             break;
                                 ;    1624 
                                 ;    1625         case USB_SEQ_1:
                                 ;    1626             retval = usb_hhub_request_result(mess->result);
                                 		.LINE  "C:\Workspace\e2studio\git\MT01_master\r_usb_basic\src\driver\host\r_usb_hhubsys.c",1626
0000195D A889                    		MOV.L 0CH[R0], R1
0000195F B999                    		MOVU.W 0EH[R1], R1
00001961 39rrrr               W  		BSR __$usb_hhub_request_result
00001964 9089                    		MOV.W R1, 06H[R0]
00001966                         L508:	; bb57.split
                                 ;    1627             if( USB_DONE == retval )
                                 		.LINE  "C:\Workspace\e2studio\git\MT01_master\r_usb_basic\src\driver\host\r_usb_hhubsys.c",1627
00001966 B889                    		MOVU.W 06H[R0], R1
00001968 6101                    		CMP #00H, R1
0000196A 3Brrrr               W  		BNE L535
0000196D                         L509:	; bb63
0000196D 75413C                  		MOV.L #0000003CH, R1
                                 ;    1628             {
                                 ;    1629                 usb_cpu_DelayXms((uint16_t)60);
                                 		.LINE  "C:\Workspace\e2studio\git\MT01_master\r_usb_basic\src\driver\host\r_usb_hhubsys.c",1629
00001970 05rrrrrr             A  		BSR _usb_cpu_DelayXms
00001974                         L510:	; bb63.split
                                 ;    1630 
                                 ;    1631                 /* Get Status */
                                 ;    1632                 retval = R_usb_hhub_GetPortInformation( ptr, hubaddr, portnum, usb_hhub_class_request_complete );
                                 		.LINE  "C:\Workspace\e2studio\git\MT01_master\r_usb_basic\src\driver\host\r_usb_hhubsys.c",1632
00001974 BA03                    		MOVU.W 10H[R0], R3
00001976 BA0A                    		MOVU.W 12H[R0], R2
00001978 A909                    		MOV.L 14H[R0], R1
0000197A FB42rrrrrrrr            		MOV.L #__$usb_hhub_class_request_complete, R4
00001980 39rrrr               W  		BSR _R_usb_hhub_GetPortInformation
00001983 9089                    		MOV.W R1, 06H[R0]
00001985                         L511:	; bb63.split3
                                 ;    1633                 /* Submit overlap error */
                                 ;    1634                 if( USB_HUB_QOVR == retval )
                                 		.LINE  "C:\Workspace\e2studio\git\MT01_master\r_usb_basic\src\driver\host\r_usb_hhubsys.c",1634
00001985 B889                    		MOVU.W 06H[R0], R1
00001987 7701FEFF00              		CMP #0FFFEH, R1
0000198C 21rr                    		BNE L513
0000198E                         L512:	; bb69
                                 ;    1635                 {
                                 ;    1636                     usb_hhub_SpecifiedPathWait( mess, (uint16_t)10 );
                                 		.LINE  "C:\Workspace\e2studio\git\MT01_master\r_usb_basic\src\driver\host\r_usb_hhubsys.c",1636
0000198E A889                    		MOV.L 0CH[R0], R1
00001990 66A2                    		MOV.L #0000000AH, R2
00001992 39rrrr               W  		BSR __$usb_hhub_SpecifiedPathWait
00001995 38rrrr               W  		BRA L535
00001998                         L513:	; bb71
                                 ;    1637                 }
                                 ;    1638                 else
                                 ;    1639                 {
                                 ;    1640                     usb_shhub_ResetSeq[ptr->ip] = USB_SEQ_2;
                                 		.LINE  "C:\Workspace\e2studio\git\MT01_master\r_usb_basic\src\driver\host\r_usb_hhubsys.c",1640
00001998 A909                    		MOV.L 14H[R0], R1
0000199A B991                    		MOVU.W 0CH[R1], R1
0000199C FBE2rrrrrrrr            		MOV.L #_usb_shhub_ResetSeq, R14
000019A2 662F                    		MOV.L #00000002H, R15
000019A4 FE11EF                  		MOV.W R15, [R1,R14]
000019A7 38rrrr               W  		BRA L535
000019AA                         L514:	; bb89
                                 ;    1641                 }
                                 ;    1642             }
                                 ;    1643             break;
                                 ;    1644 
                                 ;    1645         case USB_SEQ_2:
                                 ;    1646             retval = usb_hhub_request_result(mess->result);
                                 		.LINE  "C:\Workspace\e2studio\git\MT01_master\r_usb_basic\src\driver\host\r_usb_hhubsys.c",1646
000019AA A889                    		MOV.L 0CH[R0], R1
000019AC B999                    		MOVU.W 0EH[R1], R1
000019AE 39rrrr               W  		BSR __$usb_hhub_request_result
000019B1 9089                    		MOV.W R1, 06H[R0]
000019B3                         L515:	; bb89.split
                                 ;    1647             if( USB_DONE == retval )
                                 		.LINE  "C:\Workspace\e2studio\git\MT01_master\r_usb_basic\src\driver\host\r_usb_hhubsys.c",1647
000019B3 B889                    		MOVU.W 06H[R0], R1
000019B5 6101                    		CMP #00H, R1
000019B7 3Brrrr               W  		BNE L535
000019BA                         L516:	; bb95
                                 ;    1648             {
                                 ;    1649                 port_status = (uint32_t)usb_ghhub_Data[ptr->ip][hubaddr][0];
                                 		.LINE  "C:\Workspace\e2studio\git\MT01_master\r_usb_basic\src\driver\host\r_usb_hhubsys.c",1649
000019BA A909                    		MOV.L 14H[R0], R1
000019BC B991                    		MOVU.W 0CH[R1], R1
000019BE 751158                  		MUL #58H, R1
000019C1 FBE2rrrrrrrr            		MOV.L #_usb_ghhub_Data, R14
000019C7 4B1E                    		ADD R1, R14
000019C9 BA09                    		MOVU.W 12H[R0], R1
000019CB 6C31                    		SHLL #03H, R1
000019CD FECE11                  		MOVU.B [R14,R1], R1
000019D0 A081                    		MOV.L R1, 08H[R0]
000019D2                         L517:	; bb95.split
                                 ;    1650                 port_status |= (uint32_t)usb_ghhub_Data[ptr->ip][hubaddr][1] << 8;
                                 		.LINE  "C:\Workspace\e2studio\git\MT01_master\r_usb_basic\src\driver\host\r_usb_hhubsys.c",1650
000019D2 A909                    		MOV.L 14H[R0], R1
000019D4 B991                    		MOVU.W 0CH[R1], R1
000019D6 751158                  		MUL #58H, R1
000019D9 FB22rrrrrrrr            		MOV.L #_usb_ghhub_Data, R2
000019DF 4B12                    		ADD R1, R2
000019E1 BA09                    		MOVU.W 12H[R0], R1
000019E3 6C31                    		SHLL #03H, R1
000019E5 4B12                    		ADD R1, R2
000019E7 B029                    		MOVU.B 01H[R2], R1
000019E9 6C81                    		SHLL #08H, R1
000019EB 06950102                		OR 08H[R0].L, R1
000019EF A081                    		MOV.L R1, 08H[R0]
000019F1                         L518:	; bb95.split4
                                 ;    1651                 port_status |= (uint32_t)usb_ghhub_Data[ptr->ip][hubaddr][2] << 16;
                                 		.LINE  "C:\Workspace\e2studio\git\MT01_master\r_usb_basic\src\driver\host\r_usb_hhubsys.c",1651
000019F1 A909                    		MOV.L 14H[R0], R1
000019F3 B991                    		MOVU.W 0CH[R1], R1
000019F5 751158                  		MUL #58H, R1
000019F8 FB22rrrrrrrr            		MOV.L #_usb_ghhub_Data, R2
000019FE 4B12                    		ADD R1, R2
00001A00 BA09                    		MOVU.W 12H[R0], R1
00001A02 6C31                    		SHLL #03H, R1
00001A04 4B12                    		ADD R1, R2
00001A06 B0A1                    		MOVU.B 02H[R2], R1
00001A08 6D01                    		SHLL #10H, R1
00001A0A 06950102                		OR 08H[R0].L, R1
00001A0E A081                    		MOV.L R1, 08H[R0]
00001A10                         L519:	; bb95.split5
                                 ;    1652                 port_status |= (uint32_t)usb_ghhub_Data[ptr->ip][hubaddr][3] << 24;
                                 		.LINE  "C:\Workspace\e2studio\git\MT01_master\r_usb_basic\src\driver\host\r_usb_hhubsys.c",1652
00001A10 A909                    		MOV.L 14H[R0], R1
00001A12 B991                    		MOVU.W 0CH[R1], R1
00001A14 751158                  		MUL #58H, R1
00001A17 FB22rrrrrrrr            		MOV.L #_usb_ghhub_Data, R2
00001A1D 4B12                    		ADD R1, R2
00001A1F BA09                    		MOVU.W 12H[R0], R1
00001A21 6C31                    		SHLL #03H, R1
00001A23 4B12                    		ADD R1, R2
00001A25 B0A9                    		MOVU.B 03H[R2], R1
00001A27 6D81                    		SHLL #18H, R1
00001A29 06950102                		OR 08H[R0].L, R1
00001A2D A081                    		MOV.L R1, 08H[R0]
00001A2F                         L520:	; bb95.split6
                                 ;    1653                 /* Check Reset Change(C_PORT_RESET) */
                                 ;    1654                 if( USB_BIT_C_PORT_RESET != ( port_status & USB_BIT_C_PORT_RESET ) )
                                 		.LINE  "C:\Workspace\e2studio\git\MT01_master\r_usb_basic\src\driver\host\r_usb_hhubsys.c",1654
00001A2F A881                    		MOV.L 08H[R0], R1
00001A31 7721000010              		AND #00100000H, R1
00001A36 7701000010              		CMP #00100000H, R1
00001A3B 20rr                    		BEQ L523
00001A3D                         L521:	; bb158
                                 ;    1655                 {
                                 ;    1656                     usb_shhub_ResetSeq[ptr->ip] = USB_SEQ_0;
                                 		.LINE  "C:\Workspace\e2studio\git\MT01_master\r_usb_basic\src\driver\host\r_usb_hhubsys.c",1656
00001A3D A909                    		MOV.L 14H[R0], R1
00001A3F B991                    		MOVU.W 0CH[R1], R1
00001A41 FBE2rrrrrrrr            		MOV.L #_usb_shhub_ResetSeq, R14
00001A47 660F                    		MOV.L #00000000H, R15
00001A49 FE11EF                  		MOV.W R15, [R1,R14]
00001A4C                         L522:	; bb158.split
                                 ;    1657                     usb_hhub_SpecifiedPathWait( mess, (uint16_t)10 );                }
                                 		.LINE  "C:\Workspace\e2studio\git\MT01_master\r_usb_basic\src\driver\host\r_usb_hhubsys.c",1657
00001A4C A889                    		MOV.L 0CH[R0], R1
00001A4E 66A2                    		MOV.L #0000000AH, R2
00001A50 39rrrr               W  		BSR __$usb_hhub_SpecifiedPathWait
00001A53 38rrrr               W  		BRA L535
00001A56                         L523:	; bb165
00001A56 754114                  		MOV.L #00000014H, R1
                                 ;    1658                 else
                                 ;    1659                 {
                                 ;    1660                     /* Hub port ClearFeature */
                                 ;    1661                     usb_cpu_DelayXms((uint16_t)20);
                                 		.LINE  "C:\Workspace\e2studio\git\MT01_master\r_usb_basic\src\driver\host\r_usb_hhubsys.c",1661
00001A59 05rrrrrr             A  		BSR _usb_cpu_DelayXms
00001A5D                         L524:	; bb165.split
                                 ;    1662 
                                 ;    1663                     retval = usb_hhub_PortClrFeature( ptr, hubaddr, portnum, (uint16_t)USB_HUB_C_PORT_RESET,
                                 		.LINE  "C:\Workspace\e2studio\git\MT01_master\r_usb_basic\src\driver\host\r_usb_hhubsys.c",1663
00001A5D BA03                    		MOVU.W 10H[R0], R3
00001A5F BA0A                    		MOVU.W 12H[R0], R2
00001A61 A909                    		MOV.L 14H[R0], R1
00001A63 6040                    		SUB #04H, R0
00001A65 FBE2rrrrrrrr            		MOV.L #__$usb_hhub_class_request_complete, R14
00001A6B E30E                    		MOV.L R14, [R0]
00001A6D 754414                  		MOV.L #00000014H, R4
00001A70 39rrrr               W  		BSR __$usb_hhub_PortClrFeature
00001A73 6240                    		ADD #04H, R0
00001A75 9089                    		MOV.W R1, 06H[R0]
00001A77                         L525:	; bb165.split7
                                 ;    1664                                                       usb_hhub_class_request_complete );
                                 ;    1665                     /* Submit overlap error */
                                 ;    1666                     if( USB_HUB_QOVR == retval )
                                 		.LINE  "C:\Workspace\e2studio\git\MT01_master\r_usb_basic\src\driver\host\r_usb_hhubsys.c",1666
00001A77 B889                    		MOVU.W 06H[R0], R1
00001A79 7701FEFF00              		CMP #0FFFEH, R1
00001A7E 18                   S  		BNE L527
00001A7F                         L526:	; bb171
                                 ;    1667                     {
                                 ;    1668                         usb_hhub_SpecifiedPathWait( mess, (uint16_t)10 );
                                 		.LINE  "C:\Workspace\e2studio\git\MT01_master\r_usb_basic\src\driver\host\r_usb_hhubsys.c",1668
00001A7F A889                    		MOV.L 0CH[R0], R1
00001A81 66A2                    		MOV.L #0000000AH, R2
00001A83 39rrrr               W  		BSR __$usb_hhub_SpecifiedPathWait
00001A86 2Err                 B  		BRA L535
00001A88                         L527:	; bb173
                                 ;    1669                     }
                                 ;    1670                     else
                                 ;    1671                     {
                                 ;    1672                         usb_shhub_ResetSeq[ptr->ip] = USB_SEQ_3;
                                 		.LINE  "C:\Workspace\e2studio\git\MT01_master\r_usb_basic\src\driver\host\r_usb_hhubsys.c",1672
00001A88 A909                    		MOV.L 14H[R0], R1
00001A8A B991                    		MOVU.W 0CH[R1], R1
00001A8C FBE2rrrrrrrr            		MOV.L #_usb_shhub_ResetSeq, R14
00001A92 663F                    		MOV.L #00000003H, R15
00001A94 FE11EF                  		MOV.W R15, [R1,R14]
00001A97 2Err                 B  		BRA L535
00001A99                         L528:	; bb197
                                 ;    1673                     }
                                 ;    1674                 }
                                 ;    1675             }
                                 ;    1676             break;
                                 ;    1677 
                                 ;    1678         case USB_SEQ_3:
                                 ;    1679             retval = usb_hhub_request_result(mess->result);
                                 		.LINE  "C:\Workspace\e2studio\git\MT01_master\r_usb_basic\src\driver\host\r_usb_hhubsys.c",1679
00001A99 A889                    		MOV.L 0CH[R0], R1
00001A9B B999                    		MOVU.W 0EH[R1], R1
00001A9D 39rrrr               W  		BSR __$usb_hhub_request_result
00001AA0 9089                    		MOV.W R1, 06H[R0]
00001AA2                         L529:	; bb197.split
                                 ;    1680             if( USB_DONE == retval )
                                 		.LINE  "C:\Workspace\e2studio\git\MT01_master\r_usb_basic\src\driver\host\r_usb_hhubsys.c",1680
00001AA2 B889                    		MOVU.W 06H[R0], R1
00001AA4 6101                    		CMP #00H, R1
00001AA6 21rr                    		BNE L535
00001AA8                         L530:	; bb203
                                 ;    1681             {
                                 ;    1682                 usb_shhub_ResetSeq[ptr->ip] = USB_SEQ_0;
                                 		.LINE  "C:\Workspace\e2studio\git\MT01_master\r_usb_basic\src\driver\host\r_usb_hhubsys.c",1682
00001AA8 A909                    		MOV.L 14H[R0], R1
00001AAA B991                    		MOVU.W 0CH[R1], R1
00001AAC FBE2rrrrrrrr            		MOV.L #_usb_shhub_ResetSeq, R14
00001AB2 660F                    		MOV.L #00000000H, R15
00001AB4 FE11EF                  		MOV.W R15, [R1,R14]
00001AB7                         L531:	; bb203.split
                                 ;    1683                 usb_shhub_Process[ptr->ip] = USB_MSG_HUB_ATTACH;
                                 		.LINE  "C:\Workspace\e2studio\git\MT01_master\r_usb_basic\src\driver\host\r_usb_hhubsys.c",1683
00001AB7 A909                    		MOV.L 14H[R0], R1
00001AB9 B991                    		MOVU.W 0CH[R1], R1
00001ABB FBE2rrrrrrrr            		MOV.L #_usb_shhub_Process, R14
00001AC1 FBFA3601                		MOV.L #00000136H, R15
00001AC5 FE11EF                  		MOV.W R15, [R1,R14]
00001AC8                         L532:	; bb203.split8
                                 ;    1684                 usb_hhub_SpecifiedPath(mess);
                                 		.LINE  "C:\Workspace\e2studio\git\MT01_master\r_usb_basic\src\driver\host\r_usb_hhubsys.c",1684
00001AC8 A889                    		MOV.L 0CH[R0], R1
00001ACA 39rrrr               W  		BSR __$usb_hhub_SpecifiedPath
00001ACD 2Err                 B  		BRA L535
00001ACF                         L533:	; bb221
                                 ;    1685             }
                                 ;    1686             break;
                                 ;    1687 
                                 ;    1688         default:
                                 ;    1689             usb_shhub_ResetSeq[ptr->ip] = USB_SEQ_0;
                                 		.LINE  "C:\Workspace\e2studio\git\MT01_master\r_usb_basic\src\driver\host\r_usb_hhubsys.c",1689
00001ACF A909                    		MOV.L 14H[R0], R1
00001AD1 B991                    		MOVU.W 0CH[R1], R1
00001AD3 FBE2rrrrrrrr            		MOV.L #_usb_shhub_ResetSeq, R14
00001AD9 660F                    		MOV.L #00000000H, R15
00001ADB FE11EF                  		MOV.W R15, [R1,R14]
00001ADE                         L534:	; bb221.split
                                 ;    1690             usb_shhub_Process[ptr->ip] = USB_NONE;
                                 		.LINE  "C:\Workspace\e2studio\git\MT01_master\r_usb_basic\src\driver\host\r_usb_hhubsys.c",1690
00001ADE A909                    		MOV.L 14H[R0], R1
00001AE0 B991                    		MOVU.W 0CH[R1], R1
00001AE2 FBE2rrrrrrrr            		MOV.L #_usb_shhub_Process, R14
00001AE8 660F                    		MOV.L #00000000H, R15
00001AEA FE11EF                  		MOV.W R15, [R1,R14]
00001AED                         L535:	; bb232
                                 ;    1691             break;
                                 ;    1692         }
                                 ;    1693 
                                 ;    1694         err = USB_REL_BLK(USB_HUB_MPL,(USB_MH_t)mess);
                                 		.LINE  "C:\Workspace\e2studio\git\MT01_master\r_usb_basic\src\driver\host\r_usb_hhubsys.c",1694
00001AED A88A                    		MOV.L 0CH[R0], R2
00001AEF 6631                    		MOV.L #00000003H, R1
00001AF1 05rrrrrr             A  		BSR _usb_cstd_RelBlk
00001AF5 E301                    		MOV.L R1, [R0]
00001AF7                         L536:	; bb232.split
                                 ;    1695         if( USB_OK != err )
                                 		.LINE  "C:\Workspace\e2studio\git\MT01_master\r_usb_basic\src\driver\host\r_usb_hhubsys.c",1695
00001AF7 6706                    		RTSD #18H
00001AF9                         _usb_hhub_release:
                                 		.STACK	_usb_hhub_release=12
                                 ;    1696         {
                                 ;    1697             USB_PRINTF0("### USB HostHubClass rel_blk error\n");
                                 ;    1698         }
                                 ;    1699     }
                                 ;    1700 }   /* eof usb_hhub_port_reset() */
                                 ;    1701 
                                 ;    1702 
                                 ;    1703 /******************************************************************************
                                 ;    1704 Function Name   : usb_hhub_release
                                 ;    1705 Description     : HUB driver release
                                 ;    1706 Arguments       : none
                                 ;    1707 Return value    : none
                                 ;    1708 ******************************************************************************/
                                 ;    1709 void usb_hhub_release(USB_UTR_t *ptr)
                                 		.LINE  "C:\Workspace\e2studio\git\MT01_master\r_usb_basic\src\driver\host\r_usb_hhubsys.c",1709
00001AF9 6080                    		SUB #08H, R0
00001AFB A009                    		MOV.L R1, 04H[R0]
                                 ;    1710 {
                                 ;    1711     uint16_t    i;
                                 ;    1712 
                                 ;    1713     for( i = 0; i < USB_MAXHUB; i++ )
                                 		.LINE  "C:\Workspace\e2studio\git\MT01_master\r_usb_basic\src\driver\host\r_usb_hhubsys.c",1713
00001AFD 3D0100                  		MOV.W #0000H, 02H[R0]
00001B00 2Err                 B  		BRA L539
00001B02                         L538:	; bb
                                 ;    1714     {
                                 ;    1715         /* Hub driver release */
                                 ;    1716         R_usb_hstd_DriverRelease(ptr, (uint8_t)USB_IFCLS_HUB);
                                 		.LINE  "C:\Workspace\e2studio\git\MT01_master\r_usb_basic\src\driver\host\r_usb_hhubsys.c",1716
00001B02 A809                    		MOV.L 04H[R0], R1
00001B04 6692                    		MOV.L #00000009H, R2
00001B06 05rrrrrr             A  		BSR _R_usb_hstd_DriverRelease
00001B0A 9809                    		MOV.W 02H[R0], R1
00001B0C 6211                    		ADD #01H, R1
00001B0E 9009                    		MOV.W R1, 02H[R0]
00001B10                         L539:	; bb5
                                 		.LINE  "C:\Workspace\e2studio\git\MT01_master\r_usb_basic\src\driver\host\r_usb_hhubsys.c",1713
00001B10 B809                    		MOVU.W 02H[R0], R1
00001B12 6101                    		CMP #00H, R1
00001B14 2Brr                    		BLE L538
00001B16                         L540:	; return
                                 ;    1717     }
                                 ;    1718 }   /* eof usb_hhub_release() */
                                 		.LINE  "C:\Workspace\e2studio\git\MT01_master\r_usb_basic\src\driver\host\r_usb_hhubsys.c",1718
00001B16 6702                    		RTSD #08H
00001B18                         _usb_hhub_check_class:
                                 		.STACK	_usb_hhub_check_class=28
                                 ;    1719 
                                 ;    1720 
                                 ;    1721 /******************************************************************************
                                 ;    1722 Function Name   : usb_hhub_check_class
                                 ;    1723 Description     : HUB Class driver check
                                 ;    1724 Arguments       : uint16_t **table          : Descriptor, etc
                                 ;    1725 Return value    : none
                                 ;    1726 ******************************************************************************/
                                 ;    1727 void usb_hhub_check_class(USB_UTR_t *ptr, uint16_t **table)
                                 		.LINE  "C:\Workspace\e2studio\git\MT01_master\r_usb_basic\src\driver\host\r_usb_hhubsys.c",1727
00001B18 7EA6                    		PUSH.L R6
00001B1A 7100EC                  		ADD #0FFFFFFECH, R0
00001B1D A101                    		MOV.L R1, 10H[R0]
00001B1F A08A                    		MOV.L R2, 0CH[R0]
                                 ;    1728 {
                                 ;    1729     USB_CLSINFO_t   *p_blf;
                                 ;    1730     USB_CLSINFO_t   *cp;
                                 ;    1731     USB_ER_t err;
                                 ;    1732     
                                 ;    1733     usb_shhub_DeviceTable[ptr->ip]      = (uint8_t*)(table[0]);
                                 		.LINE  "C:\Workspace\e2studio\git\MT01_master\r_usb_basic\src\driver\host\r_usb_hhubsys.c",1733
00001B21 A901                    		MOV.L 10H[R0], R1
00001B23 B991                    		MOVU.W 0CH[R1], R1
00001B25 EC2E                    		MOV.L [R2], R14
00001B27 FBF2rrrrrrrr            		MOV.L #_usb_shhub_DeviceTable, R15
00001B2D FE21FE                  		MOV.L R14, [R1,R15]
00001B30                         L542:	; entry.split
                                 ;    1734     usb_shhub_ConfigTable[ptr->ip]      = (uint8_t*)(table[1]);
                                 		.LINE  "C:\Workspace\e2studio\git\MT01_master\r_usb_basic\src\driver\host\r_usb_hhubsys.c",1734
00001B30 A889                    		MOV.L 0CH[R0], R1
00001B32 A819                    		MOV.L 04H[R1], R1
00001B34 A902                    		MOV.L 10H[R0], R2
00001B36 B9A2                    		MOVU.W 0CH[R2], R2
00001B38 FBE2rrrrrrrr            		MOV.L #_usb_shhub_ConfigTable, R14
00001B3E FE22E1                  		MOV.L R1, [R2,R14]
00001B41                         L543:	; entry.split1
                                 ;    1735     usb_shhub_InterfaceTable[ptr->ip]   = (uint8_t*)(table[2]);
                                 		.LINE  "C:\Workspace\e2studio\git\MT01_master\r_usb_basic\src\driver\host\r_usb_hhubsys.c",1735
00001B41 A889                    		MOV.L 0CH[R0], R1
00001B43 A891                    		MOV.L 08H[R1], R1
00001B45 A902                    		MOV.L 10H[R0], R2
00001B47 B9A2                    		MOVU.W 0CH[R2], R2
00001B49 FBE2rrrrrrrr            		MOV.L #_usb_shhub_InterfaceTable, R14
00001B4F FE22E1                  		MOV.L R1, [R2,R14]
00001B52                         L544:	; entry.split2
                                 ;    1736     *table[3]                           = USB_DONE;
                                 		.LINE  "C:\Workspace\e2studio\git\MT01_master\r_usb_basic\src\driver\host\r_usb_hhubsys.c",1736
00001B52 A889                    		MOV.L 0CH[R0], R1
00001B54 A899                    		MOV.L 0CH[R1], R1
00001B56 F81500                  		MOV.W #0000H, [R1]
00001B59                         L545:	; entry.split3
                                 ;    1737     usb_shhub_Spec[ptr->ip]             = *table[4];
                                 		.LINE  "C:\Workspace\e2studio\git\MT01_master\r_usb_basic\src\driver\host\r_usb_hhubsys.c",1737
00001B59 A901                    		MOV.L 10H[R0], R1
00001B5B B991                    		MOVU.W 0CH[R1], R1
00001B5D A88A                    		MOV.L 0CH[R0], R2
00001B5F A922                    		MOV.L 10H[R2], R2
00001B61 DC2E                    		MOV.W [R2], R14
00001B63 FBF2rrrrrrrr            		MOV.L #_usb_shhub_Spec, R15
00001B69 FE11FE                  		MOV.W R14, [R1,R15]
00001B6C                         L546:	; entry.split4
                                 ;    1738     usb_shhub_Root[ptr->ip]             = *table[5];
                                 		.LINE  "C:\Workspace\e2studio\git\MT01_master\r_usb_basic\src\driver\host\r_usb_hhubsys.c",1738
00001B6C A901                    		MOV.L 10H[R0], R1
00001B6E B991                    		MOVU.W 0CH[R1], R1
00001B70 A88A                    		MOV.L 0CH[R0], R2
00001B72 A92A                    		MOV.L 14H[R2], R2
00001B74 DC2E                    		MOV.W [R2], R14
00001B76 FBF2rrrrrrrr            		MOV.L #_usb_shhub_Root, R15
00001B7C FE11FE                  		MOV.W R14, [R1,R15]
00001B7F                         L547:	; entry.split5
                                 ;    1739     usb_shhub_Speed[ptr->ip]            = *table[6];
                                 		.LINE  "C:\Workspace\e2studio\git\MT01_master\r_usb_basic\src\driver\host\r_usb_hhubsys.c",1739
00001B7F A901                    		MOV.L 10H[R0], R1
00001B81 B991                    		MOVU.W 0CH[R1], R1
00001B83 A88A                    		MOV.L 0CH[R0], R2
00001B85 A9A2                    		MOV.L 18H[R2], R2
00001B87 DC2E                    		MOV.W [R2], R14
00001B89 FBF2rrrrrrrr            		MOV.L #_usb_shhub_Speed, R15
00001B8F FE11FE                  		MOV.W R14, [R1,R15]
00001B92                         L548:	; entry.split6
                                 ;    1740     usb_shhub_DevAddr[ptr->ip]          = *table[7];
                                 		.LINE  "C:\Workspace\e2studio\git\MT01_master\r_usb_basic\src\driver\host\r_usb_hhubsys.c",1740
00001B92 A901                    		MOV.L 10H[R0], R1
00001B94 B991                    		MOVU.W 0CH[R1], R1
00001B96 A88A                    		MOV.L 0CH[R0], R2
00001B98 A9AA                    		MOV.L 1CH[R2], R2
00001B9A DC2E                    		MOV.W [R2], R14
00001B9C FBF2rrrrrrrr            		MOV.L #_usb_shhub_DevAddr, R15
00001BA2 FE11FE                  		MOV.W R14, [R1,R15]
00001BA5                         L549:	; entry.split7
                                 ;    1741     usb_shhub_Index[ptr->ip]            = usb_hhub_ChkTblIndx1(ptr, usb_shhub_DevAddr[ptr->ip]);
                                 		.LINE  "C:\Workspace\e2studio\git\MT01_master\r_usb_basic\src\driver\host\r_usb_hhubsys.c",1741
00001BA5 A901                    		MOV.L 10H[R0], R1
00001BA7 B996                    		MOVU.W 0CH[R1], R6
00001BA9 FBE2rrrrrrrr            		MOV.L #_usb_shhub_DevAddr, R14
00001BAF FED6E2                  		MOVU.W [R6,R14], R2
00001BB2 39rrrr               W  		BSR __$usb_hhub_ChkTblIndx1
00001BB5 FBE2rrrrrrrr            		MOV.L #_usb_shhub_Index, R14
00001BBB FE16E1                  		MOV.W R1, [R6,R14]
00001BBE                         L550:	; entry.split8
                                 ;    1742     
                                 ;    1743     usb_shhub_ClassSeq[ptr->ip]=0;
                                 		.LINE  "C:\Workspace\e2studio\git\MT01_master\r_usb_basic\src\driver\host\r_usb_hhubsys.c",1743
00001BBE A901                    		MOV.L 10H[R0], R1
00001BC0 B991                    		MOVU.W 0CH[R1], R1
00001BC2 FBE2rrrrrrrr            		MOV.L #_usb_shhub_ClassSeq, R14
00001BC8 660F                    		MOV.L #00000000H, R15
00001BCA FE11EF                  		MOV.W R15, [R1,R14]
00001BCD                         L551:	; entry.split9
00001BCD EF02                    		MOV.L R0, R2
00001BCF 6631                    		MOV.L #00000003H, R1
                                 ;    1744 
                                 ;    1745     /* Get mem pool blk */
                                 ;    1746     if( USB_OK == USB_PGET_BLK( USB_HUB_MPL, &p_blf ) )
                                 		.LINE  "C:\Workspace\e2studio\git\MT01_master\r_usb_basic\src\driver\host\r_usb_hhubsys.c",1746
00001BD1 05rrrrrr             A  		BSR _usb_cstd_PgetBlk
00001BD5 6101                    		CMP #00H, R1
00001BD7 21rr                    		BNE L559
00001BD9                         L552:	; bb90
                                 ;    1747     {
                                 ;    1748         cp = (USB_CLSINFO_t*)p_blf;
                                 		.LINE  "C:\Workspace\e2studio\git\MT01_master\r_usb_basic\src\driver\host\r_usb_hhubsys.c",1748
00001BD9 E40001                  		MOV.L [R0], 04H[R0]
00001BDC                         L553:	; bb90.split
                                 ;    1749         cp->msginfo = USB_MSG_CLS_CHECKREQUEST;
                                 		.LINE  "C:\Workspace\e2studio\git\MT01_master\r_usb_basic\src\driver\host\r_usb_hhubsys.c",1749
00001BDC A809                    		MOV.L 04H[R0], R1
00001BDE F919020102              		MOV.W #0201H, 04H[R1]
00001BE3                         L554:	; bb90.split10
                                 ;    1750 
                                 ;    1751         cp->ipp = ptr->ipp;
                                 		.LINE  "C:\Workspace\e2studio\git\MT01_master\r_usb_basic\src\driver\host\r_usb_hhubsys.c",1751
00001BE3 A901                    		MOV.L 10H[R0], R1
00001BE5 A80A                    		MOV.L 04H[R0], R2
00001BE7 E5120202                		MOV.L 08H[R1], 08H[R2]
00001BEB                         L555:	; bb90.split11
                                 ;    1752         cp->ip  = ptr->ip;
                                 		.LINE  "C:\Workspace\e2studio\git\MT01_master\r_usb_basic\src\driver\host\r_usb_hhubsys.c",1752
00001BEB A901                    		MOV.L 10H[R0], R1
00001BED A80A                    		MOV.L 04H[R0], R2
00001BEF D5120606                		MOV.W 0CH[R1], 0CH[R2]
00001BF3                         L556:	; bb90.split12
                                 ;    1753         
                                 ;    1754         /* Enumeration wait TaskID change */
                                 ;    1755         R_usb_hstd_EnuWait(ptr, (uint8_t)USB_HUB_TSK);
                                 		.LINE  "C:\Workspace\e2studio\git\MT01_master\r_usb_basic\src\driver\host\r_usb_hhubsys.c",1755
00001BF3 A901                    		MOV.L 10H[R0], R1
00001BF5 6632                    		MOV.L #00000003H, R2
00001BF7 05rrrrrr             A  		BSR _R_usb_hstd_EnuWait
00001BFB                         L557:	; bb90.split13
                                 ;    1756         
                                 ;    1757         /* Class check of enumeration sequence move to class function */
                                 ;    1758         err = USB_SND_MSG(USB_HUB_MBX, (USB_MSG_t*)cp);
                                 		.LINE  "C:\Workspace\e2studio\git\MT01_master\r_usb_basic\src\driver\host\r_usb_hhubsys.c",1758
00001BFB A80A                    		MOV.L 04H[R0], R2
00001BFD 6631                    		MOV.L #00000003H, R1
00001BFF 05rrrrrr             A  		BSR _usb_cstd_SndMsg
00001C03 A081                    		MOV.L R1, 08H[R0]
00001C05                         L558:	; bb90.split14
                                 ;    1759         if( USB_OK != err )
                                 		.LINE  "C:\Workspace\e2studio\git\MT01_master\r_usb_basic\src\driver\host\r_usb_hhubsys.c",1759
00001C05 3F6606                  		RTSD #18H, R6-R6
00001C08                         L559:	; bb118
                                 ;    1760         {
                                 ;    1761             /* Send Message failure */
                                 ;    1762             USB_PRINTF1("Host HUB snd_msg error %x\n", err);
                                 ;    1763         }
                                 ;    1764     }
                                 ;    1765     else
                                 ;    1766     {
                                 ;    1767         /* Send Message failure */
                                 ;    1768         while( 1 );
                                 		.LINE  "C:\Workspace\e2studio\git\MT01_master\r_usb_basic\src\driver\host\r_usb_hhubsys.c",1768
00001C08 2Err                 B  		BRA L559
00001C0A                         __$usb_hhub_trans_start:
                                 		.STACK	__$usb_hhub_trans_start=28
                                 ;    1769     }
                                 ;    1770 }   /* eof usb_hhub_check_class() */
                                 ;    1771 
                                 ;    1772 
                                 ;    1773 /******************************************************************************
                                 ;    1774 Function Name   : usb_hhub_trans_start
                                 ;    1775 Description     : HUB sys data transfer / control transfer
                                 ;    1776 Arguments       : uint16_t hubaddr          : hub address
                                 ;    1777                 : uint32_t size             : Data Transfer size
                                 ;    1778                 : uint8_t  *table           : Receive Data area
                                 ;    1779                 : USB_CB_t complete         : Callback function
                                 ;    1780 Return value    : none
                                 ;    1781 ******************************************************************************/
                                 ;    1782 void usb_hhub_trans_start(USB_UTR_t *ptr, uint16_t hubaddr, uint32_t size, uint8_t *table, USB_CB_t complete)
                                 		.LINE  "C:\Workspace\e2studio\git\MT01_master\r_usb_basic\src\driver\host\r_usb_hhubsys.c",1782
00001C0A 7100E8                  		ADD #0FFFFFFE8H, R0
00001C0D A109                    		MOV.L R1, 14H[R0]
00001C0F 920A                    		MOV.W R2, 12H[R0]
00001C11 A08B                    		MOV.L R3, 0CH[R0]
00001C13 A084                    		MOV.L R4, 08H[R0]
00001C15 E5000701                		MOV.L 1CH[R0], 04H[R0]
                                 ;    1783 {
                                 ;    1784     USB_ER_t        err;
                                 ;    1785 
                                 ;    1786     /* Transfer structure setting */
                                 ;    1787     usb_shhub_DataMess[ptr->ip][hubaddr].keyword    = usb_shhub_InfoData[ptr->ip][hubaddr].pipe_num;
                                 		.LINE  "C:\Workspace\e2studio\git\MT01_master\r_usb_basic\src\driver\host\r_usb_hhubsys.c",1787
00001C19 A909                    		MOV.L 14H[R0], R1
00001C1B B991                    		MOVU.W 0CH[R1], R1
00001C1D EF1E                    		MOV.L R1, R14
00001C1F 761EE401                		MUL #01E4H, R14
00001C23 FBF2rrrrrrrr            		MOV.L #_usb_shhub_DataMess, R15
00001C29 4BEF                    		ADD R14, R15
00001C2B BA0A                    		MOVU.W 12H[R0], R2
00001C2D EF2E                    		MOV.L R2, R14
00001C2F 751E2C                  		MUL #2CH, R14
00001C32 4BEF                    		ADD R14, R15
00001C34 751158                  		MUL #58H, R1
00001C37 FBE2rrrrrrrr            		MOV.L #_usb_shhub_InfoData, R14
00001C3D 4B1E                    		ADD R1, R14
00001C3F 6C32                    		SHLL #03H, R2
00001C41 4B2E                    		ADD R2, R14
00001C43 D5EF0303                		MOV.W 06H[R14], 06H[R15]
00001C47                         L561:	; entry.split
                                 ;    1788     usb_shhub_DataMess[ptr->ip][hubaddr].tranadr    = table;
                                 		.LINE  "C:\Workspace\e2studio\git\MT01_master\r_usb_basic\src\driver\host\r_usb_hhubsys.c",1788
00001C47 A909                    		MOV.L 14H[R0], R1
00001C49 B991                    		MOVU.W 0CH[R1], R1
00001C4B 7611E401                		MUL #01E4H, R1
00001C4F FB22rrrrrrrr            		MOV.L #_usb_shhub_DataMess, R2
00001C55 4B12                    		ADD R1, R2
00001C57 BA09                    		MOVU.W 12H[R0], R1
00001C59 75112C                  		MUL #2CH, R1
00001C5C 4B12                    		ADD R1, R2
00001C5E E5020205                		MOV.L 08H[R0], 14H[R2]
00001C62                         L562:	; entry.split1
                                 ;    1789     usb_shhub_DataMess[ptr->ip][hubaddr].tranlen    = size;
                                 		.LINE  "C:\Workspace\e2studio\git\MT01_master\r_usb_basic\src\driver\host\r_usb_hhubsys.c",1789
00001C62 A909                    		MOV.L 14H[R0], R1
00001C64 B991                    		MOVU.W 0CH[R1], R1
00001C66 7611E401                		MUL #01E4H, R1
00001C6A FB22rrrrrrrr            		MOV.L #_usb_shhub_DataMess, R2
00001C70 4B12                    		ADD R1, R2
00001C72 BA09                    		MOVU.W 12H[R0], R1
00001C74 75112C                  		MUL #2CH, R1
00001C77 4B12                    		ADD R1, R2
00001C79 E5020306                		MOV.L 0CH[R0], 18H[R2]
00001C7D                         L563:	; entry.split2
                                 ;    1790     usb_shhub_DataMess[ptr->ip][hubaddr].setup      = 0;
                                 		.LINE  "C:\Workspace\e2studio\git\MT01_master\r_usb_basic\src\driver\host\r_usb_hhubsys.c",1790
00001C7D A909                    		MOV.L 14H[R0], R1
00001C7F B991                    		MOVU.W 0CH[R1], R1
00001C81 7611E401                		MUL #01E4H, R1
00001C85 FB22rrrrrrrr            		MOV.L #_usb_shhub_DataMess, R2
00001C8B 4B12                    		ADD R1, R2
00001C8D BA09                    		MOVU.W 12H[R0], R1
00001C8F 75112C                  		MUL #2CH, R1
00001C92 4B12                    		ADD R1, R2
00001C94 3E2700                  		MOV.L #00000000H, 1CH[R2]
00001C97                         L564:	; entry.split3
                                 ;    1791     usb_shhub_DataMess[ptr->ip][hubaddr].status     = USB_DATA_WAIT;
                                 		.LINE  "C:\Workspace\e2studio\git\MT01_master\r_usb_basic\src\driver\host\r_usb_hhubsys.c",1791
00001C97 A909                    		MOV.L 14H[R0], R1
00001C99 B991                    		MOVU.W 0CH[R1], R1
00001C9B 7611E401                		MUL #01E4H, R1
00001C9F FB22rrrrrrrr            		MOV.L #_usb_shhub_DataMess, R2
00001CA5 4B12                    		ADD R1, R2
00001CA7 BA09                    		MOVU.W 12H[R0], R1
00001CA9 75112C                  		MUL #2CH, R1
00001CAC 4B12                    		ADD R1, R2
00001CAE 3DA002                  		MOV.W #0002H, 20H[R2]
00001CB1                         L565:	; entry.split4
                                 ;    1792     usb_shhub_DataMess[ptr->ip][hubaddr].complete   = complete;
                                 		.LINE  "C:\Workspace\e2studio\git\MT01_master\r_usb_basic\src\driver\host\r_usb_hhubsys.c",1792
00001CB1 A909                    		MOV.L 14H[R0], R1
00001CB3 B991                    		MOVU.W 0CH[R1], R1
00001CB5 7611E401                		MUL #01E4H, R1
00001CB9 FB22rrrrrrrr            		MOV.L #_usb_shhub_DataMess, R2
00001CBF 4B12                    		ADD R1, R2
00001CC1 BA09                    		MOVU.W 12H[R0], R1
00001CC3 75112C                  		MUL #2CH, R1
00001CC6 4B12                    		ADD R1, R2
00001CC8 E5020104                		MOV.L 04H[R0], 10H[R2]
00001CCC                         L566:	; entry.split5
                                 ;    1793     usb_shhub_DataMess[ptr->ip][hubaddr].segment    = USB_TRAN_END;
                                 		.LINE  "C:\Workspace\e2studio\git\MT01_master\r_usb_basic\src\driver\host\r_usb_hhubsys.c",1793
00001CCC A909                    		MOV.L 14H[R0], R1
00001CCE B991                    		MOVU.W 0CH[R1], R1
00001CD0 7611E401                		MUL #01E4H, R1
00001CD4 FBE2rrrrrrrr            		MOV.L #_usb_shhub_DataMess, R14
00001CDA 4B1E                    		ADD R1, R14
00001CDC BA09                    		MOVU.W 12H[R0], R1
00001CDE 75112C                  		MUL #2CH, R1
00001CE1 4B1E                    		ADD R1, R14
00001CE3 F9E42580                		MOV.B #80H, 25H[R14]
00001CE7                         L567:	; entry.split6
                                 ;    1794 
                                 ;    1795     usb_shhub_DataMess[ptr->ip][hubaddr].ipp        = ptr->ipp;
                                 		.LINE  "C:\Workspace\e2studio\git\MT01_master\r_usb_basic\src\driver\host\r_usb_hhubsys.c",1795
00001CE7 A909                    		MOV.L 14H[R0], R1
00001CE9 B992                    		MOVU.W 0CH[R1], R2
00001CEB 7612E401                		MUL #01E4H, R2
00001CEF FBE2rrrrrrrr            		MOV.L #_usb_shhub_DataMess, R14
00001CF5 4B2E                    		ADD R2, R14
00001CF7 BA0A                    		MOVU.W 12H[R0], R2
00001CF9 75122C                  		MUL #2CH, R2
00001CFC 4B2E                    		ADD R2, R14
00001CFE E51E0202                		MOV.L 08H[R1], 08H[R14]
00001D02                         L568:	; entry.split7
                                 ;    1796     usb_shhub_DataMess[ptr->ip][hubaddr].ip         = ptr->ip;
                                 		.LINE  "C:\Workspace\e2studio\git\MT01_master\r_usb_basic\src\driver\host\r_usb_hhubsys.c",1796
00001D02 A909                    		MOV.L 14H[R0], R1
00001D04 B991                    		MOVU.W 0CH[R1], R1
00001D06 EF1E                    		MOV.L R1, R14
00001D08 761EE401                		MUL #01E4H, R14
00001D0C FB22rrrrrrrr            		MOV.L #_usb_shhub_DataMess, R2
00001D12 4BE2                    		ADD R14, R2
00001D14 BA0B                    		MOVU.W 12H[R0], R3
00001D16 75132C                  		MUL #2CH, R3
00001D19 4B32                    		ADD R3, R2
00001D1B 91A1                    		MOV.W R1, 0CH[R2]
00001D1D                         L569:	; entry.split8
                                 ;    1797 
                                 ;    1798     /* Transfer start */
                                 ;    1799     err = R_usb_hstd_TransferStart(&usb_shhub_DataMess[ptr->ip][hubaddr]);
                                 		.LINE  "C:\Workspace\e2studio\git\MT01_master\r_usb_basic\src\driver\host\r_usb_hhubsys.c",1799
00001D1D A909                    		MOV.L 14H[R0], R1
00001D1F B992                    		MOVU.W 0CH[R1], R2
00001D21 BA0B                    		MOVU.W 12H[R0], R3
00001D23 7612E401                		MUL #01E4H, R2
00001D27 FB12rrrrrrrr            		MOV.L #_usb_shhub_DataMess, R1
00001D2D 4B21                    		ADD R2, R1
00001D2F 75132C                  		MUL #2CH, R3
00001D32 4B31                    		ADD R3, R1
00001D34 05rrrrrr             A  		BSR _R_usb_hstd_TransferStart
00001D38 E301                    		MOV.L R1, [R0]
00001D3A                         L570:	; entry.split9
                                 ;    1800     if( USB_E_OK != err )
                                 		.LINE  "C:\Workspace\e2studio\git\MT01_master\r_usb_basic\src\driver\host\r_usb_hhubsys.c",1800
00001D3A 6706                    		RTSD #18H
00001D3C                         __$usb_hhub_PortSetFeature:
                                 		.STACK	__$usb_hhub_PortSetFeature=32
                                 ;    1801     {
                                 ;    1802         /* Send Message failure */
                                 ;    1803         USB_PRINTF1("### usb_hhub_trans_start error (%ld)\n", err);
                                 ;    1804     }
                                 ;    1805 }   /* eof usb_hhub_trans_start() */
                                 ;    1806 
                                 ;    1807 
                                 ;    1808 /******************************************************************************
                                 ;    1809 Function Name   : usb_hhub_PortSetFeature
                                 ;    1810 Description     : SetFeature request
                                 ;    1811 Arguments       : uint16_t hubaddr          : hub address
                                 ;    1812                 : uint16_t port             : down port number
                                 ;    1813                 : uint16_t command          : request command
                                 ;    1814 Return value    : uint16_t                  : DONE/ERROR
                                 ;    1815 ******************************************************************************/
                                 ;    1816 uint16_t usb_hhub_PortSetFeature(USB_UTR_t *ptr, uint16_t hubaddr, uint16_t port, uint16_t command, USB_CB_t complete)
                                 		.LINE  "C:\Workspace\e2studio\git\MT01_master\r_usb_basic\src\driver\host\r_usb_hhubsys.c",1816
00001D3C 7100E4                  		ADD #0FFFFFFE4H, R0
00001D3F A181                    		MOV.L R1, 18H[R0]
00001D41 928A                    		MOV.W R2, 16H[R0]
00001D43 9283                    		MOV.W R3, 14H[R0]
00001D45 920C                    		MOV.W R4, 12H[R0]
00001D47 E5000803                		MOV.L 20H[R0], 0CH[R0]
                                 ;    1817 {
                                 ;    1818     USB_ER_t        qerr;
                                 ;    1819 
                                 ;    1820     /* Request */
                                 ;    1821     usb_shhub_ClassRequest[ptr->ip][0]  = USB_SET_FEATURE | USB_HOST_TO_DEV | USB_CLASS | USB_OTHER;
                                 		.LINE  "C:\Workspace\e2studio\git\MT01_master\r_usb_basic\src\driver\host\r_usb_hhubsys.c",1821
00001D4B A981                    		MOV.L 18H[R0], R1
00001D4D B991                    		MOVU.W 0CH[R1], R1
00001D4F 63A1                    		MUL #0AH, R1
00001D51 FBE2rrrrrrrr            		MOV.L #_usb_shhub_ClassRequest, R14
00001D57 4B1E                    		ADD R1, R14
00001D59 F8E92303                		MOV.W #0323H, [R14]
00001D5D                         L572:	; entry.split
                                 ;    1822     usb_shhub_ClassRequest[ptr->ip][1]  = command;
                                 		.LINE  "C:\Workspace\e2studio\git\MT01_master\r_usb_basic\src\driver\host\r_usb_hhubsys.c",1822
00001D5D A981                    		MOV.L 18H[R0], R1
00001D5F B991                    		MOVU.W 0CH[R1], R1
00001D61 63A1                    		MUL #0AH, R1
00001D63 FB22rrrrrrrr            		MOV.L #_usb_shhub_ClassRequest, R2
00001D69 4B12                    		ADD R1, R2
00001D6B D5020901                		MOV.W 12H[R0], 02H[R2]
00001D6F                         L573:	; entry.split1
                                 ;    1823     usb_shhub_ClassRequest[ptr->ip][2]  = port;         /* Port number */
                                 		.LINE  "C:\Workspace\e2studio\git\MT01_master\r_usb_basic\src\driver\host\r_usb_hhubsys.c",1823
00001D6F A981                    		MOV.L 18H[R0], R1
00001D71 B991                    		MOVU.W 0CH[R1], R1
00001D73 63A1                    		MUL #0AH, R1
00001D75 FB22rrrrrrrr            		MOV.L #_usb_shhub_ClassRequest, R2
00001D7B 4B12                    		ADD R1, R2
00001D7D D5020A02                		MOV.W 14H[R0], 04H[R2]
00001D81                         L574:	; entry.split2
                                 ;    1824     usb_shhub_ClassRequest[ptr->ip][3]  = 0;
                                 		.LINE  "C:\Workspace\e2studio\git\MT01_master\r_usb_basic\src\driver\host\r_usb_hhubsys.c",1824
00001D81 A981                    		MOV.L 18H[R0], R1
00001D83 B991                    		MOVU.W 0CH[R1], R1
00001D85 63A1                    		MUL #0AH, R1
00001D87 FB22rrrrrrrr            		MOV.L #_usb_shhub_ClassRequest, R2
00001D8D 4B12                    		ADD R1, R2
00001D8F 3D2300                  		MOV.W #0000H, 06H[R2]
00001D92                         L575:	; entry.split3
                                 ;    1825     usb_shhub_ClassRequest[ptr->ip][4]  = hubaddr;      /* Device address */
                                 		.LINE  "C:\Workspace\e2studio\git\MT01_master\r_usb_basic\src\driver\host\r_usb_hhubsys.c",1825
00001D92 A981                    		MOV.L 18H[R0], R1
00001D94 B991                    		MOVU.W 0CH[R1], R1
00001D96 63A1                    		MUL #0AH, R1
00001D98 FB22rrrrrrrr            		MOV.L #_usb_shhub_ClassRequest, R2
00001D9E 4B12                    		ADD R1, R2
00001DA0 D5020B04                		MOV.W 16H[R0], 08H[R2]
00001DA4                         L576:	; entry.split4
                                 ;    1826 
                                 ;    1827     /* Port SetFeature */
                                 ;    1828     usb_shhub_ControlMess[ptr->ip].keyword  = USB_PIPE0;
                                 		.LINE  "C:\Workspace\e2studio\git\MT01_master\r_usb_basic\src\driver\host\r_usb_hhubsys.c",1828
00001DA4 A981                    		MOV.L 18H[R0], R1
00001DA6 B991                    		MOVU.W 0CH[R1], R1
00001DA8 75112C                  		MUL #2CH, R1
00001DAB FB22rrrrrrrr            		MOV.L #_usb_shhub_ControlMess, R2
00001DB1 4B12                    		ADD R1, R2
00001DB3 3D2300                  		MOV.W #0000H, 06H[R2]
00001DB6                         L577:	; entry.split5
                                 ;    1829     usb_shhub_ControlMess[ptr->ip].tranadr  = (void*)&usb_ghhub_Data[ptr->ip][hubaddr][0];
                                 		.LINE  "C:\Workspace\e2studio\git\MT01_master\r_usb_basic\src\driver\host\r_usb_hhubsys.c",1829
00001DB6 A981                    		MOV.L 18H[R0], R1
00001DB8 B991                    		MOVU.W 0CH[R1], R1
00001DBA EF1E                    		MOV.L R1, R14
00001DBC 751E2C                  		MUL #2CH, R14
00001DBF FB22rrrrrrrr            		MOV.L #_usb_shhub_ControlMess, R2
00001DC5 4BE2                    		ADD R14, R2
00001DC7 751158                  		MUL #58H, R1
00001DCA FB32rrrrrrrr            		MOV.L #_usb_ghhub_Data, R3
00001DD0 4B13                    		ADD R1, R3
00001DD2 BA89                    		MOVU.W 16H[R0], R1
00001DD4 6C31                    		SHLL #03H, R1
00001DD6 4B13                    		ADD R1, R3
00001DD8 A12B                    		MOV.L R3, 14H[R2]
00001DDA                         L578:	; entry.split6
                                 ;    1830     usb_shhub_ControlMess[ptr->ip].tranlen  = (uint32_t)usb_shhub_ClassRequest[ptr->ip][3];
                                 		.LINE  "C:\Workspace\e2studio\git\MT01_master\r_usb_basic\src\driver\host\r_usb_hhubsys.c",1830
00001DDA A981                    		MOV.L 18H[R0], R1
00001DDC B991                    		MOVU.W 0CH[R1], R1
00001DDE EF1E                    		MOV.L R1, R14
00001DE0 751E2C                  		MUL #2CH, R14
00001DE3 FB22rrrrrrrr            		MOV.L #_usb_shhub_ControlMess, R2
00001DE9 4BE2                    		ADD R14, R2
00001DEB 63A1                    		MUL #0AH, R1
00001DED FB32rrrrrrrr            		MOV.L #_usb_shhub_ClassRequest, R3
00001DF3 4B13                    		ADD R1, R3
00001DF5 B8B9                    		MOVU.W 06H[R3], R1
00001DF7 A1A1                    		MOV.L R1, 18H[R2]
00001DF9                         L579:	; entry.split7
                                 ;    1831     usb_shhub_ControlMess[ptr->ip].setup    = usb_shhub_ClassRequest[ptr->ip];
                                 		.LINE  "C:\Workspace\e2studio\git\MT01_master\r_usb_basic\src\driver\host\r_usb_hhubsys.c",1831
00001DF9 A981                    		MOV.L 18H[R0], R1
00001DFB B991                    		MOVU.W 0CH[R1], R1
00001DFD EF1E                    		MOV.L R1, R14
00001DFF 751E2C                  		MUL #2CH, R14
00001E02 FB22rrrrrrrr            		MOV.L #_usb_shhub_ControlMess, R2
00001E08 4BE2                    		ADD R14, R2
00001E0A 63A1                    		MUL #0AH, R1
00001E0C FB32rrrrrrrr            		MOV.L #_usb_shhub_ClassRequest, R3
00001E12 4B13                    		ADD R1, R3
00001E14 A1AB                    		MOV.L R3, 1CH[R2]
00001E16                         L580:	; entry.split8
                                 ;    1832     usb_shhub_ControlMess[ptr->ip].segment  = USB_TRAN_END;
                                 		.LINE  "C:\Workspace\e2studio\git\MT01_master\r_usb_basic\src\driver\host\r_usb_hhubsys.c",1832
00001E16 A981                    		MOV.L 18H[R0], R1
00001E18 B991                    		MOVU.W 0CH[R1], R1
00001E1A 75112C                  		MUL #2CH, R1
00001E1D FBE2rrrrrrrr            		MOV.L #_usb_shhub_ControlMess, R14
00001E23 4B1E                    		ADD R1, R14
00001E25 F9E42580                		MOV.B #80H, 25H[R14]
00001E29                         L581:	; entry.split9
                                 ;    1833     usb_shhub_ControlMess[ptr->ip].complete = complete;
                                 		.LINE  "C:\Workspace\e2studio\git\MT01_master\r_usb_basic\src\driver\host\r_usb_hhubsys.c",1833
00001E29 A981                    		MOV.L 18H[R0], R1
00001E2B B991                    		MOVU.W 0CH[R1], R1
00001E2D 75112C                  		MUL #2CH, R1
00001E30 FB22rrrrrrrr            		MOV.L #_usb_shhub_ControlMess, R2
00001E36 4B12                    		ADD R1, R2
00001E38 E5020304                		MOV.L 0CH[R0], 10H[R2]
00001E3C                         L582:	; entry.split10
                                 ;    1834 
                                 ;    1835     usb_shhub_ControlMess[ptr->ip].ipp      = ptr->ipp;
                                 		.LINE  "C:\Workspace\e2studio\git\MT01_master\r_usb_basic\src\driver\host\r_usb_hhubsys.c",1835
00001E3C A981                    		MOV.L 18H[R0], R1
00001E3E B992                    		MOVU.W 0CH[R1], R2
00001E40 75122C                  		MUL #2CH, R2
00001E43 FBE2rrrrrrrr            		MOV.L #_usb_shhub_ControlMess, R14
00001E49 4B2E                    		ADD R2, R14
00001E4B E51E0202                		MOV.L 08H[R1], 08H[R14]
00001E4F                         L583:	; entry.split11
                                 ;    1836     usb_shhub_ControlMess[ptr->ip].ip       = ptr->ip;
                                 		.LINE  "C:\Workspace\e2studio\git\MT01_master\r_usb_basic\src\driver\host\r_usb_hhubsys.c",1836
00001E4F A981                    		MOV.L 18H[R0], R1
00001E51 B991                    		MOVU.W 0CH[R1], R1
00001E53 EF1E                    		MOV.L R1, R14
00001E55 751E2C                  		MUL #2CH, R14
00001E58 FB22rrrrrrrr            		MOV.L #_usb_shhub_ControlMess, R2
00001E5E 4BE2                    		ADD R14, R2
00001E60 91A1                    		MOV.W R1, 0CH[R2]
00001E62                         L584:	; entry.split12
                                 ;    1837 
                                 ;    1838     /* Transfer start */
                                 ;    1839     qerr = R_usb_hstd_TransferStart(&usb_shhub_ControlMess[ptr->ip]);
                                 		.LINE  "C:\Workspace\e2studio\git\MT01_master\r_usb_basic\src\driver\host\r_usb_hhubsys.c",1839
00001E62 A981                    		MOV.L 18H[R0], R1
00001E64 B992                    		MOVU.W 0CH[R1], R2
00001E66 75122C                  		MUL #2CH, R2
00001E69 FB12rrrrrrrr            		MOV.L #_usb_shhub_ControlMess, R1
00001E6F 4B21                    		ADD R2, R1
00001E71 05rrrrrr             A  		BSR _R_usb_hstd_TransferStart
00001E75 A009                    		MOV.L R1, 04H[R0]
00001E77                         L585:	; entry.split13
                                 ;    1840     if( USB_E_QOVR == qerr )
                                 		.LINE  "C:\Workspace\e2studio\git\MT01_master\r_usb_basic\src\driver\host\r_usb_hhubsys.c",1840
00001E77 A809                    		MOV.L 04H[R0], R1
00001E79 7501D5                  		CMP #0FFFFFFD5H, R1
00001E7C 18                   S  		BNE L587
00001E7D                         L586:	; bb134
                                 ;    1841     {
                                 ;    1842         return USB_HUB_QOVR;
                                 		.LINE  "C:\Workspace\e2studio\git\MT01_master\r_usb_basic\src\driver\host\r_usb_hhubsys.c",1842
00001E7D F90901FEFF              		MOV.W #0FFFEH, 02H[R0]
00001E82 08                   S  		BRA L588
00001E83                         L587:	; bb139
                                 ;    1843     }
                                 ;    1844 
                                 ;    1845     return USB_DONE;
                                 		.LINE  "C:\Workspace\e2studio\git\MT01_master\r_usb_basic\src\driver\host\r_usb_hhubsys.c",1845
00001E83 3D0100                  		MOV.W #0000H, 02H[R0]
00001E86                         L588:	; bb141
00001E86 D5000105                		MOV.W 02H[R0], 0AH[R0]
                                 ;    1846 }   /* eof usb_hhub_PortSetFeature() */
                                 		.LINE  "C:\Workspace\e2studio\git\MT01_master\r_usb_basic\src\driver\host\r_usb_hhubsys.c",1846
00001E8A B909                    		MOVU.W 0AH[R0], R1
00001E8C 6707                    		RTSD #1CH
00001E8E                         __$usb_hhub_PortClrFeature:
                                 		.STACK	__$usb_hhub_PortClrFeature=32
                                 ;    1847 
                                 ;    1848 
                                 ;    1849 /******************************************************************************
                                 ;    1850 Function Name   : usb_hhub_PortClrFeature
                                 ;    1851 Description     : ClearFeature request
                                 ;    1852 Arguments       : uint16_t hubaddr          : hub address
                                 ;    1853                 : uint16_t port             : down port number
                                 ;    1854                 : uint16_t command          : request command
                                 ;    1855 Return value    : uint16_t                  : DONE/ERROR
                                 ;    1856 ******************************************************************************/
                                 ;    1857 uint16_t usb_hhub_PortClrFeature(USB_UTR_t *ptr, uint16_t hubaddr, uint16_t port, uint16_t command, USB_CB_t complete)
                                 		.LINE  "C:\Workspace\e2studio\git\MT01_master\r_usb_basic\src\driver\host\r_usb_hhubsys.c",1857
00001E8E 7100E4                  		ADD #0FFFFFFE4H, R0
00001E91 A181                    		MOV.L R1, 18H[R0]
00001E93 928A                    		MOV.W R2, 16H[R0]
00001E95 9283                    		MOV.W R3, 14H[R0]
00001E97 920C                    		MOV.W R4, 12H[R0]
00001E99 E5000803                		MOV.L 20H[R0], 0CH[R0]
                                 ;    1858 {
                                 ;    1859     USB_ER_t        qerr;
                                 ;    1860 
                                 ;    1861     /* Request */
                                 ;    1862     usb_shhub_ClassRequest[ptr->ip][0]  = USB_CLEAR_FEATURE | USB_HOST_TO_DEV | USB_CLASS | USB_OTHER;
                                 		.LINE  "C:\Workspace\e2studio\git\MT01_master\r_usb_basic\src\driver\host\r_usb_hhubsys.c",1862
00001E9D A981                    		MOV.L 18H[R0], R1
00001E9F B991                    		MOVU.W 0CH[R1], R1
00001EA1 63A1                    		MUL #0AH, R1
00001EA3 FBE2rrrrrrrr            		MOV.L #_usb_shhub_ClassRequest, R14
00001EA9 4B1E                    		ADD R1, R14
00001EAB F8E92301                		MOV.W #0123H, [R14]
00001EAF                         L590:	; entry.split
                                 ;    1863     usb_shhub_ClassRequest[ptr->ip][1]  = command;
                                 		.LINE  "C:\Workspace\e2studio\git\MT01_master\r_usb_basic\src\driver\host\r_usb_hhubsys.c",1863
00001EAF A981                    		MOV.L 18H[R0], R1
00001EB1 B991                    		MOVU.W 0CH[R1], R1
00001EB3 63A1                    		MUL #0AH, R1
00001EB5 FB22rrrrrrrr            		MOV.L #_usb_shhub_ClassRequest, R2
00001EBB 4B12                    		ADD R1, R2
00001EBD D5020901                		MOV.W 12H[R0], 02H[R2]
00001EC1                         L591:	; entry.split1
                                 ;    1864     usb_shhub_ClassRequest[ptr->ip][2]  = port;         /* Port number */
                                 		.LINE  "C:\Workspace\e2studio\git\MT01_master\r_usb_basic\src\driver\host\r_usb_hhubsys.c",1864
00001EC1 A981                    		MOV.L 18H[R0], R1
00001EC3 B991                    		MOVU.W 0CH[R1], R1
00001EC5 63A1                    		MUL #0AH, R1
00001EC7 FB22rrrrrrrr            		MOV.L #_usb_shhub_ClassRequest, R2
00001ECD 4B12                    		ADD R1, R2
00001ECF D5020A02                		MOV.W 14H[R0], 04H[R2]
00001ED3                         L592:	; entry.split2
                                 ;    1865     usb_shhub_ClassRequest[ptr->ip][3]  = 0;
                                 		.LINE  "C:\Workspace\e2studio\git\MT01_master\r_usb_basic\src\driver\host\r_usb_hhubsys.c",1865
00001ED3 A981                    		MOV.L 18H[R0], R1
00001ED5 B991                    		MOVU.W 0CH[R1], R1
00001ED7 63A1                    		MUL #0AH, R1
00001ED9 FB22rrrrrrrr            		MOV.L #_usb_shhub_ClassRequest, R2
00001EDF 4B12                    		ADD R1, R2
00001EE1 3D2300                  		MOV.W #0000H, 06H[R2]
00001EE4                         L593:	; entry.split3
                                 ;    1866     usb_shhub_ClassRequest[ptr->ip][4]  = hubaddr;      /* Device address */
                                 		.LINE  "C:\Workspace\e2studio\git\MT01_master\r_usb_basic\src\driver\host\r_usb_hhubsys.c",1866
00001EE4 A981                    		MOV.L 18H[R0], R1
00001EE6 B991                    		MOVU.W 0CH[R1], R1
00001EE8 63A1                    		MUL #0AH, R1
00001EEA FB22rrrrrrrr            		MOV.L #_usb_shhub_ClassRequest, R2
00001EF0 4B12                    		ADD R1, R2
00001EF2 D5020B04                		MOV.W 16H[R0], 08H[R2]
00001EF6                         L594:	; entry.split4
                                 ;    1867 
                                 ;    1868     /* Port ClearFeature */
                                 ;    1869     usb_shhub_ControlMess[ptr->ip].keyword  = USB_PIPE0;
                                 		.LINE  "C:\Workspace\e2studio\git\MT01_master\r_usb_basic\src\driver\host\r_usb_hhubsys.c",1869
00001EF6 A981                    		MOV.L 18H[R0], R1
00001EF8 B991                    		MOVU.W 0CH[R1], R1
00001EFA 75112C                  		MUL #2CH, R1
00001EFD FB22rrrrrrrr            		MOV.L #_usb_shhub_ControlMess, R2
00001F03 4B12                    		ADD R1, R2
00001F05 3D2300                  		MOV.W #0000H, 06H[R2]
00001F08                         L595:	; entry.split5
                                 ;    1870     usb_shhub_ControlMess[ptr->ip].tranadr  = (void*)&usb_ghhub_Data[ptr->ip][hubaddr][0];
                                 		.LINE  "C:\Workspace\e2studio\git\MT01_master\r_usb_basic\src\driver\host\r_usb_hhubsys.c",1870
00001F08 A981                    		MOV.L 18H[R0], R1
00001F0A B991                    		MOVU.W 0CH[R1], R1
00001F0C EF1E                    		MOV.L R1, R14
00001F0E 751E2C                  		MUL #2CH, R14
00001F11 FB22rrrrrrrr            		MOV.L #_usb_shhub_ControlMess, R2
00001F17 4BE2                    		ADD R14, R2
00001F19 751158                  		MUL #58H, R1
00001F1C FB32rrrrrrrr            		MOV.L #_usb_ghhub_Data, R3
00001F22 4B13                    		ADD R1, R3
00001F24 BA89                    		MOVU.W 16H[R0], R1
00001F26 6C31                    		SHLL #03H, R1
00001F28 4B13                    		ADD R1, R3
00001F2A A12B                    		MOV.L R3, 14H[R2]
00001F2C                         L596:	; entry.split6
                                 ;    1871     usb_shhub_ControlMess[ptr->ip].tranlen  = (uint32_t)usb_shhub_ClassRequest[ptr->ip][3];
                                 		.LINE  "C:\Workspace\e2studio\git\MT01_master\r_usb_basic\src\driver\host\r_usb_hhubsys.c",1871
00001F2C A981                    		MOV.L 18H[R0], R1
00001F2E B991                    		MOVU.W 0CH[R1], R1
00001F30 EF1E                    		MOV.L R1, R14
00001F32 751E2C                  		MUL #2CH, R14
00001F35 FB22rrrrrrrr            		MOV.L #_usb_shhub_ControlMess, R2
00001F3B 4BE2                    		ADD R14, R2
00001F3D 63A1                    		MUL #0AH, R1
00001F3F FB32rrrrrrrr            		MOV.L #_usb_shhub_ClassRequest, R3
00001F45 4B13                    		ADD R1, R3
00001F47 B8B9                    		MOVU.W 06H[R3], R1
00001F49 A1A1                    		MOV.L R1, 18H[R2]
00001F4B                         L597:	; entry.split7
                                 ;    1872     usb_shhub_ControlMess[ptr->ip].setup    = usb_shhub_ClassRequest[ptr->ip];
                                 		.LINE  "C:\Workspace\e2studio\git\MT01_master\r_usb_basic\src\driver\host\r_usb_hhubsys.c",1872
00001F4B A981                    		MOV.L 18H[R0], R1
00001F4D B991                    		MOVU.W 0CH[R1], R1
00001F4F EF1E                    		MOV.L R1, R14
00001F51 751E2C                  		MUL #2CH, R14
00001F54 FB22rrrrrrrr            		MOV.L #_usb_shhub_ControlMess, R2
00001F5A 4BE2                    		ADD R14, R2
00001F5C 63A1                    		MUL #0AH, R1
00001F5E FB32rrrrrrrr            		MOV.L #_usb_shhub_ClassRequest, R3
00001F64 4B13                    		ADD R1, R3
00001F66 A1AB                    		MOV.L R3, 1CH[R2]
00001F68                         L598:	; entry.split8
                                 ;    1873     usb_shhub_ControlMess[ptr->ip].segment  = USB_TRAN_END;
                                 		.LINE  "C:\Workspace\e2studio\git\MT01_master\r_usb_basic\src\driver\host\r_usb_hhubsys.c",1873
00001F68 A981                    		MOV.L 18H[R0], R1
00001F6A B991                    		MOVU.W 0CH[R1], R1
00001F6C 75112C                  		MUL #2CH, R1
00001F6F FBE2rrrrrrrr            		MOV.L #_usb_shhub_ControlMess, R14
00001F75 4B1E                    		ADD R1, R14
00001F77 F9E42580                		MOV.B #80H, 25H[R14]
00001F7B                         L599:	; entry.split9
                                 ;    1874     usb_shhub_ControlMess[ptr->ip].complete = complete;
                                 		.LINE  "C:\Workspace\e2studio\git\MT01_master\r_usb_basic\src\driver\host\r_usb_hhubsys.c",1874
00001F7B A981                    		MOV.L 18H[R0], R1
00001F7D B991                    		MOVU.W 0CH[R1], R1
00001F7F 75112C                  		MUL #2CH, R1
00001F82 FB22rrrrrrrr            		MOV.L #_usb_shhub_ControlMess, R2
00001F88 4B12                    		ADD R1, R2
00001F8A E5020304                		MOV.L 0CH[R0], 10H[R2]
00001F8E                         L600:	; entry.split10
                                 ;    1875 
                                 ;    1876     usb_shhub_ControlMess[ptr->ip].ipp      = ptr->ipp;
                                 		.LINE  "C:\Workspace\e2studio\git\MT01_master\r_usb_basic\src\driver\host\r_usb_hhubsys.c",1876
00001F8E A981                    		MOV.L 18H[R0], R1
00001F90 B992                    		MOVU.W 0CH[R1], R2
00001F92 75122C                  		MUL #2CH, R2
00001F95 FBE2rrrrrrrr            		MOV.L #_usb_shhub_ControlMess, R14
00001F9B 4B2E                    		ADD R2, R14
00001F9D E51E0202                		MOV.L 08H[R1], 08H[R14]
00001FA1                         L601:	; entry.split11
                                 ;    1877     usb_shhub_ControlMess[ptr->ip].ip       = ptr->ip;
                                 		.LINE  "C:\Workspace\e2studio\git\MT01_master\r_usb_basic\src\driver\host\r_usb_hhubsys.c",1877
00001FA1 A981                    		MOV.L 18H[R0], R1
00001FA3 B991                    		MOVU.W 0CH[R1], R1
00001FA5 EF1E                    		MOV.L R1, R14
00001FA7 751E2C                  		MUL #2CH, R14
00001FAA FB22rrrrrrrr            		MOV.L #_usb_shhub_ControlMess, R2
00001FB0 4BE2                    		ADD R14, R2
00001FB2 91A1                    		MOV.W R1, 0CH[R2]
00001FB4                         L602:	; entry.split12
                                 ;    1878 
                                 ;    1879     /* Transfer start */
                                 ;    1880     qerr = R_usb_hstd_TransferStart(&usb_shhub_ControlMess[ptr->ip]);
                                 		.LINE  "C:\Workspace\e2studio\git\MT01_master\r_usb_basic\src\driver\host\r_usb_hhubsys.c",1880
00001FB4 A981                    		MOV.L 18H[R0], R1
00001FB6 B992                    		MOVU.W 0CH[R1], R2
00001FB8 75122C                  		MUL #2CH, R2
00001FBB FB12rrrrrrrr            		MOV.L #_usb_shhub_ControlMess, R1
00001FC1 4B21                    		ADD R2, R1
00001FC3 05rrrrrr             A  		BSR _R_usb_hstd_TransferStart
00001FC7 A009                    		MOV.L R1, 04H[R0]
00001FC9                         L603:	; entry.split13
                                 ;    1881     if( USB_E_QOVR == qerr )
                                 		.LINE  "C:\Workspace\e2studio\git\MT01_master\r_usb_basic\src\driver\host\r_usb_hhubsys.c",1881
00001FC9 A809                    		MOV.L 04H[R0], R1
00001FCB 7501D5                  		CMP #0FFFFFFD5H, R1
00001FCE 18                   S  		BNE L605
00001FCF                         L604:	; bb134
                                 ;    1882     {
                                 ;    1883         return USB_HUB_QOVR;
                                 		.LINE  "C:\Workspace\e2studio\git\MT01_master\r_usb_basic\src\driver\host\r_usb_hhubsys.c",1883
00001FCF F90901FEFF              		MOV.W #0FFFEH, 02H[R0]
00001FD4 08                   S  		BRA L606
00001FD5                         L605:	; bb139
                                 ;    1884     }
                                 ;    1885 
                                 ;    1886     return USB_DONE;
                                 		.LINE  "C:\Workspace\e2studio\git\MT01_master\r_usb_basic\src\driver\host\r_usb_hhubsys.c",1886
00001FD5 3D0100                  		MOV.W #0000H, 02H[R0]
00001FD8                         L606:	; bb141
00001FD8 D5000105                		MOV.W 02H[R0], 0AH[R0]
                                 ;    1887 }   /* eof usb_hhub_PortClrFeature() */
                                 		.LINE  "C:\Workspace\e2studio\git\MT01_master\r_usb_basic\src\driver\host\r_usb_hhubsys.c",1887
00001FDC B909                    		MOVU.W 0AH[R0], R1
00001FDE 6707                    		RTSD #1CH
00001FE0                         __$usb_hhub_request_result:
                                 		.STACK	__$usb_hhub_request_result=12
                                 ;    1888 
                                 ;    1889 
                                 ;    1890 /******************************************************************************
                                 ;    1891 Function Name   : usb_hhub_request_result
                                 ;    1892 Description     : Hub Request Result Check
                                 ;    1893 Arguments       : uint16_t errcheck         : hub result
                                 ;    1894 Return value    : uint16_t                  : USB_DONE/USB_ERROR
                                 ;    1895 ******************************************************************************/
                                 ;    1896 uint16_t usb_hhub_request_result(uint16_t errcheck)
                                 		.LINE  "C:\Workspace\e2studio\git\MT01_master\r_usb_basic\src\driver\host\r_usb_hhubsys.c",1896
00001FE0 6080                    		SUB #08H, R0
00001FE2 9089                    		MOV.W R1, 06H[R0]
                                 ;    1897 {
                                 ;    1898     if( errcheck == USB_DATA_TMO )
                                 		.LINE  "C:\Workspace\e2studio\git\MT01_master\r_usb_basic\src\driver\host\r_usb_hhubsys.c",1898
00001FE4 6191                    		CMP #09H, R1
00001FE6 18                   S  		BNE L609
00001FE7                         L608:	; bb2
                                 ;    1899     {
                                 ;    1900         USB_PRINTF0("*** HUB Request Timeout error !\n");
                                 ;    1901         return USB_ERROR;
                                 		.LINE  "C:\Workspace\e2studio\git\MT01_master\r_usb_basic\src\driver\host\r_usb_hhubsys.c",1901
00001FE7 F90901FFFF              		MOV.W #0FFFFH, 02H[R0]
00001FEC 2Err                 B  		BRA L614
00001FEE                         L609:	; bb5
                                 ;    1902     }
                                 ;    1903     else if( errcheck == USB_DATA_STALL )
                                 		.LINE  "C:\Workspace\e2studio\git\MT01_master\r_usb_basic\src\driver\host\r_usb_hhubsys.c",1903
00001FEE B889                    		MOVU.W 06H[R0], R1
00001FF0 6161                    		CMP #06H, R1
00001FF2 18                   S  		BNE L611
00001FF3                         L610:	; bb6
                                 ;    1904     {
                                 ;    1905         USB_PRINTF0("*** HUB Request STALL !\n");
                                 ;    1906         return USB_ERROR;
                                 		.LINE  "C:\Workspace\e2studio\git\MT01_master\r_usb_basic\src\driver\host\r_usb_hhubsys.c",1906
00001FF3 F90901FFFF              		MOV.W #0FFFFH, 02H[R0]
00001FF8 2Err                 B  		BRA L614
00001FFA                         L611:	; bb9
                                 ;    1907     }
                                 ;    1908     else if( errcheck != USB_CTRL_END )
                                 		.LINE  "C:\Workspace\e2studio\git\MT01_master\r_usb_basic\src\driver\host\r_usb_hhubsys.c",1908
00001FFA B889                    		MOVU.W 06H[R0], R1
00001FFC 6101                    		CMP #00H, R1
00001FFE 10                   S  		BEQ L613
00001FFF                         L612:	; bb10
                                 ;    1909     {
                                 ;    1910         USB_PRINTF0("*** HUB Request error !\n");
                                 ;    1911         return USB_ERROR;
                                 		.LINE  "C:\Workspace\e2studio\git\MT01_master\r_usb_basic\src\driver\host\r_usb_hhubsys.c",1911
00001FFF F90901FFFF              		MOV.W #0FFFFH, 02H[R0]
00002004 08                   S  		BRA L614
00002005                         L613:	; bb29
                                 ;    1912     }
                                 ;    1913     else
                                 ;    1914     {
                                 ;    1915     }
                                 ;    1916     return USB_DONE;
                                 		.LINE  "C:\Workspace\e2studio\git\MT01_master\r_usb_basic\src\driver\host\r_usb_hhubsys.c",1916
00002005 3D0100                  		MOV.W #0000H, 02H[R0]
00002008                         L614:	; bb31
00002008 D5000102                		MOV.W 02H[R0], 04H[R0]
                                 ;    1917 }   /* eof usb_hhub_request_result() */
                                 		.LINE  "C:\Workspace\e2studio\git\MT01_master\r_usb_basic\src\driver\host\r_usb_hhubsys.c",1917
0000200C B881                    		MOVU.W 04H[R0], R1
0000200E 6702                    		RTSD #08H
00002010                         __$usb_hhub_trans_complete:
                                 		.STACK	__$usb_hhub_trans_complete=28
                                 ;    1918 
                                 ;    1919 /******************************************************************************
                                 ;    1920 Function Name   : usb_hhub_trans_complete
                                 ;    1921 Description     : Recieve complete Hub and Port Status Change Bitmap
                                 ;    1922 Arguments       : USB_UTR_t *mess    : USB system internal message.
                                 ;    1923 Return value    : none
                                 ;    1924 ******************************************************************************/
                                 ;    1925 void usb_hhub_trans_complete(USB_UTR_t *mess, uint16_t data1, uint16_t data2)
                                 		.LINE  "C:\Workspace\e2studio\git\MT01_master\r_usb_basic\src\driver\host\r_usb_hhubsys.c",1925
00002010 7100E8                  		ADD #0FFFFFFE8H, R0
00002013 A109                    		MOV.L R1, 14H[R0]
00002015 920A                    		MOV.W R2, 12H[R0]
00002017 9203                    		MOV.W R3, 10H[R0]
                                 ;    1926 {
                                 ;    1927     USB_ER_t        err;
                                 ;    1928     uint16_t        pipenum, hubaddr;
                                 ;    1929     USB_UTR_t       *ptr;
                                 ;    1930     
                                 ;    1931     ptr = (USB_UTR_t *)mess;
                                 		.LINE  "C:\Workspace\e2studio\git\MT01_master\r_usb_basic\src\driver\host\r_usb_hhubsys.c",1931
00002019 E5000503                		MOV.L 14H[R0], 0CH[R0]
0000201D                         L616:	; entry.split
                                 ;    1932     pipenum = mess->keyword;
                                 		.LINE  "C:\Workspace\e2studio\git\MT01_master\r_usb_basic\src\driver\host\r_usb_hhubsys.c",1932
0000201D A909                    		MOV.L 14H[R0], R1
0000201F D5100304                		MOV.W 06H[R1], 08H[R0]
00002023                         L617:	; entry.split1
                                 ;    1933     hubaddr = usb_hhub_GetHubaddr(ptr, pipenum);
                                 		.LINE  "C:\Workspace\e2studio\git\MT01_master\r_usb_basic\src\driver\host\r_usb_hhubsys.c",1933
00002023 B902                    		MOVU.W 08H[R0], R2
00002025 A889                    		MOV.L 0CH[R0], R1
00002027 39rrrr               W  		BSR __$usb_hhub_GetHubaddr
0000202A 9109                    		MOV.W R1, 0AH[R0]
0000202C                         L618:	; entry.split2
                                 ;    1934     usb_shhub_HubAddr[ptr->ip] = hubaddr;
                                 		.LINE  "C:\Workspace\e2studio\git\MT01_master\r_usb_basic\src\driver\host\r_usb_hhubsys.c",1934
0000202C A889                    		MOV.L 0CH[R0], R1
0000202E B991                    		MOVU.W 0CH[R1], R1
00002030 FBE2rrrrrrrr            		MOV.L #_usb_shhub_HubAddr, R14
00002036 990A                    		MOV.W 0AH[R0], R2
00002038 FE11E2                  		MOV.W R2, [R1,R14]
0000203B                         L619:	; entry.split3
                                 ;    1935     
                                 ;    1936     if( ( USB_MSG_HUB_SUBMITRESULT != usb_shhub_Process[ptr->ip] ) && ( USB_NONE != usb_shhub_Process[ptr->ip] ) )
                                 		.LINE  "C:\Workspace\e2studio\git\MT01_master\r_usb_basic\src\driver\host\r_usb_hhubsys.c",1936
0000203B A889                    		MOV.L 0CH[R0], R1
0000203D B991                    		MOVU.W 0CH[R1], R1
0000203F FBE2rrrrrrrr            		MOV.L #_usb_shhub_Process, R14
00002045 FED1EE                  		MOVU.W [R1,R14], R14
00002048 760E3401                		CMP #0134H, R14
0000204C 3Brrrr               W  		BNE L636
0000204F 38rrrr               W  		BRA L638
00002052                         L620:	; bb20
                                 ;    1937     {
                                 ;    1938         err = USB_SND_MSG( USB_HUB_MBX, (USB_MSG_t*)mess );
                                 		.LINE  "C:\Workspace\e2studio\git\MT01_master\r_usb_basic\src\driver\host\r_usb_hhubsys.c",1938
00002052 A90A                    		MOV.L 14H[R0], R2
00002054 6631                    		MOV.L #00000003H, R1
00002056 05rrrrrr             A  		BSR _usb_cstd_SndMsg
0000205A A009                    		MOV.L R1, 04H[R0]
0000205C                         L621:	; bb20.split
                                 ;    1939         if( USB_OK != err )
                                 		.LINE  "C:\Workspace\e2studio\git\MT01_master\r_usb_basic\src\driver\host\r_usb_hhubsys.c",1939
0000205C 6706                    		RTSD #18H
0000205E                         L622:	; bb30
                                 ;    1940         {
                                 ;    1941             /* Send Message failure */
                                 ;    1942             USB_PRINTF0("### HUB snd_msg error\n");
                                 ;    1943         }
                                 ;    1944     }
                                 ;    1945     else
                                 ;    1946     {
                                 ;    1947         usb_shhub_Process[ptr->ip] = USB_NONE;
                                 		.LINE  "C:\Workspace\e2studio\git\MT01_master\r_usb_basic\src\driver\host\r_usb_hhubsys.c",1947
0000205E A889                    		MOV.L 0CH[R0], R1
00002060 B991                    		MOVU.W 0CH[R1], R1
00002062 FBE2rrrrrrrr            		MOV.L #_usb_shhub_Process, R14
00002068 660F                    		MOV.L #00000000H, R15
0000206A FE11EF                  		MOV.W R15, [R1,R14]
0000206D                         L623:	; bb30.split
                                 ;    1948     
                                 ;    1949         switch( mess->status )
                                 		.LINE  "C:\Workspace\e2studio\git\MT01_master\r_usb_basic\src\driver\host\r_usb_hhubsys.c",1949
0000206D A909                    		MOV.L 14H[R0], R1
0000206F BC11                    		MOVU.W 20H[R1], R1
00002071 6161                    		CMP #06H, R1
00002073 20rr                    		BEQ L635
00002075                         L624:	; bb30.split
00002075 6031                    		SUB #03H, R1
00002077 6111                    		CMP #01H, R1
00002079 25rr                  * 		BGTU L640
         38rrrr                  
0000207E                         L625:	; bb41
                                 ;    1950         {
                                 ;    1951         case USB_DATA_SHT:
                                 ;    1952                 USB_PRINTF1("*** receive short(pipe %d : HUB) !\n", pipenum);
                                 ;    1953         /* Continue */
                                 ;    1954         /* Direction is in then data receive end */
                                 ;    1955         case USB_DATA_OK:
                                 ;    1956             if( ( USB_DEFAULT == usb_ghstd_MgrMode[ptr->ip][0] ) || ( USB_DEFAULT == usb_ghstd_MgrMode[ptr->ip][1] ) )
                                 		.LINE  "C:\Workspace\e2studio\git\MT01_master\r_usb_basic\src\driver\host\r_usb_hhubsys.c",1956
0000207E A889                    		MOV.L 0CH[R0], R1
00002080 B991                    		MOVU.W 0CH[R1], R1
00002082 6C21                    		SHLL #02H, R1
00002084 FBE2rrrrrrrr            		MOV.L #_usb_ghstd_MgrMode, R14
0000208A 4B1E                    		ADD R1, R14
0000208C 5CEE                    		MOVU.W [R14], R14
0000208E 755E28                  		CMP #28H, R14
00002091 20rr                    		BEQ L632
00002093 2Err                 B  		BRA L631
00002095                         L626:	; bb42
                                 ;    1957             {
                                 ;    1958                 err = USB_SND_MSG( USB_HUB_MBX, (USB_MSG_t*)mess );
                                 		.LINE  "C:\Workspace\e2studio\git\MT01_master\r_usb_basic\src\driver\host\r_usb_hhubsys.c",1958
00002095 A90A                    		MOV.L 14H[R0], R2
00002097 6631                    		MOV.L #00000003H, R1
00002099 05rrrrrr             A  		BSR _usb_cstd_SndMsg
0000209D A009                    		MOV.L R1, 04H[R0]
0000209F                         L627:	; bb42.split
                                 ;    1959                 if( USB_OK != err )
                                 		.LINE  "C:\Workspace\e2studio\git\MT01_master\r_usb_basic\src\driver\host\r_usb_hhubsys.c",1959
0000209F 6706                    		RTSD #18H
000020A1                         L628:	; bb53
                                 ;    1960                 {
                                 ;    1961                     USB_PRINTF0("### HUB task snd_msg error\n");
                                 ;    1962                 }
                                 ;    1963             }
                                 ;    1964             else
                                 ;    1965             {
                                 ;    1966                 /* HUB port connection */
                                 ;    1967                 usb_shhub_Info[ptr->ip] = USB_MSG_HUB_SUBMITRESULT;
                                 		.LINE  "C:\Workspace\e2studio\git\MT01_master\r_usb_basic\src\driver\host\r_usb_hhubsys.c",1967
000020A1 A889                    		MOV.L 0CH[R0], R1
000020A3 B991                    		MOVU.W 0CH[R1], R1
000020A5 FBE2rrrrrrrr            		MOV.L #_usb_shhub_Info, R14
000020AB FBFA3401                		MOV.L #00000134H, R15
000020AF FE11EF                  		MOV.W R15, [R1,R14]
000020B2                         L629:	; bb53.split
                                 ;    1968                 usb_shhub_Process[ptr->ip] = USB_MSG_HUB_EVENT;
                                 		.LINE  "C:\Workspace\e2studio\git\MT01_master\r_usb_basic\src\driver\host\r_usb_hhubsys.c",1968
000020B2 A889                    		MOV.L 0CH[R0], R1
000020B4 B991                    		MOVU.W 0CH[R1], R1
000020B6 FBE2rrrrrrrr            		MOV.L #_usb_shhub_Process, R14
000020BC FBFA3501                		MOV.L #00000135H, R15
000020C0 FE11EF                  		MOV.W R15, [R1,R14]
000020C3                         L630:	; bb53.split4
                                 ;    1969                 usb_hhub_SpecifiedPath(mess);
                                 		.LINE  "C:\Workspace\e2studio\git\MT01_master\r_usb_basic\src\driver\host\r_usb_hhubsys.c",1969
000020C3 A909                    		MOV.L 14H[R0], R1
000020C5 39rrrr               W  		BSR __$usb_hhub_SpecifiedPath
000020C8 6706                    		RTSD #18H
000020CA                         L631:	; bb76
000020CA A889                    		MOV.L 0CH[R0], R1
000020CC B991                    		MOVU.W 0CH[R1], R1
000020CE 6C21                    		SHLL #02H, R1
000020D0 FB22rrrrrrrr            		MOV.L #_usb_ghstd_MgrMode, R2
000020D6 4B12                    		ADD R1, R2
000020D8 B829                    		MOVU.W 02H[R2], R1
000020DA 755128                  		CMP #28H, R1
000020DD 18                   S  		BNE L633
000020DE                         L632:	; bb88
000020DE F80601                  		MOV.L #00000001H, [R0]
000020E1 08                   S  		BRA L634
000020E2                         L633:	; bb89
000020E2 F80600                  		MOV.L #00000000H, [R0]
000020E5                         L634:	; bb90
000020E5 EC01                    		MOV.L [R0], R1
000020E7 6101                    		CMP #00H, R1
000020E9 21rr                    		BNE L626
000020EB 2Err                 B  		BRA L628
000020ED                         L635:	; bb96
                                 ;    1970             }
                                 ;    1971             break;
                                 ;    1972         case USB_DATA_STALL:
                                 ;    1973             USB_PRINTF0("*** Data Read error. ( STALL ) !\n");
                                 ;    1974             /* CLEAR_FEATURE */
                                 ;    1975             usb_hstd_ClearStall(ptr, pipenum, (USB_CB_t)&usb_cstd_DummyFunction);
                                 		.LINE  "C:\Workspace\e2studio\git\MT01_master\r_usb_basic\src\driver\host\r_usb_hhubsys.c",1975
000020ED B902                    		MOVU.W 08H[R0], R2
000020EF A889                    		MOV.L 0CH[R0], R1
000020F1 FB32rrrrrrrr            		MOV.L #_usb_cstd_DummyFunction, R3
000020F7 05rrrrrr             A  		BSR _usb_hstd_ClearStall
000020FB 6706                    		RTSD #18H
000020FD                         L636:	; bb113
000020FD A889                    		MOV.L 0CH[R0], R1
000020FF B991                    		MOVU.W 0CH[R1], R1
00002101 FBE2rrrrrrrr            		MOV.L #_usb_shhub_Process, R14
00002107 FED1EE                  		MOVU.W [R1,R14], R14
0000210A 610E                    		CMP #00H, R14
0000210C 10                   S  		BEQ L638
0000210D                         L637:	; bb123
0000210D F80601                  		MOV.L #00000001H, [R0]
00002110 08                   S  		BRA L639
00002111                         L638:	; bb124
00002111 F80600                  		MOV.L #00000000H, [R0]
00002114                         L639:	; bb125
00002114 EC01                    		MOV.L [R0], R1
00002116 6101                    		CMP #00H, R1
00002118 3Brrrr               W  		BNE L620
0000211B 38rrrr               W  		BRA L622
0000211E                         L640:	; return
                                 ;    1976             break;
                                 ;    1977         case USB_DATA_OVR:
                                 ;    1978             USB_PRINTF0("### receiver over. !\n");
                                 ;    1979             break;
                                 ;    1980         case USB_DATA_STOP:
                                 ;    1981             USB_PRINTF0("### receiver stop. !\n");
                                 ;    1982             break;
                                 ;    1983         default:
                                 ;    1984             USB_PRINTF0("### HUB Class Data Read error !\n");
                                 ;    1985             break;
                                 ;    1986         }
                                 ;    1987     }
                                 ;    1988 }   /* eof usb_hhub_trans_complete() */
                                 		.LINE  "C:\Workspace\e2studio\git\MT01_master\r_usb_basic\src\driver\host\r_usb_hhubsys.c",1988
0000211E 6706                    		RTSD #18H
00002120                         __$usb_hhub_class_request_complete:
                                 		.STACK	__$usb_hhub_class_request_complete=24
                                 ;    1989 
                                 ;    1990 
                                 ;    1991 /******************************************************************************
                                 ;    1992 Function Name   : usb_hhub_class_request_complete
                                 ;    1993 Description     : Hub class check result
                                 ;    1994 Arguments       : USB_UTR_t *mess    : USB system internal message.
                                 ;    1995 Return value    : none
                                 ;    1996 ******************************************************************************/
                                 ;    1997 void usb_hhub_class_request_complete(USB_UTR_t *ptr, uint16_t data1, uint16_t data2)
                                 		.LINE  "C:\Workspace\e2studio\git\MT01_master\r_usb_basic\src\driver\host\r_usb_hhubsys.c",1997
00002120 7100EC                  		ADD #0FFFFFFECH, R0
00002123 A101                    		MOV.L R1, 10H[R0]
00002125 918A                    		MOV.W R2, 0EH[R0]
00002127 9183                    		MOV.W R3, 0CH[R0]
00002129 EF02                    		MOV.L R0, R2
0000212B 6631                    		MOV.L #00000003H, R1
                                 ;    1998 {
                                 ;    1999     USB_MH_t            p_blf;
                                 ;    2000     USB_ER_t            err;
                                 ;    2001     USB_CLSINFO_t       *cp;
                                 ;    2002     
                                 ;    2003     /* Get mem pool blk */
                                 ;    2004     if( USB_OK == USB_PGET_BLK( USB_HUB_MPL, &p_blf) )
                                 		.LINE  "C:\Workspace\e2studio\git\MT01_master\r_usb_basic\src\driver\host\r_usb_hhubsys.c",2004
0000212D 05rrrrrr             A  		BSR _usb_cstd_PgetBlk
00002131 6101                    		CMP #00H, R1
00002133 21rr                    		BNE L651
00002135                         L642:	; bb7
                                 ;    2005     {
                                 ;    2006         cp = (USB_CLSINFO_t*)p_blf;
                                 		.LINE  "C:\Workspace\e2studio\git\MT01_master\r_usb_basic\src\driver\host\r_usb_hhubsys.c",2006
00002135 E40002                  		MOV.L [R0], 08H[R0]
00002138                         L643:	; bb7.split
                                 ;    2007         cp->msginfo = usb_shhub_Process[ptr->ip];
                                 		.LINE  "C:\Workspace\e2studio\git\MT01_master\r_usb_basic\src\driver\host\r_usb_hhubsys.c",2007
00002138 A901                    		MOV.L 10H[R0], R1
0000213A B991                    		MOVU.W 0CH[R1], R1
0000213C FBE2rrrrrrrr            		MOV.L #_usb_shhub_Process, R14
00002142 FE51E1                  		MOV.W [R1,R14], R1
00002145 A882                    		MOV.L 08H[R0], R2
00002147 90A1                    		MOV.W R1, 04H[R2]
00002149                         L644:	; bb7.split1
                                 ;    2008         cp->keyword = ptr->keyword;
                                 		.LINE  "C:\Workspace\e2studio\git\MT01_master\r_usb_basic\src\driver\host\r_usb_hhubsys.c",2008
00002149 A901                    		MOV.L 10H[R0], R1
0000214B A882                    		MOV.L 08H[R0], R2
0000214D D5120303                		MOV.W 06H[R1], 06H[R2]
00002151                         L645:	; bb7.split2
                                 ;    2009         cp->result  = ptr->status;
                                 		.LINE  "C:\Workspace\e2studio\git\MT01_master\r_usb_basic\src\driver\host\r_usb_hhubsys.c",2009
00002151 A901                    		MOV.L 10H[R0], R1
00002153 A882                    		MOV.L 08H[R0], R2
00002155 D5121007                		MOV.W 20H[R1], 0EH[R2]
00002159                         L646:	; bb7.split3
                                 ;    2010 
                                 ;    2011         cp->ipp = ptr->ipp;
                                 		.LINE  "C:\Workspace\e2studio\git\MT01_master\r_usb_basic\src\driver\host\r_usb_hhubsys.c",2011
00002159 A901                    		MOV.L 10H[R0], R1
0000215B A882                    		MOV.L 08H[R0], R2
0000215D E5120202                		MOV.L 08H[R1], 08H[R2]
00002161                         L647:	; bb7.split4
                                 ;    2012         cp->ip  = ptr->ip;
                                 		.LINE  "C:\Workspace\e2studio\git\MT01_master\r_usb_basic\src\driver\host\r_usb_hhubsys.c",2012
00002161 A901                    		MOV.L 10H[R0], R1
00002163 A882                    		MOV.L 08H[R0], R2
00002165 D5120606                		MOV.W 0CH[R1], 0CH[R2]
00002169                         L648:	; bb7.split5
                                 ;    2013 
                                 ;    2014         /* Send message */
                                 ;    2015         err = USB_SND_MSG( USB_HUB_MBX, (USB_MSG_t*)p_blf );
                                 		.LINE  "C:\Workspace\e2studio\git\MT01_master\r_usb_basic\src\driver\host\r_usb_hhubsys.c",2015
00002169 EC02                    		MOV.L [R0], R2
0000216B 6631                    		MOV.L #00000003H, R1
0000216D 05rrrrrr             A  		BSR _usb_cstd_SndMsg
00002171 A009                    		MOV.L R1, 04H[R0]
00002173                         L649:	; bb7.split6
                                 ;    2016         if( USB_OK != err )
                                 		.LINE  "C:\Workspace\e2studio\git\MT01_master\r_usb_basic\src\driver\host\r_usb_hhubsys.c",2016
00002173 A809                    		MOV.L 04H[R0], R1
00002175 6101                    		CMP #00H, R1
00002177 20rr                    		BEQ L652
00002179                         L650:	; bb43
                                 ;    2017         {
                                 ;    2018             /* Send message failure */
                                 ;    2019             err = USB_REL_BLK(USB_HUB_MPL,(USB_MH_t)p_blf);
                                 		.LINE  "C:\Workspace\e2studio\git\MT01_master\r_usb_basic\src\driver\host\r_usb_hhubsys.c",2019
00002179 EC02                    		MOV.L [R0], R2
0000217B 6631                    		MOV.L #00000003H, R1
0000217D 05rrrrrr             A  		BSR _usb_cstd_RelBlk
00002181 A009                    		MOV.L R1, 04H[R0]
00002183 6705                    		RTSD #14H
00002185                         L651:	; bb53
                                 ;    2020             USB_PRINTF0("### CheckResult function snd_msg error\n");
                                 ;    2021         }
                                 ;    2022     }
                                 ;    2023     else
                                 ;    2024     {
                                 ;    2025         USB_PRINTF0("### CheckResult function pget_blk error\n");
                                 ;    2026         while( 1 );
                                 		.LINE  "C:\Workspace\e2studio\git\MT01_master\r_usb_basic\src\driver\host\r_usb_hhubsys.c",2026
00002185 2Err                 B  		BRA L651
00002187                         L652:	; return
                                 ;    2027     }
                                 ;    2028 }   /* eof usb_hhub_class_request_complete() */
                                 		.LINE  "C:\Workspace\e2studio\git\MT01_master\r_usb_basic\src\driver\host\r_usb_hhubsys.c",2028
00002187 6705                    		RTSD #14H
00002189                         _usb_hhub_initial:
                                 		.STACK	_usb_hhub_initial=16
                                 ;    2029 
                                 ;    2030 
                                 ;    2031 /******************************************************************************
                                 ;    2032 Function Name   : usb_hhub_initial
                                 ;    2033 Description     : Global memory initialized
                                 ;    2034 Arguments       : uint16_t data1 : necessary for regist the callback
                                 ;    2035                 : uint16_t data2 : necessary for regist the callback
                                 ;    2036 Return value    : none
                                 ;    2037 ******************************************************************************/
                                 ;    2038 void usb_hhub_initial(USB_UTR_t *ptr, uint16_t data1, uint16_t data2)
                                 		.LINE  "C:\Workspace\e2studio\git\MT01_master\r_usb_basic\src\driver\host\r_usb_hhubsys.c",2038
00002189 60C0                    		SUB #0CH, R0
0000218B A081                    		MOV.L R1, 08H[R0]
0000218D 908A                    		MOV.W R2, 06H[R0]
0000218F 9083                    		MOV.W R3, 04H[R0]
                                 ;    2039 {
                                 ;    2040     uint16_t    i;
                                 ;    2041 
                                 ;    2042     for( i = 0u; i < (USB_MAXDEVADDR + 1u); i++ )
                                 		.LINE  "C:\Workspace\e2studio\git\MT01_master\r_usb_basic\src\driver\host\r_usb_hhubsys.c",2042
00002191 3D0100                  		MOV.W #0000H, 02H[R0]
00002194 2Err                 B  		BRA L658
00002196                         L654:	; bb
                                 ;    2043     {
                                 ;    2044         usb_shhub_InfoData[ptr->ip][i].up_addr = 0;          /* Up-address clear */
                                 		.LINE  "C:\Workspace\e2studio\git\MT01_master\r_usb_basic\src\driver\host\r_usb_hhubsys.c",2044
00002196 751158                  		MUL #58H, R1
00002199 FBE2rrrrrrrr            		MOV.L #_usb_shhub_InfoData, R14
0000219F 4B1E                    		ADD R1, R14
000021A1 B809                    		MOVU.W 02H[R0], R1
000021A3 6C31                    		SHLL #03H, R1
000021A5 4B1E                    		ADD R1, R14
000021A7 F8E500                  		MOV.W #0000H, [R14]
000021AA                         L655:	; bb.split
                                 ;    2045         usb_shhub_InfoData[ptr->ip][i].up_port_num = 0;      /* Up-port num clear */
                                 		.LINE  "C:\Workspace\e2studio\git\MT01_master\r_usb_basic\src\driver\host\r_usb_hhubsys.c",2045
000021AA A881                    		MOV.L 08H[R0], R1
000021AC B991                    		MOVU.W 0CH[R1], R1
000021AE 751158                  		MUL #58H, R1
000021B1 FB22rrrrrrrr            		MOV.L #_usb_shhub_InfoData, R2
000021B7 4B12                    		ADD R1, R2
000021B9 B809                    		MOVU.W 02H[R0], R1
000021BB 6C31                    		SHLL #03H, R1
000021BD 4B12                    		ADD R1, R2
000021BF 3D2100                  		MOV.W #0000H, 02H[R2]
000021C2                         L656:	; bb.split1
                                 ;    2046         usb_shhub_InfoData[ptr->ip][i].port_num = 0;         /* Port number clear */
                                 		.LINE  "C:\Workspace\e2studio\git\MT01_master\r_usb_basic\src\driver\host\r_usb_hhubsys.c",2046
000021C2 A881                    		MOV.L 08H[R0], R1
000021C4 B991                    		MOVU.W 0CH[R1], R1
000021C6 751158                  		MUL #58H, R1
000021C9 FB22rrrrrrrr            		MOV.L #_usb_shhub_InfoData, R2
000021CF 4B12                    		ADD R1, R2
000021D1 B809                    		MOVU.W 02H[R0], R1
000021D3 6C31                    		SHLL #03H, R1
000021D5 4B12                    		ADD R1, R2
000021D7 3D2200                  		MOV.W #0000H, 04H[R2]
000021DA                         L657:	; bb.split2
                                 ;    2047         usb_shhub_InfoData[ptr->ip][i].pipe_num = 0;         /* Pipe number clear */
                                 		.LINE  "C:\Workspace\e2studio\git\MT01_master\r_usb_basic\src\driver\host\r_usb_hhubsys.c",2047
000021DA A881                    		MOV.L 08H[R0], R1
000021DC B991                    		MOVU.W 0CH[R1], R1
000021DE 751158                  		MUL #58H, R1
000021E1 FB22rrrrrrrr            		MOV.L #_usb_shhub_InfoData, R2
000021E7 4B12                    		ADD R1, R2
000021E9 B809                    		MOVU.W 02H[R0], R1
000021EB 6C31                    		SHLL #03H, R1
000021ED 4B12                    		ADD R1, R2
000021EF 3D2300                  		MOV.W #0000H, 06H[R2]
000021F2 9809                    		MOV.W 02H[R0], R1
000021F4 6211                    		ADD #01H, R1
000021F6 9009                    		MOV.W R1, 02H[R0]
000021F8                         L658:	; bb46
                                 		.LINE  "C:\Workspace\e2studio\git\MT01_master\r_usb_basic\src\driver\host\r_usb_hhubsys.c",2042
000021F8 B809                    		MOVU.W 02H[R0], R1
000021FA 61B1                    		CMP #0BH, R1
000021FC A881                    		MOV.L 08H[R0], R1
000021FE B991                    		MOVU.W 0CH[R1], R1
00002200 23rr                    		BLTU L654
00002202                         L659:	; bb51
                                 ;    2048     }
                                 ;    2049     usb_shhub_Number[ptr->ip] = 0;
                                 		.LINE  "C:\Workspace\e2studio\git\MT01_master\r_usb_basic\src\driver\host\r_usb_hhubsys.c",2049
00002202 FBE2rrrrrrrr            		MOV.L #_usb_shhub_Number, R14
00002208 660F                    		MOV.L #00000000H, R15
0000220A FE11EF                  		MOV.W R15, [R1,R14]
0000220D 6703                    		RTSD #0CH
0000220F                         __$usb_hhub_pipe_info:
                                 		.STACK	__$usb_hhub_pipe_info=28
                                 ;    2050 }   /* eof usb_hhub_initial() */
                                 ;    2051 
                                 ;    2052 
                                 ;    2053 /******************************************************************************
                                 ;    2054 Function Name   : usb_hhub_pipe_info
                                 ;    2055 Description     : Set pipe information
                                 ;    2056 Arguments       : uint8_t  *table           : Interface Descriptor
                                 ;    2057                 : uint16_t offset           : DEF_EP table offset
                                 ;    2058                 : uint16_t speed            : device speed
                                 ;    2059                 : uint16_t length           : Interface Descriptor length
                                 ;    2060 Return value    : uint16_t                  : DONE/ERROR
                                 ;    2061 ******************************************************************************/
                                 ;    2062 uint16_t usb_hhub_pipe_info(USB_UTR_t *ptr, uint8_t *table, uint16_t offset, uint16_t speed, uint16_t length)
                                 		.LINE  "C:\Workspace\e2studio\git\MT01_master\r_usb_basic\src\driver\host\r_usb_hhubsys.c",2062
0000220F 7100E8                  		ADD #0FFFFFFE8H, R0
00002212 A109                    		MOV.L R1, 14H[R0]
00002214 A102                    		MOV.L R2, 10H[R0]
00002216 918B                    		MOV.W R3, 0EH[R0]
00002218 9184                    		MOV.W R4, 0CH[R0]
0000221A D5000E05                		MOV.W 1CH[R0], 0AH[R0]
                                 ;    2063 {
                                 ;    2064     uint16_t        ofdsc;
                                 ;    2065     uint16_t        retval;
                                 ;    2066 
                                 ;    2067     /* Check Descriptor */
                                 ;    2068     if( USB_DT_INTERFACE != table[1] )
                                 		.LINE  "C:\Workspace\e2studio\git\MT01_master\r_usb_basic\src\driver\host\r_usb_hhubsys.c",2068
0000221E A901                    		MOV.L 10H[R0], R1
00002220 B019                    		MOVU.B 01H[R1], R1
00002222 6141                    		CMP #04H, R1
00002224 10                   S  		BEQ L662
00002225                         L661:	; bb9
                                 ;    2069     {
                                 ;    2070         /* Configuration Descriptor */
                                 ;    2071         USB_PRINTF0("### Interface descriptor error (HUB).\n");
                                 ;    2072         return USB_ERROR;
                                 		.LINE  "C:\Workspace\e2studio\git\MT01_master\r_usb_basic\src\driver\host\r_usb_hhubsys.c",2072
00002225 F90901FFFF              		MOV.W #0FFFFH, 02H[R0]
0000222A 38rrrr               W  		BRA L676
0000222D                         L662:	; bb17
                                 ;    2073     }
                                 ;    2074 
                                 ;    2075     /* Check Endpoint Descriptor */
                                 ;    2076     ofdsc = table[0];
                                 		.LINE  "C:\Workspace\e2studio\git\MT01_master\r_usb_basic\src\driver\host\r_usb_hhubsys.c",2076
0000222D A901                    		MOV.L 10H[R0], R1
0000222F 5811                    		MOVU.B [R1], R1
00002231 9081                    		MOV.W R1, 04H[R0]
00002233 2Err                 B  		BRA L674
00002235                         L663:	; bb22
                                 ;    2077     while( ofdsc < (length - table[0]) )
                                 ;    2078     {
                                 ;    2079         /* Search within Interface */
                                 ;    2080         switch( table[ofdsc + 1] )
                                 		.LINE  "C:\Workspace\e2studio\git\MT01_master\r_usb_basic\src\driver\host\r_usb_hhubsys.c",2080
00002235 B881                    		MOVU.W 04H[R0], R1
00002237 06890104                		ADD 10H[R0].L, R1
0000223B B019                    		MOVU.B 01H[R1], R1
0000223D 711EFA                  		ADD #0FFFFFFFAH, R1, R14
00002240 613E                    		CMP #03H, R14
00002242 23rr                    		BLTU L672
00002244                         L664:	; bb22
00002244 6151                    		CMP #05H, R1
00002246 20rr                    		BEQ L667
00002248                         L665:	; bb22
00002248 6011                    		SUB #01H, R1
0000224A 6131                    		CMP #03H, R1
0000224C 24rr                    		BGTU L673
0000224E                         L666:	; bb30
                                 ;    2081         {
                                 ;    2082         /* Device Descriptor */
                                 ;    2083         case USB_DT_DEVICE:
                                 ;    2084         /* Configuration Descriptor */
                                 ;    2085         case USB_DT_CONFIGURATION:
                                 ;    2086         /* String Descriptor */
                                 ;    2087         case USB_DT_STRING:
                                 ;    2088         /* Interface Descriptor */
                                 ;    2089         case USB_DT_INTERFACE:
                                 ;    2090             USB_PRINTF0("### Endpoint Descriptor error(HUB).\n");
                                 ;    2091             return USB_ERROR;
                                 		.LINE  "C:\Workspace\e2studio\git\MT01_master\r_usb_basic\src\driver\host\r_usb_hhubsys.c",2091
0000224E F90901FFFF              		MOV.W #0FFFFH, 02H[R0]
00002253 2Err                 B  		BRA L676
00002255                         L667:	; bb33
                                 ;    2092             break;
                                 ;    2093         /* Endpoint Descriptor */
                                 ;    2094         case USB_DT_ENDPOINT:
                                 ;    2095             /* Interrupt Endpoint */
                                 ;    2096             if( USB_EP_INT == ( table[ofdsc + 3] & USB_EP_TRNSMASK ) )
                                 		.LINE  "C:\Workspace\e2studio\git\MT01_master\r_usb_basic\src\driver\host\r_usb_hhubsys.c",2096
00002255 B881                    		MOVU.W 04H[R0], R1
00002257 06890104                		ADD 10H[R0].L, R1
0000225B B099                    		MOVU.B 03H[R1], R1
0000225D 6431                    		AND #03H, R1
0000225F 6131                    		CMP #03H, R1
00002261 21rr                    		BNE L671
00002263                         L668:	; bb34
                                 ;    2097             {
                                 ;    2098                 retval = R_usb_hstd_ChkPipeInfo( speed, &usb_ghhub_TmpEPTbl[ptr->ip][offset], &table[ofdsc] );
                                 		.LINE  "C:\Workspace\e2studio\git\MT01_master\r_usb_basic\src\driver\host\r_usb_hhubsys.c",2098
00002263 A909                    		MOV.L 14H[R0], R1
00002265 B994                    		MOVU.W 0CH[R1], R4
00002267 A903                    		MOV.L 10H[R0], R3
00002269 06C90302                		ADD 04H[R0].UW, R3
0000226D B98D                    		MOVU.W 0EH[R0], R5
0000226F B981                    		MOVU.W 0CH[R0], R1
00002271 63E4                    		MUL #0EH, R4
00002273 FB22rrrrrrrr            		MOV.L #_usb_ghhub_TmpEPTbl, R2
00002279 4B42                    		ADD R4, R2
0000227B 6C15                    		SHLL #01H, R5
0000227D 4B52                    		ADD R5, R2
0000227F 05rrrrrr             A  		BSR _R_usb_hstd_ChkPipeInfo
00002283 9089                    		MOV.W R1, 06H[R0]
00002285                         L669:	; bb34.split
                                 ;    2099                 if( USB_DIR_H_IN == retval )
                                 		.LINE  "C:\Workspace\e2studio\git\MT01_master\r_usb_basic\src\driver\host\r_usb_hhubsys.c",2099
00002285 B889                    		MOVU.W 06H[R0], R1
00002287 6101                    		CMP #00H, R1
00002289 18                   S  		BNE L671
0000228A                         L670:	; bb51
                                 ;    2100                 {
                                 ;    2101                     return USB_DONE;
                                 		.LINE  "C:\Workspace\e2studio\git\MT01_master\r_usb_basic\src\driver\host\r_usb_hhubsys.c",2101
0000228A 3D0100                  		MOV.W #0000H, 02H[R0]
0000228D 2Err                 B  		BRA L676
0000228F                         L671:	; bb71
                                 ;    2102                 }
                                 ;    2103                 else
                                 ;    2104                 {
                                 ;    2105                     USB_PRINTF0("### Endpoint Descriptor error(HUB).\n");
                                 ;    2106                 }
                                 ;    2107             }
                                 ;    2108             ofdsc += table[ofdsc];
                                 		.LINE  "C:\Workspace\e2studio\git\MT01_master\r_usb_basic\src\driver\host\r_usb_hhubsys.c",2108
0000228F B881                    		MOVU.W 04H[R0], R1
00002291 EF1E                    		MOV.L R1, R14
00002293 06890E04                		ADD 10H[R0].L, R14
00002297 48E1                    		ADD [R14].UB, R1
00002299 9081                    		MOV.W R1, 04H[R0]
0000229B 2Err                 B  		BRA L674
0000229D                         L672:	; bb82
                                 ;    2109             break;
                                 ;    2110         /* Device Qualifier Descriptor */
                                 ;    2111         case USB_DT_DEVICE_QUALIFIER:
                                 ;    2112         /* Other Speed Configuration */
                                 ;    2113         case USB_DT_OTHER_SPEED_CONF:
                                 ;    2114         /* Interface Power Descriptor */
                                 ;    2115         case USB_DT_INTERFACE_POWER:
                                 ;    2116             USB_PRINTF0("### Endpoint Descriptor error(HUB).\n");
                                 ;    2117             return USB_ERROR;
                                 		.LINE  "C:\Workspace\e2studio\git\MT01_master\r_usb_basic\src\driver\host\r_usb_hhubsys.c",2117
0000229D F90901FFFF              		MOV.W #0FFFFH, 02H[R0]
000022A2 2Err                 B  		BRA L676
000022A4                         L673:	; bb84
                                 ;    2118             break;
                                 ;    2119         /* Another Descriptor */
                                 ;    2120         default:
                                 ;    2121             ofdsc += table[ofdsc];
                                 		.LINE  "C:\Workspace\e2studio\git\MT01_master\r_usb_basic\src\driver\host\r_usb_hhubsys.c",2121
000022A4 B881                    		MOVU.W 04H[R0], R1
000022A6 EF1E                    		MOV.L R1, R14
000022A8 06890E04                		ADD 10H[R0].L, R14
000022AC 48E1                    		ADD [R14].UB, R1
000022AE 9081                    		MOV.W R1, 04H[R0]
000022B0                         L674:	; bb96
                                 		.LINE  "C:\Workspace\e2studio\git\MT01_master\r_usb_basic\src\driver\host\r_usb_hhubsys.c",2077
000022B0 B909                    		MOVU.W 0AH[R0], R1
000022B2 A902                    		MOV.L 10H[R0], R2
000022B4 4021                    		SUB [R2].UB, R1
000022B6 B882                    		MOVU.W 04H[R0], R2
000022B8 4712                    		CMP R1, R2
000022BA 28rr                  * 		BLT L663
         38rrrr                  
000022BF                         L675:	; bb109
                                 ;    2122             break;
                                 ;    2123         }
                                 ;    2124     }
                                 ;    2125     return USB_ERROR;
                                 		.LINE  "C:\Workspace\e2studio\git\MT01_master\r_usb_basic\src\driver\host\r_usb_hhubsys.c",2125
000022BF F90901FFFF              		MOV.W #0FFFFH, 02H[R0]
000022C4                         L676:	; bb111
000022C4 D5000104                		MOV.W 02H[R0], 08H[R0]
                                 ;    2126 }   /* eof usb_hhub_pipe_info() */
                                 		.LINE  "C:\Workspace\e2studio\git\MT01_master\r_usb_basic\src\driver\host\r_usb_hhubsys.c",2126
000022C8 B901                    		MOVU.W 08H[R0], R1
000022CA 6706                    		RTSD #18H
000022CC                         __$usb_hhub_CheckRequest:
                                 		.STACK	__$usb_hhub_CheckRequest=24
                                 ;    2127 
                                 ;    2128 
                                 ;    2129 /******************************************************************************
                                 ;    2130 Function Name   : usb_hhub_CheckRequest
                                 ;    2131 Description     : Class check request
                                 ;    2132 Arguments       : uint16_t result
                                 ;    2133 Return value    : none
                                 ;    2134 ******************************************************************************/
                                 ;    2135 void usb_hhub_CheckRequest(USB_UTR_t *ptr, uint16_t result)
                                 		.LINE  "C:\Workspace\e2studio\git\MT01_master\r_usb_basic\src\driver\host\r_usb_hhubsys.c",2135
000022CC 7100EC                  		ADD #0FFFFFFECH, R0
000022CF A101                    		MOV.L R1, 10H[R0]
000022D1 918A                    		MOV.W R2, 0EH[R0]
000022D3 EF02                    		MOV.L R0, R2
000022D5 6631                    		MOV.L #00000003H, R1
                                 ;    2136 {
                                 ;    2137     USB_MH_t        p_blf;
                                 ;    2138     USB_ER_t        err;
                                 ;    2139     USB_CLSINFO_t   *cp;
                                 ;    2140     
                                 ;    2141     /* Get mem pool blk */
                                 ;    2142     if( USB_OK == USB_PGET_BLK( USB_HUB_MPL, &p_blf) )
                                 		.LINE  "C:\Workspace\e2studio\git\MT01_master\r_usb_basic\src\driver\host\r_usb_hhubsys.c",2142
000022D7 05rrrrrr             A  		BSR _usb_cstd_PgetBlk
000022DB 6101                    		CMP #00H, R1
000022DD 21rr                    		BNE L686
000022DF                         L678:	; bb6
                                 ;    2143     {
                                 ;    2144         cp = (USB_CLSINFO_t*)p_blf;
                                 		.LINE  "C:\Workspace\e2studio\git\MT01_master\r_usb_basic\src\driver\host\r_usb_hhubsys.c",2144
000022DF E40002                  		MOV.L [R0], 08H[R0]
000022E2                         L679:	; bb6.split
                                 ;    2145         cp->msginfo = USB_MSG_CLS_CHECKREQUEST;
                                 		.LINE  "C:\Workspace\e2studio\git\MT01_master\r_usb_basic\src\driver\host\r_usb_hhubsys.c",2145
000022E2 A881                    		MOV.L 08H[R0], R1
000022E4 F919020102              		MOV.W #0201H, 04H[R1]
000022E9                         L680:	; bb6.split1
                                 ;    2146         cp->result  = result;
                                 		.LINE  "C:\Workspace\e2studio\git\MT01_master\r_usb_basic\src\driver\host\r_usb_hhubsys.c",2146
000022E9 9989                    		MOV.W 0EH[R0], R1
000022EB A882                    		MOV.L 08H[R0], R2
000022ED 91A9                    		MOV.W R1, 0EH[R2]
000022EF                         L681:	; bb6.split2
                                 ;    2147 
                                 ;    2148         cp->ipp = ptr->ipp;
                                 		.LINE  "C:\Workspace\e2studio\git\MT01_master\r_usb_basic\src\driver\host\r_usb_hhubsys.c",2148
000022EF A901                    		MOV.L 10H[R0], R1
000022F1 A882                    		MOV.L 08H[R0], R2
000022F3 E5120202                		MOV.L 08H[R1], 08H[R2]
000022F7                         L682:	; bb6.split3
                                 ;    2149         cp->ip  = ptr->ip;
                                 		.LINE  "C:\Workspace\e2studio\git\MT01_master\r_usb_basic\src\driver\host\r_usb_hhubsys.c",2149
000022F7 A901                    		MOV.L 10H[R0], R1
000022F9 A882                    		MOV.L 08H[R0], R2
000022FB D5120606                		MOV.W 0CH[R1], 0CH[R2]
000022FF                         L683:	; bb6.split4
                                 ;    2150 
                                 ;    2151         /* Send message */
                                 ;    2152         err = USB_SND_MSG( USB_HUB_MBX, (USB_MSG_t*)p_blf );
                                 		.LINE  "C:\Workspace\e2studio\git\MT01_master\r_usb_basic\src\driver\host\r_usb_hhubsys.c",2152
000022FF EC02                    		MOV.L [R0], R2
00002301 6631                    		MOV.L #00000003H, R1
00002303 05rrrrrr             A  		BSR _usb_cstd_SndMsg
00002307 A009                    		MOV.L R1, 04H[R0]
00002309                         L684:	; bb6.split5
                                 ;    2153         if( USB_OK != err )
                                 		.LINE  "C:\Workspace\e2studio\git\MT01_master\r_usb_basic\src\driver\host\r_usb_hhubsys.c",2153
00002309 A809                    		MOV.L 04H[R0], R1
0000230B 6101                    		CMP #00H, R1
0000230D 20rr                    		BEQ L687
0000230F                         L685:	; bb29
                                 ;    2154         {
                                 ;    2155             /* Send message failure */
                                 ;    2156             err = USB_REL_BLK(USB_HUB_MPL,(USB_MH_t)p_blf);
                                 		.LINE  "C:\Workspace\e2studio\git\MT01_master\r_usb_basic\src\driver\host\r_usb_hhubsys.c",2156
0000230F EC02                    		MOV.L [R0], R2
00002311 6631                    		MOV.L #00000003H, R1
00002313 05rrrrrr             A  		BSR _usb_cstd_RelBlk
00002317 A009                    		MOV.L R1, 04H[R0]
00002319 6705                    		RTSD #14H
0000231B                         L686:	; bb39
                                 ;    2157             USB_PRINTF0("### CheckRequest function snd_msg error\n");
                                 ;    2158         }
                                 ;    2159     }
                                 ;    2160     else
                                 ;    2161     {
                                 ;    2162         /* Get memoryblock failure */
                                 ;    2163         USB_PRINTF0("### CheckRequest function pget_blk error\n");
                                 ;    2164         while( 1 );
                                 		.LINE  "C:\Workspace\e2studio\git\MT01_master\r_usb_basic\src\driver\host\r_usb_hhubsys.c",2164
0000231B 2Err                 B  		BRA L686
0000231D                         L687:	; return
                                 ;    2165     }
                                 ;    2166     
                                 ;    2167 }   /* eof usb_hhub_CheckRequest() */
                                 		.LINE  "C:\Workspace\e2studio\git\MT01_master\r_usb_basic\src\driver\host\r_usb_hhubsys.c",2167
0000231D 6705                    		RTSD #14H
0000231F                         _usb_hstd_CheckDescriptor:
                                 		.STACK	_usb_hstd_CheckDescriptor=12
                                 ;    2168 
                                 ;    2169 
                                 ;    2170 /******************************************************************************
                                 ;    2171 Function Name   : usb_hstd_CheckDescriptor
                                 ;    2172 Description     : check descriptor
                                 ;    2173 Arguments       : uint8_t *table            : table (indata).
                                 ;    2174                 : uint16_t spec             : spec.
                                 ;    2175 Return value    : none
                                 ;    2176 ******************************************************************************/
                                 ;    2177 uint16_t usb_hstd_CheckDescriptor(uint8_t *table, uint16_t spec)
                                 		.LINE  "C:\Workspace\e2studio\git\MT01_master\r_usb_basic\src\driver\host\r_usb_hhubsys.c",2177
0000231F 6080                    		SUB #08H, R0
00002321 A009                    		MOV.L R1, 04H[R0]
00002323 900A                    		MOV.W R2, 02H[R0]
                                 ;    2178 {
                                 ;    2179 /* Condition compilation by the difference of useful function */
                                 ;    2180 #ifdef USB_DEBUGPRINT_PP
                                 ;    2181     /* Check Descriptor */
                                 ;    2182     if( table[1] == spec )
                                 ;    2183     {
                                 ;    2184         switch( table[1] )
                                 ;    2185         {
                                 ;    2186         /* Device Descriptor */
                                 ;    2187         case USB_DT_DEVICE:
                                 ;    2188             USB_PRINTF0("  Device Descriptor.\n");
                                 ;    2189             break;
                                 ;    2190         /* Configuration Descriptor */
                                 ;    2191         case USB_DT_CONFIGURATION:
                                 ;    2192             USB_PRINTF0("  Configuration Descriptor.\n");
                                 ;    2193             break;
                                 ;    2194         /* String Descriptor */
                                 ;    2195         case USB_DT_STRING:
                                 ;    2196             USB_PRINTF0("  String Descriptor.\n");
                                 ;    2197             break;
                                 ;    2198         /* Interface Descriptor */
                                 ;    2199         case USB_DT_INTERFACE:
                                 ;    2200             USB_PRINTF0("  Interface Descriptor.\n");
                                 ;    2201             break;
                                 ;    2202         /* Endpoint Descriptor */
                                 ;    2203         case USB_DT_ENDPOINT:
                                 ;    2204             USB_PRINTF0("  Endpoint Descriptor.\n");
                                 ;    2205             break;
                                 ;    2206         /* Device Qualifier Descriptor */
                                 ;    2207         case USB_DT_DEVICE_QUALIFIER:
                                 ;    2208             USB_PRINTF0("  Device Qualifier Descriptor.\n");
                                 ;    2209             break;
                                 ;    2210         /* Other Speed Configuration Descriptor */
                                 ;    2211         case USB_DT_OTHER_SPEED_CONF:
                                 ;    2212             USB_PRINTF0("  Other Speed Configuration Descriptor.\n");
                                 ;    2213             break;
                                 ;    2214         /* Interface Power Descriptor */
                                 ;    2215         case USB_DT_INTERFACE_POWER:
                                 ;    2216             USB_PRINTF0("  Interface Power Descriptor.\n");
                                 ;    2217             break;
                                 ;    2218         /* HUB Descriptor */
                                 ;    2219         case USB_DT_HUBDESCRIPTOR:
                                 ;    2220             USB_PRINTF0("  HUB Descriptor.\n");
                                 ;    2221             break;
                                 ;    2222         /* Not Descriptor */
                                 ;    2223         default:
                                 ;    2224             USB_PRINTF0("### Descriptor error (Not Standard Descriptor).\n");
                                 ;    2225             return USB_ERROR;
                                 ;    2226             break;
                                 ;    2227         }
                                 ;    2228         return USB_DONE;
                                 ;    2229     }
                                 ;    2230     else
                                 ;    2231     {
                                 ;    2232         switch( table[1] )
                                 ;    2233         {
                                 ;    2234         /* Device Descriptor */
                                 ;    2235         case USB_DT_DEVICE:
                                 ;    2236             USB_PRINTF0("### Descriptor error ( Device Descriptor ).\n");
                                 ;    2237             break;
                                 ;    2238         /* Configuration Descriptor */
                                 ;    2239         case USB_DT_CONFIGURATION:
                                 ;    2240             USB_PRINTF0("### Descriptor error ( Configuration Descriptor ).\n");
                                 ;    2241             break;
                                 ;    2242         /* String Descriptor */
                                 ;    2243         case USB_DT_STRING:
                                 ;    2244             USB_PRINTF0("### Descriptor error ( String Descriptor ).\n");
                                 ;    2245             break;
                                 ;    2246         /* Interface Descriptor ? */
                                 ;    2247         case USB_DT_INTERFACE:
                                 ;    2248             USB_PRINTF0("### Descriptor error ( Interface Descriptor ).\n");
                                 ;    2249             break;
                                 ;    2250         /* Endpoint Descriptor */
                                 ;    2251         case USB_DT_ENDPOINT:
                                 ;    2252             USB_PRINTF0("### Descriptor error ( Endpoint Descriptor ).\n");
                                 ;    2253             break;
                                 ;    2254         /* Device Qualifier Descriptor */
                                 ;    2255         case USB_DT_DEVICE_QUALIFIER:
                                 ;    2256             USB_PRINTF0("### Descriptor error ( Device Qualifier Descriptor ).\n");
                                 ;    2257             break;
                                 ;    2258         /* Other Speed Configuration Descriptor */
                                 ;    2259         case USB_DT_OTHER_SPEED_CONF:
                                 ;    2260             USB_PRINTF0("### Descriptor error ( Other Speed Configuration Descriptor ).\n");
                                 ;    2261             break;
                                 ;    2262         /* Interface Power Descriptor */
                                 ;    2263         case USB_DT_INTERFACE_POWER:
                                 ;    2264             USB_PRINTF0("### Descriptor error ( Interface Power Descriptor ).\n");
                                 ;    2265             break;
                                 ;    2266         /* Not Descriptor */
                                 ;    2267         default:
                                 ;    2268             USB_PRINTF0("### Descriptor error ( Not Standard Descriptor ).\n");
                                 ;    2269             break;
                                 ;    2270         }
                                 ;    2271         return USB_ERROR;
                                 ;    2272     }
                                 ;    2273 #else   /* Not USB_DEBUGPRINT_PP */
                                 ;    2274         return USB_DONE;
                                 		.LINE  "C:\Workspace\e2studio\git\MT01_master\r_usb_basic\src\driver\host\r_usb_hhubsys.c",2274
00002325 F80500                  		MOV.W #0000H, [R0]
00002328 DC01                    		MOV.W [R0], R1
0000232A                         L689:	; entry.split
                                 ;    2275 #endif  /* USB_DEBUGPRINT_PP */
                                 ;    2276 }   /* eof usb_hstd_CheckDescriptor() */
                                 		.LINE  "C:\Workspace\e2studio\git\MT01_master\r_usb_basic\src\driver\host\r_usb_hhubsys.c",2276
0000232A 5F11                    		MOVU.W R1, R1
0000232C 6702                    		RTSD #08H
0000232E                         __$usb_hhub_ChkConfig:
                                 		.STACK	__$usb_hhub_ChkConfig=24
                                 ;    2277 
                                 ;    2278 /******************************************************************************
                                 ;    2279 Function Name   : usb_hhub_ChkConfig
                                 ;    2280 Description     : Configuration Descriptor check
                                 ;    2281 Arguments       : uint16_t **table          : Configuration Descriptor
                                 ;    2282                 : uint16_t spec             : HUB specification
                                 ;    2283 Return value    : uint16_t                  : DONE/ERROR
                                 ;    2284 ******************************************************************************/
                                 ;    2285 uint16_t usb_hhub_ChkConfig(uint16_t **table, uint16_t spec)
                                 		.LINE  "C:\Workspace\e2studio\git\MT01_master\r_usb_basic\src\driver\host\r_usb_hhubsys.c",2285
0000232E 7100EC                  		ADD #0FFFFFFECH, R0
00002331 A101                    		MOV.L R1, 10H[R0]
00002333 918A                    		MOV.W R2, 0EH[R0]
                                 ;    2286 {
                                 ;    2287     uint8_t     *descriptor_table;
                                 ;    2288     uint16_t    ofset;
                                 ;    2289 
                                 ;    2290     descriptor_table = (uint8_t*)(table[1]);
                                 		.LINE  "C:\Workspace\e2studio\git\MT01_master\r_usb_basic\src\driver\host\r_usb_hhubsys.c",2290
00002335 A901                    		MOV.L 10H[R0], R1
00002337 E5100101                		MOV.L 04H[R1], 04H[R0]
0000233B                         L691:	; entry.split
                                 ;    2291 
                                 ;    2292     /* Descriptor check */
                                 ;    2293     ofset = usb_hstd_CheckDescriptor(descriptor_table, (uint16_t)USB_DT_CONFIGURATION);
                                 		.LINE  "C:\Workspace\e2studio\git\MT01_master\r_usb_basic\src\driver\host\r_usb_hhubsys.c",2293
0000233B A809                    		MOV.L 04H[R0], R1
0000233D 6622                    		MOV.L #00000002H, R2
0000233F 39rrrr               W  		BSR _usb_hstd_CheckDescriptor
00002342 9109                    		MOV.W R1, 0AH[R0]
00002344                         L692:	; entry.split1
                                 ;    2294     if( USB_ERROR == ofset )
                                 		.LINE  "C:\Workspace\e2studio\git\MT01_master\r_usb_basic\src\driver\host\r_usb_hhubsys.c",2294
00002344 B909                    		MOVU.W 0AH[R0], R1
00002346 7701FFFF00              		CMP #0FFFFH, R1
0000234B 18                   S  		BNE L694
0000234C                         L693:	; bb11
                                 ;    2295     {
                                 ;    2296         USB_PRINTF0("### Configuration descriptor error !\n");
                                 ;    2297         return USB_ERROR;
                                 		.LINE  "C:\Workspace\e2studio\git\MT01_master\r_usb_basic\src\driver\host\r_usb_hhubsys.c",2297
0000234C F90901FFFF              		MOV.W #0FFFFH, 02H[R0]
00002351 2Err                 B  		BRA L705
00002353                         L694:	; bb17
                                 ;    2298     }
                                 ;    2299 
                                 ;    2300     /* Check interface number */
                                 ;    2301     switch( spec )
                                 		.LINE  "C:\Workspace\e2studio\git\MT01_master\r_usb_basic\src\driver\host\r_usb_hhubsys.c",2301
00002353 B989                    		MOVU.W 0EH[R0], R1
00002355 6131                    		CMP #03H, R1
00002357 20rr                    		BEQ L701
00002359                         L695:	; bb17
00002359 6121                    		CMP #02H, R1
0000235B 20rr                    		BEQ L699
0000235D                         L696:	; bb17
0000235D 6111                    		CMP #01H, R1
0000235F 21rr                    		BNE L703
00002361                         L697:	; bb21
                                 ;    2302     {
                                 ;    2303     case USB_FSHUB:     /* Full Speed Hub */
                                 ;    2304         if( descriptor_table[4] != USB_HUB_INTNUMFS )
                                 		.LINE  "C:\Workspace\e2studio\git\MT01_master\r_usb_basic\src\driver\host\r_usb_hhubsys.c",2304
00002361 A809                    		MOV.L 04H[R0], R1
00002363 B111                    		MOVU.B 04H[R1], R1
00002365 6111                    		CMP #01H, R1
00002367 20rr                    		BEQ L704
00002369                         L698:	; bb22
                                 ;    2305         {
                                 ;    2306             USB_PRINTF0("### HUB configuration descriptor error !\n");
                                 ;    2307             return USB_ERROR;
                                 		.LINE  "C:\Workspace\e2studio\git\MT01_master\r_usb_basic\src\driver\host\r_usb_hhubsys.c",2307
00002369 F90901FFFF              		MOV.W #0FFFFH, 02H[R0]
0000236E 2Err                 B  		BRA L705
00002370                         L699:	; bb33
                                 ;    2308         }
                                 ;    2309         break;
                                 ;    2310     case USB_HSHUBS:    /* Hi Speed Hub(Multi) */
                                 ;    2311         if( descriptor_table[4] != USB_HUB_INTNUMHSS )
                                 		.LINE  "C:\Workspace\e2studio\git\MT01_master\r_usb_basic\src\driver\host\r_usb_hhubsys.c",2311
00002370 A809                    		MOV.L 04H[R0], R1
00002372 B111                    		MOVU.B 04H[R1], R1
00002374 6111                    		CMP #01H, R1
00002376 20rr                    		BEQ L704
00002378                         L700:	; bb34
                                 ;    2312         {
                                 ;    2313             USB_PRINTF0("### HUB configuration descriptor error !\n");
                                 ;    2314             return USB_ERROR;
                                 		.LINE  "C:\Workspace\e2studio\git\MT01_master\r_usb_basic\src\driver\host\r_usb_hhubsys.c",2314
00002378 F90901FFFF              		MOV.W #0FFFFH, 02H[R0]
0000237D 2Err                 B  		BRA L705
0000237F                         L701:	; bb45
                                 ;    2315         }
                                 ;    2316         break;
                                 ;    2317     case USB_HSHUBM:    /* Hi Speed Hub(Single) */
                                 ;    2318         if( descriptor_table[4] != USB_HUB_INTNUMHSM )
                                 		.LINE  "C:\Workspace\e2studio\git\MT01_master\r_usb_basic\src\driver\host\r_usb_hhubsys.c",2318
0000237F A809                    		MOV.L 04H[R0], R1
00002381 B111                    		MOVU.B 04H[R1], R1
00002383 6111                    		CMP #01H, R1
00002385 20rr                    		BEQ L704
00002387                         L702:	; bb46
                                 ;    2319         {
                                 ;    2320             USB_PRINTF0("### HUB configuration descriptor error !\n");
                                 ;    2321             return USB_ERROR;
                                 		.LINE  "C:\Workspace\e2studio\git\MT01_master\r_usb_basic\src\driver\host\r_usb_hhubsys.c",2321
00002387 F90901FFFF              		MOV.W #0FFFFH, 02H[R0]
0000238C 08                   S  		BRA L705
0000238D                         L703:	; bb56
                                 ;    2322         }
                                 ;    2323         break;
                                 ;    2324     default:
                                 ;    2325         return USB_ERROR;
                                 		.LINE  "C:\Workspace\e2studio\git\MT01_master\r_usb_basic\src\driver\host\r_usb_hhubsys.c",2325
0000238D F90901FFFF              		MOV.W #0FFFFH, 02H[R0]
00002392 08                   S  		BRA L705
00002393                         L704:	; bb58
                                 ;    2326         break;
                                 ;    2327     }
                                 ;    2328     return USB_DONE;
                                 		.LINE  "C:\Workspace\e2studio\git\MT01_master\r_usb_basic\src\driver\host\r_usb_hhubsys.c",2328
00002393 3D0100                  		MOV.W #0000H, 02H[R0]
00002396                         L705:	; bb60
00002396 D5000106                		MOV.W 02H[R0], 0CH[R0]
                                 ;    2329 }   /* eof usb_hhub_ChkConfig() */
                                 		.LINE  "C:\Workspace\e2studio\git\MT01_master\r_usb_basic\src\driver\host\r_usb_hhubsys.c",2329
0000239A B981                    		MOVU.W 0CH[R0], R1
0000239C 6705                    		RTSD #14H
0000239E                         __$usb_hhub_ChkInterface:
                                 		.STACK	__$usb_hhub_ChkInterface=24
                                 ;    2330 
                                 ;    2331 
                                 ;    2332 /******************************************************************************
                                 ;    2333 Function Name   : usb_hhub_ChkInterface
                                 ;    2334 Description     : Interface Descriptor check
                                 ;    2335 Arguments       : uint16_t **table          : Interface Descriptor
                                 ;    2336                 : uint16_t spec             : HUB specification
                                 ;    2337 Return value    : uint16_t                  : DONE/ERROR
                                 ;    2338 ******************************************************************************/
                                 ;    2339 uint16_t usb_hhub_ChkInterface(uint16_t **table, uint16_t spec)
                                 		.LINE  "C:\Workspace\e2studio\git\MT01_master\r_usb_basic\src\driver\host\r_usb_hhubsys.c",2339
0000239E 7100EC                  		ADD #0FFFFFFECH, R0
000023A1 A101                    		MOV.L R1, 10H[R0]
000023A3 918A                    		MOV.W R2, 0EH[R0]
                                 ;    2340 {
                                 ;    2341     uint8_t     *descriptor_Table;
                                 ;    2342     uint16_t    ofset;
                                 ;    2343 
                                 ;    2344     descriptor_Table = (uint8_t*)(table[2]);
                                 		.LINE  "C:\Workspace\e2studio\git\MT01_master\r_usb_basic\src\driver\host\r_usb_hhubsys.c",2344
000023A5 A901                    		MOV.L 10H[R0], R1
000023A7 E5100201                		MOV.L 08H[R1], 04H[R0]
000023AB                         L707:	; entry.split
                                 ;    2345 
                                 ;    2346     /* Descriptor check */
                                 ;    2347     ofset = usb_hstd_CheckDescriptor(descriptor_Table, (uint16_t)USB_DT_INTERFACE);
                                 		.LINE  "C:\Workspace\e2studio\git\MT01_master\r_usb_basic\src\driver\host\r_usb_hhubsys.c",2347
000023AB A809                    		MOV.L 04H[R0], R1
000023AD 6642                    		MOV.L #00000004H, R2
000023AF 39rrrr               W  		BSR _usb_hstd_CheckDescriptor
000023B2 9109                    		MOV.W R1, 0AH[R0]
000023B4                         L708:	; entry.split1
                                 ;    2348     if( USB_ERROR == ofset )
                                 		.LINE  "C:\Workspace\e2studio\git\MT01_master\r_usb_basic\src\driver\host\r_usb_hhubsys.c",2348
000023B4 B909                    		MOVU.W 0AH[R0], R1
000023B6 7701FFFF00              		CMP #0FFFFH, R1
000023BB 18                   S  		BNE L710
000023BC                         L709:	; bb11
                                 ;    2349     {
                                 ;    2350         USB_PRINTF0("### Interface descriptor error !\n");
                                 ;    2351         return USB_ERROR;
                                 		.LINE  "C:\Workspace\e2studio\git\MT01_master\r_usb_basic\src\driver\host\r_usb_hhubsys.c",2351
000023BC F90901FFFF              		MOV.W #0FFFFH, 02H[R0]
000023C1 2Err                 B  		BRA L723
000023C3                         L710:	; bb18
                                 ;    2352     }
                                 ;    2353 
                                 ;    2354     /* Check interface class */
                                 ;    2355     if( descriptor_Table[5] != USB_IFCLS_HUB )
                                 		.LINE  "C:\Workspace\e2studio\git\MT01_master\r_usb_basic\src\driver\host\r_usb_hhubsys.c",2355
000023C3 A809                    		MOV.L 04H[R0], R1
000023C5 B119                    		MOVU.B 05H[R1], R1
000023C7 6191                    		CMP #09H, R1
000023C9 10                   S  		BEQ L712
000023CA                         L711:	; bb19
                                 ;    2356     {
                                 ;    2357         USB_PRINTF0("### HUB interface descriptor error !\n");
                                 ;    2358         return USB_ERROR;
                                 		.LINE  "C:\Workspace\e2studio\git\MT01_master\r_usb_basic\src\driver\host\r_usb_hhubsys.c",2358
000023CA F90901FFFF              		MOV.W #0FFFFH, 02H[R0]
000023CF 2Err                 B  		BRA L723
000023D1                         L712:	; bb28
                                 ;    2359     }
                                 ;    2360 
                                 ;    2361     /* Check interface number */
                                 ;    2362     switch( spec )
                                 		.LINE  "C:\Workspace\e2studio\git\MT01_master\r_usb_basic\src\driver\host\r_usb_hhubsys.c",2362
000023D1 B989                    		MOVU.W 0EH[R0], R1
000023D3 6131                    		CMP #03H, R1
000023D5 20rr                    		BEQ L719
000023D7                         L713:	; bb28
000023D7 6121                    		CMP #02H, R1
000023D9 20rr                    		BEQ L717
000023DB                         L714:	; bb28
000023DB 6111                    		CMP #01H, R1
000023DD 21rr                    		BNE L721
000023DF                         L715:	; bb32
                                 ;    2363     {
                                 ;    2364     case USB_FSHUB:     /* Full Speed Hub */
                                 ;    2365         if( descriptor_Table[2] != (USB_HUB_INTNUMFS - 1u) )
                                 		.LINE  "C:\Workspace\e2studio\git\MT01_master\r_usb_basic\src\driver\host\r_usb_hhubsys.c",2365
000023DF A809                    		MOV.L 04H[R0], R1
000023E1 B091                    		MOVU.B 02H[R1], R1
000023E3 6101                    		CMP #00H, R1
000023E5 20rr                    		BEQ L722
000023E7                         L716:	; bb33
                                 ;    2366         {
                                 ;    2367             USB_PRINTF0("### HUB interface descriptor error !\n");
                                 ;    2368             return USB_ERROR;
                                 		.LINE  "C:\Workspace\e2studio\git\MT01_master\r_usb_basic\src\driver\host\r_usb_hhubsys.c",2368
000023E7 F90901FFFF              		MOV.W #0FFFFH, 02H[R0]
000023EC 2Err                 B  		BRA L723
000023EE                         L717:	; bb44
                                 ;    2369         }
                                 ;    2370         break;
                                 ;    2371     case USB_HSHUBS:    /* Hi Speed Hub(Single) */
                                 ;    2372         if( descriptor_Table[2] != (USB_HUB_INTNUMHSS - 1u) )
                                 		.LINE  "C:\Workspace\e2studio\git\MT01_master\r_usb_basic\src\driver\host\r_usb_hhubsys.c",2372
000023EE A809                    		MOV.L 04H[R0], R1
000023F0 B091                    		MOVU.B 02H[R1], R1
000023F2 6101                    		CMP #00H, R1
000023F4 20rr                    		BEQ L722
000023F6                         L718:	; bb45
                                 ;    2373         {
                                 ;    2374             USB_PRINTF0("### HUB interface descriptor error !\n");
                                 ;    2375             return USB_ERROR;
                                 		.LINE  "C:\Workspace\e2studio\git\MT01_master\r_usb_basic\src\driver\host\r_usb_hhubsys.c",2375
000023F6 F90901FFFF              		MOV.W #0FFFFH, 02H[R0]
000023FB 2Err                 B  		BRA L723
000023FD                         L719:	; bb56
                                 ;    2376         }
                                 ;    2377         break;
                                 ;    2378     case USB_HSHUBM:    /* Hi Speed Hub(Multi) */
                                 ;    2379         if( descriptor_Table[2] != (USB_HUB_INTNUMHSM - 1u) )
                                 		.LINE  "C:\Workspace\e2studio\git\MT01_master\r_usb_basic\src\driver\host\r_usb_hhubsys.c",2379
000023FD A809                    		MOV.L 04H[R0], R1
000023FF B091                    		MOVU.B 02H[R1], R1
00002401 6101                    		CMP #00H, R1
00002403 20rr                    		BEQ L722
00002405                         L720:	; bb57
                                 ;    2380         {
                                 ;    2381             USB_PRINTF0("### HUB interface descriptor error !\n");
                                 ;    2382             return USB_ERROR;
                                 		.LINE  "C:\Workspace\e2studio\git\MT01_master\r_usb_basic\src\driver\host\r_usb_hhubsys.c",2382
00002405 F90901FFFF              		MOV.W #0FFFFH, 02H[R0]
0000240A 08                   S  		BRA L723
0000240B                         L721:	; bb67
                                 ;    2383         }
                                 ;    2384         break;
                                 ;    2385     default:
                                 ;    2386         return USB_ERROR;
                                 		.LINE  "C:\Workspace\e2studio\git\MT01_master\r_usb_basic\src\driver\host\r_usb_hhubsys.c",2386
0000240B F90901FFFF              		MOV.W #0FFFFH, 02H[R0]
00002410 08                   S  		BRA L723
00002411                         L722:	; bb69
                                 ;    2387         break;
                                 ;    2388     }
                                 ;    2389     return USB_DONE;
                                 		.LINE  "C:\Workspace\e2studio\git\MT01_master\r_usb_basic\src\driver\host\r_usb_hhubsys.c",2389
00002411 3D0100                  		MOV.W #0000H, 02H[R0]
00002414                         L723:	; bb71
00002414 D5000106                		MOV.W 02H[R0], 0CH[R0]
                                 ;    2390 }   /* eof usb_hhub_ChkInterface() */
                                 		.LINE  "C:\Workspace\e2studio\git\MT01_master\r_usb_basic\src\driver\host\r_usb_hhubsys.c",2390
00002418 B981                    		MOVU.W 0CH[R0], R1
0000241A 6705                    		RTSD #14H
0000241C                         __$usb_hhub_ChkTblIndx1:
                                 		.STACK	__$usb_hhub_ChkTblIndx1=36
                                 ;    2391 
                                 ;    2392 
                                 ;    2393 /******************************************************************************
                                 ;    2394 Function Name   : usb_hhub_ChkTblIndx1
                                 ;    2395 Description     : table index search
                                 ;    2396 Arguments       : uint16_t hubaddr          : hub address
                                 ;    2397 Return value    : uint16_t                  : table index
                                 ;    2398 ******************************************************************************/
                                 ;    2399 uint16_t usb_hhub_ChkTblIndx1(USB_UTR_t *ptr, uint16_t hubaddr)
                                 		.LINE  "C:\Workspace\e2studio\git\MT01_master\r_usb_basic\src\driver\host\r_usb_hhubsys.c",2399
0000241C 7100E0                  		ADD #0FFFFFFE0H, R0
0000241F A189                    		MOV.L R1, 1CH[R0]
00002421 930A                    		MOV.W R2, 1AH[R0]
                                 ;    2400 {
                                 ;    2401     uint16_t    pipecheck[USB_MAX_PIPE_NO];
                                 ;    2402     uint16_t    i;
                                 ;    2403 
                                 ;    2404     for( i = 0; i < USB_MAX_PIPE_NO; i++ )
                                 		.LINE  "C:\Workspace\e2studio\git\MT01_master\r_usb_basic\src\driver\host\r_usb_hhubsys.c",2404
00002423 3D0B00                  		MOV.W #0000H, 16H[R0]
00002426 2Err                 B  		BRA L726
00002428                         L725:	; bb
                                 ;    2405     {
                                 ;    2406         /* Check table clear */
                                 ;    2407         pipecheck[i] = 0;
                                 		.LINE  "C:\Workspace\e2studio\git\MT01_master\r_usb_basic\src\driver\host\r_usb_hhubsys.c",2407
00002428 BA89                    		MOVU.W 16H[R0], R1
0000242A 710E04                  		ADD #04H, R0, R14
0000242D 660F                    		MOV.L #00000000H, R15
0000242F FE11EF                  		MOV.W R15, [R1,R14]
00002432 9A89                    		MOV.W 16H[R0], R1
00002434 6211                    		ADD #01H, R1
00002436 9289                    		MOV.W R1, 16H[R0]
00002438                         L726:	; bb11
                                 		.LINE  "C:\Workspace\e2studio\git\MT01_master\r_usb_basic\src\driver\host\r_usb_hhubsys.c",2404
00002438 BA89                    		MOVU.W 16H[R0], R1
0000243A 6191                    		CMP #09H, R1
0000243C 23rr                    		BLTU L725
0000243E                         L727:	; bb16
                                 ;    2408     }
                                 ;    2409 
                                 ;    2410     for( i = 0; i < (USB_MAXDEVADDR + 1u); i++ )
                                 		.LINE  "C:\Workspace\e2studio\git\MT01_master\r_usb_basic\src\driver\host\r_usb_hhubsys.c",2410
0000243E 3D0B00                  		MOV.W #0000H, 16H[R0]
00002441 2Err                 B  		BRA L731
00002443                         L728:	; bb18
                                 ;    2411     {
                                 ;    2412         /* Used pipe number set */
                                 ;    2413         if( 0 != usb_shhub_InfoData[ptr->ip][i].pipe_num )
                                 		.LINE  "C:\Workspace\e2studio\git\MT01_master\r_usb_basic\src\driver\host\r_usb_hhubsys.c",2413
00002443 A989                    		MOV.L 1CH[R0], R1
00002445 B991                    		MOVU.W 0CH[R1], R1
00002447 751158                  		MUL #58H, R1
0000244A FB22rrrrrrrr            		MOV.L #_usb_shhub_InfoData, R2
00002450 4B12                    		ADD R1, R2
00002452 BA89                    		MOVU.W 16H[R0], R1
00002454 6C31                    		SHLL #03H, R1
00002456 4B12                    		ADD R1, R2
00002458 B8A9                    		MOVU.W 06H[R2], R1
0000245A 6101                    		CMP #00H, R1
0000245C 20rr                    		BEQ L730
0000245E                         L729:	; bb19
                                 ;    2414         {
                                 ;    2415             pipecheck[ usb_shhub_InfoData[ptr->ip][i].pipe_num - 1 ] = 1;
                                 		.LINE  "C:\Workspace\e2studio\git\MT01_master\r_usb_basic\src\driver\host\r_usb_hhubsys.c",2415
0000245E A989                    		MOV.L 1CH[R0], R1
00002460 B991                    		MOVU.W 0CH[R1], R1
00002462 751158                  		MUL #58H, R1
00002465 FB22rrrrrrrr            		MOV.L #_usb_shhub_InfoData, R2
0000246B 4B12                    		ADD R1, R2
0000246D BA89                    		MOVU.W 16H[R0], R1
0000246F 6C31                    		SHLL #03H, R1
00002471 4B12                    		ADD R1, R2
00002473 B8A9                    		MOVU.W 06H[R2], R1
00002475 6C11                    		SHLL #01H, R1
00002477 710E04                  		ADD #04H, R0, R14
0000247A 4BE1                    		ADD R14, R1
0000247C 6021                    		SUB #02H, R1
0000247E F81501                  		MOV.W #0001H, [R1]
00002481                         L730:	; bb50
00002481 9A89                    		MOV.W 16H[R0], R1
00002483 6211                    		ADD #01H, R1
00002485 9289                    		MOV.W R1, 16H[R0]
00002487                         L731:	; bb53
                                 		.LINE  "C:\Workspace\e2studio\git\MT01_master\r_usb_basic\src\driver\host\r_usb_hhubsys.c",2410
00002487 BA89                    		MOVU.W 16H[R0], R1
00002489 61B1                    		CMP #0BH, R1
0000248B 23rr                    		BLTU L728
0000248D                         L732:	; bb59
                                 ;    2416         }
                                 ;    2417     }
                                 ;    2418 
                                 ;    2419     for( i = USB_MAX_PIPE_NO; i != 0; i-- )
                                 		.LINE  "C:\Workspace\e2studio\git\MT01_master\r_usb_basic\src\driver\host\r_usb_hhubsys.c",2419
0000248D 3D0B09                  		MOV.W #0009H, 16H[R0]
00002490 2Err                 B  		BRA L736
00002492                         L733:	; bb61
                                 ;    2420     {
                                 ;    2421         if( 0 == pipecheck[i - 1] )
                                 		.LINE  "C:\Workspace\e2studio\git\MT01_master\r_usb_basic\src\driver\host\r_usb_hhubsys.c",2421
00002492 BA89                    		MOVU.W 16H[R0], R1
00002494 FDC11E                  		SHLL #01H, R1, R14
00002497 710F04                  		ADD #04H, R0, R15
0000249A 4BFE                    		ADD R15, R14
0000249C 602E                    		SUB #02H, R14
0000249E 5CEE                    		MOVU.W [R14], R14
000024A0 610E                    		CMP #00H, R14
000024A2 21rr                    		BNE L735
000024A4                         L734:	; bb62
                                 ;    2422         {
                                 ;    2423             return (uint16_t)((USB_MAX_PIPE_NO - i) * USB_EPL);
                                 		.LINE  "C:\Workspace\e2studio\git\MT01_master\r_usb_basic\src\driver\host\r_usb_hhubsys.c",2423
000024A4 5F1E                    		MOVU.W R1, R14
000024A6 6691                    		MOV.L #00000009H, R1
000024A8 43E1                    		SUB R14, R1
000024AA 6361                    		MUL #06H, R1
000024AC 9009                    		MOV.W R1, 02H[R0]
000024AE 2Err                 B  		BRA L738
000024B0                         L735:	; bb79
000024B0 6011                    		SUB #01H, R1
000024B2 9289                    		MOV.W R1, 16H[R0]
000024B4                         L736:	; bb82
                                 		.LINE  "C:\Workspace\e2studio\git\MT01_master\r_usb_basic\src\driver\host\r_usb_hhubsys.c",2419
000024B4 BA89                    		MOVU.W 16H[R0], R1
000024B6 6101                    		CMP #00H, R1
000024B8 21rr                    		BNE L733
000024BA                         L737:	; bb88
                                 ;    2424         }
                                 ;    2425     }
                                 ;    2426     return (USB_ERROR);
                                 		.LINE  "C:\Workspace\e2studio\git\MT01_master\r_usb_basic\src\driver\host\r_usb_hhubsys.c",2426
000024BA F90901FFFF              		MOV.W #0FFFFH, 02H[R0]
000024BF                         L738:	; bb90
000024BF D500010C                		MOV.W 02H[R0], 18H[R0]
                                 ;    2427 }   /* eof usb_hhub_ChkTblIndx1() */
                                 		.LINE  "C:\Workspace\e2studio\git\MT01_master\r_usb_basic\src\driver\host\r_usb_hhubsys.c",2427
000024C3 BB01                    		MOVU.W 18H[R0], R1
000024C5 6708                    		RTSD #20H
000024C7                         __$usb_hhub_ChkTblIndx2:
                                 		.STACK	__$usb_hhub_ChkTblIndx2=16
                                 ;    2428 
                                 ;    2429 
                                 ;    2430 /******************************************************************************
                                 ;    2431 Function Name   : usb_hhub_ChkTblIndx2
                                 ;    2432 Description     : table index search
                                 ;    2433 Arguments       : uint16_t hubaddr          : hub address
                                 ;    2434 Return value    : uint16_t                  : table index
                                 ;    2435 ******************************************************************************/
                                 ;    2436 uint16_t usb_hhub_ChkTblIndx2(USB_UTR_t *ptr, uint16_t hubaddr)
                                 		.LINE  "C:\Workspace\e2studio\git\MT01_master\r_usb_basic\src\driver\host\r_usb_hhubsys.c",2436
000024C7 60C0                    		SUB #0CH, R0
000024C9 A081                    		MOV.L R1, 08H[R0]
000024CB 908A                    		MOV.W R2, 06H[R0]
                                 ;    2437 {
                                 ;    2438 /* Search table index */
                                 ;    2439     switch( usb_shhub_InfoData[ptr->ip][hubaddr].pipe_num )
                                 		.LINE  "C:\Workspace\e2studio\git\MT01_master\r_usb_basic\src\driver\host\r_usb_hhubsys.c",2439
000024CD A881                    		MOV.L 08H[R0], R1
000024CF B991                    		MOVU.W 0CH[R1], R1
000024D1 751158                  		MUL #58H, R1
000024D4 FB22rrrrrrrr            		MOV.L #_usb_shhub_InfoData, R2
000024DA 4B12                    		ADD R1, R2
000024DC B889                    		MOVU.W 06H[R0], R1
000024DE 6C31                    		SHLL #03H, R1
000024E0 4B12                    		ADD R1, R2
000024E2 B8A9                    		MOVU.W 06H[R2], R1
000024E4 6161                    		CMP #06H, R1
000024E6 20rr                    		BEQ L746
000024E8                         L740:	; entry
000024E8 6171                    		CMP #07H, R1
000024EA 20rr                    		BEQ L745
000024EC                         L741:	; entry
000024EC 6181                    		CMP #08H, R1
000024EE 10                   S  		BEQ L744
000024EF                         L742:	; entry
000024EF 6191                    		CMP #09H, R1
000024F1 21rr                    		BNE L747
000024F3                         L743:	; bb
                                 ;    2440     {
                                 ;    2441     case USB_PIPE9: return (uint16_t)(0u * USB_EPL);    break;
                                 		.LINE  "C:\Workspace\e2studio\git\MT01_master\r_usb_basic\src\driver\host\r_usb_hhubsys.c",2441
000024F3 3D0100                  		MOV.W #0000H, 02H[R0]
000024F6 2Err                 B  		BRA L748
000024F8                         L744:	; bb16
                                 ;    2442     case USB_PIPE8: return (uint16_t)(1u * USB_EPL);    break;
                                 		.LINE  "C:\Workspace\e2studio\git\MT01_master\r_usb_basic\src\driver\host\r_usb_hhubsys.c",2442
000024F8 3D0106                  		MOV.W #0006H, 02H[R0]
000024FB 2Err                 B  		BRA L748
000024FD                         L745:	; bb18
                                 ;    2443     case USB_PIPE7: return (uint16_t)(2u * USB_EPL);    break;
                                 		.LINE  "C:\Workspace\e2studio\git\MT01_master\r_usb_basic\src\driver\host\r_usb_hhubsys.c",2443
000024FD 3D010C                  		MOV.W #000CH, 02H[R0]
00002500 08                   S  		BRA L748
00002501                         L746:	; bb20
                                 ;    2444     case USB_PIPE6: return (uint16_t)(3u * USB_EPL);    break;
                                 		.LINE  "C:\Workspace\e2studio\git\MT01_master\r_usb_basic\src\driver\host\r_usb_hhubsys.c",2444
00002501 3D0112                  		MOV.W #0012H, 02H[R0]
00002504 08                   S  		BRA L748
00002505                         L747:	; bb23
                                 ;    2445     default:        break;
                                 ;    2446     }
                                 ;    2447 
                                 ;    2448     return (USB_ERROR);
                                 		.LINE  "C:\Workspace\e2studio\git\MT01_master\r_usb_basic\src\driver\host\r_usb_hhubsys.c",2448
00002505 F90901FFFF              		MOV.W #0FFFFH, 02H[R0]
0000250A                         L748:	; bb25
0000250A D5000102                		MOV.W 02H[R0], 04H[R0]
                                 ;    2449 }   /* eof usb_hhub_ChkTblIndx2() */
                                 		.LINE  "C:\Workspace\e2studio\git\MT01_master\r_usb_basic\src\driver\host\r_usb_hhubsys.c",2449
0000250E B881                    		MOVU.W 04H[R0], R1
00002510 6703                    		RTSD #0CH
00002512                         _usb_hhub_ChkTblIndx3:
                                 		.STACK	_usb_hhub_ChkTblIndx3=12
                                 ;    2450 
                                 ;    2451 
                                 ;    2452 /******************************************************************************
                                 ;    2453 Function Name   : usb_hhub_ChkTblIndx3
                                 ;    2454 Description     : table index search
                                 ;    2455 Arguments       : uint16_t pipenum          : pipe number
                                 ;    2456 Return value    : uint16_t                  : table index
                                 ;    2457 ******************************************************************************/
                                 ;    2458 uint16_t usb_hhub_ChkTblIndx3(uint16_t pipenum)
                                 		.LINE  "C:\Workspace\e2studio\git\MT01_master\r_usb_basic\src\driver\host\r_usb_hhubsys.c",2458
00002512 6080                    		SUB #08H, R0
00002514 9089                    		MOV.W R1, 06H[R0]
                                 ;    2459 {
                                 ;    2460 /* Search table index */
                                 ;    2461     switch( pipenum )
                                 		.LINE  "C:\Workspace\e2studio\git\MT01_master\r_usb_basic\src\driver\host\r_usb_hhubsys.c",2461
00002516 B889                    		MOVU.W 06H[R0], R1
00002518 6161                    		CMP #06H, R1
0000251A 20rr                    		BEQ L756
0000251C                         L750:	; entry
0000251C 6171                    		CMP #07H, R1
0000251E 20rr                    		BEQ L755
00002520                         L751:	; entry
00002520 6181                    		CMP #08H, R1
00002522 10                   S  		BEQ L754
00002523                         L752:	; entry
00002523 6191                    		CMP #09H, R1
00002525 21rr                    		BNE L757
00002527                         L753:	; bb
                                 ;    2462     {
                                 ;    2463     case USB_PIPE9: return (uint16_t)(0u * USB_EPL);    break;
                                 		.LINE  "C:\Workspace\e2studio\git\MT01_master\r_usb_basic\src\driver\host\r_usb_hhubsys.c",2463
00002527 3D0100                  		MOV.W #0000H, 02H[R0]
0000252A 2Err                 B  		BRA L758
0000252C                         L754:	; bb5
                                 ;    2464     case USB_PIPE8: return (uint16_t)(1u * USB_EPL);    break;
                                 		.LINE  "C:\Workspace\e2studio\git\MT01_master\r_usb_basic\src\driver\host\r_usb_hhubsys.c",2464
0000252C 3D0106                  		MOV.W #0006H, 02H[R0]
0000252F 2Err                 B  		BRA L758
00002531                         L755:	; bb7
                                 ;    2465     case USB_PIPE7: return (uint16_t)(2u * USB_EPL);    break;
                                 		.LINE  "C:\Workspace\e2studio\git\MT01_master\r_usb_basic\src\driver\host\r_usb_hhubsys.c",2465
00002531 3D010C                  		MOV.W #000CH, 02H[R0]
00002534 08                   S  		BRA L758
00002535                         L756:	; bb9
                                 ;    2466     case USB_PIPE6: return (uint16_t)(3u * USB_EPL);    break;
                                 		.LINE  "C:\Workspace\e2studio\git\MT01_master\r_usb_basic\src\driver\host\r_usb_hhubsys.c",2466
00002535 3D0112                  		MOV.W #0012H, 02H[R0]
00002538 08                   S  		BRA L758
00002539                         L757:	; bb12
                                 ;    2467     default:        break;
                                 ;    2468     }
                                 ;    2469 
                                 ;    2470     return (USB_ERROR);
                                 		.LINE  "C:\Workspace\e2studio\git\MT01_master\r_usb_basic\src\driver\host\r_usb_hhubsys.c",2470
00002539 F90901FFFF              		MOV.W #0FFFFH, 02H[R0]
0000253E                         L758:	; bb14
0000253E D5000102                		MOV.W 02H[R0], 04H[R0]
                                 ;    2471 }   /* eof usb_hhub_ChkTblIndx3() */
                                 		.LINE  "C:\Workspace\e2studio\git\MT01_master\r_usb_basic\src\driver\host\r_usb_hhubsys.c",2471
00002542 B881                    		MOVU.W 04H[R0], R1
00002544 6702                    		RTSD #08H
00002546                         __$usb_hstd_DeviceDescripInfo:
                                 		.STACK	__$usb_hstd_DeviceDescripInfo=8
                                 ;    2472 
                                 ;    2473 
                                 ;    2474 /******************************************************************************
                                 ;    2475 Function Name   : usb_hstd_DeviceDescripInfo
                                 ;    2476 Description     : device descriptor info
                                 ;    2477 Arguments       : none
                                 ;    2478 Return value    : none
                                 ;    2479 ******************************************************************************/
                                 ;    2480 void usb_hstd_DeviceDescripInfo(USB_UTR_t *ptr)
                                 		.LINE  "C:\Workspace\e2studio\git\MT01_master\r_usb_basic\src\driver\host\r_usb_hhubsys.c",2480
00002546 6040                    		SUB #04H, R0
00002548 E301                    		MOV.L R1, [R0]
                                 		.LINE  "C:\Workspace\e2studio\git\MT01_master\r_usb_basic\src\driver\host\r_usb_hhubsys.c",2502
0000254A 6701                    		RTSD #04H
0000254C                         __$usb_hstd_ConfigDescripInfo:
                                 		.STACK	__$usb_hstd_ConfigDescripInfo=8
                                 ;    2481 {
                                 ;    2482 /* Condition compilation by the difference of useful function */
                                 ;    2483 #ifdef USB_DEBUGPRINT_PP
                                 ;    2484     uint8_t     *p;
                                 ;    2485 
                                 ;    2486     p = usb_hstd_DevDescriptor(ptr);
                                 ;    2487 
                                 ;    2488     /* For DEMO */
                                 ;    2489     USB_PRINTF0("Device descriptor fields\n");
                                 ;    2490     USB_PRINTF2("  bcdUSB         : %02x.%02x\n",  p[0x03], p[0x02]);
                                 ;    2491     USB_PRINTF1("  bDeviceClass   : 0x%02x\n",     p[0x04]);
                                 ;    2492     USB_PRINTF1("  bDeviceSubClass: 0x%02x\n",     p[0x05]);
                                 ;    2493     USB_PRINTF1("  bProtocolCode  : 0x%02x\n",     p[0x06]);
                                 ;    2494     USB_PRINTF1("  bMaxPacletSize : 0x%02x\n",     p[0x07]);
                                 ;    2495     USB_PRINTF2("  idVendor       : 0x%02x%02x\n", p[0x09], p[0x08]);
                                 ;    2496     USB_PRINTF2("  idProduct      : 0x%02x%02x\n", p[0x0b], p[0x0a]);
                                 ;    2497     USB_PRINTF2("  bcdDevice      : 0x%02x%02x\n", p[0x0d], p[0x0c]);
                                 ;    2498     USB_PRINTF1("  iSerialNumber  : 0x%02x\n",     p[0x10]);
                                 ;    2499     USB_PRINTF1("  bNumConfig     : 0x%02x\n",     p[0x11]);
                                 ;    2500     USB_PRINTF0("\n");
                                 ;    2501 #endif  /* USB_DEBUGPRINT_PP */
                                 ;    2502 }   /* eof usb_hstd_DeviceDescripInfo() */
                                 ;    2503 
                                 ;    2504 
                                 ;    2505 /******************************************************************************
                                 ;    2506 Function Name   : usb_hstd_ConfigDescripInfo
                                 ;    2507 Description     : configuration descriptor info
                                 ;    2508 Arguments       : none
                                 ;    2509 Return value    : none
                                 ;    2510 ******************************************************************************/
                                 ;    2511 void usb_hstd_ConfigDescripInfo(USB_UTR_t *ptr)
                                 		.LINE  "C:\Workspace\e2studio\git\MT01_master\r_usb_basic\src\driver\host\r_usb_hhubsys.c",2511
0000254C 6040                    		SUB #04H, R0
0000254E E301                    		MOV.L R1, [R0]
                                 		.LINE  "C:\Workspace\e2studio\git\MT01_master\r_usb_basic\src\driver\host\r_usb_hhubsys.c",2629
00002550 6701                    		RTSD #04H
00002552                         _usb_hstd_EndpDescripInfo:
                                 		.STACK	_usb_hstd_EndpDescripInfo=8
                                 ;    2512 {
                                 ;    2513 /* Condition compilation by the difference of useful function */
                                 ;    2514 #ifdef USB_DEBUGPRINT_PP
                                 ;    2515     uint8_t     *p;
                                 ;    2516     uint16_t    len;
                                 ;    2517 
                                 ;    2518     p = usb_hstd_ConDescriptor(ptr);
                                 ;    2519 
                                 ;    2520     len = 0;
                                 ;    2521     while( len < (p[2]) )
                                 ;    2522     {
                                 ;    2523         /* Search within Configuration descriptor */
                                 ;    2524         switch( p[len + 1] )
                                 ;    2525         {
                                 ;    2526         /* Configuration Descriptor ? */
                                 ;    2527         case 0x02:
                                 ;    2528             USB_PRINTF0("Configuration descriptor fields\n");
                                 ;    2529             USB_PRINTF1("  Configuration Value  : 0x%02x\n", p[0x05]);
                                 ;    2530             USB_PRINTF1("  Number of Interface  : 0x%02x\n", p[0x04]);
                                 ;    2531             break;
                                 ;    2532         /* Interface Descriptor ? */
                                 ;    2533         case 0x04:
                                 ;    2534             USB_PRINTF0("\nInterface descriptor fields\n");
                                 ;    2535             switch( p[len + 5] )
                                 ;    2536             {
                                 ;    2537             /* Class check */
                                 ;    2538             /* Audio Class */
                                 ;    2539             case 1: 
                                 ;    2540                 USB_PRINTF0("  This device has Audio Class.\n");
                                 ;    2541                 break;
                                 ;    2542             /* CDC-Control Class */
                                 ;    2543             case 2:
                                 ;    2544                 USB_PRINTF0("  This device has CDC-Control Class.\n");
                                 ;    2545                 break;
                                 ;    2546             /* HID Class */
                                 ;    2547             case 3:
                                 ;    2548                 USB_PRINTF0("  This device has HID Class.\n");
                                 ;    2549                 break;
                                 ;    2550             /* Physical Class */
                                 ;    2551             case 5:
                                 ;    2552                 USB_PRINTF0("  This device has Physical Class.\n");
                                 ;    2553                 break;
                                 ;    2554             /* Image Class */
                                 ;    2555             case 6:
                                 ;    2556                 USB_PRINTF0("  This device has Image Class.\n");
                                 ;    2557                 break;
                                 ;    2558             /* Printer Class */
                                 ;    2559             case 7:
                                 ;    2560                 USB_PRINTF0("  This device has Printer Class.\n");
                                 ;    2561                 break;
                                 ;    2562             /* Mass Storage Class */
                                 ;    2563             case 8:
                                 ;    2564                 USB_PRINTF0("  I/F class    : Mass Storage\n");
                                 ;    2565                 switch( p[len + 6] )
                                 ;    2566                 {
                                 ;    2567                 case 0x05:
                                 ;    2568                     USB_PRINTF0("  I/F subclass : SFF-8070i\n");
                                 ;    2569                     break;
                                 ;    2570                 case 0x06:
                                 ;    2571                     USB_PRINTF0("  I/F subclass : SCSI command\n");
                                 ;    2572                     break;
                                 ;    2573                 default:
                                 ;    2574                     USB_PRINTF0("### I/F subclass not support.\n");
                                 ;    2575                 }
                                 ;    2576                 if( 0x50 == p[ len + 7 ] )
                                 ;    2577                 {
                                 ;    2578                     /* Check Interface Descriptor (protocol) */
                                 ;    2579                     USB_PRINTF0("  I/F protocol : BOT\n");
                                 ;    2580                 }
                                 ;    2581                 else
                                 ;    2582                 {
                                 ;    2583                     USB_PRINTF0("### I/F protocol not support.\n");
                                 ;    2584                 }
                                 ;    2585                 break;
                                 ;    2586             /* HUB Class */
                                 ;    2587             case 9:
                                 ;    2588                 USB_PRINTF0("  This device has HUB Class.\n");
                                 ;    2589                 break;
                                 ;    2590             /* CDC-Data Class */
                                 ;    2591             case 10:
                                 ;    2592                 USB_PRINTF0("  This device has CDC-Data Class.\n");
                                 ;    2593                 break;
                                 ;    2594             /* Chip/Smart Card Class */
                                 ;    2595             case 11:
                                 ;    2596                 USB_PRINTF0("  This device has Chip/Smart Class.\n");
                                 ;    2597                 break;
                                 ;    2598             /* Content-Security Class */
                                 ;    2599             case 13:
                                 ;    2600                 USB_PRINTF0("  This device has Content-Security Class.\n");
                                 ;    2601                 break;
                                 ;    2602             /* Video Class */
                                 ;    2603             case 14:
                                 ;    2604                 USB_PRINTF0("  This device has Video Class.\n");
                                 ;    2605                 break;
                                 ;    2606             /* Vendor Specific Class */
                                 ;    2607             case 255:
                                 ;    2608                 USB_PRINTF0("  I/F class : Vendor Specific\n");
                                 ;    2609                 break;
                                 ;    2610             /* Reserved */
                                 ;    2611             case 0:
                                 ;    2612                 USB_PRINTF0("  I/F class : class error\n");
                                 ;    2613                 break;
                                 ;    2614             default:
                                 ;    2615                 USB_PRINTF0("  This device has not USB Device Class.\n");
                                 ;    2616                 break;
                                 ;    2617             }
                                 ;    2618             break;
                                 ;    2619         /* Endpoint Descriptor */
                                 ;    2620         case 0x05:
                                 ;    2621             usb_hstd_EndpDescripInfo(&p[len]);
                                 ;    2622             break;
                                 ;    2623         default:
                                 ;    2624             break;
                                 ;    2625         }
                                 ;    2626         len += p[len];
                                 ;    2627     }
                                 ;    2628 #endif  /* USB_DEBUGPRINT_PP */
                                 ;    2629 }   /* eof usb_hstd_ConfigDescripInfo() */
                                 ;    2630 
                                 ;    2631 
                                 ;    2632 /******************************************************************************
                                 ;    2633 Function Name   : usb_hstd_EndpDescripInfo
                                 ;    2634 Description     : endpoint descriptor info
                                 ;    2635 Arguments       : uint8_t *tbl              : table (indata).
                                 ;    2636 Return value    : none
                                 ;    2637 ******************************************************************************/
                                 ;    2638 void usb_hstd_EndpDescripInfo(uint8_t *tbl)
                                 		.LINE  "C:\Workspace\e2studio\git\MT01_master\r_usb_basic\src\driver\host\r_usb_hhubsys.c",2638
00002552 6040                    		SUB #04H, R0
00002554 E301                    		MOV.L R1, [R0]
                                 		.LINE  "C:\Workspace\e2studio\git\MT01_master\r_usb_basic\src\driver\host\r_usb_hhubsys.c",2690
00002556 6701                    		RTSD #04H
00002558                         __$usb_hhub_new_connect:
                                 		.STACK	__$usb_hhub_new_connect=20
                                 ;    2639 {
                                 ;    2640 /* Condition compilation by the difference of useful function */
                                 ;    2641 #ifdef USB_DEBUGPRINT_PP
                                 ;    2642     uint16_t        epnum, pipe_mxp;
                                 ;    2643 
                                 ;    2644     switch( (uint8_t)(tbl[3] & USB_EP_TRNSMASK) )
                                 ;    2645     {
                                 ;    2646     /* Isochronous Endpoint */
                                 ;    2647     case USB_EP_ISO:
                                 ;    2648         USB_PRINTF0("  ISOCHRONOUS");
                                 ;    2649         break;
                                 ;    2650     /* Bulk Endpoint */
                                 ;    2651     case USB_EP_BULK:
                                 ;    2652         USB_PRINTF0("  BULK");
                                 ;    2653         break;
                                 ;    2654     /* Interrupt Endpoint */
                                 ;    2655     case USB_EP_INT:
                                 ;    2656         USB_PRINTF0("  INTERRUPT");
                                 ;    2657         break;
                                 ;    2658     /* Control Endpoint */
                                 ;    2659     default:
                                 ;    2660         USB_PRINTF0("### Control pipe is not support.\n");
                                 ;    2661         break;
                                 ;    2662     }
                                 ;    2663 
                                 ;    2664     if( USB_EP_IN == (uint8_t)(tbl[2] & USB_EP_DIRMASK) )
                                 ;    2665     {
                                 ;    2666         /* Endpoint address set */
                                 ;    2667         USB_PRINTF0(" IN  endpoint\n");
                                 ;    2668     }
                                 ;    2669     else
                                 ;    2670     {
                                 ;    2671         USB_PRINTF0(" OUT endpoint\n");
                                 ;    2672     }
                                 ;    2673     /* Endpoint number set */
                                 ;    2674     epnum       = (uint16_t)((uint16_t)tbl[2] & USB_EP_NUMMASK);
                                 ;    2675     /* Max packet size set */
                                 ;    2676     pipe_mxp = (uint16_t)(tbl[4] | (uint16_t)((uint16_t)(tbl[5]) << 8));
                                 ;    2677     USB_PRINTF2("   Number is %d. MaxPacket is %d. \n", epnum, pipe_mxp);
                                 ;    2678     switch( (uint16_t)(tbl[3] & USB_EP_TRNSMASK) )
                                 ;    2679     {
                                 ;    2680     /* Isochronous Endpoint */
                                 ;    2681     case 0x01u:
                                 ;    2682     /* Interrupt Endpoint */
                                 ;    2683     case 0x03u:
                                 ;    2684         USB_PRINTF1("    interval time is %d\n", tbl[6]);
                                 ;    2685         break;
                                 ;    2686     default:
                                 ;    2687         break;
                                 ;    2688     }
                                 ;    2689 #endif  /* USB_DEBUGPRINT_PP */
                                 ;    2690 }   /* eof usb_hstd_EndpDescripInfo() */
                                 ;    2691 
                                 ;    2692 
                                 ;    2693 /******************************************************************************
                                 ;    2694 Function Name   : usb_hhub_new_connect
                                 ;    2695 Description     : new connect
                                 ;    2696 Arguments       : uint16_t hubaddr          : hub address
                                 ;    2697                 : uint16_t portnum          : down port number
                                 ;    2698                 : USB_CLSINFO_t *mess
                                 ;    2699 Return value    : none
                                 ;    2700 ******************************************************************************/
                                 ;    2701 void usb_hhub_new_connect(USB_UTR_t *ptr, uint16_t hubaddr, uint16_t portnum, USB_CLSINFO_t *mess)
                                 		.LINE  "C:\Workspace\e2studio\git\MT01_master\r_usb_basic\src\driver\host\r_usb_hhubsys.c",2701
00002558 7100F0                  		ADD #0FFFFFFF0H, R0
0000255B A089                    		MOV.L R1, 0CH[R0]
0000255D 910A                    		MOV.W R2, 0AH[R0]
0000255F 9103                    		MOV.W R3, 08H[R0]
00002561 A00C                    		MOV.L R4, 04H[R0]
                                 ;    2702 {
                                 ;    2703         uint16_t        devaddr;
                                 ;    2704     
                                 ;    2705     hubaddr = usb_shhub_HubAddr[ptr->ip];
                                 		.LINE  "C:\Workspace\e2studio\git\MT01_master\r_usb_basic\src\driver\host\r_usb_hhubsys.c",2705
00002563 A889                    		MOV.L 0CH[R0], R1
00002565 B991                    		MOVU.W 0CH[R1], R1
00002567 FBE2rrrrrrrr            		MOV.L #_usb_shhub_HubAddr, R14
0000256D FE51E1                  		MOV.W [R1,R14], R1
00002570 9109                    		MOV.W R1, 0AH[R0]
00002572                         L763:	; entry.split
                                 ;    2706     portnum = usb_shhub_EventPort[ptr->ip];
                                 		.LINE  "C:\Workspace\e2studio\git\MT01_master\r_usb_basic\src\driver\host\r_usb_hhubsys.c",2706
00002572 A889                    		MOV.L 0CH[R0], R1
00002574 B991                    		MOVU.W 0CH[R1], R1
00002576 FBE2rrrrrrrr            		MOV.L #_usb_shhub_EventPort, R14
0000257C FE51E1                  		MOV.W [R1,R14], R1
0000257F 9101                    		MOV.W R1, 08H[R0]
00002581                         L764:	; entry.split1
                                 ;    2707 
                                 ;    2708     /* New downport device search */
                                 ;    2709     devaddr = usb_hhub_GetNewDevaddr(ptr);
                                 		.LINE  "C:\Workspace\e2studio\git\MT01_master\r_usb_basic\src\driver\host\r_usb_hhubsys.c",2709
00002581 A889                    		MOV.L 0CH[R0], R1
00002583 39rrrr               W  		BSR __$usb_hhub_GetNewDevaddr
00002586 9009                    		MOV.W R1, 02H[R0]
00002588                         L765:	; entry.split2
                                 ;    2710     if( 0 != devaddr )
                                 		.LINE  "C:\Workspace\e2studio\git\MT01_master\r_usb_basic\src\driver\host\r_usb_hhubsys.c",2710
00002588 B809                    		MOVU.W 02H[R0], R1
0000258A 6101                    		CMP #00H, R1
0000258C 20rr                    		BEQ L770
0000258E                         L766:	; bb19
                                 ;    2711     {
                                 ;    2712         USB_PRINTF1(" Hubport connect address%d\n", devaddr);
                                 ;    2713         usb_shhub_InfoData[ptr->ip][devaddr].up_addr     = hubaddr;        /* Up-hubaddr set */
                                 		.LINE  "C:\Workspace\e2studio\git\MT01_master\r_usb_basic\src\driver\host\r_usb_hhubsys.c",2713
0000258E A889                    		MOV.L 0CH[R0], R1
00002590 B991                    		MOVU.W 0CH[R1], R1
00002592 751158                  		MUL #58H, R1
00002595 FBE2rrrrrrrr            		MOV.L #_usb_shhub_InfoData, R14
0000259B 4B1E                    		ADD R1, R14
0000259D B809                    		MOVU.W 02H[R0], R1
0000259F 6C31                    		SHLL #03H, R1
000025A1 4B1E                    		ADD R1, R14
000025A3 D10E05                  		MOV.W 0AH[R0], [R14]
000025A6                         L767:	; bb19.split
                                 ;    2714         usb_shhub_InfoData[ptr->ip][devaddr].up_port_num = portnum;        /* Up-hubport set */
                                 		.LINE  "C:\Workspace\e2studio\git\MT01_master\r_usb_basic\src\driver\host\r_usb_hhubsys.c",2714
000025A6 A889                    		MOV.L 0CH[R0], R1
000025A8 B991                    		MOVU.W 0CH[R1], R1
000025AA 751158                  		MUL #58H, R1
000025AD FB22rrrrrrrr            		MOV.L #_usb_shhub_InfoData, R2
000025B3 4B12                    		ADD R1, R2
000025B5 B809                    		MOVU.W 02H[R0], R1
000025B7 6C31                    		SHLL #03H, R1
000025B9 4B12                    		ADD R1, R2
000025BB D5020401                		MOV.W 08H[R0], 02H[R2]
000025BF                         L768:	; bb19.split3
                                 ;    2715         usb_shhub_Process[ptr->ip] = USB_MSG_HUB_ATTACH;
                                 		.LINE  "C:\Workspace\e2studio\git\MT01_master\r_usb_basic\src\driver\host\r_usb_hhubsys.c",2715
000025BF A889                    		MOV.L 0CH[R0], R1
000025C1 B991                    		MOVU.W 0CH[R1], R1
000025C3 FBE2rrrrrrrr            		MOV.L #_usb_shhub_Process, R14
000025C9 FBFA3601                		MOV.L #00000136H, R15
000025CD FE11EF                  		MOV.W R15, [R1,R14]
000025D0                         L769:	; bb19.split4
                                 ;    2716         /* Next Process Selector */
                                 ;    2717         usb_hhub_SpecifiedPath(mess);
                                 		.LINE  "C:\Workspace\e2studio\git\MT01_master\r_usb_basic\src\driver\host\r_usb_hhubsys.c",2717
000025D0 A809                    		MOV.L 04H[R0], R1
000025D2 39rrrr               W  		BSR __$usb_hhub_SpecifiedPath
000025D5 6704                    		RTSD #10H
000025D7                         L770:	; return
                                 ;    2718         
                                 ;    2719     }
                                 ;    2720     else
                                 ;    2721     {
                                 ;    2722         USB_PRINTF0("### device count over !\n");
                                 ;    2723     }
                                 ;    2724 }   /* eof usb_hhub_new_connect() */
                                 		.LINE  "C:\Workspace\e2studio\git\MT01_master\r_usb_basic\src\driver\host\r_usb_hhubsys.c",2724
000025D7 6704                    		RTSD #10H
000025D9                         __$usb_hhub_port_detach:
                                 		.STACK	__$usb_hhub_port_detach=24
                                 ;    2725 
                                 ;    2726 
                                 ;    2727 /******************************************************************************
                                 ;    2728 Function Name   : usb_hhub_port_detach
                                 ;    2729 Description     : HUB down port disconnect
                                 ;    2730 Arguments       : uint16_t hubaddr          : hub address
                                 ;    2731                 : uint16_t portnum          : down port number
                                 ;    2732 Return value    : none
                                 ;    2733 ******************************************************************************/
                                 ;    2734 void usb_hhub_port_detach(USB_UTR_t *ptr, uint16_t hubaddr, uint16_t portnum)
                                 		.LINE  "C:\Workspace\e2studio\git\MT01_master\r_usb_basic\src\driver\host\r_usb_hhubsys.c",2734
000025D9 7100EC                  		ADD #0FFFFFFECH, R0
000025DC A101                    		MOV.L R1, 10H[R0]
000025DE 918A                    		MOV.W R2, 0EH[R0]
000025E0 9183                    		MOV.W R3, 0CH[R0]
                                 ;    2735 {
                                 ;    2736     uint16_t        md;
                                 ;    2737     USB_HCDREG_t    *driver;
                                 ;    2738     /* Device number --> DeviceAddress */
                                 ;    2739     uint16_t        devaddr;
                                 ;    2740 
                                 ;    2741     /* HUB downport status */
                                 ;    2742     usb_shhub_DownPort[ptr->ip][hubaddr]    &= (uint16_t)(~USB_BITSET(portnum));
                                 		.LINE  "C:\Workspace\e2studio\git\MT01_master\r_usb_basic\src\driver\host\r_usb_hhubsys.c",2742
000025E2 A901                    		MOV.L 10H[R0], R1
000025E4 B991                    		MOVU.W 0CH[R1], R1
000025E6 751116                  		MUL #16H, R1
000025E9 FBE2rrrrrrrr            		MOV.L #_usb_shhub_DownPort, R14
000025EF 4B1E                    		ADD R1, R14
000025F1 B989                    		MOVU.W 0EH[R0], R1
000025F3 FE51EF                  		MOV.W [R1,R14], R15
000025F6 B982                    		MOVU.W 0CH[R0], R2
000025F8 FC67F2                  		BCLR R2, R15
000025FB FE11EF                  		MOV.W R15, [R1,R14]
000025FE                         L772:	; entry.split
                                 ;    2743     /* HUB downport RemoteWakeup */
                                 ;    2744     usb_shhub_Remote[ptr->ip][hubaddr]  &= (uint16_t)(~USB_BITSET(portnum));
                                 		.LINE  "C:\Workspace\e2studio\git\MT01_master\r_usb_basic\src\driver\host\r_usb_hhubsys.c",2744
000025FE A901                    		MOV.L 10H[R0], R1
00002600 B991                    		MOVU.W 0CH[R1], R1
00002602 751116                  		MUL #16H, R1
00002605 FBE2rrrrrrrr            		MOV.L #_usb_shhub_Remote, R14
0000260B 4B1E                    		ADD R1, R14
0000260D B989                    		MOVU.W 0EH[R0], R1
0000260F FE51EF                  		MOV.W [R1,R14], R15
00002612 B982                    		MOVU.W 0CH[R0], R2
00002614 FC67F2                  		BCLR R2, R15
00002617 FE11EF                  		MOV.W R15, [R1,R14]
0000261A                         L773:	; entry.split1
                                 ;    2745     /* Now downport device search */
                                 ;    2746     devaddr = usb_hhub_GetCnnDevaddr(ptr, hubaddr, portnum);
                                 		.LINE  "C:\Workspace\e2studio\git\MT01_master\r_usb_basic\src\driver\host\r_usb_hhubsys.c",2746
0000261A B983                    		MOVU.W 0CH[R0], R3
0000261C B98A                    		MOVU.W 0EH[R0], R2
0000261E A901                    		MOV.L 10H[R0], R1
00002620 39rrrr               W  		BSR __$usb_hhub_GetCnnDevaddr
00002623 9109                    		MOV.W R1, 0AH[R0]
00002625                         L774:	; entry.split2
                                 ;    2747     for( md = 0; md < usb_ghstd_DeviceNum[ptr->ip]; md++ )
                                 		.LINE  "C:\Workspace\e2studio\git\MT01_master\r_usb_basic\src\driver\host\r_usb_hhubsys.c",2747
00002625 3D0100                  		MOV.W #0000H, 02H[R0]
00002628 38rrrr               W  		BRA L787
0000262B                         L775:	; bb
                                 ;    2748     {
                                 ;    2749         driver = &usb_ghstd_DeviceDrv[ptr->ip][md];
                                 		.LINE  "C:\Workspace\e2studio\git\MT01_master\r_usb_basic\src\driver\host\r_usb_hhubsys.c",2749
0000262B B991                    		MOVU.W 0CH[R1], R1
0000262D 7611B801                		MUL #01B8H, R1
00002631 FB22rrrrrrrr            		MOV.L #_usb_ghstd_DeviceDrv, R2
00002637 4B12                    		ADD R1, R2
00002639 B809                    		MOVU.W 02H[R0], R1
0000263B 751128                  		MUL #28H, R1
0000263E 4B12                    		ADD R1, R2
00002640 A00A                    		MOV.L R2, 04H[R0]
00002642                         L776:	; bb.split
                                 ;    2750         if( devaddr == driver->devaddr )
                                 		.LINE  "C:\Workspace\e2studio\git\MT01_master\r_usb_basic\src\driver\host\r_usb_hhubsys.c",2750
00002642 A809                    		MOV.L 04H[R0], R1
00002644 B90A                    		MOVU.W 0AH[R0], R2
00002646 06C51201                		CMP 02H[R1].UW, R2
0000264A 3Brrrr               W  		BNE L786
0000264D                         L777:	; bb60
                                 ;    2751         {
                                 ;    2752             (*driver->devdetach)(ptr, driver->devaddr, (uint16_t)USB_NO_ARG);
                                 		.LINE  "C:\Workspace\e2studio\git\MT01_master\r_usb_basic\src\driver\host\r_usb_hhubsys.c",2752
0000264D A809                    		MOV.L 04H[R0], R1
0000264F B81A                    		MOVU.W 02H[R1], R2
00002651 A99C                    		MOV.L 1CH[R1], R4
00002653 A901                    		MOV.L 10H[R0], R1
00002655 6603                    		MOV.L #00000000H, R3
00002657 7F14                    		JSR R4
00002659                         L778:	; bb60.split
                                 ;    2753 
                                 ;    2754             /* Root port */
                                 ;    2755             usb_ghstd_DeviceInfo[ptr->ip][driver->devaddr][0] = USB_NOPORT;
                                 		.LINE  "C:\Workspace\e2studio\git\MT01_master\r_usb_basic\src\driver\host\r_usb_hhubsys.c",2755
00002659 A901                    		MOV.L 10H[R0], R1
0000265B B991                    		MOVU.W 0CH[R1], R1
0000265D 7611B000                		MUL #0B0H, R1
00002661 FBE2rrrrrrrr            		MOV.L #_usb_ghstd_DeviceInfo, R14
00002667 4B1E                    		ADD R1, R14
00002669 A809                    		MOV.L 04H[R0], R1
0000266B B819                    		MOVU.W 02H[R1], R1
0000266D 6C41                    		SHLL #04H, R1
0000266F 4B1E                    		ADD R1, R14
00002671 F8E9FFFF                		MOV.W #0FFFFH, [R14]
00002675                         L779:	; bb60.split3
                                 ;    2756             /* Device state */
                                 ;    2757             usb_ghstd_DeviceInfo[ptr->ip][driver->devaddr][1] = USB_DETACHED;
                                 		.LINE  "C:\Workspace\e2studio\git\MT01_master\r_usb_basic\src\driver\host\r_usb_hhubsys.c",2757
00002675 A901                    		MOV.L 10H[R0], R1
00002677 B991                    		MOVU.W 0CH[R1], R1
00002679 7611B000                		MUL #0B0H, R1
0000267D FB22rrrrrrrr            		MOV.L #_usb_ghstd_DeviceInfo, R2
00002683 4B12                    		ADD R1, R2
00002685 A809                    		MOV.L 04H[R0], R1
00002687 B819                    		MOVU.W 02H[R1], R1
00002689 6C41                    		SHLL #04H, R1
0000268B 4B12                    		ADD R1, R2
0000268D 3D210A                  		MOV.W #000AH, 02H[R2]
00002690                         L780:	; bb60.split4
                                 ;    2758             /* Not configured */
                                 ;    2759             usb_ghstd_DeviceInfo[ptr->ip][driver->devaddr][2] = (uint16_t)0;
                                 		.LINE  "C:\Workspace\e2studio\git\MT01_master\r_usb_basic\src\driver\host\r_usb_hhubsys.c",2759
00002690 A901                    		MOV.L 10H[R0], R1
00002692 B991                    		MOVU.W 0CH[R1], R1
00002694 7611B000                		MUL #0B0H, R1
00002698 FB22rrrrrrrr            		MOV.L #_usb_ghstd_DeviceInfo, R2
0000269E 4B12                    		ADD R1, R2
000026A0 A809                    		MOV.L 04H[R0], R1
000026A2 B819                    		MOVU.W 02H[R1], R1
000026A4 6C41                    		SHLL #04H, R1
000026A6 4B12                    		ADD R1, R2
000026A8 3D2200                  		MOV.W #0000H, 04H[R2]
000026AB                         L781:	; bb60.split5
                                 ;    2760             /* Interface Class : NO class */
                                 ;    2761             usb_ghstd_DeviceInfo[ptr->ip][driver->devaddr][3] = (uint16_t)USB_IFCLS_NOT;
                                 		.LINE  "C:\Workspace\e2studio\git\MT01_master\r_usb_basic\src\driver\host\r_usb_hhubsys.c",2761
000026AB A901                    		MOV.L 10H[R0], R1
000026AD B991                    		MOVU.W 0CH[R1], R1
000026AF 7611B000                		MUL #0B0H, R1
000026B3 FB22rrrrrrrr            		MOV.L #_usb_ghstd_DeviceInfo, R2
000026B9 4B12                    		ADD R1, R2
000026BB A809                    		MOV.L 04H[R0], R1
000026BD B819                    		MOVU.W 02H[R1], R1
000026BF 6C41                    		SHLL #04H, R1
000026C1 4B12                    		ADD R1, R2
000026C3 3D2300                  		MOV.W #0000H, 06H[R2]
000026C6                         L782:	; bb60.split6
                                 ;    2762             /* No connect */
                                 ;    2763             usb_ghstd_DeviceInfo[ptr->ip][driver->devaddr][4] = (uint16_t)USB_NOCONNECT;
                                 		.LINE  "C:\Workspace\e2studio\git\MT01_master\r_usb_basic\src\driver\host\r_usb_hhubsys.c",2763
000026C6 A901                    		MOV.L 10H[R0], R1
000026C8 B991                    		MOVU.W 0CH[R1], R1
000026CA 7611B000                		MUL #0B0H, R1
000026CE FB22rrrrrrrr            		MOV.L #_usb_ghstd_DeviceInfo, R2
000026D4 4B12                    		ADD R1, R2
000026D6 A809                    		MOV.L 04H[R0], R1
000026D8 B819                    		MOVU.W 02H[R1], R1
000026DA 6C41                    		SHLL #04H, R1
000026DC 4B12                    		ADD R1, R2
000026DE 3D2400                  		MOV.W #0000H, 08H[R2]
000026E1                         L783:	; bb60.split7
                                 ;    2764 
                                 ;    2765             /* Root port */
                                 ;    2766             driver->rootport    = USB_NOPORT;
                                 		.LINE  "C:\Workspace\e2studio\git\MT01_master\r_usb_basic\src\driver\host\r_usb_hhubsys.c",2766
000026E1 A809                    		MOV.L 04H[R0], R1
000026E3 F819FFFF                		MOV.W #0FFFFH, [R1]
000026E7                         L784:	; bb60.split8
                                 ;    2767             /* Device address */
                                 ;    2768             driver->devaddr     = USB_NODEVICE;
                                 		.LINE  "C:\Workspace\e2studio\git\MT01_master\r_usb_basic\src\driver\host\r_usb_hhubsys.c",2768
000026E7 A809                    		MOV.L 04H[R0], R1
000026E9 F9190100F0              		MOV.W #0F000H, 02H[R1]
000026EE                         L785:	; bb60.split9
                                 ;    2769             /* Device state */
                                 ;    2770             driver->devstate    = USB_DETACHED;
                                 		.LINE  "C:\Workspace\e2studio\git\MT01_master\r_usb_basic\src\driver\host\r_usb_hhubsys.c",2770
000026EE A809                    		MOV.L 04H[R0], R1
000026F0 3D120A                  		MOV.W #000AH, 04H[R1]
000026F3                         L786:	; bb148
000026F3 9809                    		MOV.W 02H[R0], R1
000026F5 6211                    		ADD #01H, R1
000026F7 9009                    		MOV.W R1, 02H[R0]
000026F9                         L787:	; bb151
                                 		.LINE  "C:\Workspace\e2studio\git\MT01_master\r_usb_basic\src\driver\host\r_usb_hhubsys.c",2747
000026F9 A901                    		MOV.L 10H[R0], R1
000026FB B992                    		MOVU.W 0CH[R1], R2
000026FD FBE2rrrrrrrr            		MOV.L #_usb_ghstd_DeviceNum, R14
00002703 FED2EE                  		MOVU.W [R2,R14], R14
00002706 B80A                    		MOVU.W 02H[R0], R2
00002708 47E2                    		CMP R14, R2
0000270A 28rr                  * 		BLT L775
         38rrrr                  
0000270F                         L788:	; bb164
                                 ;    2771         }
                                 ;    2772     }
                                 ;    2773     /* Selective detach */
                                 ;    2774     usb_hhub_selective_detach(ptr, devaddr);
                                 		.LINE  "C:\Workspace\e2studio\git\MT01_master\r_usb_basic\src\driver\host\r_usb_hhubsys.c",2774
0000270F B90A                    		MOVU.W 0AH[R0], R2
00002711 39rrrr               W  		BSR __$usb_hhub_selective_detach
00002714 6705                    		RTSD #14H
00002716                         __$usb_hhub_selective_detach:
                                 		.STACK	__$usb_hhub_selective_detach=16
                                 ;    2775 }   /* eof usb_hhub_port_detach() */
                                 ;    2776 
                                 ;    2777 
                                 ;    2778 /******************************************************************************
                                 ;    2779 Function Name   : usb_hhub_selective_detach
                                 ;    2780 Description     : HUB down port Selective disconnect
                                 ;    2781 Arguments       : uint16_t devaddr          : device address
                                 ;    2782 Return value    : none
                                 ;    2783 ******************************************************************************/
                                 ;    2784 void usb_hhub_selective_detach(USB_UTR_t *ptr, uint16_t devaddr)
                                 		.LINE  "C:\Workspace\e2studio\git\MT01_master\r_usb_basic\src\driver\host\r_usb_hhubsys.c",2784
00002716 60C0                    		SUB #0CH, R0
00002718 A081                    		MOV.L R1, 08H[R0]
0000271A 908A                    		MOV.W R2, 06H[R0]
                                 ;    2785 {
                                 ;    2786     uint16_t    addr, i;
                                 ;    2787 
                                 ;    2788     addr = (uint16_t)(devaddr << USB_DEVADDRBIT);
                                 		.LINE  "C:\Workspace\e2studio\git\MT01_master\r_usb_basic\src\driver\host\r_usb_hhubsys.c",2788
0000271C 6CC2                    		SHLL #0CH, R2
0000271E 900A                    		MOV.W R2, 02H[R0]
00002720                         L790:	; entry.split
                                 ;    2789     /* Check Connection */
                                 ;    2790     if( USB_NOCONNECT != usb_hstd_GetDevSpeed(ptr, addr) )
                                 		.LINE  "C:\Workspace\e2studio\git\MT01_master\r_usb_basic\src\driver\host\r_usb_hhubsys.c",2790
00002720 B80A                    		MOVU.W 02H[R0], R2
00002722 A881                    		MOV.L 08H[R0], R1
00002724 05rrrrrr             A  		BSR _usb_hstd_GetDevSpeed
00002728 6101                    		CMP #00H, R1
0000272A 20rr                    		BEQ L800
0000272C                         L791:	; bb8
                                 ;    2791     {
                                 ;    2792         for( i = USB_MIN_PIPE_NO; i <= USB_MAX_PIPE_NO; i++ )
                                 		.LINE  "C:\Workspace\e2studio\git\MT01_master\r_usb_basic\src\driver\host\r_usb_hhubsys.c",2792
0000272C 3D0201                  		MOV.W #0001H, 04H[R0]
0000272F 2Err                 B  		BRA L797
00002731                         L792:	; bb10
                                 ;    2793         {
                                 ;    2794             /* Not control transfer */
                                 ;    2795             if( usb_cstd_GetDeviceAddress(ptr, i) == addr )
                                 		.LINE  "C:\Workspace\e2studio\git\MT01_master\r_usb_basic\src\driver\host\r_usb_hhubsys.c",2795
00002731 B882                    		MOVU.W 04H[R0], R2
00002733 05rrrrrr             A  		BSR _usb_cstd_GetDeviceAddress
00002737 06C50101                		CMP 02H[R0].UW, R1
0000273B 21rr                    		BNE L796
0000273D                         L793:	; bb12
                                 ;    2796             {
                                 ;    2797                 /* Agreement device address */
                                 ;    2798                 if( USB_PID_BUF == usb_cstd_GetPid(ptr, i) )
                                 		.LINE  "C:\Workspace\e2studio\git\MT01_master\r_usb_basic\src\driver\host\r_usb_hhubsys.c",2798
0000273D B882                    		MOVU.W 04H[R0], R2
0000273F A881                    		MOV.L 08H[R0], R1
00002741 05rrrrrr             A  		BSR _usb_cstd_GetPid
00002745 6111                    		CMP #01H, R1
00002747 21rr                    		BNE L795
00002749                         L794:	; bb13
                                 ;    2799                 {
                                 ;    2800                     /* PID=BUF ? */
                                 ;    2801                     R_usb_hstd_TransferEnd(ptr, i, (uint16_t)USB_DATA_STOP);
                                 		.LINE  "C:\Workspace\e2studio\git\MT01_master\r_usb_basic\src\driver\host\r_usb_hhubsys.c",2801
00002749 B882                    		MOVU.W 04H[R0], R2
0000274B A881                    		MOV.L 08H[R0], R1
0000274D 6683                    		MOV.L #00000008H, R3
0000274F 05rrrrrr             A  		BSR _R_usb_hstd_TransferEnd
00002753                         L795:	; bb23
                                 ;    2802                 }
                                 ;    2803                 usb_cstd_ClrPipeCnfg(ptr, i);
                                 		.LINE  "C:\Workspace\e2studio\git\MT01_master\r_usb_basic\src\driver\host\r_usb_hhubsys.c",2803
00002753 B882                    		MOVU.W 04H[R0], R2
00002755 A881                    		MOV.L 08H[R0], R1
00002757 05rrrrrr             A  		BSR _usb_cstd_ClrPipeCnfg
0000275B                         L796:	; bb35
0000275B 9881                    		MOV.W 04H[R0], R1
0000275D 6211                    		ADD #01H, R1
0000275F 9081                    		MOV.W R1, 04H[R0]
00002761                         L797:	; bb38
                                 		.LINE  "C:\Workspace\e2studio\git\MT01_master\r_usb_basic\src\driver\host\r_usb_hhubsys.c",2792
00002761 B881                    		MOVU.W 04H[R0], R1
00002763 61A1                    		CMP #0AH, R1
00002765 A881                    		MOV.L 08H[R0], R1
00002767 23rr                    		BLTU L792
00002769                         L798:	; bb44
                                 ;    2804             }
                                 ;    2805         }
                                 ;    2806         usb_hstd_SetDevAddr(ptr, addr, USB_DONE, USB_DONE);
                                 		.LINE  "C:\Workspace\e2studio\git\MT01_master\r_usb_basic\src\driver\host\r_usb_hhubsys.c",2806
00002769 B80A                    		MOVU.W 02H[R0], R2
0000276B 6603                    		MOV.L #00000000H, R3
0000276D EF34                    		MOV.L R3, R4
0000276F 05rrrrrr             A  		BSR _usb_hstd_SetDevAddr
00002773                         L799:	; bb44.split
                                 ;    2807         usb_hstd_SetHubPort(ptr, addr, USB_DONE, USB_DONE);
                                 		.LINE  "C:\Workspace\e2studio\git\MT01_master\r_usb_basic\src\driver\host\r_usb_hhubsys.c",2807
00002773 B80A                    		MOVU.W 02H[R0], R2
00002775 A881                    		MOV.L 08H[R0], R1
00002777 6603                    		MOV.L #00000000H, R3
00002779 EF34                    		MOV.L R3, R4
0000277B 05rrrrrr             A  		BSR _usb_hstd_SetHubPort
0000277F                         L800:	; bb56
                                 ;    2808         USB_PRINTF1("*** Device address %d clear.\n", devaddr);
                                 ;    2809     }
                                 ;    2810 
                                 ;    2811     /* Root port */
                                 ;    2812     usb_ghstd_DeviceInfo[ptr->ip][devaddr][0] = USB_NOPORT;
                                 		.LINE  "C:\Workspace\e2studio\git\MT01_master\r_usb_basic\src\driver\host\r_usb_hhubsys.c",2812
0000277F A881                    		MOV.L 08H[R0], R1
00002781 B991                    		MOVU.W 0CH[R1], R1
00002783 7611B000                		MUL #0B0H, R1
00002787 FBE2rrrrrrrr            		MOV.L #_usb_ghstd_DeviceInfo, R14
0000278D 4B1E                    		ADD R1, R14
0000278F B889                    		MOVU.W 06H[R0], R1
00002791 6C41                    		SHLL #04H, R1
00002793 4B1E                    		ADD R1, R14
00002795 F8E9FFFF                		MOV.W #0FFFFH, [R14]
00002799                         L801:	; bb56.split
                                 ;    2813     /* Device state */
                                 ;    2814     usb_ghstd_DeviceInfo[ptr->ip][devaddr][1] = USB_DETACHED;
                                 		.LINE  "C:\Workspace\e2studio\git\MT01_master\r_usb_basic\src\driver\host\r_usb_hhubsys.c",2814
00002799 A881                    		MOV.L 08H[R0], R1
0000279B B991                    		MOVU.W 0CH[R1], R1
0000279D 7611B000                		MUL #0B0H, R1
000027A1 FB22rrrrrrrr            		MOV.L #_usb_ghstd_DeviceInfo, R2
000027A7 4B12                    		ADD R1, R2
000027A9 B889                    		MOVU.W 06H[R0], R1
000027AB 6C41                    		SHLL #04H, R1
000027AD 4B12                    		ADD R1, R2
000027AF 3D210A                  		MOV.W #000AH, 02H[R2]
000027B2                         L802:	; bb56.split1
                                 ;    2815     /* Not configured */
                                 ;    2816     usb_ghstd_DeviceInfo[ptr->ip][devaddr][2] = (uint16_t)0;
                                 		.LINE  "C:\Workspace\e2studio\git\MT01_master\r_usb_basic\src\driver\host\r_usb_hhubsys.c",2816
000027B2 A881                    		MOV.L 08H[R0], R1
000027B4 B991                    		MOVU.W 0CH[R1], R1
000027B6 7611B000                		MUL #0B0H, R1
000027BA FB22rrrrrrrr            		MOV.L #_usb_ghstd_DeviceInfo, R2
000027C0 4B12                    		ADD R1, R2
000027C2 B889                    		MOVU.W 06H[R0], R1
000027C4 6C41                    		SHLL #04H, R1
000027C6 4B12                    		ADD R1, R2
000027C8 3D2200                  		MOV.W #0000H, 04H[R2]
000027CB                         L803:	; bb56.split2
                                 ;    2817     /* Interface Class : NO class */
                                 ;    2818     usb_ghstd_DeviceInfo[ptr->ip][devaddr][3] = (uint16_t)USB_IFCLS_NOT;
                                 		.LINE  "C:\Workspace\e2studio\git\MT01_master\r_usb_basic\src\driver\host\r_usb_hhubsys.c",2818
000027CB A881                    		MOV.L 08H[R0], R1
000027CD B991                    		MOVU.W 0CH[R1], R1
000027CF 7611B000                		MUL #0B0H, R1
000027D3 FB22rrrrrrrr            		MOV.L #_usb_ghstd_DeviceInfo, R2
000027D9 4B12                    		ADD R1, R2
000027DB B889                    		MOVU.W 06H[R0], R1
000027DD 6C41                    		SHLL #04H, R1
000027DF 4B12                    		ADD R1, R2
000027E1 3D2300                  		MOV.W #0000H, 06H[R2]
000027E4                         L804:	; bb56.split3
                                 ;    2819     /* No connect */
                                 ;    2820     usb_ghstd_DeviceInfo[ptr->ip][devaddr][4] = (uint16_t)USB_NOCONNECT;
                                 		.LINE  "C:\Workspace\e2studio\git\MT01_master\r_usb_basic\src\driver\host\r_usb_hhubsys.c",2820
000027E4 A881                    		MOV.L 08H[R0], R1
000027E6 B991                    		MOVU.W 0CH[R1], R1
000027E8 7611B000                		MUL #0B0H, R1
000027EC FB22rrrrrrrr            		MOV.L #_usb_ghstd_DeviceInfo, R2
000027F2 4B12                    		ADD R1, R2
000027F4 B889                    		MOVU.W 06H[R0], R1
000027F6 6C41                    		SHLL #04H, R1
000027F8 4B12                    		ADD R1, R2
000027FA 3D2400                  		MOV.W #0000H, 08H[R2]
000027FD 6703                    		RTSD #0CH
000027FF                         _usb_hstd_GetStringDescriptor1:
                                 		.STACK	_usb_hstd_GetStringDescriptor1=20
                                 ;    2821 
                                 ;    2822 }   /* eof usb_hhub_selective_detach() */
                                 ;    2823 
                                 ;    2824 
                                 ;    2825 /******************************************************************************
                                 ;    2826 Function Name   : usb_hstd_GetStringDescriptor1
                                 ;    2827 Description     : Get String descriptor
                                 ;    2828 Arguments       : uint16_t devaddr          : device address
                                 ;    2829                 : uint16_t index            : descriptor index
                                 ;    2830                 : USB_CB_t complete         : callback
                                 ;    2831 Return value    : uint16_t                  : error info
                                 ;    2832 ******************************************************************************/
                                 ;    2833 uint16_t usb_hstd_GetStringDescriptor1(USB_UTR_t *ptr, uint16_t devaddr, uint16_t index, USB_CB_t complete)
                                 		.LINE  "C:\Workspace\e2studio\git\MT01_master\r_usb_basic\src\driver\host\r_usb_hhubsys.c",2833
000027FF 7100F0                  		ADD #0FFFFFFF0H, R0
00002802 A089                    		MOV.L R1, 0CH[R0]
00002804 910A                    		MOV.W R2, 0AH[R0]
00002806 9103                    		MOV.W R3, 08H[R0]
00002808 A00C                    		MOV.L R4, 04H[R0]
                                 ;    2834 {
                                 ;    2835     usb_hstd_GetStringDesc(ptr, devaddr, (uint16_t)0, complete);
                                 		.LINE  "C:\Workspace\e2studio\git\MT01_master\r_usb_basic\src\driver\host\r_usb_hhubsys.c",2835
0000280A B90A                    		MOVU.W 0AH[R0], R2
0000280C A889                    		MOV.L 0CH[R0], R1
0000280E 6603                    		MOV.L #00000000H, R3
00002810 05rrrrrr             A  		BSR _usb_hstd_GetStringDesc
00002814                         L806:	; entry.split
                                 ;    2836 
                                 ;    2837     return  USB_DONE;
                                 		.LINE  "C:\Workspace\e2studio\git\MT01_master\r_usb_basic\src\driver\host\r_usb_hhubsys.c",2837
00002814 3D0100                  		MOV.W #0000H, 02H[R0]
00002817 9809                    		MOV.W 02H[R0], R1
00002819                         L807:	; entry.split1
                                 ;    2838 }   /* eof usb_hstd_GetStringDescriptor1() */
                                 		.LINE  "C:\Workspace\e2studio\git\MT01_master\r_usb_basic\src\driver\host\r_usb_hhubsys.c",2838
00002819 5F11                    		MOVU.W R1, R1
0000281B 6704                    		RTSD #10H
0000281D                         _usb_hstd_GetStringDescriptor2:
                                 		.STACK	_usb_hstd_GetStringDescriptor2=20
                                 ;    2839 
                                 ;    2840 
                                 ;    2841 /******************************************************************************
                                 ;    2842 Function Name   : usb_hstd_GetStringDescriptor2
                                 ;    2843 Description     : Get String descriptor
                                 ;    2844 Arguments       : uint16_t devaddr          : device address
                                 ;    2845                 : uint16_t index            : descriptor index
                                 ;    2846                 : USB_CB_t complete         : callback
                                 ;    2847 Return value    : uint16_t                  : error info
                                 ;    2848 ******************************************************************************/
                                 ;    2849 uint16_t usb_hstd_GetStringDescriptor2(USB_UTR_t *ptr, uint16_t devaddr, uint16_t index, USB_CB_t complete)
                                 		.LINE  "C:\Workspace\e2studio\git\MT01_master\r_usb_basic\src\driver\host\r_usb_hhubsys.c",2849
0000281D 7100F0                  		ADD #0FFFFFFF0H, R0
00002820 A089                    		MOV.L R1, 0CH[R0]
00002822 910A                    		MOV.W R2, 0AH[R0]
00002824 9103                    		MOV.W R3, 08H[R0]
00002826 A00C                    		MOV.L R4, 04H[R0]
                                 ;    2850 {
                                 ;    2851     usb_hstd_GetStringDesc(ptr, devaddr, index, complete);
                                 		.LINE  "C:\Workspace\e2studio\git\MT01_master\r_usb_basic\src\driver\host\r_usb_hhubsys.c",2851
00002828 B903                    		MOVU.W 08H[R0], R3
0000282A B90A                    		MOVU.W 0AH[R0], R2
0000282C A889                    		MOV.L 0CH[R0], R1
0000282E 05rrrrrr             A  		BSR _usb_hstd_GetStringDesc
00002832                         L809:	; entry.split
                                 ;    2852 
                                 ;    2853     return  USB_DONE;
                                 		.LINE  "C:\Workspace\e2studio\git\MT01_master\r_usb_basic\src\driver\host\r_usb_hhubsys.c",2853
00002832 3D0100                  		MOV.W #0000H, 02H[R0]
00002835 9809                    		MOV.W 02H[R0], R1
00002837                         L810:	; entry.split1
                                 ;    2854 }   /* eof usb_hstd_GetStringDescriptor2() */
                                 		.LINE  "C:\Workspace\e2studio\git\MT01_master\r_usb_basic\src\driver\host\r_usb_hhubsys.c",2854
00002837 5F11                    		MOVU.W R1, R1
00002839 6704                    		RTSD #10H
0000283B                         _usb_hstd_GetStringDescriptor1Check:
                                 		.STACK	_usb_hstd_GetStringDescriptor1Check=12
                                 ;    2855 
                                 ;    2856 
                                 ;    2857 /******************************************************************************
                                 ;    2858 Function Name   : usb_hstd_GetStringDescriptor1Check
                                 ;    2859 Description     : Get String descriptor Check
                                 ;    2860 Arguments       : uint16_t errcheck         : errcheck
                                 ;    2861 Return value    : uint16_t                  : error info
                                 ;    2862 ******************************************************************************/
                                 ;    2863 uint16_t usb_hstd_GetStringDescriptor1Check(uint16_t errcheck)
                                 		.LINE  "C:\Workspace\e2studio\git\MT01_master\r_usb_basic\src\driver\host\r_usb_hhubsys.c",2863
0000283B 6080                    		SUB #08H, R0
0000283D 9089                    		MOV.W R1, 06H[R0]
                                 ;    2864 {
                                 ;    2865     if( (USB_ER_t)USB_DATA_STALL == errcheck )
                                 		.LINE  "C:\Workspace\e2studio\git\MT01_master\r_usb_basic\src\driver\host\r_usb_hhubsys.c",2865
0000283F B889                    		MOVU.W 06H[R0], R1
00002841 6161                    		CMP #06H, R1
00002843 18                   S  		BNE L813
00002844                         L812:	; bb2
                                 ;    2866     {
                                 ;    2867         USB_PRINTF0("*** LanguageID  not support !\n");
                                 ;    2868         return USB_ERROR;
                                 		.LINE  "C:\Workspace\e2studio\git\MT01_master\r_usb_basic\src\driver\host\r_usb_hhubsys.c",2868
00002844 F90901FFFF              		MOV.W #0FFFFH, 02H[R0]
00002849 2Err                 B  		BRA L816
0000284B                         L813:	; bb5
                                 ;    2869     }
                                 ;    2870     else if( (USB_ER_t)USB_CTRL_END != errcheck )
                                 		.LINE  "C:\Workspace\e2studio\git\MT01_master\r_usb_basic\src\driver\host\r_usb_hhubsys.c",2870
0000284B B889                    		MOVU.W 06H[R0], R1
0000284D 6101                    		CMP #00H, R1
0000284F 10                   S  		BEQ L815
00002850                         L814:	; bb6
                                 ;    2871     {
                                 ;    2872         USB_PRINTF0("*** LanguageID  not support !\n");
                                 ;    2873         return USB_ERROR;
                                 		.LINE  "C:\Workspace\e2studio\git\MT01_master\r_usb_basic\src\driver\host\r_usb_hhubsys.c",2873
00002850 F90901FFFF              		MOV.W #0FFFFH, 02H[R0]
00002855 08                   S  		BRA L816
00002856                         L815:	; bb19
                                 ;    2874     }
                                 ;    2875     else
                                 ;    2876     {
                                 ;    2877     }
                                 ;    2878 
                                 ;    2879     return  USB_DONE;
                                 		.LINE  "C:\Workspace\e2studio\git\MT01_master\r_usb_basic\src\driver\host\r_usb_hhubsys.c",2879
00002856 3D0100                  		MOV.W #0000H, 02H[R0]
00002859                         L816:	; bb21
00002859 D5000102                		MOV.W 02H[R0], 04H[R0]
                                 ;    2880 }   /* eof usb_hstd_GetStringDescriptor1Check() */
                                 		.LINE  "C:\Workspace\e2studio\git\MT01_master\r_usb_basic\src\driver\host\r_usb_hhubsys.c",2880
0000285D B881                    		MOVU.W 04H[R0], R1
0000285F 6702                    		RTSD #08H
00002861                         _usb_hstd_GetStringDescriptor2Check:
                                 		.STACK	_usb_hstd_GetStringDescriptor2Check=12
                                 ;    2881 
                                 ;    2882 
                                 ;    2883 /******************************************************************************
                                 ;    2884 Function Name   : usb_hstd_GetStringDescriptor2Check
                                 ;    2885 Description     : Get String descriptor Check
                                 ;    2886 Arguments       : uint16_t errcheck         : errcheck
                                 ;    2887 Return value    : uint16_t                  : error info
                                 ;    2888 ******************************************************************************/
                                 ;    2889 uint16_t usb_hstd_GetStringDescriptor2Check(uint16_t errcheck)
                                 		.LINE  "C:\Workspace\e2studio\git\MT01_master\r_usb_basic\src\driver\host\r_usb_hhubsys.c",2889
00002861 6080                    		SUB #08H, R0
00002863 9089                    		MOV.W R1, 06H[R0]
                                 ;    2890 {
                                 ;    2891     if( (USB_ER_t)USB_DATA_STALL == errcheck )
                                 		.LINE  "C:\Workspace\e2studio\git\MT01_master\r_usb_basic\src\driver\host\r_usb_hhubsys.c",2891
00002865 B889                    		MOVU.W 06H[R0], R1
00002867 6161                    		CMP #06H, R1
00002869 18                   S  		BNE L819
0000286A                         L818:	; bb2
                                 ;    2892     {
                                 ;    2893         USB_PRINTF0("*** SerialNumber not support !\n");
                                 ;    2894         return USB_ERROR;
                                 		.LINE  "C:\Workspace\e2studio\git\MT01_master\r_usb_basic\src\driver\host\r_usb_hhubsys.c",2894
0000286A F90901FFFF              		MOV.W #0FFFFH, 02H[R0]
0000286F 2Err                 B  		BRA L822
00002871                         L819:	; bb5
                                 ;    2895     }
                                 ;    2896     else if( (USB_ER_t)USB_CTRL_END != errcheck )
                                 		.LINE  "C:\Workspace\e2studio\git\MT01_master\r_usb_basic\src\driver\host\r_usb_hhubsys.c",2896
00002871 B889                    		MOVU.W 06H[R0], R1
00002873 6101                    		CMP #00H, R1
00002875 10                   S  		BEQ L821
00002876                         L820:	; bb6
                                 ;    2897     {
                                 ;    2898         USB_PRINTF0("*** SerialNumber not support !\n");
                                 ;    2899         return USB_ERROR;
                                 		.LINE  "C:\Workspace\e2studio\git\MT01_master\r_usb_basic\src\driver\host\r_usb_hhubsys.c",2899
00002876 F90901FFFF              		MOV.W #0FFFFH, 02H[R0]
0000287B 08                   S  		BRA L822
0000287C                         L821:	; bb19
                                 ;    2900     }
                                 ;    2901     else
                                 ;    2902     {
                                 ;    2903     }
                                 ;    2904 
                                 ;    2905     return USB_DONE;
                                 		.LINE  "C:\Workspace\e2studio\git\MT01_master\r_usb_basic\src\driver\host\r_usb_hhubsys.c",2905
0000287C 3D0100                  		MOV.W #0000H, 02H[R0]
0000287F                         L822:	; bb21
0000287F D5000102                		MOV.W 02H[R0], 04H[R0]
                                 ;    2906 }   /* eof usb_hstd_GetStringDescriptor2Check() */
                                 		.LINE  "C:\Workspace\e2studio\git\MT01_master\r_usb_basic\src\driver\host\r_usb_hhubsys.c",2906
00002883 B881                    		MOVU.W 04H[R0], R1
00002885 6702                    		RTSD #08H
00002887                         __$usb_hhub_GetNewDevaddr:
                                 		.STACK	__$usb_hhub_GetNewDevaddr=16
                                 ;    2907 
                                 ;    2908 
                                 ;    2909 /******************************************************************************
                                 ;    2910 Function Name   : usb_hhub_GetNewDevaddr
                                 ;    2911 Description     : Get the new device address
                                 ;    2912                 : when connection of a device detected in the down port of HUB
                                 ;    2913 Arguments       : none
                                 ;    2914 Return value    : uint16_t                  : New device address
                                 ;    2915 ******************************************************************************/
                                 ;    2916 uint16_t usb_hhub_GetNewDevaddr(USB_UTR_t *ptr)
                                 		.LINE  "C:\Workspace\e2studio\git\MT01_master\r_usb_basic\src\driver\host\r_usb_hhubsys.c",2916
00002887 60C0                    		SUB #0CH, R0
00002889 A081                    		MOV.L R1, 08H[R0]
                                 ;    2917 {
                                 ;    2918     uint16_t i;
                                 ;    2919 
                                 ;    2920     /* Search new device */
                                 ;    2921     for( i = (USB_HUBDPADDR); i < (USB_MAXDEVADDR + 1u); i++ )
                                 		.LINE  "C:\Workspace\e2studio\git\MT01_master\r_usb_basic\src\driver\host\r_usb_hhubsys.c",2921
0000288B 3D0202                  		MOV.W #0002H, 04H[R0]
0000288E 2Err                 B  		BRA L827
00002890                         L824:	; bb3
                                 ;    2922     {
                                 ;    2923         if( 0 == usb_shhub_InfoData[ptr->ip][i].up_addr )
                                 		.LINE  "C:\Workspace\e2studio\git\MT01_master\r_usb_basic\src\driver\host\r_usb_hhubsys.c",2923
00002890 A881                    		MOV.L 08H[R0], R1
00002892 B991                    		MOVU.W 0CH[R1], R1
00002894 751158                  		MUL #58H, R1
00002897 FBE2rrrrrrrr            		MOV.L #_usb_shhub_InfoData, R14
0000289D 4B1E                    		ADD R1, R14
0000289F B881                    		MOVU.W 04H[R0], R1
000028A1 FDC31F                  		SHLL #03H, R1, R15
000028A4 4BFE                    		ADD R15, R14
000028A6 5CEE                    		MOVU.W [R14], R14
000028A8 610E                    		CMP #00H, R14
000028AA 18                   S  		BNE L826
000028AB                         L825:	; bb4
                                 ;    2924         {
                                 ;    2925             /* New device address */
                                 ;    2926             return i;
                                 		.LINE  "C:\Workspace\e2studio\git\MT01_master\r_usb_basic\src\driver\host\r_usb_hhubsys.c",2926
000028AB 9009                    		MOV.W R1, 02H[R0]
000028AD 2Err                 B  		BRA L829
000028AF                         L826:	; bb21
000028AF 6211                    		ADD #01H, R1
000028B1 9081                    		MOV.W R1, 04H[R0]
000028B3                         L827:	; bb24
                                 		.LINE  "C:\Workspace\e2studio\git\MT01_master\r_usb_basic\src\driver\host\r_usb_hhubsys.c",2921
000028B3 B881                    		MOVU.W 04H[R0], R1
000028B5 61B1                    		CMP #0BH, R1
000028B7 23rr                    		BLTU L824
000028B9                         L828:	; bb30
                                 ;    2927         }
                                 ;    2928     }
                                 ;    2929     return 0;
                                 		.LINE  "C:\Workspace\e2studio\git\MT01_master\r_usb_basic\src\driver\host\r_usb_hhubsys.c",2929
000028B9 3D0100                  		MOV.W #0000H, 02H[R0]
000028BC                         L829:	; bb32
000028BC D5000103                		MOV.W 02H[R0], 06H[R0]
                                 ;    2930 }   /* eof usb_hhub_GetNewDevaddr() */
                                 		.LINE  "C:\Workspace\e2studio\git\MT01_master\r_usb_basic\src\driver\host\r_usb_hhubsys.c",2930
000028C0 B889                    		MOVU.W 06H[R0], R1
000028C2 6703                    		RTSD #0CH
000028C4                         __$usb_hhub_GetHubaddr:
                                 		.STACK	__$usb_hhub_GetHubaddr=16
                                 ;    2931 
                                 ;    2932 
                                 ;    2933 /******************************************************************************
                                 ;    2934 Function Name   : usb_hhub_GetHubaddr
                                 ;    2935 Description     : Get the HUB address
                                 ;    2936                 : from the pipe number for HUB notification
                                 ;    2937 Arguments       : uint16_t pipenum          : pipe number
                                 ;    2938 Return value    : uint16_t                  : HUB address
                                 ;    2939 ******************************************************************************/
                                 ;    2940 uint16_t usb_hhub_GetHubaddr(USB_UTR_t *ptr, uint16_t pipenum)
                                 		.LINE  "C:\Workspace\e2studio\git\MT01_master\r_usb_basic\src\driver\host\r_usb_hhubsys.c",2940
000028C4 60C0                    		SUB #0CH, R0
000028C6 A081                    		MOV.L R1, 08H[R0]
000028C8 908A                    		MOV.W R2, 06H[R0]
                                 ;    2941 {
                                 ;    2942     uint16_t    i;
                                 ;    2943 
                                 ;    2944     for( i = 1; i < (USB_MAXDEVADDR + 1u); i++ )
                                 		.LINE  "C:\Workspace\e2studio\git\MT01_master\r_usb_basic\src\driver\host\r_usb_hhubsys.c",2944
000028CA 3D0101                  		MOV.W #0001H, 02H[R0]
000028CD 2Err                 B  		BRA L834
000028CF                         L831:	; bb4
                                 ;    2945     {
                                 ;    2946         if( usb_shhub_InfoData[ptr->ip][i].pipe_num == pipenum )
                                 		.LINE  "C:\Workspace\e2studio\git\MT01_master\r_usb_basic\src\driver\host\r_usb_hhubsys.c",2946
000028CF A881                    		MOV.L 08H[R0], R1
000028D1 B991                    		MOVU.W 0CH[R1], R1
000028D3 751158                  		MUL #58H, R1
000028D6 FB22rrrrrrrr            		MOV.L #_usb_shhub_InfoData, R2
000028DC 4B12                    		ADD R1, R2
000028DE B809                    		MOVU.W 02H[R0], R1
000028E0 FDC31E                  		SHLL #03H, R1, R14
000028E3 4BE2                    		ADD R14, R2
000028E5 B8AA                    		MOVU.W 06H[R2], R2
000028E7 06C50203                		CMP 06H[R0].UW, R2
000028EB 18                   S  		BNE L833
000028EC                         L832:	; bb5
                                 ;    2947         {
                                 ;    2948             /* HUB address */
                                 ;    2949             return i;
                                 		.LINE  "C:\Workspace\e2studio\git\MT01_master\r_usb_basic\src\driver\host\r_usb_hhubsys.c",2949
000028EC D301                    		MOV.W R1, [R0]
000028EE 2Err                 B  		BRA L836
000028F0                         L833:	; bb24
000028F0 6211                    		ADD #01H, R1
000028F2 9009                    		MOV.W R1, 02H[R0]
000028F4                         L834:	; bb27
                                 		.LINE  "C:\Workspace\e2studio\git\MT01_master\r_usb_basic\src\driver\host\r_usb_hhubsys.c",2944
000028F4 B809                    		MOVU.W 02H[R0], R1
000028F6 61B1                    		CMP #0BH, R1
000028F8 23rr                    		BLTU L831
000028FA                         L835:	; bb33
                                 ;    2950         }
                                 ;    2951     }
                                 ;    2952     return 0;
                                 		.LINE  "C:\Workspace\e2studio\git\MT01_master\r_usb_basic\src\driver\host\r_usb_hhubsys.c",2952
000028FA F80500                  		MOV.W #0000H, [R0]
000028FD                         L836:	; bb35
000028FD D40002                  		MOV.W [R0], 04H[R0]
                                 ;    2953 }   /* eof usb_hhub_GetHubaddr() */
                                 		.LINE  "C:\Workspace\e2studio\git\MT01_master\r_usb_basic\src\driver\host\r_usb_hhubsys.c",2953
00002900 B881                    		MOVU.W 04H[R0], R1
00002902 6703                    		RTSD #0CH
00002904                         __$usb_hhub_GetCnnDevaddr:
                                 		.STACK	__$usb_hhub_GetCnnDevaddr=24
                                 ;    2954 
                                 ;    2955 
                                 ;    2956 /******************************************************************************
                                 ;    2957 Function Name   : usb_hhub_GetCnnDevaddr
                                 ;    2958 Description     : Get the connected device address
                                 ;    2959                 : from the HUB address and the down port number of a HUB
                                 ;    2960 Arguments       : uint16_t hubaddr          : hub address
                                 ;    2961                 : uint16_t portnum          : down port number
                                 ;    2962 Return value    : uint16_t                  : Connected device address
                                 ;    2963 ******************************************************************************/
                                 ;    2964 uint16_t usb_hhub_GetCnnDevaddr(USB_UTR_t *ptr, uint16_t hubaddr, uint16_t portnum)
                                 		.LINE  "C:\Workspace\e2studio\git\MT01_master\r_usb_basic\src\driver\host\r_usb_hhubsys.c",2964
00002904 7100EC                  		ADD #0FFFFFFECH, R0
00002907 A101                    		MOV.L R1, 10H[R0]
00002909 918A                    		MOV.W R2, 0EH[R0]
0000290B 9183                    		MOV.W R3, 0CH[R0]
                                 ;    2965 {
                                 ;    2966     uint16_t    i;
                                 ;    2967 
                                 ;    2968     for( i = (USB_HUBDPADDR); i < (USB_MAXDEVADDR + 1u); i++ )
                                 		.LINE  "C:\Workspace\e2studio\git\MT01_master\r_usb_basic\src\driver\host\r_usb_hhubsys.c",2968
0000290D 3D0402                  		MOV.W #0002H, 08H[R0]
00002910 2Err                 B  		BRA L845
00002912                         L838:	; bb5
                                 ;    2969     {
                                 ;    2970         if( ( usb_shhub_InfoData[ptr->ip][i].up_addr == hubaddr ) &&
                                 		.LINE  "C:\Workspace\e2studio\git\MT01_master\r_usb_basic\src\driver\host\r_usb_hhubsys.c",2970
00002912 A901                    		MOV.L 10H[R0], R1
00002914 B991                    		MOVU.W 0CH[R1], R1
00002916 751158                  		MUL #58H, R1
00002919 FBE2rrrrrrrr            		MOV.L #_usb_shhub_InfoData, R14
0000291F 4B1E                    		ADD R1, R14
00002921 B901                    		MOVU.W 08H[R0], R1
00002923 6C31                    		SHLL #03H, R1
00002925 4B1E                    		ADD R1, R14
00002927 5CEE                    		MOVU.W [R14], R14
00002929 06C50E07                		CMP 0EH[R0].UW, R14
0000292D 10                   S  		BEQ L840
0000292E 2Err                 B  		BRA L842
00002930                         L839:	; bb6
                                 ;    2971             ( usb_shhub_InfoData[ptr->ip][i].up_port_num == portnum ) )
                                 ;    2972         {
                                 ;    2973             /* Device address */
                                 ;    2974             return i;
                                 		.LINE  "C:\Workspace\e2studio\git\MT01_master\r_usb_basic\src\driver\host\r_usb_hhubsys.c",2974
00002930 9089                    		MOV.W R1, 06H[R0]
00002932 2Err                 B  		BRA L847
00002934                         L840:	; bb25
00002934 A901                    		MOV.L 10H[R0], R1
00002936 B991                    		MOVU.W 0CH[R1], R1
00002938 751158                  		MUL #58H, R1
0000293B FB22rrrrrrrr            		MOV.L #_usb_shhub_InfoData, R2
00002941 4B12                    		ADD R1, R2
00002943 B901                    		MOVU.W 08H[R0], R1
00002945 6C31                    		SHLL #03H, R1
00002947 4B12                    		ADD R1, R2
00002949 B829                    		MOVU.W 02H[R2], R1
0000294B 06C50106                		CMP 0CH[R0].UW, R1
0000294F 18                   S  		BNE L842
00002950                         L841:	; bb42
00002950 F80601                  		MOV.L #00000001H, [R0]
00002953 08                   S  		BRA L843
00002954                         L842:	; bb43
00002954 F80600                  		MOV.L #00000000H, [R0]
00002957                         L843:	; bb44
00002957 EC01                    		MOV.L [R0], R1
00002959 6101                    		CMP #00H, R1
0000295B 9901                    		MOV.W 08H[R0], R1
0000295D 21rr                    		BNE L839
0000295F                         L844:	; bb48
0000295F 6211                    		ADD #01H, R1
00002961 9101                    		MOV.W R1, 08H[R0]
00002963                         L845:	; bb51
                                 		.LINE  "C:\Workspace\e2studio\git\MT01_master\r_usb_basic\src\driver\host\r_usb_hhubsys.c",2968
00002963 B901                    		MOVU.W 08H[R0], R1
00002965 61B1                    		CMP #0BH, R1
00002967 23rr                    		BLTU L838
00002969                         L846:	; bb57
                                 ;    2975         }
                                 ;    2976     }
                                 ;    2977     return 0;
                                 		.LINE  "C:\Workspace\e2studio\git\MT01_master\r_usb_basic\src\driver\host\r_usb_hhubsys.c",2977
00002969 3D0300                  		MOV.W #0000H, 06H[R0]
0000296C                         L847:	; bb59
0000296C D5000305                		MOV.W 06H[R0], 0AH[R0]
                                 ;    2978 }   /* eof usb_hhub_GetCnnDevaddr() */
                                 		.LINE  "C:\Workspace\e2studio\git\MT01_master\r_usb_basic\src\driver\host\r_usb_hhubsys.c",2978
00002970 B909                    		MOVU.W 0AH[R0], R1
00002972 6705                    		RTSD #14H
00002974                         __$usb_hhub_SpecifiedPath:
                                 		.STACK	__$usb_hhub_SpecifiedPath=20
                                 ;    2979 
                                 ;    2980 
                                 ;    2981 /******************************************************************************
                                 ;    2982 Function Name   : usb_hhub_SpecifiedPath
                                 ;    2983 Description     : Next Process Selector
                                 ;    2984 Arguments       : USB_CLSINFO_t *ptr    : USB system internal message.
                                 ;    2985 Return value    : none
                                 ;    2986 ******************************************************************************/
                                 ;    2987 void usb_hhub_SpecifiedPath(USB_CLSINFO_t *ptr)
                                 		.LINE  "C:\Workspace\e2studio\git\MT01_master\r_usb_basic\src\driver\host\r_usb_hhubsys.c",2987
00002974 7100F0                  		ADD #0FFFFFFF0H, R0
00002977 A089                    		MOV.L R1, 0CH[R0]
00002979 EF02                    		MOV.L R0, R2
0000297B 6631                    		MOV.L #00000003H, R1
                                 ;    2988 {
                                 ;    2989     USB_MH_t            p_blf;
                                 ;    2990     USB_ER_t            err;
                                 ;    2991     USB_CLSINFO_t       *cp;
                                 ;    2992 
                                 ;    2993     /* Get mem pool blk */
                                 ;    2994     if( USB_OK == USB_PGET_BLK( USB_HUB_MPL, &p_blf) )
                                 		.LINE  "C:\Workspace\e2studio\git\MT01_master\r_usb_basic\src\driver\host\r_usb_hhubsys.c",2994
0000297D 05rrrrrr             A  		BSR _usb_cstd_PgetBlk
00002981 6101                    		CMP #00H, R1
00002983 21rr                    		BNE L858
00002985                         L849:	; bb5
                                 ;    2995     {
                                 ;    2996         cp = (USB_CLSINFO_t*)p_blf;
                                 		.LINE  "C:\Workspace\e2studio\git\MT01_master\r_usb_basic\src\driver\host\r_usb_hhubsys.c",2996
00002985 E40002                  		MOV.L [R0], 08H[R0]
00002988                         L850:	; bb5.split
                                 ;    2997         cp->msginfo = usb_shhub_Process[ptr->ip];
                                 		.LINE  "C:\Workspace\e2studio\git\MT01_master\r_usb_basic\src\driver\host\r_usb_hhubsys.c",2997
00002988 A889                    		MOV.L 0CH[R0], R1
0000298A B991                    		MOVU.W 0CH[R1], R1
0000298C FBE2rrrrrrrr            		MOV.L #_usb_shhub_Process, R14
00002992 FE51E1                  		MOV.W [R1,R14], R1
00002995 A882                    		MOV.L 08H[R0], R2
00002997 90A1                    		MOV.W R1, 04H[R2]
00002999                         L851:	; bb5.split1
                                 ;    2998         cp->keyword = ptr->keyword;
                                 		.LINE  "C:\Workspace\e2studio\git\MT01_master\r_usb_basic\src\driver\host\r_usb_hhubsys.c",2998
00002999 A889                    		MOV.L 0CH[R0], R1
0000299B A882                    		MOV.L 08H[R0], R2
0000299D D5120303                		MOV.W 06H[R1], 06H[R2]
000029A1                         L852:	; bb5.split2
                                 ;    2999         cp->result  = ptr->result;
                                 		.LINE  "C:\Workspace\e2studio\git\MT01_master\r_usb_basic\src\driver\host\r_usb_hhubsys.c",2999
000029A1 A889                    		MOV.L 0CH[R0], R1
000029A3 A882                    		MOV.L 08H[R0], R2
000029A5 D5120707                		MOV.W 0EH[R1], 0EH[R2]
000029A9                         L853:	; bb5.split3
                                 ;    3000 
                                 ;    3001         cp->ipp = ptr->ipp;
                                 		.LINE  "C:\Workspace\e2studio\git\MT01_master\r_usb_basic\src\driver\host\r_usb_hhubsys.c",3001
000029A9 A889                    		MOV.L 0CH[R0], R1
000029AB A882                    		MOV.L 08H[R0], R2
000029AD E5120202                		MOV.L 08H[R1], 08H[R2]
000029B1                         L854:	; bb5.split4
                                 ;    3002         cp->ip  = ptr->ip;
                                 		.LINE  "C:\Workspace\e2studio\git\MT01_master\r_usb_basic\src\driver\host\r_usb_hhubsys.c",3002
000029B1 A889                    		MOV.L 0CH[R0], R1
000029B3 A882                    		MOV.L 08H[R0], R2
000029B5 D5120606                		MOV.W 0CH[R1], 0CH[R2]
000029B9                         L855:	; bb5.split5
                                 ;    3003         
                                 ;    3004         /* Send message */
                                 ;    3005         err = USB_SND_MSG( USB_HUB_MBX, (USB_MSG_t*)p_blf );
                                 		.LINE  "C:\Workspace\e2studio\git\MT01_master\r_usb_basic\src\driver\host\r_usb_hhubsys.c",3005
000029B9 EC02                    		MOV.L [R0], R2
000029BB 6631                    		MOV.L #00000003H, R1
000029BD 05rrrrrr             A  		BSR _usb_cstd_SndMsg
000029C1 A009                    		MOV.L R1, 04H[R0]
000029C3                         L856:	; bb5.split6
                                 ;    3006         if( USB_OK != err )
                                 		.LINE  "C:\Workspace\e2studio\git\MT01_master\r_usb_basic\src\driver\host\r_usb_hhubsys.c",3006
000029C3 A809                    		MOV.L 04H[R0], R1
000029C5 6101                    		CMP #00H, R1
000029C7 20rr                    		BEQ L859
000029C9                         L857:	; bb41
                                 ;    3007         {
                                 ;    3008             /* Send message failure */
                                 ;    3009             err = USB_REL_BLK(USB_HUB_MPL,(USB_MH_t)p_blf);
                                 		.LINE  "C:\Workspace\e2studio\git\MT01_master\r_usb_basic\src\driver\host\r_usb_hhubsys.c",3009
000029C9 EC02                    		MOV.L [R0], R2
000029CB 6631                    		MOV.L #00000003H, R1
000029CD 05rrrrrr             A  		BSR _usb_cstd_RelBlk
000029D1 A009                    		MOV.L R1, 04H[R0]
000029D3 6704                    		RTSD #10H
000029D5                         L858:	; bb51
                                 ;    3010             USB_PRINTF0("### SpecifiedPass function snd_msg error\n");
                                 ;    3011         }
                                 ;    3012     }
                                 ;    3013     else
                                 ;    3014     {
                                 ;    3015         /* Get memoryblock failure */
                                 ;    3016         USB_PRINTF0("### SpecifiedPass function pget_blk error\n");
                                 ;    3017         while( 1 );
                                 		.LINE  "C:\Workspace\e2studio\git\MT01_master\r_usb_basic\src\driver\host\r_usb_hhubsys.c",3017
000029D5 2Err                 B  		BRA L858
000029D7                         L859:	; return
                                 ;    3018     }
                                 ;    3019 }   /* eof usb_hhub_SpecifiedPath() */
                                 		.LINE  "C:\Workspace\e2studio\git\MT01_master\r_usb_basic\src\driver\host\r_usb_hhubsys.c",3019
000029D7 6704                    		RTSD #10H
000029D9                         __$usb_hhub_SpecifiedPathWait:
                                 		.STACK	__$usb_hhub_SpecifiedPathWait=24
                                 ;    3020 
                                 ;    3021 
                                 ;    3022 /******************************************************************************
                                 ;    3023 Function Name   : usb_hhub_SpecifiedPathWait
                                 ;    3024 Description     : Next Process Selector
                                 ;    3025 Arguments       : USB_CLSINFO_t *mess    : USB system internal message.
                                 ;    3026                 : uint16_t times         : Timeout value.
                                 ;    3027 Return value    : none
                                 ;    3028 ******************************************************************************/
                                 ;    3029 void usb_hhub_SpecifiedPathWait(USB_CLSINFO_t *ptr, uint16_t times)
                                 		.LINE  "C:\Workspace\e2studio\git\MT01_master\r_usb_basic\src\driver\host\r_usb_hhubsys.c",3029
000029D9 7100EC                  		ADD #0FFFFFFECH, R0
000029DC A101                    		MOV.L R1, 10H[R0]
000029DE 918A                    		MOV.W R2, 0EH[R0]
000029E0 EF02                    		MOV.L R0, R2
000029E2 6631                    		MOV.L #00000003H, R1
                                 ;    3030 {
                                 ;    3031     USB_MH_t            p_blf;
                                 ;    3032     USB_ER_t            err;
                                 ;    3033     USB_CLSINFO_t       *hp;
                                 ;    3034 
                                 ;    3035     /* Get mem pool blk */
                                 ;    3036     if( USB_OK == USB_PGET_BLK( USB_HUB_MPL, &p_blf) )
                                 		.LINE  "C:\Workspace\e2studio\git\MT01_master\r_usb_basic\src\driver\host\r_usb_hhubsys.c",3036
000029E4 05rrrrrr             A  		BSR _usb_cstd_PgetBlk
000029E8 6101                    		CMP #00H, R1
000029EA 21rr                    		BNE L870
000029EC                         L861:	; bb6
                                 ;    3037     {
                                 ;    3038         hp = (USB_CLSINFO_t*)p_blf;
                                 		.LINE  "C:\Workspace\e2studio\git\MT01_master\r_usb_basic\src\driver\host\r_usb_hhubsys.c",3038
000029EC E40002                  		MOV.L [R0], 08H[R0]
000029EF                         L862:	; bb6.split
                                 ;    3039         hp->msginfo = usb_shhub_Process[ptr->ip];
                                 		.LINE  "C:\Workspace\e2studio\git\MT01_master\r_usb_basic\src\driver\host\r_usb_hhubsys.c",3039
000029EF A901                    		MOV.L 10H[R0], R1
000029F1 B991                    		MOVU.W 0CH[R1], R1
000029F3 FBE2rrrrrrrr            		MOV.L #_usb_shhub_Process, R14
000029F9 FE51E1                  		MOV.W [R1,R14], R1
000029FC A882                    		MOV.L 08H[R0], R2
000029FE 90A1                    		MOV.W R1, 04H[R2]
00002A00                         L863:	; bb6.split1
                                 ;    3040         hp->keyword = ptr->keyword;
                                 		.LINE  "C:\Workspace\e2studio\git\MT01_master\r_usb_basic\src\driver\host\r_usb_hhubsys.c",3040
00002A00 A901                    		MOV.L 10H[R0], R1
00002A02 A882                    		MOV.L 08H[R0], R2
00002A04 D5120303                		MOV.W 06H[R1], 06H[R2]
00002A08                         L864:	; bb6.split2
                                 ;    3041         hp->result  = ptr->result;
                                 		.LINE  "C:\Workspace\e2studio\git\MT01_master\r_usb_basic\src\driver\host\r_usb_hhubsys.c",3041
00002A08 A901                    		MOV.L 10H[R0], R1
00002A0A A882                    		MOV.L 08H[R0], R2
00002A0C D5120707                		MOV.W 0EH[R1], 0EH[R2]
00002A10                         L865:	; bb6.split3
                                 ;    3042 
                                 ;    3043         hp->ipp = ptr->ipp;
                                 		.LINE  "C:\Workspace\e2studio\git\MT01_master\r_usb_basic\src\driver\host\r_usb_hhubsys.c",3043
00002A10 A901                    		MOV.L 10H[R0], R1
00002A12 A882                    		MOV.L 08H[R0], R2
00002A14 E5120202                		MOV.L 08H[R1], 08H[R2]
00002A18                         L866:	; bb6.split4
                                 ;    3044         hp->ip  = ptr->ip;
                                 		.LINE  "C:\Workspace\e2studio\git\MT01_master\r_usb_basic\src\driver\host\r_usb_hhubsys.c",3044
00002A18 A901                    		MOV.L 10H[R0], R1
00002A1A A882                    		MOV.L 08H[R0], R2
00002A1C D5120606                		MOV.W 0CH[R1], 0CH[R2]
00002A20                         L867:	; bb6.split5
                                 ;    3045 
                                 ;    3046         /* Wait message */
                                 ;    3047         err = USB_WAI_MSG( USB_HUB_MBX, (USB_MSG_t*)p_blf, times );
                                 		.LINE  "C:\Workspace\e2studio\git\MT01_master\r_usb_basic\src\driver\host\r_usb_hhubsys.c",3047
00002A20 B98B                    		MOVU.W 0EH[R0], R3
00002A22 EC02                    		MOV.L [R0], R2
00002A24 6631                    		MOV.L #00000003H, R1
00002A26 05rrrrrr             A  		BSR _usb_cstd_WaiMsg
00002A2A A009                    		MOV.L R1, 04H[R0]
00002A2C                         L868:	; bb6.split6
                                 ;    3048         if( USB_OK != err )
                                 		.LINE  "C:\Workspace\e2studio\git\MT01_master\r_usb_basic\src\driver\host\r_usb_hhubsys.c",3048
00002A2C A809                    		MOV.L 04H[R0], R1
00002A2E 6101                    		CMP #00H, R1
00002A30 20rr                    		BEQ L871
00002A32                         L869:	; bb44
                                 ;    3049         {
                                 ;    3050             /* Wait message failure */
                                 ;    3051             err = USB_REL_BLK(USB_HUB_MPL,(USB_MH_t)p_blf);
                                 		.LINE  "C:\Workspace\e2studio\git\MT01_master\r_usb_basic\src\driver\host\r_usb_hhubsys.c",3051
00002A32 EC02                    		MOV.L [R0], R2
00002A34 6631                    		MOV.L #00000003H, R1
00002A36 05rrrrrr             A  		BSR _usb_cstd_RelBlk
00002A3A A009                    		MOV.L R1, 04H[R0]
00002A3C 6705                    		RTSD #14H
00002A3E                         L870:	; bb54
                                 ;    3052             USB_PRINTF0("### SpecifiedPassWait function snd_msg error\n");
                                 ;    3053         }
                                 ;    3054     }
                                 ;    3055     else
                                 ;    3056     {
                                 ;    3057         USB_PRINTF0("### SpecifiedPassWait function pget_blk error\n");
                                 ;    3058         while( 1 );
                                 		.LINE  "C:\Workspace\e2studio\git\MT01_master\r_usb_basic\src\driver\host\r_usb_hhubsys.c",3058
00002A3E 2Err                 B  		BRA L870
00002A40                         L871:	; return
                                 ;    3059     }
                                 ;    3060 }   /* eof usb_hhub_SpecifiedPathWait() */
                                 		.LINE  "C:\Workspace\e2studio\git\MT01_master\r_usb_basic\src\driver\host\r_usb_hhubsys.c",3060
00002A40 6705                    		RTSD #14H
                                 ;    3061 
                                 ;    3062 #endif  /* USB_FUNCSEL_USBIP0_PP == USB_HOST_PP || USB_FUNCSEL_USBIP1_PP == USB_HOST_PP */
                                 ;    3063 
                                 ;    3064 /******************************************************************************
                                 ;    3065 End  Of File
                                 ;    3066 ******************************************************************************/
                                 		.SECTION	C_2,ROMDATA,ALIGN=2
00000000                         _usb_ghhub_TPL:
00000000 0100                    		.word	0001H
00000002 0000                    		.word	0000H
00000004 FFFF                    		.word	0FFFFH
00000006 FFFF                    		.word	0FFFFH
                                 		.SECTION	D_2,ROMDATA,ALIGN=2
00000000                         _usb_shhub_ClassSeq:
00000000 00                      		.byte	0
00000001 00                      		.byte	0
00000002 00                      		.byte	0
00000003 00                      		.byte	0
00000004                         _usb_shhub_InitSeq:
00000004 00                      		.byte	0
00000005 00                      		.byte	0
00000006 00                      		.byte	0
00000007 00                      		.byte	0
00000008                         _usb_shhub_InitPort:
00000008 0100                    		.word	0001H
0000000A 0100                    		.word	0001H
0000000C                         _usb_shhub_EventSeq:
0000000C 00                      		.byte	0
0000000D 00                      		.byte	0
0000000E 00                      		.byte	0
0000000F 00                      		.byte	0
00000010                         _usb_shhub_EventPort:
00000010 0100                    		.word	0001H
00000012 0100                    		.word	0001H
00000014                         _usb_shhub_AttachSeq:
00000014 00                      		.byte	0
00000015 00                      		.byte	0
00000016 00                      		.byte	0
00000017 00                      		.byte	0
00000018                         _usb_shhub_ResetSeq:
00000018 00                      		.byte	0
00000019 00                      		.byte	0
0000001A 00                      		.byte	0
0000001B 00                      		.byte	0
0000001C                         _usb_shhub_State:
0000001C 00                      		.byte	0
0000001D 00                      		.byte	0
0000001E 00                      		.byte	0
0000001F 00                      		.byte	0
00000020                         _usb_shhub_Info:
00000020 00                      		.byte	0
00000021 00                      		.byte	0
00000022 00                      		.byte	0
00000023 00                      		.byte	0
00000024                         _usb_shhub_HubAddr:
00000024 00                      		.byte	0
00000025 00                      		.byte	0
00000026 00                      		.byte	0
00000027 00                      		.byte	0
00000028                         _usb_shhub_Process:
00000028 00                      		.byte	0
00000029 00                      		.byte	0
0000002A 00                      		.byte	0
0000002B 00                      		.byte	0
0000002C                         _usb_ghhub_DefEPTbl:
0000002C 0900                    		.word	0009H
0000002E 0000                    		.word	0000H
00000030 0700                    		.word	0007H
00000032 0000                    		.word	0000H
00000034 0000                    		.word	0000H
00000036 0000                    		.word	0000H
00000038 FFFF                    		.word	0FFFFH
0000003A 0900                    		.word	0009H
0000003C 0000                    		.word	0000H
0000003E 0700                    		.word	0007H
00000040 0000                    		.word	0000H
00000042 0000                    		.word	0000H
00000044 0000                    		.word	0000H
00000046 FFFF                    		.word	0FFFFH
00000048                         _usb_ghhub_TmpEPTbl:
00000048 0900                    		.word	0009H
0000004A 0000                    		.word	0000H
0000004C 0700                    		.word	0007H
0000004E 0000                    		.word	0000H
00000050 0000                    		.word	0000H
00000052 0000                    		.word	0000H
00000054 FFFF                    		.word	0FFFFH
00000056 0900                    		.word	0009H
00000058 0000                    		.word	0000H
0000005A 0700                    		.word	0007H
0000005C 0000                    		.word	0000H
0000005E 0000                    		.word	0000H
00000060 0000                    		.word	0000H
00000062 FFFF                    		.word	0FFFFH
                                 		.SECTION	B,DATA,ALIGN=4
00000000                         _usb_shhub_ControlMess:
00000000(00000058H)              		.blkl	22
00000058                         _usb_shhub_DataMess:
00000058(000003C8H)              		.blkl	242
00000420                         _usb_shhub_DeviceTable:
00000420(00000008H)              		.blkl	2
00000428                         _usb_shhub_ConfigTable:
00000428(00000008H)              		.blkl	2
00000430                         _usb_shhub_InterfaceTable:
00000430(00000008H)              		.blkl	2
                                 		.SECTION	B_2,DATA,ALIGN=2
00000000                         _usb_shhub_DownPort:
00000000(0000002CH)              		.blkw	22
0000002C                         _usb_shhub_Remote:
0000002C(0000002CH)              		.blkw	22
00000058                         _usb_shhub_InfoData:
00000058(000000B0H)              		.blkw	88
00000108                         _usb_shhub_Number:
00000108(00000004H)              		.blkw	2
0000010C                         _usb_shhub_ClassRequest:
0000010C(00000014H)              		.blkw	10
00000120                         _usb_shhub_Spec:
00000120(00000004H)              		.blkw	2
00000124                         _usb_shhub_Root:
00000124(00000004H)              		.blkw	2
00000128                         _usb_shhub_Speed:
00000128(00000004H)              		.blkw	2
0000012C                         _usb_shhub_DevAddr:
0000012C(00000004H)              		.blkw	2
00000130                         _usb_shhub_Index:
00000130(00000004H)              		.blkw	2
                                 		.SECTION	B_1,DATA
00000000                         _usb_ghhub_Descriptor:
00000000(00000200H)              		.blkb	512
00000200                         _usb_ghhub_Data:
00000200(000000B0H)              		.blkb	176
                                 		.END

Information List

TOTAL ERROR(S)    00000
TOTAL WARNING(S)  00000
TOTAL LINE(S)     09037   LINES

Section List

Attr         Size               Name
CODE     0000010818(00002A42H)  P
ROMDATA  0000000008(00000008H)  C_2
ROMDATA  0000000100(00000064H)  D_2
DATA     0000001080(00000438H)  B
DATA     0000000308(00000134H)  B_2
DATA     0000000688(000002B0H)  B_1

Cpu Type

-ISA=RXV1 -FPU

Command Parameter

-subcommand=C:\Users\LAFONS~1\AppData\Local\Temp\$ccrx4D06\$ccrx\r_usb_hhubsys.src.cmd
    -nologo
    -isa=rxv1
    -fpu
    -show=conditionals,definitions,expansions
    -define=__RXV1=1
    -fint_register=0
    -debug
    -endian=little
-listfile=C:\Workspace\e2studio\git\MT01_master\CompactaXP_build\r_usb_hhubsys.lst
-output=C:\Workspace\e2studio\git\MT01_master\CompactaXP_build\r_usb_basic\src\driver\host\r_usb_hhubsys.obj
