* RX FAMILY ASSEMBLER V2.03.00.01 [24 Oct 2014] *  SOURCE LIST  Mon Mar 20 17:54:13 2017

LOC.     OBJ.              0XMDA SOURCE STATEMENT

                                 ;RX Family C/C++ Compiler (V2.03.00.03 [04 Dec 2014])  20-Mar-2017 17:54:13
                                 
                                 ;*** CPU TYPE ***
                                 
                                 ;-ISA=RXV1
                                 
                                 ;*** COMMAND PARAMETER ***
                                 
                                 ;-output=src=lcd.src
                                 ;-lang=c99
                                 ;-include=C:\PROGRA~2\Renesas\RX\2_3_0/include,C:\Workspace\e2studio\git\MT01_master\r_lvd_rx,C:\Workspace\e2studio\git\MT01_master\r_lvd_rx\src,C:/Workspace/e2studio/
                                 ;-debug
                                 ;-show=source,conditionals,definitions,expansions
                                 ;-listfile=lcd.lst
                                 ;-isa=rxv1
                                 ;-optimize=0
                                 ;-fpu
                                 ;-alias=noansi
                                 ;-nologo
                                 ;-nomessage
                                 ;-define=__RX,COMPACTAXP=0,EASYMAK=1,MOBILE=0,FREE_RTOS_PP
                                 ;lcd.c
                                 
                                 		.glb	_u8g_dev_st7920_128x64_hw_spi
                                 		.glb	_u8g_font_m2icon_7
                                 		.glb	_u8g_font_4x6r
                                 		.glb	_u8g_font_5x8
                                 		.glb	_u8g_font_6x10
                                 		.glb	_u8g_font_helvB08
                                 		.glb	_configFlags
                                 		.glb	_rspi_semaphore
                                 		.glb	_u8g_SetFont
                                 		.glb	_u8g_SetFontRefHeightExtendedText
                                 		.glb	_u8g_SetDefaultForegroundColor
                                 		.glb	_u8g_SetFontPosTop
                                 		.glb	_ut_lcd_init
                                 		.glb	_ut_lcd_clear
                                 		.glb	_u8g_InitComFn
                                 		.glb	_u8g_com_rx_hw_spi_fn
                                 		.glb	_xQueueCreateMutex
                                 		.glb	_ut_lcd_clear_str
                                 		.glb	_ut_lcd_drawString
                                 		.glb	_ut_lcd_drawStr
                                 		.glb	_u8g_GetStrWidth
                                 		.glb	_u8g_SetColorIndex
                                 		.glb	_u8g_DrawBox
                                 		.glb	_u8g_draw_glyph
                                 		.glb	_u8g_DrawHLine
                                 		.glb	_u8g_DrawStr
                                 		.glb	_ut_lcd_output
                                 		.glb	_xQueueGenericReceive
                                 		.glb	_u8g_FirstPage
                                 		.glb	_u8g_NextPage
                                 		.glb	_xQueueGenericSend
                                 		.glb	_ut_lcd_output_str
                                 		.glb	_ut_lcd_bitmap
                                 		.glb	_u8g_DrawXBMP
                                 		.glb	_ut_lcd_output_mov_mode
                                 		.glb	_u8g_DrawVLine
                                 		.glb	_ut_lcd_output_plasma_mode
                                 		.glb	_ut_lcd_output_manual_mode
                                 		.glb	_ut_lcd_output_int_var
                                 		.glb	_u8g_DrawFrame
                                 		.glb	_ut_lcd_output_warning
                                 ;LineNo. C-SOURCE STATEMENT
                                 
                                 		.SECTION	P,CODE
00000000                         __$u8g_prepare:
                                 		.STACK	__$u8g_prepare=8
                                 ;       1 /*
                                 ;       2  * lcd.c
                                 ;       3  *
                                 ;       4  *  Created on: Oct 27, 2015
                                 ;       5  *      Author: Fernando
                                 ;       6  */
                                 ;       7 
                                 ;       8 #include "FreeRTOS.h"
                                 ;       9 #include "semphr.h"
                                 ;      10 
                                 ;      11 #include "u8g.h"
                                 ;      12 #include "lcd.h"
                                 ;      13 #include <stdio.h>
                                 ;      14 #include <string.h>
                                 ;      15 #include "ut_state.h"
                                 ;      16 #include "eeprom.h"
                                 ;      17 
                                 ;      18 static void readline(const char *message, char *line, uint8_t *counter);
                                 ;      19 /* Check if background color is black/white */
                                 ;      20 static uint8_t gaboBackColor[MAX_COLUMN * MAX_ROW];
                                 ;      21 /* Frame buffer for lcd */
                                 ;      22 static char gacChar[MAX_COLUMN * MAX_ROW];
                                 ;      23 
                                 ;      24 static const char* gacStr[MAX_ROW];
                                 ;      25 static uint8_t gaboBackColorStr[MAX_ROW];
                                 ;      26 static uint8_t gabolineMarked[MAX_ROW];
                                 ;      27 static const u8g_fntpgm_uint8_t *gaboFontStr[MAX_ROW];
                                 ;      28 
                                 ;      29 /**
                                 ;      30  * Global variables
                                 ;      31  */
                                 ;      32 static u8g_t main_u8g;
                                 ;      33 xSemaphoreHandle rspi_semaphore = 0;
                                 ;      34 
                                 ;      35 /**
                                 ;      36  *
                                 ;      37  */
                                 ;      38 static void u8g_prepare(const uint8_t* font)
                                 		.LINE  "C:\Workspace\e2studio\git\MT01_master\src\Display\lcd.c",38
00000000 6040                    		SUB #04H, R0
00000002 EF12                    		MOV.L R1, R2
00000004 E302                    		MOV.L R2, [R0]
                                 ;      39 {
                                 ;      40   u8g_SetFont(&main_u8g, font);
                                 		.LINE  "C:\Workspace\e2studio\git\MT01_master\src\Display\lcd.c",40
00000006 FB12rrrrrrrr            		MOV.L #__$main_u8g, R1
0000000C 05rrrrrr             A  		BSR _u8g_SetFont
00000010                         L21:	; entry.split
                                 ;      41   u8g_SetFontRefHeightExtendedText(&main_u8g);
                                 		.LINE  "C:\Workspace\e2studio\git\MT01_master\src\Display\lcd.c",41
00000010 FB12rrrrrrrr            		MOV.L #__$main_u8g, R1
00000016 05rrrrrr             A  		BSR _u8g_SetFontRefHeightExtendedText
0000001A                         L22:	; entry.split1
                                 ;      42   u8g_SetDefaultForegroundColor(&main_u8g);
                                 		.LINE  "C:\Workspace\e2studio\git\MT01_master\src\Display\lcd.c",42
0000001A FB12rrrrrrrr            		MOV.L #__$main_u8g, R1
00000020 05rrrrrr             A  		BSR _u8g_SetDefaultForegroundColor
00000024                         L23:	; entry.split2
                                 ;      43   u8g_SetFontPosTop(&main_u8g);
                                 		.LINE  "C:\Workspace\e2studio\git\MT01_master\src\Display\lcd.c",43
00000024 FB12rrrrrrrr            		MOV.L #__$main_u8g, R1
0000002A 05rrrrrr             A  		BSR _u8g_SetFontPosTop
0000002E 6701                    		RTSD #04H
00000030                         _ut_lcd_init:
                                 		.STACK	_ut_lcd_init=4
                                 ;      44 }
                                 ;      45 
                                 ;      46 /**
                                 ;      47  * Initialize components
                                 ;      48  */
                                 ;      49 void ut_lcd_init()
                                 ;      50 {
                                 ;      51 	/* Prepare u8g lib */
                                 ;      52 	u8g_InitComFn(&main_u8g, &u8g_dev_st7920_128x64_hw_spi, u8g_com_rx_hw_spi_fn);
                                 		.LINE  "C:\Workspace\e2studio\git\MT01_master\src\Display\lcd.c",52
00000030 FB32rrrrrrrr            		MOV.L #_u8g_com_rx_hw_spi_fn, R3
00000036 FB22rrrrrrrr            		MOV.L #_u8g_dev_st7920_128x64_hw_spi, R2
0000003C FB12rrrrrrrr            		MOV.L #__$main_u8g, R1
00000042 05rrrrrr             A  		BSR _u8g_InitComFn
00000046                         L25:	; entry.split
                                 ;      53 	u8g_prepare(u8g_font_6x10);
                                 		.LINE  "C:\Workspace\e2studio\git\MT01_master\src\Display\lcd.c",53
00000046 FB12rrrrrrrr            		MOV.L #_u8g_font_6x10, R1
0000004C 39rrrr               W  		BSR __$u8g_prepare
0000004F                         L26:	; entry.split1
0000004F 6611                    		MOV.L #00000001H, R1
                                 ;      54 	rspi_semaphore = xSemaphoreCreateMutex();
                                 		.LINE  "C:\Workspace\e2studio\git\MT01_master\src\Display\lcd.c",54
00000051 05rrrrrr             A  		BSR _xQueueCreateMutex
00000055 FBE2rrrrrrrr            		MOV.L #_rspi_semaphore, R14
0000005B E3E1                    		MOV.L R1, [R14]
0000005D                         L27:	; entry.split2
                                 ;      55 	/* Clean all */
                                 ;      56 	ut_lcd_clear();
                                 		.LINE  "C:\Workspace\e2studio\git\MT01_master\src\Display\lcd.c",56
0000005D 39rrrr               W  		BSR _ut_lcd_clear
00000060 02                      		RTS
00000061                         _ut_lcd_clear:
                                 		.STACK	_ut_lcd_clear=4
                                 ;      57 }
                                 ;      58 
                                 ;      59 /**
                                 ;      60  * Clear screen frame buffer
                                 ;      61  * @param screen_id
                                 ;      62  */
                                 ;      63 void ut_lcd_clear()
                                 		.LINE  "C:\Workspace\e2studio\git\MT01_master\src\Display\lcd.c",63
00000061 754378                  		MOV.L #00000078H, R3
00000064 6602                    		MOV.L #00000000H, R2
                                 ;      64 {
                                 ;      65 	/* Clean all */
                                 ;      66 	memset(gaboBackColor, 0, sizeof(gaboBackColor));
                                 		.LINE  "C:\Workspace\e2studio\git\MT01_master\src\Display\lcd.c",66
00000066 FB12rrrrrrrr            		MOV.L #__$gaboBackColor, R1
0000006C 7F88                    		SSTR.B
0000006E                         L29:	; entry.split
0000006E 754378                  		MOV.L #00000078H, R3
00000071 754220                  		MOV.L #00000020H, R2
                                 ;      67 	memset(gacChar, ' ', sizeof(gacChar));
                                 		.LINE  "C:\Workspace\e2studio\git\MT01_master\src\Display\lcd.c",67
00000074 FB12rrrrrrrr            		MOV.L #__$gacChar, R1
0000007A 7F88                    		SSTR.B
0000007C 02                      		RTS
0000007D                         _ut_lcd_clear_str:
                                 		.STACK	_ut_lcd_clear_str=4
                                 ;      68 }
                                 ;      69 
                                 ;      70 /**
                                 ;      71  * Clear screen frame buffer
                                 ;      72  * @param screen_id
                                 ;      73  */
                                 ;      74 void ut_lcd_clear_str()
                                 ;      75 {
                                 ;      76 	/* Clean all */
                                 ;      77 	memset(gaboBackColorStr, 0, sizeof(gaboBackColorStr));
                                 		.LINE  "C:\Workspace\e2studio\git\MT01_master\src\Display\lcd.c",77
0000007D FB12rrrrrrrr            		MOV.L #__$gaboBackColorStr, R1
00000083 3D1200                  		MOV.W #0000H, 04H[R1]
00000086 F81600                  		MOV.L #00000000H, [R1]
00000089                         L31:	; entry.split
                                 ;      78 	memset(gacStr, '\n', sizeof(gacStr));
                                 		.LINE  "C:\Workspace\e2studio\git\MT01_master\src\Display\lcd.c",78
00000089 FB12rrrrrrrr            		MOV.L #__$gacStr, R1
0000008F FB220A0A0A0A            		MOV.L #0A0A0A0AH, R2
00000095 A11A                    		MOV.L R2, 14H[R1]
00000097 A112                    		MOV.L R2, 10H[R1]
00000099 A09A                    		MOV.L R2, 0CH[R1]
0000009B A092                    		MOV.L R2, 08H[R1]
0000009D A01A                    		MOV.L R2, 04H[R1]
0000009F E312                    		MOV.L R2, [R1]
000000A1                         L32:	; entry.split1
                                 ;      79 	memset(gaboFontStr, NULL, sizeof(gaboFontStr));
                                 		.LINE  "C:\Workspace\e2studio\git\MT01_master\src\Display\lcd.c",79
000000A1 FB12rrrrrrrr            		MOV.L #__$gaboFontStr, R1
000000A7 6602                    		MOV.L #00000000H, R2
000000A9 A11A                    		MOV.L R2, 14H[R1]
000000AB A112                    		MOV.L R2, 10H[R1]
000000AD A09A                    		MOV.L R2, 0CH[R1]
000000AF A092                    		MOV.L R2, 08H[R1]
000000B1 A01A                    		MOV.L R2, 04H[R1]
000000B3 E312                    		MOV.L R2, [R1]
000000B5                         L33:	; entry.split2
                                 ;      80 	memset(gabolineMarked, 0, sizeof(gabolineMarked));
                                 		.LINE  "C:\Workspace\e2studio\git\MT01_master\src\Display\lcd.c",80
000000B5 FB12rrrrrrrr            		MOV.L #__$gabolineMarked, R1
000000BB 3D1200                  		MOV.W #0000H, 04H[R1]
000000BE F81600                  		MOV.L #00000000H, [R1]
000000C1 02                      		RTS
000000C2                         _ut_lcd_drawString:
                                 		.STACK	_ut_lcd_drawString=20
                                 ;      81 }
                                 ;      82 
                                 ;      83 
                                 ;      84 /**
                                 ;      85  *	Draw a string into internal buffer
                                 ;      86  *
                                 ;      87  * @param line		Line to be drawed (zero based index)
                                 ;      88  * @param column	Column (zero based index)
                                 ;      89  * @param text		String to draw.
                                 ;      90  * @param invert	Which color to draw (0 -> white / 1 -> black)
                                 ;      91  */
                                 ;      92 void ut_lcd_drawString(uint8_t line, uint8_t column, const char* text, uint8_t invert)
                                 		.LINE  "C:\Workspace\e2studio\git\MT01_master\src\Display\lcd.c",92
000000C2 7100F0                  		ADD #0FFFFFFF0H, R0
000000C5 8389                    		MOV.B R1, 0FH[R0]
000000C7 8382                    		MOV.B R2, 0EH[R0]
000000C9 A083                    		MOV.L R3, 08H[R0]
000000CB 818C                    		MOV.B R4, 07H[R0]
                                 ;      93 {
                                 ;      94 	/* Check limits */
                                 ;      95 	if(line >= MAX_ROW || column >= MAX_COLUMN) return;
                                 		.LINE  "C:\Workspace\e2studio\git\MT01_master\src\Display\lcd.c",95
000000CD B389                    		MOVU.B 0FH[R0], R1
000000CF 6151                    		CMP #05H, R1
000000D1 2Arr                    		BGT L36
000000D3                         L35:	; bb11
000000D3 B381                    		MOVU.B 0EH[R0], R1
000000D5 755114                  		CMP #14H, R1
000000D8 29rr                    		BLT L37
000000DA                         L36:	; bb16
000000DA F80601                  		MOV.L #00000001H, [R0]
000000DD 08                   S  		BRA L38
000000DE                         L37:	; bb17
000000DE F80600                  		MOV.L #00000000H, [R0]
000000E1                         L38:	; bb18
000000E1 EC01                    		MOV.L [R0], R1
000000E3 6101                    		CMP #00H, R1
000000E5 21rr                    		BNE L47
000000E7                         L39:	; bb22
                                 ;      96 
                                 ;      97 	/* Copy each char individually */
                                 ;      98 	uint8_t index = line * MAX_COLUMN + column;
                                 		.LINE  "C:\Workspace\e2studio\git\MT01_master\src\Display\lcd.c",98
000000E7 B389                    		MOVU.B 0FH[R0], R1
000000E9 751114                  		MUL #14H, R1
000000EC 49010E                  		ADD 0EH[R0].UB, R1
000000EF 8181                    		MOV.B R1, 06H[R0]
000000F1 2Err                 B  		BRA L42
000000F3                         L40:	; bb30
                                 ;      99 	while(*text && column++ < MAX_COLUMN)
                                 ;     100 	{
                                 ;     101 		gacChar[index] = *text++;
                                 		.LINE  "C:\Workspace\e2studio\git\MT01_master\src\Display\lcd.c",101
000000F3 A881                    		MOV.L 08H[R0], R1
000000F5 581E                    		MOVU.B [R1], R14
000000F7 FBF2rrrrrrrr            		MOV.L #__$gacChar, R15
000000FD B181                    		MOVU.B 06H[R0], R1
000000FF FE0F1E                  		MOV.B R14, [R15,R1]
00000102 A881                    		MOV.L 08H[R0], R1
00000104 6211                    		ADD #01H, R1
00000106 A081                    		MOV.L R1, 08H[R0]
00000108                         L41:	; bb30.split
                                 ;     102 		gaboBackColor[index++] = invert;
                                 		.LINE  "C:\Workspace\e2studio\git\MT01_master\src\Display\lcd.c",102
00000108 FBE2rrrrrrrr            		MOV.L #__$gaboBackColor, R14
0000010E B189                    		MOVU.B 07H[R0], R1
00000110 B182                    		MOVU.B 06H[R0], R2
00000112 FE0E21                  		MOV.B R1, [R14,R2]
00000115 B181                    		MOVU.B 06H[R0], R1
00000117 6211                    		ADD #01H, R1
00000119 8181                    		MOV.B R1, 06H[R0]
0000011B                         L42:	; bb44
                                 		.LINE  "C:\Workspace\e2studio\git\MT01_master\src\Display\lcd.c",99
0000011B A881                    		MOV.L 08H[R0], R1
0000011D 581E                    		MOVU.B [R1], R14
0000011F 610E                    		CMP #00H, R14
00000121 20rr                    		BEQ L45
00000123                         L43:	; bb50
00000123 B381                    		MOVU.B 0EH[R0], R1
00000125 711201                  		ADD #01H, R1, R2
00000128 8382                    		MOV.B R2, 0EH[R0]
0000012A 755113                  		CMP #13H, R1
0000012D 2Arr                    		BGT L45
0000012F                         L44:	; bb57
0000012F F80601                  		MOV.L #00000001H, [R0]
00000132 08                   S  		BRA L46
00000133                         L45:	; bb58
00000133 F80600                  		MOV.L #00000000H, [R0]
00000136                         L46:	; bb59
00000136 EC01                    		MOV.L [R0], R1
00000138 6101                    		CMP #00H, R1
0000013A 21rr                    		BNE L40
0000013C                         L47:	; return
                                 ;     103 	}
                                 ;     104 }
                                 		.LINE  "C:\Workspace\e2studio\git\MT01_master\src\Display\lcd.c",104
0000013C 6704                    		RTSD #10H
0000013E                         _ut_lcd_drawStr:
                                 		.STACK	_ut_lcd_drawStr=24
                                 ;     105 
                                 ;     106 /**
                                 ;     107  *	Draw a string into internal buffer
                                 ;     108  *
                                 ;     109  * @param line		Line to be drawed (zero based index)
                                 ;     110  * @param column	Column (zero based index)
                                 ;     111  * @param text		String to draw.
                                 ;     112  * @param invert	Which color to draw (0 -> white / 1 -> black)
                                 ;     113  */
                                 ;     114 void ut_lcd_drawStr(uint8_t line, uint8_t column, const char* text, uint8_t invert, uint8_t lineMarked, const uint8_t* font)
                                 		.LINE  "C:\Workspace\e2studio\git\MT01_master\src\Display\lcd.c",114
0000013E 7100EC                  		ADD #0FFFFFFECH, R0
00000141 8489                    		MOV.B R1, 13H[R0]
00000143 8482                    		MOV.B R2, 12H[R0]
00000145 A08B                    		MOV.L R3, 0CH[R0]
00000147 828C                    		MOV.B R4, 0BH[R0]
00000149 C500180A                		MOV.B 18H[R0], 0AH[R0]
0000014D E5000701                		MOV.L 1CH[R0], 04H[R0]
                                 ;     115 {
                                 ;     116 	/* Check limits */
                                 ;     117 	if(line >= MAX_ROW || column >= MAX_COLUMN) return;
                                 		.LINE  "C:\Workspace\e2studio\git\MT01_master\src\Display\lcd.c",117
00000151 B489                    		MOVU.B 13H[R0], R1
00000153 6151                    		CMP #05H, R1
00000155 2Arr                    		BGT L50
00000157                         L49:	; bb12
00000157 B481                    		MOVU.B 12H[R0], R1
00000159 755114                  		CMP #14H, R1
0000015C 29rr                    		BLT L51
0000015E                         L50:	; bb17
0000015E F80601                  		MOV.L #00000001H, [R0]
00000161 08                   S  		BRA L52
00000162                         L51:	; bb18
00000162 F80600                  		MOV.L #00000000H, [R0]
00000165                         L52:	; bb19
00000165 EC01                    		MOV.L [R0], R1
00000167 6101                    		CMP #00H, R1
00000169 21rr                    		BNE L57
0000016B                         L53:	; bb23
                                 ;     118 
                                 ;     119 	/* Copy each char individually */
                                 ;     120 	gacStr[line] = text;
                                 		.LINE  "C:\Workspace\e2studio\git\MT01_master\src\Display\lcd.c",120
0000016B FBE2rrrrrrrr            		MOV.L #__$gacStr, R14
00000171 A889                    		MOV.L 0CH[R0], R1
00000173 B48A                    		MOVU.B 13H[R0], R2
00000175 FE22E1                  		MOV.L R1, [R2,R14]
00000178                         L54:	; bb23.split
                                 ;     121 	gaboBackColorStr[line] = invert;
                                 		.LINE  "C:\Workspace\e2studio\git\MT01_master\src\Display\lcd.c",121
00000178 FBE2rrrrrrrr            		MOV.L #__$gaboBackColorStr, R14
0000017E B289                    		MOVU.B 0BH[R0], R1
00000180 B48A                    		MOVU.B 13H[R0], R2
00000182 FE0E21                  		MOV.B R1, [R14,R2]
00000185                         L55:	; bb23.split1
                                 ;     122 	gaboFontStr[line] = (const u8g_fntpgm_uint8_t *)font;
                                 		.LINE  "C:\Workspace\e2studio\git\MT01_master\src\Display\lcd.c",122
00000185 FBE2rrrrrrrr            		MOV.L #__$gaboFontStr, R14
0000018B A809                    		MOV.L 04H[R0], R1
0000018D B48A                    		MOVU.B 13H[R0], R2
0000018F FE22E1                  		MOV.L R1, [R2,R14]
00000192                         L56:	; bb23.split2
                                 ;     123 	gabolineMarked[line] = lineMarked;
                                 		.LINE  "C:\Workspace\e2studio\git\MT01_master\src\Display\lcd.c",123
00000192 FBE2rrrrrrrr            		MOV.L #__$gabolineMarked, R14
00000198 B281                    		MOVU.B 0AH[R0], R1
0000019A B48A                    		MOVU.B 13H[R0], R2
0000019C FE0E21                  		MOV.B R1, [R14,R2]
0000019F 6705                    		RTSD #14H
000001A1                         L57:	; return
                                 ;     124 }
                                 		.LINE  "C:\Workspace\e2studio\git\MT01_master\src\Display\lcd.c",124
000001A1 6705                    		RTSD #14H
000001A3                         __$ut_lcd_draw_glyph:
                                 		.STACK	__$ut_lcd_draw_glyph=20
                                 ;     125 
                                 ;     126 
                                 ;     127 /**
                                 ;     128  * Draw a single char into screen
                                 ;     129  * @param x				X position
                                 ;     130  * @param y				Y position
                                 ;     131  * @param w				Char width
                                 ;     132  * @param h				Char height
                                 ;     133  * @param invert		Background color
                                 ;     134  * @param glyph			Char
                                 ;     135  */
                                 ;     136 static uint8_t ut_lcd_draw_glyph(uint8_t x, uint8_t y, uint8_t h, uint8_t invert, char glyph)
                                 		.LINE  "C:\Workspace\e2studio\git\MT01_master\src\Display\lcd.c",136
000001A3 60C0                    		SUB #0CH, R0
000001A5 8289                    		MOV.B R1, 0BH[R0]
000001A7 8282                    		MOV.B R2, 0AH[R0]
000001A9 820B                    		MOV.B R3, 09H[R0]
000001AB 8204                    		MOV.B R4, 08H[R0]
000001AD C5001007                		MOV.B 10H[R0], 07H[R0]
000001B1 6601                    		MOV.L #00000000H, R1
                                 ;     137 {
                                 ;     138 	/* char width */
                                 ;     139 	char szOnlyChar[2] = {0};
                                 		.LINE  "C:\Workspace\e2studio\git\MT01_master\src\Display\lcd.c",139
000001B3 8089                    		MOV.B R1, 03H[R0]
000001B5 8101                    		MOV.B R1, 04H[R0]
000001B7 8089                    		MOV.B R1, 03H[R0]
000001B9                         L59:	; entry.split
                                 ;     140 	szOnlyChar[0] = glyph;
                                 		.LINE  "C:\Workspace\e2studio\git\MT01_master\src\Display\lcd.c",140
000001B9 C5000703                		MOV.B 07H[R0], 03H[R0]
000001BD                         L60:	; entry.split1
000001BD 710203                  		ADD #03H, R0, R2
                                 ;     141 	uint8_t w = u8g_GetStrWidth(&main_u8g, szOnlyChar);
                                 		.LINE  "C:\Workspace\e2studio\git\MT01_master\src\Display\lcd.c",141
000001C0 FB12rrrrrrrr            		MOV.L #__$main_u8g, R1
000001C6 05rrrrrr             A  		BSR _u8g_GetStrWidth
000001CA 8109                    		MOV.B R1, 05H[R0]
000001CC                         L61:	; entry.split2
000001CC 6612                    		MOV.L #00000001H, R2
                                 ;     142 
                                 ;     143 	/* Set background box */
                                 ;     144 	u8g_SetColorIndex(&main_u8g, 1);
                                 		.LINE  "C:\Workspace\e2studio\git\MT01_master\src\Display\lcd.c",144
000001CE FB12rrrrrrrr            		MOV.L #__$main_u8g, R1
000001D4 05rrrrrr             A  		BSR _u8g_SetColorIndex
000001D8                         L62:	; entry.split3
                                 ;     145 	if(invert)
                                 		.LINE  "C:\Workspace\e2studio\git\MT01_master\src\Display\lcd.c",145
000001D8 B201                    		MOVU.B 08H[R0], R1
000001DA 6101                    		CMP #00H, R1
000001DC 20rr                    		BEQ L65
000001DE                         L63:	; bb16
                                 ;     146 	{
                                 ;     147 		u8g_DrawBox(&main_u8g, x, y, w, h);
                                 		.LINE  "C:\Workspace\e2studio\git\MT01_master\src\Display\lcd.c",147
000001DE B209                    		MOVU.B 09H[R0], R1
000001E0 B10C                    		MOVU.B 05H[R0], R4
000001E2 B283                    		MOVU.B 0AH[R0], R3
000001E4 B28A                    		MOVU.B 0BH[R0], R2
000001E6 6040                    		SUB #04H, R0
000001E8 C301                    		MOV.B R1, [R0]
000001EA FB12rrrrrrrr            		MOV.L #__$main_u8g, R1
000001F0 05rrrrrr             A  		BSR _u8g_DrawBox
000001F4 6240                    		ADD #04H, R0
000001F6                         L64:	; bb16.split
000001F6 6602                    		MOV.L #00000000H, R2
                                 ;     148 		//u8g_DrawFrame(&main_u8g, x, y, w, h);
                                 ;     149 		u8g_SetColorIndex(&main_u8g, 0);
                                 		.LINE  "C:\Workspace\e2studio\git\MT01_master\src\Display\lcd.c",149
000001F8 FB12rrrrrrrr            		MOV.L #__$main_u8g, R1
000001FE 05rrrrrr             A  		BSR _u8g_SetColorIndex
00000202                         L65:	; bb25
                                 ;     150 	}
                                 ;     151 	/* Draw glyph */
                                 ;     152 	y += main_u8g.font_calc_vref(&main_u8g);
                                 		.LINE  "C:\Workspace\e2studio\git\MT01_master\src\Display\lcd.c",152
00000202 FB12rrrrrrrr            		MOV.L #__$main_u8g, R1
00000208 AA1A                    		MOV.L 24H[R1], R2
0000020A 7F12                    		JSR R2
0000020C 49010A                  		ADD 0AH[R0].UB, R1
0000020F 8281                    		MOV.B R1, 0AH[R0]
00000211                         L66:	; bb25.split
                                 ;     153 	u8g_draw_glyph(&main_u8g, x, y, glyph);
                                 		.LINE  "C:\Workspace\e2studio\git\MT01_master\src\Display\lcd.c",153
00000211 B18C                    		MOVU.B 07H[R0], R4
00000213 B283                    		MOVU.B 0AH[R0], R3
00000215 B28A                    		MOVU.B 0BH[R0], R2
00000217 FB12rrrrrrrr            		MOV.L #__$main_u8g, R1
0000021D 05rrrrrr             A  		BSR _u8g_draw_glyph
00000221                         L67:	; bb25.split4
                                 ;     154 	/* Return to future info */
                                 ;     155 	return w;
                                 		.LINE  "C:\Workspace\e2studio\git\MT01_master\src\Display\lcd.c",155
00000221 C5000506                		MOV.B 05H[R0], 06H[R0]
00000225 B181                    		MOVU.B 06H[R0], R1
00000227                         L68:	; bb25.split5
                                 ;     156 }
                                 		.LINE  "C:\Workspace\e2studio\git\MT01_master\src\Display\lcd.c",156
00000227 5B11                    		MOVU.B R1, R1
00000229 6703                    		RTSD #0CH
0000022B                         __$ut_lcd_draw_str:
                                 		.STACK	__$ut_lcd_draw_str=24
                                 ;     157 
                                 ;     158 /**
                                 ;     159  * Draw a single char into screen
                                 ;     160  * @param x				X position
                                 ;     161  * @param y				Y position
                                 ;     162  * @param w				Char width
                                 ;     163  * @param h				Char height
                                 ;     164  * @param invert		Background color
                                 ;     165  * @param glyph			Char
                                 ;     166  */
                                 ;     167 static uint8_t ut_lcd_draw_str(uint8_t x, uint8_t y, uint8_t h, uint8_t invert, uint8_t lineMarked, const char* str)
                                 		.LINE  "C:\Workspace\e2studio\git\MT01_master\src\Display\lcd.c",167
0000022B 7100F0                  		ADD #0FFFFFFF0H, R0
0000022E 8389                    		MOV.B R1, 0FH[R0]
00000230 8382                    		MOV.B R2, 0EH[R0]
00000232 830B                    		MOV.B R3, 0DH[R0]
00000234 8304                    		MOV.B R4, 0CH[R0]
00000236 C500140B                		MOV.B 14H[R0], 0BH[R0]
0000023A A982                    		MOV.L 18H[R0], R2
0000023C A00A                    		MOV.L R2, 04H[R0]
                                 ;     168 {
                                 ;     169 	uint8_t w = u8g_GetStrWidth(&main_u8g, str);
                                 		.LINE  "C:\Workspace\e2studio\git\MT01_master\src\Display\lcd.c",169
0000023E FB12rrrrrrrr            		MOV.L #__$main_u8g, R1
00000244 05rrrrrr             A  		BSR _u8g_GetStrWidth
00000248 8081                    		MOV.B R1, 02H[R0]
0000024A                         L70:	; entry.split
0000024A 6612                    		MOV.L #00000001H, R2
                                 ;     170 
                                 ;     171 	/* Set background box */
                                 ;     172 	u8g_SetColorIndex(&main_u8g, 1);
                                 		.LINE  "C:\Workspace\e2studio\git\MT01_master\src\Display\lcd.c",172
0000024C FB12rrrrrrrr            		MOV.L #__$main_u8g, R1
00000252 05rrrrrr             A  		BSR _u8g_SetColorIndex
00000256                         L71:	; entry.split1
                                 ;     173 	switch(invert)
                                 		.LINE  "C:\Workspace\e2studio\git\MT01_master\src\Display\lcd.c",173
00000256 B301                    		MOVU.B 0CH[R0], R1
00000258 6131                    		CMP #03H, R1
0000025A 20rr                    		BEQ L77
0000025C                         L72:	; entry.split1
0000025C 6121                    		CMP #02H, R1
0000025E 20rr                    		BEQ L76
00000260                         L73:	; entry.split1
00000260 6111                    		CMP #01H, R1
00000262 21rr                    		BNE L78
00000264                         L74:	; bb12
                                 ;     174 	{
                                 ;     175 	case BACKGROUND_NORMAL:
                                 ;     176 		break;
                                 ;     177 	case BACKGROUND_INVERTED: u8g_DrawBox(&main_u8g, x, y+1, w, h-2);
                                 		.LINE  "C:\Workspace\e2studio\git\MT01_master\src\Display\lcd.c",177
00000264 B309                    		MOVU.B 0DH[R0], R1
00000266 B084                    		MOVU.B 02H[R0], R4
00000268 B383                    		MOVU.B 0EH[R0], R3
0000026A B38A                    		MOVU.B 0FH[R0], R2
0000026C 6040                    		SUB #04H, R0
0000026E 6021                    		SUB #02H, R1
00000270 C301                    		MOV.B R1, [R0]
00000272 6213                    		ADD #01H, R3
00000274 5B33                    		MOVU.B R3, R3
00000276 FB12rrrrrrrr            		MOV.L #__$main_u8g, R1
0000027C 05rrrrrr             A  		BSR _u8g_DrawBox
00000280 6240                    		ADD #04H, R0
00000282                         L75:	; bb12.split
00000282 6602                    		MOV.L #00000000H, R2
                                 ;     178 							  u8g_SetColorIndex(&main_u8g, 0);
                                 		.LINE  "C:\Workspace\e2studio\git\MT01_master\src\Display\lcd.c",178
00000284 FB12rrrrrrrr            		MOV.L #__$main_u8g, R1
0000028A 05rrrrrr             A  		BSR _u8g_SetColorIndex
0000028E 2Err                 B  		BRA L78
00000290                         L76:	; bb23
                                 ;     179 		break;
                                 ;     180 	case BACKGROUND_FRAMED: //u8g_DrawFrame(&main_u8g, x, y, 128, h);
                                 ;     181 							  u8g_DrawHLine(&main_u8g, x, h-1, 128);
                                 		.LINE  "C:\Workspace\e2studio\git\MT01_master\src\Display\lcd.c",181
00000290 B309                    		MOVU.B 0DH[R0], R1
00000292 B38A                    		MOVU.B 0FH[R0], R2
00000294 6011                    		SUB #01H, R1
00000296 5B13                    		MOVU.B R1, R3
00000298 754480                  		MOV.L #00000080H, R4
0000029B FB12rrrrrrrr            		MOV.L #__$main_u8g, R1
000002A1 05rrrrrr             A  		BSR _u8g_DrawHLine
000002A5 2Err                 B  		BRA L78
000002A7                         L77:	; bb29
                                 ;     182 		break;
                                 ;     183 	case BACKGROUND_FRAMED_2: //u8g_DrawFrame(&main_u8g, x, y, 128, h);
                                 ;     184 							  u8g_DrawHLine(&main_u8g, x, ((2*h)-1), 128);
                                 		.LINE  "C:\Workspace\e2studio\git\MT01_master\src\Display\lcd.c",184
000002A7 B309                    		MOVU.B 0DH[R0], R1
000002A9 B38A                    		MOVU.B 0FH[R0], R2
000002AB 6C11                    		SHLL #01H, R1
000002AD 6011                    		SUB #01H, R1
000002AF 5B13                    		MOVU.B R1, R3
000002B1 754480                  		MOV.L #00000080H, R4
000002B4 FB12rrrrrrrr            		MOV.L #__$main_u8g, R1
000002BA 05rrrrrr             A  		BSR _u8g_DrawHLine
000002BE                         L78:	; bb36
                                 ;     185 		break;
                                 ;     186 	}
                                 ;     187 	/* Draw Str */
                                 ;     188 	u8g_DrawStr(&main_u8g, x, y, str);
                                 		.LINE  "C:\Workspace\e2studio\git\MT01_master\src\Display\lcd.c",188
000002BE A80C                    		MOV.L 04H[R0], R4
000002C0 B383                    		MOVU.B 0EH[R0], R3
000002C2 B38A                    		MOVU.B 0FH[R0], R2
000002C4 FB12rrrrrrrr            		MOV.L #__$main_u8g, R1
000002CA 05rrrrrr             A  		BSR _u8g_DrawStr
000002CE                         L79:	; bb36.split
                                 ;     189 	if(lineMarked)
                                 		.LINE  "C:\Workspace\e2studio\git\MT01_master\src\Display\lcd.c",189
000002CE B289                    		MOVU.B 0BH[R0], R1
000002D0 6101                    		CMP #00H, R1
000002D2 20rr                    		BEQ L83
000002D4                         L80:	; bb42
                                 ;     190 	{
                                 ;     191 		x = u8g_GetStrWidth(&main_u8g,str);
                                 		.LINE  "C:\Workspace\e2studio\git\MT01_master\src\Display\lcd.c",191
000002D4 A80A                    		MOV.L 04H[R0], R2
000002D6 FB12rrrrrrrr            		MOV.L #__$main_u8g, R1
000002DC 05rrrrrr             A  		BSR _u8g_GetStrWidth
000002E0 8389                    		MOV.B R1, 0FH[R0]
000002E2                         L81:	; bb42.split
                                 ;     192 		u8g_prepare(u8g_font_m2icon_7);
                                 		.LINE  "C:\Workspace\e2studio\git\MT01_master\src\Display\lcd.c",192
000002E2 FB12rrrrrrrr            		MOV.L #_u8g_font_m2icon_7, R1
000002E8 39rrrr               W  		BSR __$u8g_prepare
000002EB                         L82:	; bb42.split2
                                 ;     193 		u8g_DrawStr(&main_u8g, x + 5, y, "\x44\n");
                                 		.LINE  "C:\Workspace\e2studio\git\MT01_master\src\Display\lcd.c",193
000002EB B383                    		MOVU.B 0EH[R0], R3
000002ED B389                    		MOVU.B 0FH[R0], R1
000002EF 6251                    		ADD #05H, R1
000002F1 5B12                    		MOVU.B R1, R2
000002F3 FB42rrrrrrrr            		MOV.L #_L10, R4
000002F9 FB12rrrrrrrr            		MOV.L #__$main_u8g, R1
000002FF 05rrrrrr             A  		BSR _u8g_DrawStr
00000303                         L83:	; bb55
                                 ;     194 	}
                                 ;     195 
                                 ;     196 	/* Return to future info */
                                 ;     197 	return w;
                                 		.LINE  "C:\Workspace\e2studio\git\MT01_master\src\Display\lcd.c",197
00000303 C5000203                		MOV.B 02H[R0], 03H[R0]
00000307 B089                    		MOVU.B 03H[R0], R1
00000309                         L84:	; bb55.split
                                 ;     198 }
                                 		.LINE  "C:\Workspace\e2studio\git\MT01_master\src\Display\lcd.c",198
00000309 5B11                    		MOVU.B R1, R1
0000030B 6704                    		RTSD #10H
0000030D                         _ut_lcd_output:
                                 		.STACK	_ut_lcd_output=16
                                 ;     199 
                                 ;     200 /**
                                 ;     201  * Picture loop
                                 ;     202  */
                                 ;     203 void ut_lcd_output()
                                 		.LINE  "C:\Workspace\e2studio\git\MT01_master\src\Display\lcd.c",203
0000030D 6080                    		SUB #08H, R0
                                 ;     204 {
                                 ;     205 	uint8_t row, col, x, y, index;
                                 ;     206 	uint8_t h = u8g_GetFontAscent(&main_u8g) - u8g_GetFontDescent(&main_u8g) + 1;
                                 		.LINE  "C:\Workspace\e2studio\git\MT01_master\src\Display\lcd.c",206
0000030F FBE2rrrrrrrr            		MOV.L #__$main_u8g, R14
00000315 CDE129                  		MOV.B 29H[R14], R1
00000318 0601E12A                		SUB 2AH[R14].B, R1
0000031C 6211                    		ADD #01H, R1
0000031E 8189                    		MOV.B R1, 07H[R0]
00000320                         L86:	; entry.split
                                 ;     207 	xSemaphoreTake(rspi_semaphore, portMAX_DELAY);
                                 		.LINE  "C:\Workspace\e2studio\git\MT01_master\src\Display\lcd.c",207
00000320 FBE2rrrrrrrr            		MOV.L #_rspi_semaphore, R14
00000326 ECE1                    		MOV.L [R14], R1
00000328 FB36FF                  		MOV.L #0FFFFFFFFH, R3
0000032B 6602                    		MOV.L #00000000H, R2
0000032D EF24                    		MOV.L R2, R4
0000032F 05rrrrrr             A  		BSR _xQueueGenericReceive
00000333                         L87:	; entry.split1
                                 ;     208 	u8g_prepare(u8g_font_6x10);
                                 		.LINE  "C:\Workspace\e2studio\git\MT01_master\src\Display\lcd.c",208
00000333 FB12rrrrrrrr            		MOV.L #_u8g_font_6x10, R1
00000339 39rrrr               W  		BSR __$u8g_prepare
0000033C                         L88:	; entry.split2
                                 ;     209 	u8g_FirstPage(&main_u8g);
                                 		.LINE  "C:\Workspace\e2studio\git\MT01_master\src\Display\lcd.c",209
0000033C FB12rrrrrrrr            		MOV.L #__$main_u8g, R1
00000342 05rrrrrr             A  		BSR _u8g_FirstPage
00000346                         L89:	; bb
                                 ;     210 
                                 ;     211 	/* Picture loop */
                                 ;     212 	do
                                 ;     213 	{
                                 ;     214 		/* Through all rows */
                                 ;     215 		index = 0;
                                 		.LINE  "C:\Workspace\e2studio\git\MT01_master\src\Display\lcd.c",215
00000346 3C0600                  		MOV.B #00H, 06H[R0]
00000349                         L90:	; bb.split
                                 ;     216 		y = 0;
                                 		.LINE  "C:\Workspace\e2studio\git\MT01_master\src\Display\lcd.c",216
00000349 3C0500                  		MOV.B #00H, 05H[R0]
0000034C                         L91:	; bb.split3
                                 ;     217 		for(row = 0; row < MAX_ROW; row++)
                                 		.LINE  "C:\Workspace\e2studio\git\MT01_master\src\Display\lcd.c",217
0000034C 3C0200                  		MOV.B #00H, 02H[R0]
0000034F 2Err                 B  		BRA L98
00000351                         L92:	; bb15
                                 ;     218 		{
                                 ;     219 			x = 0;
                                 		.LINE  "C:\Workspace\e2studio\git\MT01_master\src\Display\lcd.c",219
00000351 3C0400                  		MOV.B #00H, 04H[R0]
00000354                         L93:	; bb15.split
                                 ;     220 			/* Through all columns */
                                 ;     221 			for(col = 0; col < MAX_COLUMN; col++)
                                 		.LINE  "C:\Workspace\e2studio\git\MT01_master\src\Display\lcd.c",221
00000354 3C0300                  		MOV.B #00H, 03H[R0]
00000357 2Err                 B  		BRA L96
00000359                         L94:	; bb16
                                 ;     222 			{
                                 ;     223 				/* Draw glyph */
                                 ;     224 				x += ut_lcd_draw_glyph(x, y, h, gaboBackColor[index], gacChar[index]);
                                 		.LINE  "C:\Workspace\e2studio\git\MT01_master\src\Display\lcd.c",224
00000359 B181                    		MOVU.B 06H[R0], R1
0000035B FBE2rrrrrrrr            		MOV.L #__$gacChar, R14
00000361 FECE1E                  		MOVU.B [R14,R1], R14
00000364 FBF2rrrrrrrr            		MOV.L #__$gaboBackColor, R15
0000036A FECF14                  		MOVU.B [R15,R1], R4
0000036D B18B                    		MOVU.B 07H[R0], R3
0000036F B10A                    		MOVU.B 05H[R0], R2
00000371 B101                    		MOVU.B 04H[R0], R1
00000373 6040                    		SUB #04H, R0
00000375 C30E                    		MOV.B R14, [R0]
00000377 39rrrr               W  		BSR __$ut_lcd_draw_glyph
0000037A 6240                    		ADD #04H, R0
0000037C 490104                  		ADD 04H[R0].UB, R1
0000037F 8101                    		MOV.B R1, 04H[R0]
00000381                         L95:	; bb16.split
                                 ;     225 				/* Next position */
                                 ;     226 				index++;
                                 		.LINE  "C:\Workspace\e2studio\git\MT01_master\src\Display\lcd.c",226
00000381 B181                    		MOVU.B 06H[R0], R1
00000383 6211                    		ADD #01H, R1
00000385 8181                    		MOV.B R1, 06H[R0]
00000387 B089                    		MOVU.B 03H[R0], R1
00000389 6211                    		ADD #01H, R1
0000038B 8089                    		MOV.B R1, 03H[R0]
0000038D                         L96:	; bb38
                                 		.LINE  "C:\Workspace\e2studio\git\MT01_master\src\Display\lcd.c",221
0000038D B089                    		MOVU.B 03H[R0], R1
0000038F 755114                  		CMP #14H, R1
00000392 29rr                    		BLT L94
00000394                         L97:	; bb43
                                 ;     227 			}
                                 ;     228 
                                 ;     229 			/* Next position */
                                 ;     230 			y += h;
                                 		.LINE  "C:\Workspace\e2studio\git\MT01_master\src\Display\lcd.c",230
00000394 B109                    		MOVU.B 05H[R0], R1
00000396 490107                  		ADD 07H[R0].UB, R1
00000399 8109                    		MOV.B R1, 05H[R0]
0000039B B081                    		MOVU.B 02H[R0], R1
0000039D 6211                    		ADD #01H, R1
0000039F 8081                    		MOV.B R1, 02H[R0]
000003A1                         L98:	; bb52
                                 		.LINE  "C:\Workspace\e2studio\git\MT01_master\src\Display\lcd.c",217
000003A1 B081                    		MOVU.B 02H[R0], R1
000003A3 6161                    		CMP #06H, R1
000003A5 29rr                    		BLT L92
000003A7                         L99:	; bb58
                                 		.LINE  "C:\Workspace\e2studio\git\MT01_master\src\Display\lcd.c",212
000003A7 FB12rrrrrrrr            		MOV.L #__$main_u8g, R1
000003AD 05rrrrrr             A  		BSR _u8g_NextPage
000003B1 6101                    		CMP #00H, R1
000003B3 21rr                    		BNE L89
000003B5                         L100:	; bb64
                                 ;     231 
                                 ;     232 		}
                                 ;     233 
                                 ;     234 	} while(u8g_NextPage(&main_u8g));
                                 ;     235 	xSemaphoreGive(rspi_semaphore);
                                 		.LINE  "C:\Workspace\e2studio\git\MT01_master\src\Display\lcd.c",235
000003B5 FBE2rrrrrrrr            		MOV.L #_rspi_semaphore, R14
000003BB ECE1                    		MOV.L [R14], R1
000003BD 6602                    		MOV.L #00000000H, R2
000003BF EF23                    		MOV.L R2, R3
000003C1 EF24                    		MOV.L R2, R4
000003C3 05rrrrrr             A  		BSR _xQueueGenericSend
000003C7 6702                    		RTSD #08H
000003C9                         _ut_lcd_output_str:
                                 		.STACK	_ut_lcd_output_str=20
                                 ;     236 }
                                 ;     237 
                                 ;     238 void ut_lcd_output_str(ut_state state)
                                 		.LINE  "C:\Workspace\e2studio\git\MT01_master\src\Display\lcd.c",238
000003C9 6080                    		SUB #08H, R0
000003CB A009                    		MOV.L R1, 04H[R0]
                                 ;     239 {
                                 ;     240 	uint8_t row, x, y;
                                 ;     241 	uint8_t h;
                                 ;     242 	xSemaphoreTake(rspi_semaphore, portMAX_DELAY);
                                 		.LINE  "C:\Workspace\e2studio\git\MT01_master\src\Display\lcd.c",242
000003CD FBE2rrrrrrrr            		MOV.L #_rspi_semaphore, R14
000003D3 ECE1                    		MOV.L [R14], R1
000003D5 FB36FF                  		MOV.L #0FFFFFFFFH, R3
000003D8 6602                    		MOV.L #00000000H, R2
000003DA EF24                    		MOV.L R2, R4
000003DC 05rrrrrr             A  		BSR _xQueueGenericReceive
000003E0                         L102:	; entry.split
                                 ;     243 	u8g_prepare(gaboFontStr[0]);
                                 		.LINE  "C:\Workspace\e2studio\git\MT01_master\src\Display\lcd.c",243
000003E0 FBE2rrrrrrrr            		MOV.L #__$gaboFontStr, R14
000003E6 ECE1                    		MOV.L [R14], R1
000003E8 39rrrr               W  		BSR __$u8g_prepare
000003EB                         L103:	; entry.split1
                                 ;     244 	h = u8g_GetFontAscent(&main_u8g) - u8g_GetFontDescent(&main_u8g) + 1;
                                 		.LINE  "C:\Workspace\e2studio\git\MT01_master\src\Display\lcd.c",244
000003EB FBE2rrrrrrrr            		MOV.L #__$main_u8g, R14
000003F1 CDE129                  		MOV.B 29H[R14], R1
000003F4 0601E12A                		SUB 2AH[R14].B, R1
000003F8 6211                    		ADD #01H, R1
000003FA 8089                    		MOV.B R1, 03H[R0]
000003FC                         L104:	; entry.split2
                                 ;     245 	//u8g_prepare();
                                 ;     246 	u8g_FirstPage(&main_u8g);
                                 		.LINE  "C:\Workspace\e2studio\git\MT01_master\src\Display\lcd.c",246
000003FC FB12rrrrrrrr            		MOV.L #__$main_u8g, R1
00000402 05rrrrrr             A  		BSR _u8g_FirstPage
00000406                         L105:	; bb
                                 ;     247 
                                 ;     248 	/* Picture loop */
                                 ;     249 	do
                                 ;     250 	{
                                 ;     251 		/* Through all rows */
                                 ;     252 		y = 0;
                                 		.LINE  "C:\Workspace\e2studio\git\MT01_master\src\Display\lcd.c",252
00000406 3C0200                  		MOV.B #00H, 02H[R0]
00000409                         L106:	; bb.split
                                 ;     253 		for(row = 0; row < MAX_ROW; row++)
                                 		.LINE  "C:\Workspace\e2studio\git\MT01_master\src\Display\lcd.c",253
00000409 F80400                  		MOV.B #00H, [R0]
0000040C 38rrrr               W  		BRA L122
0000040F                         L107:	; bb15
                                 ;     254 		{
                                 ;     255 			u8g_prepare(u8g_font_6x10);
                                 		.LINE  "C:\Workspace\e2studio\git\MT01_master\src\Display\lcd.c",255
0000040F FB12rrrrrrrr            		MOV.L #_u8g_font_6x10, R1
00000415 39rrrr               W  		BSR __$u8g_prepare
00000418                         L108:	; bb15.split
                                 ;     256 			u8g_SetFont(&main_u8g, gaboFontStr[row]);
                                 		.LINE  "C:\Workspace\e2studio\git\MT01_master\src\Display\lcd.c",256
00000418 FBE2rrrrrrrr            		MOV.L #__$gaboFontStr, R14
0000041E 5801                    		MOVU.B [R0], R1
00000420 FE61E2                  		MOV.L [R1,R14], R2
00000423 FB12rrrrrrrr            		MOV.L #__$main_u8g, R1
00000429 05rrrrrr             A  		BSR _u8g_SetFont
0000042D                         L109:	; bb15.split3
                                 ;     257 			u8g_SetFontRefHeightExtendedText(&main_u8g);
                                 		.LINE  "C:\Workspace\e2studio\git\MT01_master\src\Display\lcd.c",257
0000042D FB12rrrrrrrr            		MOV.L #__$main_u8g, R1
00000433 05rrrrrr             A  		BSR _u8g_SetFontRefHeightExtendedText
00000437                         L110:	; bb15.split4
                                 ;     258 			u8g_SetDefaultForegroundColor(&main_u8g);
                                 		.LINE  "C:\Workspace\e2studio\git\MT01_master\src\Display\lcd.c",258
00000437 FB12rrrrrrrr            		MOV.L #__$main_u8g, R1
0000043D 05rrrrrr             A  		BSR _u8g_SetDefaultForegroundColor
00000441                         L111:	; bb15.split5
                                 ;     259 			u8g_SetFontPosTop(&main_u8g);
                                 		.LINE  "C:\Workspace\e2studio\git\MT01_master\src\Display\lcd.c",259
00000441 FB12rrrrrrrr            		MOV.L #__$main_u8g, R1
00000447 05rrrrrr             A  		BSR _u8g_SetFontPosTop
0000044B                         L112:	; bb15.split6
                                 ;     260 		//	u8g_FirstPage(&main_u8g);
                                 ;     261 			x = 0;
                                 		.LINE  "C:\Workspace\e2studio\git\MT01_master\src\Display\lcd.c",261
0000044B 3C0100                  		MOV.B #00H, 01H[R0]
0000044E                         L113:	; bb15.split7
                                 ;     262 			/* Through all columns */
                                 ;     263 				/* Draw glyph */
                                 ;     264 			x = ut_lcd_draw_str(x, y, h, gaboBackColorStr[row],gabolineMarked[row], gacStr[row]);
                                 		.LINE  "C:\Workspace\e2studio\git\MT01_master\src\Display\lcd.c",264
0000044E 5801                    		MOVU.B [R0], R1
00000450 FBE2rrrrrrrr            		MOV.L #__$gacStr, R14
00000456 FE61E5                  		MOV.L [R1,R14], R5
00000459 FBE2rrrrrrrr            		MOV.L #__$gabolineMarked, R14
0000045F FECE1E                  		MOVU.B [R14,R1], R14
00000462 FBF2rrrrrrrr            		MOV.L #__$gaboBackColorStr, R15
00000468 FECF14                  		MOVU.B [R15,R1], R4
0000046B B08B                    		MOVU.B 03H[R0], R3
0000046D B082                    		MOVU.B 02H[R0], R2
0000046F B009                    		MOVU.B 01H[R0], R1
00000471 6080                    		SUB #08H, R0
00000473 A00D                    		MOV.L R5, 04H[R0]
00000475 C30E                    		MOV.B R14, [R0]
00000477 39rrrr               W  		BSR __$ut_lcd_draw_str
0000047A 6280                    		ADD #08H, R0
0000047C 8009                    		MOV.B R1, 01H[R0]
0000047E                         L114:	; bb15.split8
                                 ;     265 			/* Next position */
                                 ;     266 			y += h;
                                 		.LINE  "C:\Workspace\e2studio\git\MT01_master\src\Display\lcd.c",266
0000047E B081                    		MOVU.B 02H[R0], R1
00000480 490103                  		ADD 03H[R0].UB, R1
00000483 8081                    		MOV.B R1, 02H[R0]
00000485                         L115:	; bb15.split9
                                 ;     267 			if (state == STATE_MAIN_MENU)
                                 		.LINE  "C:\Workspace\e2studio\git\MT01_master\src\Display\lcd.c",267
00000485 A809                    		MOV.L 04H[R0], R1
00000487 6121                    		CMP #02H, R1
00000489 21rr                    		BNE L121
0000048B                         L116:	; bb43
                                 ;     268 			{
                                 ;     269 				u8g_prepare(u8g_font_5x8);
                                 		.LINE  "C:\Workspace\e2studio\git\MT01_master\src\Display\lcd.c",269
0000048B FB12rrrrrrrr            		MOV.L #_u8g_font_5x8, R1
00000491 39rrrr               W  		BSR __$u8g_prepare
00000494                         L117:	; bb43.split
                                 ;     270 				u8g_DrawHLine(&main_u8g, x, 55, 128);
                                 		.LINE  "C:\Workspace\e2studio\git\MT01_master\src\Display\lcd.c",270
00000494 B00A                    		MOVU.B 01H[R0], R2
00000496 754480                  		MOV.L #00000080H, R4
00000499 754337                  		MOV.L #00000037H, R3
0000049C FB12rrrrrrrr            		MOV.L #__$main_u8g, R1
000004A2 05rrrrrr             A  		BSR _u8g_DrawHLine
000004A6                         L118:	; bb43.split10
                                 ;     271 				if(configFlags[MODOMAQUINA])
                                 		.LINE  "C:\Workspace\e2studio\git\MT01_master\src\Display\lcd.c",271
000004A6 FBE2rrrrrrrr            		MOV.L #_configFlags, R14
000004AC ECEE                    		MOV.L [R14], R14
000004AE 610E                    		CMP #00H, R14
000004B0 20rr                    		BEQ L120
000004B2                         L119:	; bb46
                                 ;     272 					u8g_DrawStr(&main_u8g, 60, 56, "MODO OXICORTE");
                                 		.LINE  "C:\Workspace\e2studio\git\MT01_master\src\Display\lcd.c",272
000004B2 FB42rrrrrrrr            		MOV.L #_L11, R4
000004B8 754338                  		MOV.L #00000038H, R3
000004BB 75423C                  		MOV.L #0000003CH, R2
000004BE FB12rrrrrrrr            		MOV.L #__$main_u8g, R1
000004C4 05rrrrrr             A  		BSR _u8g_DrawStr
000004C8 2Err                 B  		BRA L121
000004CA                         L120:	; bb48
                                 ;     273 				else
                                 ;     274 					u8g_DrawStr(&main_u8g, 65, 56, "MODO PLASMA");
                                 		.LINE  "C:\Workspace\e2studio\git\MT01_master\src\Display\lcd.c",274
000004CA FB42rrrrrrrr            		MOV.L #_L12, R4
000004D0 754338                  		MOV.L #00000038H, R3
000004D3 754241                  		MOV.L #00000041H, R2
000004D6 FB12rrrrrrrr            		MOV.L #__$main_u8g, R1
000004DC 05rrrrrr             A  		BSR _u8g_DrawStr
000004E0                         L121:	; bb58
000004E0 5801                    		MOVU.B [R0], R1
000004E2 6211                    		ADD #01H, R1
000004E4 C301                    		MOV.B R1, [R0]
000004E6                         L122:	; bb61
                                 		.LINE  "C:\Workspace\e2studio\git\MT01_master\src\Display\lcd.c",253
000004E6 5801                    		MOVU.B [R0], R1
000004E8 6161                    		CMP #06H, R1
000004EA 28rr                  * 		BLT L107
         38rrrr                  
000004EF                         L123:	; bb67
                                 		.LINE  "C:\Workspace\e2studio\git\MT01_master\src\Display\lcd.c",249
000004EF FB12rrrrrrrr            		MOV.L #__$main_u8g, R1
000004F5 05rrrrrr             A  		BSR _u8g_NextPage
000004F9 6101                    		CMP #00H, R1
000004FB 3Brrrr               W  		BNE L105
000004FE                         L124:	; bb73
                                 ;     275 			}
                                 ;     276 		}
                                 ;     277 
                                 ;     278 	} while(u8g_NextPage(&main_u8g));
                                 ;     279 	xSemaphoreGive(rspi_semaphore);
                                 		.LINE  "C:\Workspace\e2studio\git\MT01_master\src\Display\lcd.c",279
000004FE FBE2rrrrrrrr            		MOV.L #_rspi_semaphore, R14
00000504 ECE1                    		MOV.L [R14], R1
00000506 6602                    		MOV.L #00000000H, R2
00000508 EF23                    		MOV.L R2, R3
0000050A EF24                    		MOV.L R2, R4
0000050C 05rrrrrr             A  		BSR _xQueueGenericSend
00000510 6702                    		RTSD #08H
00000512                         _ut_lcd_bitmap:
                                 		.STACK	_ut_lcd_bitmap=24
                                 ;     280 }
                                 ;     281 
                                 ;     282 void ut_lcd_bitmap(uint8_t x, uint8_t y, uint8_t w, uint8_t h, const uint8_t *bitmap,const char* str)
                                 		.LINE  "C:\Workspace\e2studio\git\MT01_master\src\Display\lcd.c",282
00000512 60C0                    		SUB #0CH, R0
00000514 8289                    		MOV.B R1, 0BH[R0]
00000516 8282                    		MOV.B R2, 0AH[R0]
00000518 820B                    		MOV.B R3, 09H[R0]
0000051A 8204                    		MOV.B R4, 08H[R0]
0000051C E5000401                		MOV.L 10H[R0], 04H[R0]
00000520 E10005                  		MOV.L 14H[R0], [R0]
                                 ;     283 {
                                 ;     284 	xSemaphoreTake(rspi_semaphore, portMAX_DELAY);
                                 		.LINE  "C:\Workspace\e2studio\git\MT01_master\src\Display\lcd.c",284
00000523 FBE2rrrrrrrr            		MOV.L #_rspi_semaphore, R14
00000529 ECE1                    		MOV.L [R14], R1
0000052B FB36FF                  		MOV.L #0FFFFFFFFH, R3
0000052E 6602                    		MOV.L #00000000H, R2
00000530 EF24                    		MOV.L R2, R4
00000532 05rrrrrr             A  		BSR _xQueueGenericReceive
00000536                         L126:	; entry.split
                                 ;     285 	u8g_prepare(u8g_font_5x8);
                                 		.LINE  "C:\Workspace\e2studio\git\MT01_master\src\Display\lcd.c",285
00000536 FB12rrrrrrrr            		MOV.L #_u8g_font_5x8, R1
0000053C 39rrrr               W  		BSR __$u8g_prepare
0000053F                         L127:	; entry.split1
                                 ;     286 	u8g_FirstPage(&main_u8g);
                                 		.LINE  "C:\Workspace\e2studio\git\MT01_master\src\Display\lcd.c",286
0000053F FB12rrrrrrrr            		MOV.L #__$main_u8g, R1
00000545 05rrrrrr             A  		BSR _u8g_FirstPage
00000549                         L128:	; bb
                                 ;     287 	do{
                                 ;     288 		u8g_DrawXBMP(&main_u8g, x, y, w, h, bitmap);
                                 		.LINE  "C:\Workspace\e2studio\git\MT01_master\src\Display\lcd.c",288
00000549 A809                    		MOV.L 04H[R0], R1
0000054B B205                    		MOVU.B 08H[R0], R5
0000054D B20C                    		MOVU.B 09H[R0], R4
0000054F B283                    		MOVU.B 0AH[R0], R3
00000551 B28A                    		MOVU.B 0BH[R0], R2
00000553 6080                    		SUB #08H, R0
00000555 A009                    		MOV.L R1, 04H[R0]
00000557 C305                    		MOV.B R5, [R0]
00000559 FB12rrrrrrrr            		MOV.L #__$main_u8g, R1
0000055F 05rrrrrr             A  		BSR _u8g_DrawXBMP
00000563 6280                    		ADD #08H, R0
00000565                         L129:	; bb.split
                                 ;     289 		u8g_DrawStr(&main_u8g, x+w-80, y+h+1, str);
                                 		.LINE  "C:\Workspace\e2studio\git\MT01_master\src\Display\lcd.c",289
00000565 B281                    		MOVU.B 0AH[R0], R1
00000567 490108                  		ADD 08H[R0].UB, R1
0000056A B28A                    		MOVU.B 0BH[R0], R2
0000056C 490209                  		ADD 09H[R0].UB, R2
0000056F EC04                    		MOV.L [R0], R4
00000571 6211                    		ADD #01H, R1
00000573 5B13                    		MOVU.B R1, R3
00000575 7122B0                  		ADD #0FFFFFFB0H, R2
00000578 5B22                    		MOVU.B R2, R2
0000057A FB12rrrrrrrr            		MOV.L #__$main_u8g, R1
00000580 05rrrrrr             A  		BSR _u8g_DrawStr
00000584                         L130:	; bb.split2
                                 		.LINE  "C:\Workspace\e2studio\git\MT01_master\src\Display\lcd.c",287
00000584 FB12rrrrrrrr            		MOV.L #__$main_u8g, R1
0000058A 05rrrrrr             A  		BSR _u8g_NextPage
0000058E 6101                    		CMP #00H, R1
00000590 21rr                    		BNE L128
00000592                         L131:	; bb33
                                 ;     290 	} while(u8g_NextPage(&main_u8g));
                                 ;     291 	xSemaphoreGive(rspi_semaphore);
                                 		.LINE  "C:\Workspace\e2studio\git\MT01_master\src\Display\lcd.c",291
00000592 FBE2rrrrrrrr            		MOV.L #_rspi_semaphore, R14
00000598 ECE1                    		MOV.L [R14], R1
0000059A 6602                    		MOV.L #00000000H, R2
0000059C EF23                    		MOV.L R2, R3
0000059E EF24                    		MOV.L R2, R4
000005A0 05rrrrrr             A  		BSR _xQueueGenericSend
000005A4 6703                    		RTSD #0CH
000005A6                         _ut_lcd_output_mov_mode:
                                 		.STACK	_ut_lcd_output_mov_mode=48
                                 ;     292 }
                                 ;     293 
                                 ;     294 #define DEFAULT_MANUAL_TITLE	"MODO MANUAL"
                                 ;     295 #define DEFAULT_AUTO_TITLE		"MODO AUTOMTICO"
                                 ;     296 #define DEFAULT_DESCOLA_TITLE	"RODANDO"
                                 ;     297 #define DEFAULT_AVISO_MANUAL	"ENTER DISPARA/ESC VOLTA"
                                 ;     298 #define DEFAULT_TOCHA			"TOCHA"
                                 ;     299 #define DEFAULT_ACESA			"ACESA"
                                 ;     300 #define DEFAULT_APAGADA			"APAGADA"
                                 ;     301 
                                 ;     302 #define warning_width 25
                                 ;     303 #define warning_height 22
                                 ;     304 static unsigned char warning_bits[] = {
                                 ;     305    0x00, 0x10, 0x00, 0x00, 0x00, 0x38, 0x00, 0x00, 0x00, 0x28, 0x00, 0x00,
                                 ;     306    0x00, 0x6c, 0x00, 0x00, 0x00, 0xc6, 0x00, 0x00, 0x00, 0x82, 0x00, 0x00,
                                 ;     307    0x00, 0xbb, 0x01, 0x00, 0x00, 0x39, 0x01, 0x00, 0x80, 0x39, 0x03, 0x00,
                                 ;     308    0xc0, 0x38, 0x02, 0x00, 0xc0, 0x38, 0x04, 0x00, 0x60, 0x38, 0x0c, 0x00,
                                 ;     309    0x20, 0x38, 0x08, 0x00, 0x30, 0x38, 0x18, 0x00, 0x10, 0x38, 0x10, 0x00,
                                 ;     310    0x18, 0x00, 0x30, 0x00, 0x0c, 0x38, 0x60, 0x00, 0x0c, 0x38, 0x60, 0x00,
                                 ;     311    0x06, 0x38, 0xc0, 0x00, 0x02, 0x00, 0x80, 0x00, 0xff, 0xff, 0xff, 0x01,
                                 ;     312    0xff, 0xff, 0xff, 0x01 };
                                 ;     313 
                                 ;     314 void ut_lcd_output_mov_mode(bool torch, char* title[6],const char* textX,const char* textY,const char* textZ)
                                 		.LINE  "C:\Workspace\e2studio\git\MT01_master\src\Display\lcd.c",314
000005A6 7EA6                    		PUSH.L R6
000005A8 7100E0                  		ADD #0FFFFFFE0H, R0
000005AB 8789                    		MOV.B R1, 1FH[R0]
000005AD A182                    		MOV.L R2, 18H[R0]
000005AF A10B                    		MOV.L R3, 14H[R0]
000005B1 A104                    		MOV.L R4, 10H[R0]
000005B3 E5000A03                		MOV.L 28H[R0], 0CH[R0]
                                 ;     315 {
                                 ;     316 	uint8_t row, x, y;
                                 ;     317 	uint8_t h;
                                 ;     318 	const char* str;
                                 ;     319 //	u8g_prepare(u8g_font_6x10);
                                 ;     320 	xSemaphoreTake(rspi_semaphore, portMAX_DELAY);
                                 		.LINE  "C:\Workspace\e2studio\git\MT01_master\src\Display\lcd.c",320
000005B7 FBE2rrrrrrrr            		MOV.L #_rspi_semaphore, R14
000005BD ECE1                    		MOV.L [R14], R1
000005BF FB36FF                  		MOV.L #0FFFFFFFFH, R3
000005C2 6602                    		MOV.L #00000000H, R2
000005C4 EF24                    		MOV.L R2, R4
000005C6 05rrrrrr             A  		BSR _xQueueGenericReceive
000005CA                         L133:	; entry.split
                                 ;     321 	u8g_FirstPage(&main_u8g);
                                 		.LINE  "C:\Workspace\e2studio\git\MT01_master\src\Display\lcd.c",321
000005CA FB12rrrrrrrr            		MOV.L #__$main_u8g, R1
000005D0 05rrrrrr             A  		BSR _u8g_FirstPage
000005D4                         L134:	; entry.split1
                                 ;     322 	h = u8g_GetFontAscent(&main_u8g) - u8g_GetFontDescent(&main_u8g) + 1;
                                 		.LINE  "C:\Workspace\e2studio\git\MT01_master\src\Display\lcd.c",322
000005D4 FBE2rrrrrrrr            		MOV.L #__$main_u8g, R14
000005DA CDE129                  		MOV.B 29H[R14], R1
000005DD 0601E12A                		SUB 2AH[R14].B, R1
000005E1 6211                    		ADD #01H, R1
000005E3 8189                    		MOV.B R1, 07H[R0]
000005E5                         L135:	; bb
                                 ;     323 	/* Picture loop */
                                 ;     324 	do
                                 ;     325 	{
                                 ;     326 		/* Through all rows */
                                 ;     327 		y = 0;
                                 		.LINE  "C:\Workspace\e2studio\git\MT01_master\src\Display\lcd.c",327
000005E5 3C0600                  		MOV.B #00H, 06H[R0]
000005E8                         L136:	; bb.split
000005E8 75442B                  		MOV.L #0000002BH, R4
000005EB 66B3                    		MOV.L #0000000BH, R3
000005ED 75425A                  		MOV.L #0000005AH, R2
                                 ;     328 		u8g_DrawVLine(&main_u8g, 90, 11, 43);
                                 		.LINE  "C:\Workspace\e2studio\git\MT01_master\src\Display\lcd.c",328
000005F0 FB12rrrrrrrr            		MOV.L #__$main_u8g, R1
000005F6 05rrrrrr             A  		BSR _u8g_DrawVLine
000005FA                         L137:	; bb.split2
                                 ;     329 		u8g_prepare(u8g_font_5x8);
                                 		.LINE  "C:\Workspace\e2studio\git\MT01_master\src\Display\lcd.c",329
000005FA FB12rrrrrrrr            		MOV.L #_u8g_font_5x8, R1
00000600 39rrrr               W  		BSR __$u8g_prepare
00000603                         L138:	; bb.split3
                                 ;     330 		str = DEFAULT_TOCHA;
                                 		.LINE  "C:\Workspace\e2studio\git\MT01_master\src\Display\lcd.c",330
00000603 FB12rrrrrrrr            		MOV.L #_L13, R1
00000609 A081                    		MOV.L R1, 08H[R0]
0000060B                         L139:	; bb.split4
                                 ;     331 		u8g_DrawStr(&main_u8g, 95, 38, str);
                                 		.LINE  "C:\Workspace\e2studio\git\MT01_master\src\Display\lcd.c",331
0000060B A884                    		MOV.L 08H[R0], R4
0000060D 754326                  		MOV.L #00000026H, R3
00000610 75425F                  		MOV.L #0000005FH, R2
00000613 FB12rrrrrrrr            		MOV.L #__$main_u8g, R1
00000619 05rrrrrr             A  		BSR _u8g_DrawStr
0000061D                         L140:	; bb.split5
                                 ;     332 		if(!torch)
                                 		.LINE  "C:\Workspace\e2studio\git\MT01_master\src\Display\lcd.c",332
0000061D B789                    		MOVU.B 1FH[R0], R1
0000061F 6101                    		CMP #00H, R1
00000621 21rr                    		BNE L147
00000623 2Err                 B  		BRA L148
00000625                         L141:	; bb22
                                 ;     333 		{
                                 ;     334 			str = DEFAULT_ACESA;
                                 		.LINE  "C:\Workspace\e2studio\git\MT01_master\src\Display\lcd.c",334
00000625 FB12rrrrrrrr            		MOV.L #_L14, R1
0000062B A081                    		MOV.L R1, 08H[R0]
0000062D                         L142:	; bb22.split
0000062D 6080                    		SUB #08H, R0
                                 ;     335 			u8g_DrawXBMP(&main_u8g, 94, 13, warning_width, warning_height, warning_bits);
                                 		.LINE  "C:\Workspace\e2studio\git\MT01_master\src\Display\lcd.c",335
0000062F FB12rrrrrrrr            		MOV.L #__$warning_bits, R1
00000635 A009                    		MOV.L R1, 04H[R0]
00000637 F80416                  		MOV.B #16H, [R0]
0000063A 754419                  		MOV.L #00000019H, R4
0000063D 66D3                    		MOV.L #0000000DH, R3
0000063F 75425E                  		MOV.L #0000005EH, R2
00000642 FB12rrrrrrrr            		MOV.L #__$main_u8g, R1
00000648 05rrrrrr             A  		BSR _u8g_DrawXBMP
0000064C 6280                    		ADD #08H, R0
0000064E                         L143:	; bb22.split6
                                 ;     336 			u8g_DrawStr(&main_u8g, 95, 46, str);
                                 		.LINE  "C:\Workspace\e2studio\git\MT01_master\src\Display\lcd.c",336
0000064E A884                    		MOV.L 08H[R0], R4
00000650 75432E                  		MOV.L #0000002EH, R3
00000653 75425F                  		MOV.L #0000005FH, R2
00000656 FB12rrrrrrrr            		MOV.L #__$main_u8g, R1
0000065C 05rrrrrr             A  		BSR _u8g_DrawStr
00000660                         L144:	; bb22.split7
                                 ;     337 			u8g_DrawStr(&main_u8g, 112, 12, title[3]);
                                 		.LINE  "C:\Workspace\e2studio\git\MT01_master\src\Display\lcd.c",337
00000660 A981                    		MOV.L 18H[R0], R1
00000662 A89C                    		MOV.L 0CH[R1], R4
00000664 66C3                    		MOV.L #0000000CH, R3
00000666 754270                  		MOV.L #00000070H, R2
00000669 FB12rrrrrrrr            		MOV.L #__$main_u8g, R1
0000066F 05rrrrrr             A  		BSR _u8g_DrawStr
00000673 2Err                 B  		BRA L150
00000675                         L145:	; bb29
                                 ;     338 		}
                                 ;     339 		else
                                 ;     340 		{
                                 ;     341 			str = DEFAULT_APAGADA;
                                 		.LINE  "C:\Workspace\e2studio\git\MT01_master\src\Display\lcd.c",341
00000675 FB12rrrrrrrr            		MOV.L #_L15, R1
0000067B A081                    		MOV.L R1, 08H[R0]
0000067D                         L146:	; bb29.split
                                 ;     342 			u8g_DrawStr(&main_u8g, 92, 46, str);
                                 		.LINE  "C:\Workspace\e2studio\git\MT01_master\src\Display\lcd.c",342
0000067D A884                    		MOV.L 08H[R0], R4
0000067F 75432E                  		MOV.L #0000002EH, R3
00000682 75425C                  		MOV.L #0000005CH, R2
00000685 FB12rrrrrrrr            		MOV.L #__$main_u8g, R1
0000068B 05rrrrrr             A  		BSR _u8g_DrawStr
0000068F 2Err                 B  		BRA L150
00000691                         L147:	; bb36
00000691 F80600                  		MOV.L #00000000H, [R0]
00000694 08                   S  		BRA L149
00000695                         L148:	; bb37
00000695 F80601                  		MOV.L #00000001H, [R0]
00000698                         L149:	; bb38
00000698 EC01                    		MOV.L [R0], R1
0000069A 6101                    		CMP #00H, R1
0000069C 21rr                    		BNE L141
0000069E 2Err                 B  		BRA L145
000006A0                         L150:	; bb41
                                 ;     343 		}
                                 ;     344 
                                 ;     345 		for(row = 0; row < MAX_ROW+1; row++)
                                 		.LINE  "C:\Workspace\e2studio\git\MT01_master\src\Display\lcd.c",345
000006A0 3C0400                  		MOV.B #00H, 04H[R0]
000006A3 38rrrr               W  		BRA L191
000006A6                         L151:	; bb42
                                 ;     346 		{
                                 ;     347 			x = 0;
                                 		.LINE  "C:\Workspace\e2studio\git\MT01_master\src\Display\lcd.c",347
000006A6 3C0500                  		MOV.B #00H, 05H[R0]
000006A9                         L152:	; bb42.split
                                 ;     348 			switch(row)
                                 		.LINE  "C:\Workspace\e2studio\git\MT01_master\src\Display\lcd.c",348
000006A9 B101                    		MOVU.B 04H[R0], R1
000006AB 6161                    		CMP #06H, R1
000006AD 3Arrrr               W  		BEQ L169
000006B0                         L153:	; bb42.split
000006B0 6111                    		CMP #01H, R1
000006B2 20rr                    		BEQ L163
000006B4                         L154:	; bb42.split
000006B4 6121                    		CMP #02H, R1
000006B6 3Arrrr               W  		BEQ L173
000006B9                         L155:	; bb42.split
000006B9 6131                    		CMP #03H, R1
000006BB 3Arrrr               W  		BEQ L179
000006BE                         L156:	; bb42.split
000006BE 6141                    		CMP #04H, R1
000006C0 3Arrrr               W  		BEQ L184
000006C3                         L157:	; bb42.split
000006C3 6151                    		CMP #05H, R1
000006C5 20rr                    		BEQ L166
000006C7                         L158:	; bb42.split
000006C7 6101                    		CMP #00H, R1
000006C9 3Brrrr               W  		BNE L189
000006CC                         L159:	; bb45
                                 ;     349 			{
                                 ;     350 				case 0: str = title[0];
                                 		.LINE  "C:\Workspace\e2studio\git\MT01_master\src\Display\lcd.c",350
000006CC A981                    		MOV.L 18H[R0], R1
000006CE E41002                  		MOV.L [R1], 08H[R0]
000006D1                         L160:	; bb45.split
                                 ;     351 						u8g_prepare(u8g_font_helvB08);
                                 		.LINE  "C:\Workspace\e2studio\git\MT01_master\src\Display\lcd.c",351
000006D1 FB12rrrrrrrr            		MOV.L #_u8g_font_helvB08, R1
000006D7 39rrrr               W  		BSR __$u8g_prepare
000006DA                         L161:	; bb45.split8
                                 ;     352 						h = u8g_GetFontAscent(&main_u8g) - u8g_GetFontDescent(&main_u8g) + 1;
                                 		.LINE  "C:\Workspace\e2studio\git\MT01_master\src\Display\lcd.c",352
000006DA FBE2rrrrrrrr            		MOV.L #__$main_u8g, R14
000006E0 CDE129                  		MOV.B 29H[R14], R1
000006E3 0601E12A                		SUB 2AH[R14].B, R1
000006E7 6211                    		ADD #01H, R1
000006E9 8189                    		MOV.B R1, 07H[R0]
000006EB                         L162:	; bb45.split9
                                 ;     353 						u8g_DrawHLine(&main_u8g, x, h-1, 128);
                                 		.LINE  "C:\Workspace\e2studio\git\MT01_master\src\Display\lcd.c",353
000006EB B189                    		MOVU.B 07H[R0], R1
000006ED B10A                    		MOVU.B 05H[R0], R2
000006EF 6011                    		SUB #01H, R1
000006F1 5B13                    		MOVU.B R1, R3
000006F3 754480                  		MOV.L #00000080H, R4
000006F6 FB12rrrrrrrr            		MOV.L #__$main_u8g, R1
000006FC 05rrrrrr             A  		BSR _u8g_DrawHLine
00000700 38rrrr               W  		BRA L189
00000703                         L163:	; bb61
                                 ;     354 						break;
                                 ;     355 				case 1: str = title[2];
                                 		.LINE  "C:\Workspace\e2studio\git\MT01_master\src\Display\lcd.c",355
00000703 A981                    		MOV.L 18H[R0], R1
00000705 E5100202                		MOV.L 08H[R1], 08H[R0]
00000709                         L164:	; bb61.split
                                 ;     356 						u8g_prepare(u8g_font_5x8);
                                 		.LINE  "C:\Workspace\e2studio\git\MT01_master\src\Display\lcd.c",356
00000709 FB12rrrrrrrr            		MOV.L #_u8g_font_5x8, R1
0000070F 39rrrr               W  		BSR __$u8g_prepare
00000712                         L165:	; bb61.split10
                                 ;     357 						h = u8g_GetFontAscent(&main_u8g) - u8g_GetFontDescent(&main_u8g) + 3;
                                 		.LINE  "C:\Workspace\e2studio\git\MT01_master\src\Display\lcd.c",357
00000712 FBE2rrrrrrrr            		MOV.L #__$main_u8g, R14
00000718 CDE129                  		MOV.B 29H[R14], R1
0000071B 0601E12A                		SUB 2AH[R14].B, R1
0000071F 6231                    		ADD #03H, R1
00000721 8189                    		MOV.B R1, 07H[R0]
00000723 38rrrr               W  		BRA L189
00000726                         L166:	; bb72
                                 ;     358 						break;
                                 ;     359 				case 5: str = "";
                                 		.LINE  "C:\Workspace\e2studio\git\MT01_master\src\Display\lcd.c",359
00000726 FB12rrrrrrrr            		MOV.L #_L16, R1
0000072C A081                    		MOV.L R1, 08H[R0]
0000072E                         L167:	; bb72.split
                                 ;     360 						u8g_prepare(u8g_font_5x8);
                                 		.LINE  "C:\Workspace\e2studio\git\MT01_master\src\Display\lcd.c",360
0000072E FB12rrrrrrrr            		MOV.L #_u8g_font_5x8, R1
00000734 39rrrr               W  		BSR __$u8g_prepare
00000737                         L168:	; bb72.split11
                                 ;     361 						h = u8g_GetFontAscent(&main_u8g) - u8g_GetFontDescent(&main_u8g) -1;
                                 		.LINE  "C:\Workspace\e2studio\git\MT01_master\src\Display\lcd.c",361
00000737 FBE2rrrrrrrr            		MOV.L #__$main_u8g, R14
0000073D CDE129                  		MOV.B 29H[R14], R1
00000740 0601E12A                		SUB 2AH[R14].B, R1
00000744 6011                    		SUB #01H, R1
00000746 8189                    		MOV.B R1, 07H[R0]
00000748 38rrrr               W  		BRA L189
0000074B                         L169:	; bb80
                                 ;     362 						break;
                                 ;     363 				case 6: str = title[1];
                                 		.LINE  "C:\Workspace\e2studio\git\MT01_master\src\Display\lcd.c",363
0000074B A981                    		MOV.L 18H[R0], R1
0000074D E5100102                		MOV.L 04H[R1], 08H[R0]
00000751                         L170:	; bb80.split
                                 ;     364 						u8g_prepare(u8g_font_5x8);
                                 		.LINE  "C:\Workspace\e2studio\git\MT01_master\src\Display\lcd.c",364
00000751 FB12rrrrrrrr            		MOV.L #_u8g_font_5x8, R1
00000757 39rrrr               W  		BSR __$u8g_prepare
0000075A                         L171:	; bb80.split12
                                 ;     365 						u8g_DrawStr(&main_u8g, (u8g_GetStrWidth(&main_u8g,str) + 25), y, title[4]);
                                 		.LINE  "C:\Workspace\e2studio\git\MT01_master\src\Display\lcd.c",365
0000075A A882                    		MOV.L 08H[R0], R2
0000075C FB62rrrrrrrr            		MOV.L #__$main_u8g, R6
00000762 EF61                    		MOV.L R6, R1
00000764 05rrrrrr             A  		BSR _u8g_GetStrWidth
00000768 A982                    		MOV.L 18H[R0], R2
0000076A A924                    		MOV.L 10H[R2], R4
0000076C B183                    		MOVU.B 06H[R0], R3
0000076E 711119                  		ADD #19H, R1
00000771 5B12                    		MOVU.B R1, R2
00000773 EF61                    		MOV.L R6, R1
00000775 05rrrrrr             A  		BSR _u8g_DrawStr
00000779                         L172:	; bb80.split13
                                 ;     366 						u8g_DrawHLine(&main_u8g, x, y-1, 128);
                                 		.LINE  "C:\Workspace\e2studio\git\MT01_master\src\Display\lcd.c",366
00000779 B181                    		MOVU.B 06H[R0], R1
0000077B B10A                    		MOVU.B 05H[R0], R2
0000077D 6011                    		SUB #01H, R1
0000077F 5B13                    		MOVU.B R1, R3
00000781 754480                  		MOV.L #00000080H, R4
00000784 FB12rrrrrrrr            		MOV.L #__$main_u8g, R1
0000078A 05rrrrrr             A  		BSR _u8g_DrawHLine
0000078E 38rrrr               W  		BRA L189
00000791                         L173:	; bb99
                                 ;     367 						break;
                                 ;     368 				case 2: u8g_prepare(u8g_font_helvB08);
                                 		.LINE  "C:\Workspace\e2studio\git\MT01_master\src\Display\lcd.c",368
00000791 FB12rrrrrrrr            		MOV.L #_u8g_font_helvB08, R1
00000797 39rrrr               W  		BSR __$u8g_prepare
0000079A                         L174:	; bb99.split
                                 ;     369 						u8g_DrawStr(&main_u8g, x, y, "X:");
                                 		.LINE  "C:\Workspace\e2studio\git\MT01_master\src\Display\lcd.c",369
0000079A B183                    		MOVU.B 06H[R0], R3
0000079C B10A                    		MOVU.B 05H[R0], R2
0000079E FB42rrrrrrrr            		MOV.L #_L17, R4
000007A4 FB12rrrrrrrr            		MOV.L #__$main_u8g, R1
000007AA 05rrrrrr             A  		BSR _u8g_DrawStr
000007AE                         L175:	; bb99.split14
                                 ;     370 						str = textX;
                                 		.LINE  "C:\Workspace\e2studio\git\MT01_master\src\Display\lcd.c",370
000007AE E5000502                		MOV.L 14H[R0], 08H[R0]
000007B2                         L176:	; bb99.split15
                                 ;     371 						x = 12;
                                 		.LINE  "C:\Workspace\e2studio\git\MT01_master\src\Display\lcd.c",371
000007B2 3C050C                  		MOV.B #0CH, 05H[R0]
000007B5                         L177:	; bb99.split16
                                 ;     372 						u8g_prepare(u8g_font_6x10);
                                 		.LINE  "C:\Workspace\e2studio\git\MT01_master\src\Display\lcd.c",372
000007B5 FB12rrrrrrrr            		MOV.L #_u8g_font_6x10, R1
000007BB 39rrrr               W  		BSR __$u8g_prepare
000007BE                         L178:	; bb99.split17
                                 ;     373 						h = u8g_GetFontAscent(&main_u8g) - u8g_GetFontDescent(&main_u8g) + 1;
                                 		.LINE  "C:\Workspace\e2studio\git\MT01_master\src\Display\lcd.c",373
000007BE FBE2rrrrrrrr            		MOV.L #__$main_u8g, R14
000007C4 CDE129                  		MOV.B 29H[R14], R1
000007C7 0601E12A                		SUB 2AH[R14].B, R1
000007CB 6211                    		ADD #01H, R1
000007CD 8189                    		MOV.B R1, 07H[R0]
000007CF 2Err                 B  		BRA L189
000007D1                         L179:	; bb111
                                 ;     374 						break;
                                 ;     375 				case 3: u8g_prepare(u8g_font_helvB08);
                                 		.LINE  "C:\Workspace\e2studio\git\MT01_master\src\Display\lcd.c",375
000007D1 FB12rrrrrrrr            		MOV.L #_u8g_font_helvB08, R1
000007D7 39rrrr               W  		BSR __$u8g_prepare
000007DA                         L180:	; bb111.split
                                 ;     376 						u8g_DrawStr(&main_u8g, x, y, "Y:");
                                 		.LINE  "C:\Workspace\e2studio\git\MT01_master\src\Display\lcd.c",376
000007DA B183                    		MOVU.B 06H[R0], R3
000007DC B10A                    		MOVU.B 05H[R0], R2
000007DE FB42rrrrrrrr            		MOV.L #_L18, R4
000007E4 FB12rrrrrrrr            		MOV.L #__$main_u8g, R1
000007EA 05rrrrrr             A  		BSR _u8g_DrawStr
000007EE                         L181:	; bb111.split18
                                 ;     377 						u8g_prepare(u8g_font_6x10);
                                 		.LINE  "C:\Workspace\e2studio\git\MT01_master\src\Display\lcd.c",377
000007EE FB12rrrrrrrr            		MOV.L #_u8g_font_6x10, R1
000007F4 39rrrr               W  		BSR __$u8g_prepare
000007F7                         L182:	; bb111.split19
                                 ;     378 						str = textY;
                                 		.LINE  "C:\Workspace\e2studio\git\MT01_master\src\Display\lcd.c",378
000007F7 E5000402                		MOV.L 10H[R0], 08H[R0]
000007FB                         L183:	; bb111.split20
                                 ;     379 						x = 12;
                                 		.LINE  "C:\Workspace\e2studio\git\MT01_master\src\Display\lcd.c",379
000007FB 3C050C                  		MOV.B #0CH, 05H[R0]
000007FE 2Err                 B  		BRA L189
00000800                         L184:	; bb116
                                 ;     380 						break;
                                 ;     381 				case 4: u8g_prepare(u8g_font_helvB08);
                                 		.LINE  "C:\Workspace\e2studio\git\MT01_master\src\Display\lcd.c",381
00000800 FB12rrrrrrrr            		MOV.L #_u8g_font_helvB08, R1
00000806 39rrrr               W  		BSR __$u8g_prepare
00000809                         L185:	; bb116.split
                                 ;     382 						u8g_DrawStr(&main_u8g, x, y, "Z:");
                                 		.LINE  "C:\Workspace\e2studio\git\MT01_master\src\Display\lcd.c",382
00000809 B183                    		MOVU.B 06H[R0], R3
0000080B B10A                    		MOVU.B 05H[R0], R2
0000080D FB42rrrrrrrr            		MOV.L #_L19, R4
00000813 FB12rrrrrrrr            		MOV.L #__$main_u8g, R1
00000819 05rrrrrr             A  		BSR _u8g_DrawStr
0000081D                         L186:	; bb116.split21
                                 ;     383 						u8g_prepare(u8g_font_6x10);
                                 		.LINE  "C:\Workspace\e2studio\git\MT01_master\src\Display\lcd.c",383
0000081D FB12rrrrrrrr            		MOV.L #_u8g_font_6x10, R1
00000823 39rrrr               W  		BSR __$u8g_prepare
00000826                         L187:	; bb116.split22
                                 ;     384 						str = textZ;
                                 		.LINE  "C:\Workspace\e2studio\git\MT01_master\src\Display\lcd.c",384
00000826 E5000302                		MOV.L 0CH[R0], 08H[R0]
0000082A                         L188:	; bb116.split23
                                 ;     385 						x = 12;
                                 		.LINE  "C:\Workspace\e2studio\git\MT01_master\src\Display\lcd.c",385
0000082A 3C050C                  		MOV.B #0CH, 05H[R0]
0000082D                         L189:	; bb121
                                 ;     386 						break;
                                 ;     387 			}
                                 ;     388 				/* Draw glyph */
                                 ;     389 			u8g_DrawStr(&main_u8g, x, y, str);
                                 		.LINE  "C:\Workspace\e2studio\git\MT01_master\src\Display\lcd.c",389
0000082D A884                    		MOV.L 08H[R0], R4
0000082F B183                    		MOVU.B 06H[R0], R3
00000831 B10A                    		MOVU.B 05H[R0], R2
00000833 FB12rrrrrrrr            		MOV.L #__$main_u8g, R1
00000839 05rrrrrr             A  		BSR _u8g_DrawStr
0000083D                         L190:	; bb121.split
                                 ;     390 
                                 ;     391 			/* Next position */
                                 ;     392 			y += h;
                                 		.LINE  "C:\Workspace\e2studio\git\MT01_master\src\Display\lcd.c",392
0000083D B181                    		MOVU.B 06H[R0], R1
0000083F 490107                  		ADD 07H[R0].UB, R1
00000842 8181                    		MOV.B R1, 06H[R0]
00000844 B101                    		MOVU.B 04H[R0], R1
00000846 6211                    		ADD #01H, R1
00000848 8101                    		MOV.B R1, 04H[R0]
0000084A                         L191:	; bb134
                                 		.LINE  "C:\Workspace\e2studio\git\MT01_master\src\Display\lcd.c",345
0000084A B101                    		MOVU.B 04H[R0], R1
0000084C 6171                    		CMP #07H, R1
0000084E 28rr                  * 		BLT L151
         38rrrr                  
00000853                         L192:	; bb140
                                 		.LINE  "C:\Workspace\e2studio\git\MT01_master\src\Display\lcd.c",324
00000853 FB12rrrrrrrr            		MOV.L #__$main_u8g, R1
00000859 05rrrrrr             A  		BSR _u8g_NextPage
0000085D 6101                    		CMP #00H, R1
0000085F 3Brrrr               W  		BNE L135
00000862                         L193:	; bb146
                                 ;     393 		}
                                 ;     394 
                                 ;     395 	} while(u8g_NextPage(&main_u8g));
                                 ;     396 	xSemaphoreGive(rspi_semaphore);
                                 		.LINE  "C:\Workspace\e2studio\git\MT01_master\src\Display\lcd.c",396
00000862 FBE2rrrrrrrr            		MOV.L #_rspi_semaphore, R14
00000868 ECE1                    		MOV.L [R14], R1
0000086A 6602                    		MOV.L #00000000H, R2
0000086C EF23                    		MOV.L R2, R3
0000086E EF24                    		MOV.L R2, R4
00000870 05rrrrrr             A  		BSR _xQueueGenericSend
00000874 3F6609                  		RTSD #24H, R6-R6
00000877                         _ut_lcd_output_plasma_mode:
                                 		.STACK	_ut_lcd_output_plasma_mode=48
                                 ;     397 }
                                 ;     398 
                                 ;     399 void ut_lcd_output_plasma_mode(bool torch, char* title[7],const char* textX,const char* textY,const char* textZ)
                                 		.LINE  "C:\Workspace\e2studio\git\MT01_master\src\Display\lcd.c",399
00000877 7EA6                    		PUSH.L R6
00000879 7100E0                  		ADD #0FFFFFFE0H, R0
0000087C 8789                    		MOV.B R1, 1FH[R0]
0000087E A182                    		MOV.L R2, 18H[R0]
00000880 A10B                    		MOV.L R3, 14H[R0]
00000882 A104                    		MOV.L R4, 10H[R0]
00000884 E5000A03                		MOV.L 28H[R0], 0CH[R0]
                                 ;     400 {
                                 ;     401 	uint8_t row, x, y;
                                 ;     402 	uint8_t h;
                                 ;     403 	const char* str;
                                 ;     404 //	u8g_prepare(u8g_font_6x10);
                                 ;     405 	xSemaphoreTake(rspi_semaphore, portMAX_DELAY);
                                 		.LINE  "C:\Workspace\e2studio\git\MT01_master\src\Display\lcd.c",405
00000888 FBE2rrrrrrrr            		MOV.L #_rspi_semaphore, R14
0000088E ECE1                    		MOV.L [R14], R1
00000890 FB36FF                  		MOV.L #0FFFFFFFFH, R3
00000893 6602                    		MOV.L #00000000H, R2
00000895 EF24                    		MOV.L R2, R4
00000897 05rrrrrr             A  		BSR _xQueueGenericReceive
0000089B                         L195:	; entry.split
                                 ;     406 	u8g_FirstPage(&main_u8g);
                                 		.LINE  "C:\Workspace\e2studio\git\MT01_master\src\Display\lcd.c",406
0000089B FB12rrrrrrrr            		MOV.L #__$main_u8g, R1
000008A1 05rrrrrr             A  		BSR _u8g_FirstPage
000008A5                         L196:	; entry.split1
                                 ;     407 	h = u8g_GetFontAscent(&main_u8g) - u8g_GetFontDescent(&main_u8g) + 1;
                                 		.LINE  "C:\Workspace\e2studio\git\MT01_master\src\Display\lcd.c",407
000008A5 FBE2rrrrrrrr            		MOV.L #__$main_u8g, R14
000008AB CDE129                  		MOV.B 29H[R14], R1
000008AE 0601E12A                		SUB 2AH[R14].B, R1
000008B2 6211                    		ADD #01H, R1
000008B4 8189                    		MOV.B R1, 07H[R0]
000008B6                         L197:	; bb
                                 ;     408 	/* Picture loop */
                                 ;     409 	do
                                 ;     410 	{
                                 ;     411 		/* Through all rows */
                                 ;     412 		y = 0;
                                 		.LINE  "C:\Workspace\e2studio\git\MT01_master\src\Display\lcd.c",412
000008B6 3C0600                  		MOV.B #00H, 06H[R0]
000008B9                         L198:	; bb.split
000008B9 754426                  		MOV.L #00000026H, R4
000008BC 66B3                    		MOV.L #0000000BH, R3
000008BE 75425A                  		MOV.L #0000005AH, R2
                                 ;     413 		u8g_DrawVLine(&main_u8g, 90, 11, 38);
                                 		.LINE  "C:\Workspace\e2studio\git\MT01_master\src\Display\lcd.c",413
000008C1 FB12rrrrrrrr            		MOV.L #__$main_u8g, R1
000008C7 05rrrrrr             A  		BSR _u8g_DrawVLine
000008CB                         L199:	; bb.split2
                                 ;     414 //		u8g_DrawHLine(&main_u8g, 0, 11+45, 128);
                                 ;     415 		u8g_prepare(u8g_font_4x6r);
                                 		.LINE  "C:\Workspace\e2studio\git\MT01_master\src\Display\lcd.c",415
000008CB FB12rrrrrrrr            		MOV.L #_u8g_font_4x6r, R1
000008D1 39rrrr               W  		BSR __$u8g_prepare
000008D4                         L200:	; bb.split3
                                 ;     416 		str = DEFAULT_TOCHA;
                                 		.LINE  "C:\Workspace\e2studio\git\MT01_master\src\Display\lcd.c",416
000008D4 FB12rrrrrrrr            		MOV.L #_L13, R1
000008DA A081                    		MOV.L R1, 08H[R0]
000008DC                         L201:	; bb.split4
                                 ;     417 		u8g_DrawStr(&main_u8g, 95, 35, str);
                                 		.LINE  "C:\Workspace\e2studio\git\MT01_master\src\Display\lcd.c",417
000008DC A884                    		MOV.L 08H[R0], R4
000008DE 754323                  		MOV.L #00000023H, R3
000008E1 75425F                  		MOV.L #0000005FH, R2
000008E4 FB12rrrrrrrr            		MOV.L #__$main_u8g, R1
000008EA 05rrrrrr             A  		BSR _u8g_DrawStr
000008EE                         L202:	; bb.split5
                                 ;     418 		u8g_DrawStr(&main_u8g, 92, 12, title[6]);
                                 		.LINE  "C:\Workspace\e2studio\git\MT01_master\src\Display\lcd.c",418
000008EE A981                    		MOV.L 18H[R0], R1
000008F0 A994                    		MOV.L 18H[R1], R4
000008F2 66C3                    		MOV.L #0000000CH, R3
000008F4 75425C                  		MOV.L #0000005CH, R2
000008F7 FB12rrrrrrrr            		MOV.L #__$main_u8g, R1
000008FD 05rrrrrr             A  		BSR _u8g_DrawStr
00000901                         L203:	; bb.split6
                                 ;     419 		if(!torch)
                                 		.LINE  "C:\Workspace\e2studio\git\MT01_master\src\Display\lcd.c",419
00000901 B789                    		MOVU.B 1FH[R0], R1
00000903 6101                    		CMP #00H, R1
00000905 21rr                    		BNE L210
00000907 2Err                 B  		BRA L211
00000909                         L204:	; bb26
                                 ;     420 		{
                                 ;     421 			str = DEFAULT_ACESA;
                                 		.LINE  "C:\Workspace\e2studio\git\MT01_master\src\Display\lcd.c",421
00000909 FB12rrrrrrrr            		MOV.L #_L14, R1
0000090F A081                    		MOV.L R1, 08H[R0]
00000911                         L205:	; bb26.split
00000911 6080                    		SUB #08H, R0
                                 ;     422 			u8g_DrawXBMP(&main_u8g, 94, 13, warning_width, warning_height, warning_bits);
                                 		.LINE  "C:\Workspace\e2studio\git\MT01_master\src\Display\lcd.c",422
00000913 FB12rrrrrrrr            		MOV.L #__$warning_bits, R1
00000919 A009                    		MOV.L R1, 04H[R0]
0000091B F80416                  		MOV.B #16H, [R0]
0000091E 754419                  		MOV.L #00000019H, R4
00000921 66D3                    		MOV.L #0000000DH, R3
00000923 75425E                  		MOV.L #0000005EH, R2
00000926 FB12rrrrrrrr            		MOV.L #__$main_u8g, R1
0000092C 05rrrrrr             A  		BSR _u8g_DrawXBMP
00000930 6280                    		ADD #08H, R0
00000932                         L206:	; bb26.split7
                                 ;     423 			u8g_DrawStr(&main_u8g, 95, 42, str);
                                 		.LINE  "C:\Workspace\e2studio\git\MT01_master\src\Display\lcd.c",423
00000932 A884                    		MOV.L 08H[R0], R4
00000934 75432A                  		MOV.L #0000002AH, R3
00000937 75425F                  		MOV.L #0000005FH, R2
0000093A FB12rrrrrrrr            		MOV.L #__$main_u8g, R1
00000940 05rrrrrr             A  		BSR _u8g_DrawStr
00000944                         L207:	; bb26.split8
                                 ;     424 			u8g_DrawStr(&main_u8g, 112, 12, title[3]);
                                 		.LINE  "C:\Workspace\e2studio\git\MT01_master\src\Display\lcd.c",424
00000944 A981                    		MOV.L 18H[R0], R1
00000946 A89C                    		MOV.L 0CH[R1], R4
00000948 66C3                    		MOV.L #0000000CH, R3
0000094A 754270                  		MOV.L #00000070H, R2
0000094D FB12rrrrrrrr            		MOV.L #__$main_u8g, R1
00000953 05rrrrrr             A  		BSR _u8g_DrawStr
00000957 2Err                 B  		BRA L213
00000959                         L208:	; bb33
                                 ;     425 		}
                                 ;     426 		else
                                 ;     427 		{
                                 ;     428 			str = DEFAULT_APAGADA;
                                 		.LINE  "C:\Workspace\e2studio\git\MT01_master\src\Display\lcd.c",428
00000959 FB12rrrrrrrr            		MOV.L #_L15, R1
0000095F A081                    		MOV.L R1, 08H[R0]
00000961                         L209:	; bb33.split
                                 ;     429 			u8g_DrawStr(&main_u8g, 92, 42, str);
                                 		.LINE  "C:\Workspace\e2studio\git\MT01_master\src\Display\lcd.c",429
00000961 A884                    		MOV.L 08H[R0], R4
00000963 75432A                  		MOV.L #0000002AH, R3
00000966 75425C                  		MOV.L #0000005CH, R2
00000969 FB12rrrrrrrr            		MOV.L #__$main_u8g, R1
0000096F 05rrrrrr             A  		BSR _u8g_DrawStr
00000973 2Err                 B  		BRA L213
00000975                         L210:	; bb40
00000975 F80600                  		MOV.L #00000000H, [R0]
00000978 08                   S  		BRA L212
00000979                         L211:	; bb41
00000979 F80601                  		MOV.L #00000001H, [R0]
0000097C                         L212:	; bb42
0000097C EC01                    		MOV.L [R0], R1
0000097E 6101                    		CMP #00H, R1
00000980 21rr                    		BNE L204
00000982 2Err                 B  		BRA L208
00000984                         L213:	; bb45
                                 ;     430 		}
                                 ;     431 		for(row = 0; row < MAX_ROW+1; row++)
                                 		.LINE  "C:\Workspace\e2studio\git\MT01_master\src\Display\lcd.c",431
00000984 3C0400                  		MOV.B #00H, 04H[R0]
00000987 38rrrr               W  		BRA L257
0000098A                         L214:	; bb46
                                 ;     432 		{
                                 ;     433 			x = 0;
                                 		.LINE  "C:\Workspace\e2studio\git\MT01_master\src\Display\lcd.c",433
0000098A 3C0500                  		MOV.B #00H, 05H[R0]
0000098D                         L215:	; bb46.split
                                 ;     434 			switch(row)
                                 		.LINE  "C:\Workspace\e2studio\git\MT01_master\src\Display\lcd.c",434
0000098D B101                    		MOVU.B 04H[R0], R1
0000098F 6161                    		CMP #06H, R1
00000991 3Arrrr               W  		BEQ L232
00000994                         L216:	; bb46.split
00000994 6111                    		CMP #01H, R1
00000996 20rr                    		BEQ L226
00000998                         L217:	; bb46.split
00000998 6121                    		CMP #02H, R1
0000099A 3Arrrr               W  		BEQ L239
0000099D                         L218:	; bb46.split
0000099D 6131                    		CMP #03H, R1
0000099F 3Arrrr               W  		BEQ L245
000009A2                         L219:	; bb46.split
000009A2 6141                    		CMP #04H, R1
000009A4 3Arrrr               W  		BEQ L250
000009A7                         L220:	; bb46.split
000009A7 6151                    		CMP #05H, R1
000009A9 20rr                    		BEQ L229
000009AB                         L221:	; bb46.split
000009AB 6101                    		CMP #00H, R1
000009AD 3Brrrr               W  		BNE L255
000009B0                         L222:	; bb49
                                 ;     435 			{
                                 ;     436 				case 0: str = title[0];
                                 		.LINE  "C:\Workspace\e2studio\git\MT01_master\src\Display\lcd.c",436
000009B0 A981                    		MOV.L 18H[R0], R1
000009B2 E41002                  		MOV.L [R1], 08H[R0]
000009B5                         L223:	; bb49.split
                                 ;     437 						u8g_prepare(u8g_font_helvB08);
                                 		.LINE  "C:\Workspace\e2studio\git\MT01_master\src\Display\lcd.c",437
000009B5 FB12rrrrrrrr            		MOV.L #_u8g_font_helvB08, R1
000009BB 39rrrr               W  		BSR __$u8g_prepare
000009BE                         L224:	; bb49.split9
                                 ;     438 						h = u8g_GetFontAscent(&main_u8g) - u8g_GetFontDescent(&main_u8g) + 1;
                                 		.LINE  "C:\Workspace\e2studio\git\MT01_master\src\Display\lcd.c",438
000009BE FBE2rrrrrrrr            		MOV.L #__$main_u8g, R14
000009C4 CDE129                  		MOV.B 29H[R14], R1
000009C7 0601E12A                		SUB 2AH[R14].B, R1
000009CB 6211                    		ADD #01H, R1
000009CD 8189                    		MOV.B R1, 07H[R0]
000009CF                         L225:	; bb49.split10
                                 ;     439 						u8g_DrawHLine(&main_u8g, x, h-1, 128);
                                 		.LINE  "C:\Workspace\e2studio\git\MT01_master\src\Display\lcd.c",439
000009CF B189                    		MOVU.B 07H[R0], R1
000009D1 B10A                    		MOVU.B 05H[R0], R2
000009D3 6011                    		SUB #01H, R1
000009D5 5B13                    		MOVU.B R1, R3
000009D7 754480                  		MOV.L #00000080H, R4
000009DA FB12rrrrrrrr            		MOV.L #__$main_u8g, R1
000009E0 05rrrrrr             A  		BSR _u8g_DrawHLine
000009E4 38rrrr               W  		BRA L255
000009E7                         L226:	; bb65
                                 ;     440 						break;
                                 ;     441 				case 1: str = title[2];
                                 		.LINE  "C:\Workspace\e2studio\git\MT01_master\src\Display\lcd.c",441
000009E7 A981                    		MOV.L 18H[R0], R1
000009E9 E5100202                		MOV.L 08H[R1], 08H[R0]
000009ED                         L227:	; bb65.split
                                 ;     442 						u8g_prepare(u8g_font_5x8);
                                 		.LINE  "C:\Workspace\e2studio\git\MT01_master\src\Display\lcd.c",442
000009ED FB12rrrrrrrr            		MOV.L #_u8g_font_5x8, R1
000009F3 39rrrr               W  		BSR __$u8g_prepare
000009F6                         L228:	; bb65.split11
                                 ;     443 						h = u8g_GetFontAscent(&main_u8g) - u8g_GetFontDescent(&main_u8g) + 1;
                                 		.LINE  "C:\Workspace\e2studio\git\MT01_master\src\Display\lcd.c",443
000009F6 FBE2rrrrrrrr            		MOV.L #__$main_u8g, R14
000009FC CDE129                  		MOV.B 29H[R14], R1
000009FF 0601E12A                		SUB 2AH[R14].B, R1
00000A03 6211                    		ADD #01H, R1
00000A05 8189                    		MOV.B R1, 07H[R0]
00000A07 38rrrr               W  		BRA L255
00000A0A                         L229:	; bb76
                                 ;     444 						break;
                                 ;     445 				case 5: str = "";
                                 		.LINE  "C:\Workspace\e2studio\git\MT01_master\src\Display\lcd.c",445
00000A0A FB12rrrrrrrr            		MOV.L #_L16, R1
00000A10 A081                    		MOV.L R1, 08H[R0]
00000A12                         L230:	; bb76.split
                                 ;     446 						u8g_prepare(u8g_font_5x8);
                                 		.LINE  "C:\Workspace\e2studio\git\MT01_master\src\Display\lcd.c",446
00000A12 FB12rrrrrrrr            		MOV.L #_u8g_font_5x8, R1
00000A18 39rrrr               W  		BSR __$u8g_prepare
00000A1B                         L231:	; bb76.split12
                                 ;     447 						h = u8g_GetFontAscent(&main_u8g) - u8g_GetFontDescent(&main_u8g) -1;
                                 		.LINE  "C:\Workspace\e2studio\git\MT01_master\src\Display\lcd.c",447
00000A1B FBE2rrrrrrrr            		MOV.L #__$main_u8g, R14
00000A21 CDE129                  		MOV.B 29H[R14], R1
00000A24 0601E12A                		SUB 2AH[R14].B, R1
00000A28 6011                    		SUB #01H, R1
00000A2A 8189                    		MOV.B R1, 07H[R0]
00000A2C 38rrrr               W  		BRA L255
00000A2F                         L232:	; bb84
                                 ;     448 						break;
                                 ;     449 				case 6: str = title[1];
                                 		.LINE  "C:\Workspace\e2studio\git\MT01_master\src\Display\lcd.c",449
00000A2F A981                    		MOV.L 18H[R0], R1
00000A31 E5100102                		MOV.L 04H[R1], 08H[R0]
00000A35                         L233:	; bb84.split
                                 ;     450 						u8g_prepare(u8g_font_4x6r);
                                 		.LINE  "C:\Workspace\e2studio\git\MT01_master\src\Display\lcd.c",450
00000A35 FB12rrrrrrrr            		MOV.L #_u8g_font_4x6r, R1
00000A3B 39rrrr               W  		BSR __$u8g_prepare
00000A3E                         L234:	; bb84.split13
                                 ;     451 
                                 ;     452 						u8g_DrawStr(&main_u8g, (u8g_GetStrWidth(&main_u8g,str) + 25), y-5, title[4]);
                                 		.LINE  "C:\Workspace\e2studio\git\MT01_master\src\Display\lcd.c",452
00000A3E A882                    		MOV.L 08H[R0], R2
00000A40 FB62rrrrrrrr            		MOV.L #__$main_u8g, R6
00000A46 EF61                    		MOV.L R6, R1
00000A48 05rrrrrr             A  		BSR _u8g_GetStrWidth
00000A4C A982                    		MOV.L 18H[R0], R2
00000A4E A924                    		MOV.L 10H[R2], R4
00000A50 B183                    		MOVU.B 06H[R0], R3
00000A52 711119                  		ADD #19H, R1
00000A55 5B12                    		MOVU.B R1, R2
00000A57 6053                    		SUB #05H, R3
00000A59 5B33                    		MOVU.B R3, R3
00000A5B EF61                    		MOV.L R6, R1
00000A5D 05rrrrrr             A  		BSR _u8g_DrawStr
00000A61                         L235:	; bb84.split14
                                 ;     453 						u8g_DrawStr(&main_u8g, (u8g_GetStrWidth(&main_u8g,str) + 25), y+2, title[5]);
                                 		.LINE  "C:\Workspace\e2studio\git\MT01_master\src\Display\lcd.c",453
00000A61 A882                    		MOV.L 08H[R0], R2
00000A63 FB62rrrrrrrr            		MOV.L #__$main_u8g, R6
00000A69 EF61                    		MOV.L R6, R1
00000A6B 05rrrrrr             A  		BSR _u8g_GetStrWidth
00000A6F A982                    		MOV.L 18H[R0], R2
00000A71 A92C                    		MOV.L 14H[R2], R4
00000A73 B183                    		MOVU.B 06H[R0], R3
00000A75 711119                  		ADD #19H, R1
00000A78 5B12                    		MOVU.B R1, R2
00000A7A 6223                    		ADD #02H, R3
00000A7C 5B33                    		MOVU.B R3, R3
00000A7E EF61                    		MOV.L R6, R1
00000A80 05rrrrrr             A  		BSR _u8g_DrawStr
00000A84                         L236:	; bb84.split15
                                 ;     454 			//			h = u8g_GetFontAscent(&main_u8g) - u8g_GetFontDescent(&main_u8g) + 1;
                                 ;     455 						u8g_prepare(u8g_font_5x8);
                                 		.LINE  "C:\Workspace\e2studio\git\MT01_master\src\Display\lcd.c",455
00000A84 FB12rrrrrrrr            		MOV.L #_u8g_font_5x8, R1
00000A8A 39rrrr               W  		BSR __$u8g_prepare
00000A8D                         L237:	; bb84.split16
                                 ;     456 						u8g_DrawHLine(&main_u8g, x, y-6, 128);
                                 		.LINE  "C:\Workspace\e2studio\git\MT01_master\src\Display\lcd.c",456
00000A8D B181                    		MOVU.B 06H[R0], R1
00000A8F B10A                    		MOVU.B 05H[R0], R2
00000A91 6061                    		SUB #06H, R1
00000A93 5B13                    		MOVU.B R1, R3
00000A95 754480                  		MOV.L #00000080H, R4
00000A98 FB12rrrrrrrr            		MOV.L #__$main_u8g, R1
00000A9E 05rrrrrr             A  		BSR _u8g_DrawHLine
00000AA2                         L238:	; bb84.split17
                                 ;     457 						y = y-2;
                                 		.LINE  "C:\Workspace\e2studio\git\MT01_master\src\Display\lcd.c",457
00000AA2 B181                    		MOVU.B 06H[R0], R1
00000AA4 6021                    		SUB #02H, R1
00000AA6 8181                    		MOV.B R1, 06H[R0]
00000AA8 38rrrr               W  		BRA L255
00000AAB                         L239:	; bb123
                                 ;     458 						break;
                                 ;     459 				case 2: u8g_prepare(u8g_font_helvB08);
                                 		.LINE  "C:\Workspace\e2studio\git\MT01_master\src\Display\lcd.c",459
00000AAB FB12rrrrrrrr            		MOV.L #_u8g_font_helvB08, R1
00000AB1 39rrrr               W  		BSR __$u8g_prepare
00000AB4                         L240:	; bb123.split
                                 ;     460 						u8g_DrawStr(&main_u8g, x, y, "X:");
                                 		.LINE  "C:\Workspace\e2studio\git\MT01_master\src\Display\lcd.c",460
00000AB4 B183                    		MOVU.B 06H[R0], R3
00000AB6 B10A                    		MOVU.B 05H[R0], R2
00000AB8 FB42rrrrrrrr            		MOV.L #_L17, R4
00000ABE FB12rrrrrrrr            		MOV.L #__$main_u8g, R1
00000AC4 05rrrrrr             A  		BSR _u8g_DrawStr
00000AC8                         L241:	; bb123.split18
                                 ;     461 						str = textX;
                                 		.LINE  "C:\Workspace\e2studio\git\MT01_master\src\Display\lcd.c",461
00000AC8 E5000502                		MOV.L 14H[R0], 08H[R0]
00000ACC                         L242:	; bb123.split19
                                 ;     462 						x = 12;
                                 		.LINE  "C:\Workspace\e2studio\git\MT01_master\src\Display\lcd.c",462
00000ACC 3C050C                  		MOV.B #0CH, 05H[R0]
00000ACF                         L243:	; bb123.split20
                                 ;     463 						u8g_prepare(u8g_font_6x10);
                                 		.LINE  "C:\Workspace\e2studio\git\MT01_master\src\Display\lcd.c",463
00000ACF FB12rrrrrrrr            		MOV.L #_u8g_font_6x10, R1
00000AD5 39rrrr               W  		BSR __$u8g_prepare
00000AD8                         L244:	; bb123.split21
                                 ;     464 						h = u8g_GetFontAscent(&main_u8g) - u8g_GetFontDescent(&main_u8g) + 1;
                                 		.LINE  "C:\Workspace\e2studio\git\MT01_master\src\Display\lcd.c",464
00000AD8 FBE2rrrrrrrr            		MOV.L #__$main_u8g, R14
00000ADE CDE129                  		MOV.B 29H[R14], R1
00000AE1 0601E12A                		SUB 2AH[R14].B, R1
00000AE5 6211                    		ADD #01H, R1
00000AE7 8189                    		MOV.B R1, 07H[R0]
00000AE9 2Err                 B  		BRA L255
00000AEB                         L245:	; bb135
                                 ;     465 						break;
                                 ;     466 				case 3: u8g_prepare(u8g_font_helvB08);
                                 		.LINE  "C:\Workspace\e2studio\git\MT01_master\src\Display\lcd.c",466
00000AEB FB12rrrrrrrr            		MOV.L #_u8g_font_helvB08, R1
00000AF1 39rrrr               W  		BSR __$u8g_prepare
00000AF4                         L246:	; bb135.split
                                 ;     467 						u8g_DrawStr(&main_u8g, x, y, "Y:");
                                 		.LINE  "C:\Workspace\e2studio\git\MT01_master\src\Display\lcd.c",467
00000AF4 B183                    		MOVU.B 06H[R0], R3
00000AF6 B10A                    		MOVU.B 05H[R0], R2
00000AF8 FB42rrrrrrrr            		MOV.L #_L18, R4
00000AFE FB12rrrrrrrr            		MOV.L #__$main_u8g, R1
00000B04 05rrrrrr             A  		BSR _u8g_DrawStr
00000B08                         L247:	; bb135.split22
                                 ;     468 						u8g_prepare(u8g_font_6x10);
                                 		.LINE  "C:\Workspace\e2studio\git\MT01_master\src\Display\lcd.c",468
00000B08 FB12rrrrrrrr            		MOV.L #_u8g_font_6x10, R1
00000B0E 39rrrr               W  		BSR __$u8g_prepare
00000B11                         L248:	; bb135.split23
                                 ;     469 						str = textY;
                                 		.LINE  "C:\Workspace\e2studio\git\MT01_master\src\Display\lcd.c",469
00000B11 E5000402                		MOV.L 10H[R0], 08H[R0]
00000B15                         L249:	; bb135.split24
                                 ;     470 						x = 12;
                                 		.LINE  "C:\Workspace\e2studio\git\MT01_master\src\Display\lcd.c",470
00000B15 3C050C                  		MOV.B #0CH, 05H[R0]
00000B18 2Err                 B  		BRA L255
00000B1A                         L250:	; bb140
                                 ;     471 						break;
                                 ;     472 				case 4: u8g_prepare(u8g_font_helvB08);
                                 		.LINE  "C:\Workspace\e2studio\git\MT01_master\src\Display\lcd.c",472
00000B1A FB12rrrrrrrr            		MOV.L #_u8g_font_helvB08, R1
00000B20 39rrrr               W  		BSR __$u8g_prepare
00000B23                         L251:	; bb140.split
                                 ;     473 						u8g_DrawStr(&main_u8g, x, y, "Z:");
                                 		.LINE  "C:\Workspace\e2studio\git\MT01_master\src\Display\lcd.c",473
00000B23 B183                    		MOVU.B 06H[R0], R3
00000B25 B10A                    		MOVU.B 05H[R0], R2
00000B27 FB42rrrrrrrr            		MOV.L #_L19, R4
00000B2D FB12rrrrrrrr            		MOV.L #__$main_u8g, R1
00000B33 05rrrrrr             A  		BSR _u8g_DrawStr
00000B37                         L252:	; bb140.split25
                                 ;     474 						u8g_prepare(u8g_font_6x10);
                                 		.LINE  "C:\Workspace\e2studio\git\MT01_master\src\Display\lcd.c",474
00000B37 FB12rrrrrrrr            		MOV.L #_u8g_font_6x10, R1
00000B3D 39rrrr               W  		BSR __$u8g_prepare
00000B40                         L253:	; bb140.split26
                                 ;     475 						str = textZ;
                                 		.LINE  "C:\Workspace\e2studio\git\MT01_master\src\Display\lcd.c",475
00000B40 E5000302                		MOV.L 0CH[R0], 08H[R0]
00000B44                         L254:	; bb140.split27
                                 ;     476 						x = 12;
                                 		.LINE  "C:\Workspace\e2studio\git\MT01_master\src\Display\lcd.c",476
00000B44 3C050C                  		MOV.B #0CH, 05H[R0]
00000B47                         L255:	; bb145
                                 ;     477 						break;
                                 ;     478 			}
                                 ;     479 				/* Draw glyph */
                                 ;     480 			u8g_DrawStr(&main_u8g, x, y, str);
                                 		.LINE  "C:\Workspace\e2studio\git\MT01_master\src\Display\lcd.c",480
00000B47 A884                    		MOV.L 08H[R0], R4
00000B49 B183                    		MOVU.B 06H[R0], R3
00000B4B B10A                    		MOVU.B 05H[R0], R2
00000B4D FB12rrrrrrrr            		MOV.L #__$main_u8g, R1
00000B53 05rrrrrr             A  		BSR _u8g_DrawStr
00000B57                         L256:	; bb145.split
                                 ;     481 
                                 ;     482 			/* Next position */
                                 ;     483 			y += h;
                                 		.LINE  "C:\Workspace\e2studio\git\MT01_master\src\Display\lcd.c",483
00000B57 B181                    		MOVU.B 06H[R0], R1
00000B59 490107                  		ADD 07H[R0].UB, R1
00000B5C 8181                    		MOV.B R1, 06H[R0]
00000B5E B101                    		MOVU.B 04H[R0], R1
00000B60 6211                    		ADD #01H, R1
00000B62 8101                    		MOV.B R1, 04H[R0]
00000B64                         L257:	; bb158
                                 		.LINE  "C:\Workspace\e2studio\git\MT01_master\src\Display\lcd.c",431
00000B64 B101                    		MOVU.B 04H[R0], R1
00000B66 6171                    		CMP #07H, R1
00000B68 28rr                  * 		BLT L214
         38rrrr                  
00000B6D                         L258:	; bb164
                                 		.LINE  "C:\Workspace\e2studio\git\MT01_master\src\Display\lcd.c",409
00000B6D FB12rrrrrrrr            		MOV.L #__$main_u8g, R1
00000B73 05rrrrrr             A  		BSR _u8g_NextPage
00000B77 6101                    		CMP #00H, R1
00000B79 3Brrrr               W  		BNE L197
00000B7C                         L259:	; bb170
                                 ;     484 		}
                                 ;     485 
                                 ;     486 	} while(u8g_NextPage(&main_u8g));
                                 ;     487 	xSemaphoreGive(rspi_semaphore);
                                 		.LINE  "C:\Workspace\e2studio\git\MT01_master\src\Display\lcd.c",487
00000B7C FBE2rrrrrrrr            		MOV.L #_rspi_semaphore, R14
00000B82 ECE1                    		MOV.L [R14], R1
00000B84 6602                    		MOV.L #00000000H, R2
00000B86 EF23                    		MOV.L R2, R3
00000B88 EF24                    		MOV.L R2, R4
00000B8A 05rrrrrr             A  		BSR _xQueueGenericSend
00000B8E 3F6609                  		RTSD #24H, R6-R6
00000B91                         _ut_lcd_output_manual_mode:
                                 		.STACK	_ut_lcd_output_manual_mode=48
                                 ;     488 }
                                 ;     489 
                                 ;     490 void ut_lcd_output_manual_mode(bool torch, char* title[7],const char* textX,const char* textY,const char* textZ)
                                 		.LINE  "C:\Workspace\e2studio\git\MT01_master\src\Display\lcd.c",490
00000B91 7EA6                    		PUSH.L R6
00000B93 7100E0                  		ADD #0FFFFFFE0H, R0
00000B96 8789                    		MOV.B R1, 1FH[R0]
00000B98 A182                    		MOV.L R2, 18H[R0]
00000B9A A10B                    		MOV.L R3, 14H[R0]
00000B9C A104                    		MOV.L R4, 10H[R0]
00000B9E E5000A03                		MOV.L 28H[R0], 0CH[R0]
                                 ;     491 {
                                 ;     492 	uint8_t row, x, y;
                                 ;     493 	uint8_t h;
                                 ;     494 	const char* str;
                                 ;     495 //	u8g_prepare(u8g_font_6x10);
                                 ;     496 	xSemaphoreTake(rspi_semaphore, portMAX_DELAY);
                                 		.LINE  "C:\Workspace\e2studio\git\MT01_master\src\Display\lcd.c",496
00000BA2 FBE2rrrrrrrr            		MOV.L #_rspi_semaphore, R14
00000BA8 ECE1                    		MOV.L [R14], R1
00000BAA FB36FF                  		MOV.L #0FFFFFFFFH, R3
00000BAD 6602                    		MOV.L #00000000H, R2
00000BAF EF24                    		MOV.L R2, R4
00000BB1 05rrrrrr             A  		BSR _xQueueGenericReceive
00000BB5                         L261:	; entry.split
                                 ;     497 	u8g_FirstPage(&main_u8g);
                                 		.LINE  "C:\Workspace\e2studio\git\MT01_master\src\Display\lcd.c",497
00000BB5 FB12rrrrrrrr            		MOV.L #__$main_u8g, R1
00000BBB 05rrrrrr             A  		BSR _u8g_FirstPage
00000BBF                         L262:	; entry.split1
                                 ;     498 	h = u8g_GetFontAscent(&main_u8g) - u8g_GetFontDescent(&main_u8g) + 1;
                                 		.LINE  "C:\Workspace\e2studio\git\MT01_master\src\Display\lcd.c",498
00000BBF FBE2rrrrrrrr            		MOV.L #__$main_u8g, R14
00000BC5 CDE129                  		MOV.B 29H[R14], R1
00000BC8 0601E12A                		SUB 2AH[R14].B, R1
00000BCC 6211                    		ADD #01H, R1
00000BCE 8189                    		MOV.B R1, 07H[R0]
00000BD0                         L263:	; bb
                                 ;     499 	/* Picture loop */
                                 ;     500 	do
                                 ;     501 	{
                                 ;     502 		/* Through all rows */
                                 ;     503 		y = 0;
                                 		.LINE  "C:\Workspace\e2studio\git\MT01_master\src\Display\lcd.c",503
00000BD0 3C0600                  		MOV.B #00H, 06H[R0]
00000BD3                         L264:	; bb.split
00000BD3 754426                  		MOV.L #00000026H, R4
00000BD6 66B3                    		MOV.L #0000000BH, R3
00000BD8 75425A                  		MOV.L #0000005AH, R2
                                 ;     504 		u8g_DrawVLine(&main_u8g, 90, 11, 38);
                                 		.LINE  "C:\Workspace\e2studio\git\MT01_master\src\Display\lcd.c",504
00000BDB FB12rrrrrrrr            		MOV.L #__$main_u8g, R1
00000BE1 05rrrrrr             A  		BSR _u8g_DrawVLine
00000BE5                         L265:	; bb.split2
                                 ;     505 //		u8g_DrawHLine(&main_u8g, 0, 11+45, 128);
                                 ;     506 		u8g_prepare(u8g_font_4x6r);
                                 		.LINE  "C:\Workspace\e2studio\git\MT01_master\src\Display\lcd.c",506
00000BE5 FB12rrrrrrrr            		MOV.L #_u8g_font_4x6r, R1
00000BEB 39rrrr               W  		BSR __$u8g_prepare
00000BEE                         L266:	; bb.split3
                                 ;     507 		str = DEFAULT_TOCHA;
                                 		.LINE  "C:\Workspace\e2studio\git\MT01_master\src\Display\lcd.c",507
00000BEE FB12rrrrrrrr            		MOV.L #_L13, R1
00000BF4 A081                    		MOV.L R1, 08H[R0]
00000BF6                         L267:	; bb.split4
                                 ;     508 		u8g_DrawStr(&main_u8g, 95, 35, str);
                                 		.LINE  "C:\Workspace\e2studio\git\MT01_master\src\Display\lcd.c",508
00000BF6 A884                    		MOV.L 08H[R0], R4
00000BF8 754323                  		MOV.L #00000023H, R3
00000BFB 75425F                  		MOV.L #0000005FH, R2
00000BFE FB12rrrrrrrr            		MOV.L #__$main_u8g, R1
00000C04 05rrrrrr             A  		BSR _u8g_DrawStr
00000C08                         L268:	; bb.split5
                                 ;     509 		u8g_DrawStr(&main_u8g, 92, 12, title[6]);
                                 		.LINE  "C:\Workspace\e2studio\git\MT01_master\src\Display\lcd.c",509
00000C08 A981                    		MOV.L 18H[R0], R1
00000C0A A994                    		MOV.L 18H[R1], R4
00000C0C 66C3                    		MOV.L #0000000CH, R3
00000C0E 75425C                  		MOV.L #0000005CH, R2
00000C11 FB12rrrrrrrr            		MOV.L #__$main_u8g, R1
00000C17 05rrrrrr             A  		BSR _u8g_DrawStr
00000C1B                         L269:	; bb.split6
                                 ;     510 		if(!torch)
                                 		.LINE  "C:\Workspace\e2studio\git\MT01_master\src\Display\lcd.c",510
00000C1B B789                    		MOVU.B 1FH[R0], R1
00000C1D 6101                    		CMP #00H, R1
00000C1F 21rr                    		BNE L275
00000C21 2Err                 B  		BRA L276
00000C23                         L270:	; bb26
                                 ;     511 		{
                                 ;     512 			str = DEFAULT_ACESA;
                                 		.LINE  "C:\Workspace\e2studio\git\MT01_master\src\Display\lcd.c",512
00000C23 FB12rrrrrrrr            		MOV.L #_L14, R1
00000C29 A081                    		MOV.L R1, 08H[R0]
00000C2B                         L271:	; bb26.split
00000C2B 6080                    		SUB #08H, R0
                                 ;     513 			u8g_DrawXBMP(&main_u8g, 94, 13, warning_width, warning_height, warning_bits);
                                 		.LINE  "C:\Workspace\e2studio\git\MT01_master\src\Display\lcd.c",513
00000C2D FB12rrrrrrrr            		MOV.L #__$warning_bits, R1
00000C33 A009                    		MOV.L R1, 04H[R0]
00000C35 F80416                  		MOV.B #16H, [R0]
00000C38 754419                  		MOV.L #00000019H, R4
00000C3B 66D3                    		MOV.L #0000000DH, R3
00000C3D 75425E                  		MOV.L #0000005EH, R2
00000C40 FB12rrrrrrrr            		MOV.L #__$main_u8g, R1
00000C46 05rrrrrr             A  		BSR _u8g_DrawXBMP
00000C4A 6280                    		ADD #08H, R0
00000C4C                         L272:	; bb26.split7
                                 ;     514 			u8g_DrawStr(&main_u8g, 95, 42, str);
                                 		.LINE  "C:\Workspace\e2studio\git\MT01_master\src\Display\lcd.c",514
00000C4C A884                    		MOV.L 08H[R0], R4
00000C4E 75432A                  		MOV.L #0000002AH, R3
00000C51 75425F                  		MOV.L #0000005FH, R2
00000C54 FB12rrrrrrrr            		MOV.L #__$main_u8g, R1
00000C5A 05rrrrrr             A  		BSR _u8g_DrawStr
00000C5E 2Err                 B  		BRA L278
00000C60                         L273:	; bb29
                                 ;     515 		}
                                 ;     516 		else
                                 ;     517 		{
                                 ;     518 			str = DEFAULT_APAGADA;
                                 		.LINE  "C:\Workspace\e2studio\git\MT01_master\src\Display\lcd.c",518
00000C60 FB12rrrrrrrr            		MOV.L #_L15, R1
00000C66 A081                    		MOV.L R1, 08H[R0]
00000C68                         L274:	; bb29.split
                                 ;     519 			u8g_DrawStr(&main_u8g, 92, 42, str);
                                 		.LINE  "C:\Workspace\e2studio\git\MT01_master\src\Display\lcd.c",519
00000C68 A884                    		MOV.L 08H[R0], R4
00000C6A 75432A                  		MOV.L #0000002AH, R3
00000C6D 75425C                  		MOV.L #0000005CH, R2
00000C70 FB12rrrrrrrr            		MOV.L #__$main_u8g, R1
00000C76 05rrrrrr             A  		BSR _u8g_DrawStr
00000C7A 2Err                 B  		BRA L278
00000C7C                         L275:	; bb36
00000C7C F80600                  		MOV.L #00000000H, [R0]
00000C7F 08                   S  		BRA L277
00000C80                         L276:	; bb37
00000C80 F80601                  		MOV.L #00000001H, [R0]
00000C83                         L277:	; bb38
00000C83 EC01                    		MOV.L [R0], R1
00000C85 6101                    		CMP #00H, R1
00000C87 21rr                    		BNE L270
00000C89 2Err                 B  		BRA L273
00000C8B                         L278:	; bb41
                                 ;     520 		}
                                 ;     521 		u8g_DrawStr(&main_u8g, 112, 12, title[3]);
                                 		.LINE  "C:\Workspace\e2studio\git\MT01_master\src\Display\lcd.c",521
00000C8B A981                    		MOV.L 18H[R0], R1
00000C8D A89C                    		MOV.L 0CH[R1], R4
00000C8F 66C3                    		MOV.L #0000000CH, R3
00000C91 754270                  		MOV.L #00000070H, R2
00000C94 FB12rrrrrrrr            		MOV.L #__$main_u8g, R1
00000C9A 05rrrrrr             A  		BSR _u8g_DrawStr
00000C9E                         L279:	; bb41.split
                                 ;     522 		for(row = 0; row < MAX_ROW+1; row++)
                                 		.LINE  "C:\Workspace\e2studio\git\MT01_master\src\Display\lcd.c",522
00000C9E 3C0400                  		MOV.B #00H, 04H[R0]
00000CA1 38rrrr               W  		BRA L323
00000CA4                         L280:	; bb46
                                 ;     523 		{
                                 ;     524 			x = 0;
                                 		.LINE  "C:\Workspace\e2studio\git\MT01_master\src\Display\lcd.c",524
00000CA4 3C0500                  		MOV.B #00H, 05H[R0]
00000CA7                         L281:	; bb46.split
                                 ;     525 			switch(row)
                                 		.LINE  "C:\Workspace\e2studio\git\MT01_master\src\Display\lcd.c",525
00000CA7 B101                    		MOVU.B 04H[R0], R1
00000CA9 6161                    		CMP #06H, R1
00000CAB 3Arrrr               W  		BEQ L298
00000CAE                         L282:	; bb46.split
00000CAE 6111                    		CMP #01H, R1
00000CB0 20rr                    		BEQ L292
00000CB2                         L283:	; bb46.split
00000CB2 6121                    		CMP #02H, R1
00000CB4 3Arrrr               W  		BEQ L305
00000CB7                         L284:	; bb46.split
00000CB7 6131                    		CMP #03H, R1
00000CB9 3Arrrr               W  		BEQ L311
00000CBC                         L285:	; bb46.split
00000CBC 6141                    		CMP #04H, R1
00000CBE 3Arrrr               W  		BEQ L316
00000CC1                         L286:	; bb46.split
00000CC1 6151                    		CMP #05H, R1
00000CC3 20rr                    		BEQ L295
00000CC5                         L287:	; bb46.split
00000CC5 6101                    		CMP #00H, R1
00000CC7 3Brrrr               W  		BNE L321
00000CCA                         L288:	; bb49
                                 ;     526 			{
                                 ;     527 				case 0: str = title[0];
                                 		.LINE  "C:\Workspace\e2studio\git\MT01_master\src\Display\lcd.c",527
00000CCA A981                    		MOV.L 18H[R0], R1
00000CCC E41002                  		MOV.L [R1], 08H[R0]
00000CCF                         L289:	; bb49.split
                                 ;     528 						u8g_prepare(u8g_font_helvB08);
                                 		.LINE  "C:\Workspace\e2studio\git\MT01_master\src\Display\lcd.c",528
00000CCF FB12rrrrrrrr            		MOV.L #_u8g_font_helvB08, R1
00000CD5 39rrrr               W  		BSR __$u8g_prepare
00000CD8                         L290:	; bb49.split8
                                 ;     529 						h = u8g_GetFontAscent(&main_u8g) - u8g_GetFontDescent(&main_u8g) + 1;
                                 		.LINE  "C:\Workspace\e2studio\git\MT01_master\src\Display\lcd.c",529
00000CD8 FBE2rrrrrrrr            		MOV.L #__$main_u8g, R14
00000CDE CDE129                  		MOV.B 29H[R14], R1
00000CE1 0601E12A                		SUB 2AH[R14].B, R1
00000CE5 6211                    		ADD #01H, R1
00000CE7 8189                    		MOV.B R1, 07H[R0]
00000CE9                         L291:	; bb49.split9
                                 ;     530 						u8g_DrawHLine(&main_u8g, x, h-1, 128);
                                 		.LINE  "C:\Workspace\e2studio\git\MT01_master\src\Display\lcd.c",530
00000CE9 B189                    		MOVU.B 07H[R0], R1
00000CEB B10A                    		MOVU.B 05H[R0], R2
00000CED 6011                    		SUB #01H, R1
00000CEF 5B13                    		MOVU.B R1, R3
00000CF1 754480                  		MOV.L #00000080H, R4
00000CF4 FB12rrrrrrrr            		MOV.L #__$main_u8g, R1
00000CFA 05rrrrrr             A  		BSR _u8g_DrawHLine
00000CFE 38rrrr               W  		BRA L321
00000D01                         L292:	; bb65
                                 ;     531 						break;
                                 ;     532 				case 1: str = title[2];
                                 		.LINE  "C:\Workspace\e2studio\git\MT01_master\src\Display\lcd.c",532
00000D01 A981                    		MOV.L 18H[R0], R1
00000D03 E5100202                		MOV.L 08H[R1], 08H[R0]
00000D07                         L293:	; bb65.split
                                 ;     533 						u8g_prepare(u8g_font_5x8);
                                 		.LINE  "C:\Workspace\e2studio\git\MT01_master\src\Display\lcd.c",533
00000D07 FB12rrrrrrrr            		MOV.L #_u8g_font_5x8, R1
00000D0D 39rrrr               W  		BSR __$u8g_prepare
00000D10                         L294:	; bb65.split10
                                 ;     534 						h = u8g_GetFontAscent(&main_u8g) - u8g_GetFontDescent(&main_u8g) + 1;
                                 		.LINE  "C:\Workspace\e2studio\git\MT01_master\src\Display\lcd.c",534
00000D10 FBE2rrrrrrrr            		MOV.L #__$main_u8g, R14
00000D16 CDE129                  		MOV.B 29H[R14], R1
00000D19 0601E12A                		SUB 2AH[R14].B, R1
00000D1D 6211                    		ADD #01H, R1
00000D1F 8189                    		MOV.B R1, 07H[R0]
00000D21 38rrrr               W  		BRA L321
00000D24                         L295:	; bb76
                                 ;     535 						break;
                                 ;     536 				case 5: str = "";
                                 		.LINE  "C:\Workspace\e2studio\git\MT01_master\src\Display\lcd.c",536
00000D24 FB12rrrrrrrr            		MOV.L #_L16, R1
00000D2A A081                    		MOV.L R1, 08H[R0]
00000D2C                         L296:	; bb76.split
                                 ;     537 						u8g_prepare(u8g_font_5x8);
                                 		.LINE  "C:\Workspace\e2studio\git\MT01_master\src\Display\lcd.c",537
00000D2C FB12rrrrrrrr            		MOV.L #_u8g_font_5x8, R1
00000D32 39rrrr               W  		BSR __$u8g_prepare
00000D35                         L297:	; bb76.split11
                                 ;     538 						h = u8g_GetFontAscent(&main_u8g) - u8g_GetFontDescent(&main_u8g) -1;
                                 		.LINE  "C:\Workspace\e2studio\git\MT01_master\src\Display\lcd.c",538
00000D35 FBE2rrrrrrrr            		MOV.L #__$main_u8g, R14
00000D3B CDE129                  		MOV.B 29H[R14], R1
00000D3E 0601E12A                		SUB 2AH[R14].B, R1
00000D42 6011                    		SUB #01H, R1
00000D44 8189                    		MOV.B R1, 07H[R0]
00000D46 38rrrr               W  		BRA L321
00000D49                         L298:	; bb84
                                 ;     539 						break;
                                 ;     540 				case 6: str = title[1];
                                 		.LINE  "C:\Workspace\e2studio\git\MT01_master\src\Display\lcd.c",540
00000D49 A981                    		MOV.L 18H[R0], R1
00000D4B E5100102                		MOV.L 04H[R1], 08H[R0]
00000D4F                         L299:	; bb84.split
                                 ;     541 						u8g_prepare(u8g_font_4x6r);
                                 		.LINE  "C:\Workspace\e2studio\git\MT01_master\src\Display\lcd.c",541
00000D4F FB12rrrrrrrr            		MOV.L #_u8g_font_4x6r, R1
00000D55 39rrrr               W  		BSR __$u8g_prepare
00000D58                         L300:	; bb84.split12
                                 ;     542 
                                 ;     543 						u8g_DrawStr(&main_u8g, (u8g_GetStrWidth(&main_u8g,str) + 25), y-5, title[4]);
                                 		.LINE  "C:\Workspace\e2studio\git\MT01_master\src\Display\lcd.c",543
00000D58 A882                    		MOV.L 08H[R0], R2
00000D5A FB62rrrrrrrr            		MOV.L #__$main_u8g, R6
00000D60 EF61                    		MOV.L R6, R1
00000D62 05rrrrrr             A  		BSR _u8g_GetStrWidth
00000D66 A982                    		MOV.L 18H[R0], R2
00000D68 A924                    		MOV.L 10H[R2], R4
00000D6A B183                    		MOVU.B 06H[R0], R3
00000D6C 711119                  		ADD #19H, R1
00000D6F 5B12                    		MOVU.B R1, R2
00000D71 6053                    		SUB #05H, R3
00000D73 5B33                    		MOVU.B R3, R3
00000D75 EF61                    		MOV.L R6, R1
00000D77 05rrrrrr             A  		BSR _u8g_DrawStr
00000D7B                         L301:	; bb84.split13
                                 ;     544 						u8g_DrawStr(&main_u8g, (u8g_GetStrWidth(&main_u8g,str) + 25), y+2, title[5]);
                                 		.LINE  "C:\Workspace\e2studio\git\MT01_master\src\Display\lcd.c",544
00000D7B A882                    		MOV.L 08H[R0], R2
00000D7D FB62rrrrrrrr            		MOV.L #__$main_u8g, R6
00000D83 EF61                    		MOV.L R6, R1
00000D85 05rrrrrr             A  		BSR _u8g_GetStrWidth
00000D89 A982                    		MOV.L 18H[R0], R2
00000D8B A92C                    		MOV.L 14H[R2], R4
00000D8D B183                    		MOVU.B 06H[R0], R3
00000D8F 711119                  		ADD #19H, R1
00000D92 5B12                    		MOVU.B R1, R2
00000D94 6223                    		ADD #02H, R3
00000D96 5B33                    		MOVU.B R3, R3
00000D98 EF61                    		MOV.L R6, R1
00000D9A 05rrrrrr             A  		BSR _u8g_DrawStr
00000D9E                         L302:	; bb84.split14
                                 ;     545 			//			h = u8g_GetFontAscent(&main_u8g) - u8g_GetFontDescent(&main_u8g) + 1;
                                 ;     546 						u8g_prepare(u8g_font_5x8);
                                 		.LINE  "C:\Workspace\e2studio\git\MT01_master\src\Display\lcd.c",546
00000D9E FB12rrrrrrrr            		MOV.L #_u8g_font_5x8, R1
00000DA4 39rrrr               W  		BSR __$u8g_prepare
00000DA7                         L303:	; bb84.split15
                                 ;     547 						u8g_DrawHLine(&main_u8g, x, y-6, 128);
                                 		.LINE  "C:\Workspace\e2studio\git\MT01_master\src\Display\lcd.c",547
00000DA7 B181                    		MOVU.B 06H[R0], R1
00000DA9 B10A                    		MOVU.B 05H[R0], R2
00000DAB 6061                    		SUB #06H, R1
00000DAD 5B13                    		MOVU.B R1, R3
00000DAF 754480                  		MOV.L #00000080H, R4
00000DB2 FB12rrrrrrrr            		MOV.L #__$main_u8g, R1
00000DB8 05rrrrrr             A  		BSR _u8g_DrawHLine
00000DBC                         L304:	; bb84.split16
                                 ;     548 						y = y-2;
                                 		.LINE  "C:\Workspace\e2studio\git\MT01_master\src\Display\lcd.c",548
00000DBC B181                    		MOVU.B 06H[R0], R1
00000DBE 6021                    		SUB #02H, R1
00000DC0 8181                    		MOV.B R1, 06H[R0]
00000DC2 38rrrr               W  		BRA L321
00000DC5                         L305:	; bb123
                                 ;     549 						break;
                                 ;     550 				case 2: u8g_prepare(u8g_font_helvB08);
                                 		.LINE  "C:\Workspace\e2studio\git\MT01_master\src\Display\lcd.c",550
00000DC5 FB12rrrrrrrr            		MOV.L #_u8g_font_helvB08, R1
00000DCB 39rrrr               W  		BSR __$u8g_prepare
00000DCE                         L306:	; bb123.split
                                 ;     551 						u8g_DrawStr(&main_u8g, x, y, "X:");
                                 		.LINE  "C:\Workspace\e2studio\git\MT01_master\src\Display\lcd.c",551
00000DCE B183                    		MOVU.B 06H[R0], R3
00000DD0 B10A                    		MOVU.B 05H[R0], R2
00000DD2 FB42rrrrrrrr            		MOV.L #_L17, R4
00000DD8 FB12rrrrrrrr            		MOV.L #__$main_u8g, R1
00000DDE 05rrrrrr             A  		BSR _u8g_DrawStr
00000DE2                         L307:	; bb123.split17
                                 ;     552 						str = textX;
                                 		.LINE  "C:\Workspace\e2studio\git\MT01_master\src\Display\lcd.c",552
00000DE2 E5000502                		MOV.L 14H[R0], 08H[R0]
00000DE6                         L308:	; bb123.split18
                                 ;     553 						x = 12;
                                 		.LINE  "C:\Workspace\e2studio\git\MT01_master\src\Display\lcd.c",553
00000DE6 3C050C                  		MOV.B #0CH, 05H[R0]
00000DE9                         L309:	; bb123.split19
                                 ;     554 						u8g_prepare(u8g_font_6x10);
                                 		.LINE  "C:\Workspace\e2studio\git\MT01_master\src\Display\lcd.c",554
00000DE9 FB12rrrrrrrr            		MOV.L #_u8g_font_6x10, R1
00000DEF 39rrrr               W  		BSR __$u8g_prepare
00000DF2                         L310:	; bb123.split20
                                 ;     555 						h = u8g_GetFontAscent(&main_u8g) - u8g_GetFontDescent(&main_u8g) + 1;
                                 		.LINE  "C:\Workspace\e2studio\git\MT01_master\src\Display\lcd.c",555
00000DF2 FBE2rrrrrrrr            		MOV.L #__$main_u8g, R14
00000DF8 CDE129                  		MOV.B 29H[R14], R1
00000DFB 0601E12A                		SUB 2AH[R14].B, R1
00000DFF 6211                    		ADD #01H, R1
00000E01 8189                    		MOV.B R1, 07H[R0]
00000E03 2Err                 B  		BRA L321
00000E05                         L311:	; bb135
                                 ;     556 						break;
                                 ;     557 				case 3: u8g_prepare(u8g_font_helvB08);
                                 		.LINE  "C:\Workspace\e2studio\git\MT01_master\src\Display\lcd.c",557
00000E05 FB12rrrrrrrr            		MOV.L #_u8g_font_helvB08, R1
00000E0B 39rrrr               W  		BSR __$u8g_prepare
00000E0E                         L312:	; bb135.split
                                 ;     558 						u8g_DrawStr(&main_u8g, x, y, "Y:");
                                 		.LINE  "C:\Workspace\e2studio\git\MT01_master\src\Display\lcd.c",558
00000E0E B183                    		MOVU.B 06H[R0], R3
00000E10 B10A                    		MOVU.B 05H[R0], R2
00000E12 FB42rrrrrrrr            		MOV.L #_L18, R4
00000E18 FB12rrrrrrrr            		MOV.L #__$main_u8g, R1
00000E1E 05rrrrrr             A  		BSR _u8g_DrawStr
00000E22                         L313:	; bb135.split21
                                 ;     559 						u8g_prepare(u8g_font_6x10);
                                 		.LINE  "C:\Workspace\e2studio\git\MT01_master\src\Display\lcd.c",559
00000E22 FB12rrrrrrrr            		MOV.L #_u8g_font_6x10, R1
00000E28 39rrrr               W  		BSR __$u8g_prepare
00000E2B                         L314:	; bb135.split22
                                 ;     560 						str = textY;
                                 		.LINE  "C:\Workspace\e2studio\git\MT01_master\src\Display\lcd.c",560
00000E2B E5000402                		MOV.L 10H[R0], 08H[R0]
00000E2F                         L315:	; bb135.split23
                                 ;     561 						x = 12;
                                 		.LINE  "C:\Workspace\e2studio\git\MT01_master\src\Display\lcd.c",561
00000E2F 3C050C                  		MOV.B #0CH, 05H[R0]
00000E32 2Err                 B  		BRA L321
00000E34                         L316:	; bb140
                                 ;     562 						break;
                                 ;     563 				case 4: u8g_prepare(u8g_font_helvB08);
                                 		.LINE  "C:\Workspace\e2studio\git\MT01_master\src\Display\lcd.c",563
00000E34 FB12rrrrrrrr            		MOV.L #_u8g_font_helvB08, R1
00000E3A 39rrrr               W  		BSR __$u8g_prepare
00000E3D                         L317:	; bb140.split
                                 ;     564 						u8g_DrawStr(&main_u8g, x, y, "Z:");
                                 		.LINE  "C:\Workspace\e2studio\git\MT01_master\src\Display\lcd.c",564
00000E3D B183                    		MOVU.B 06H[R0], R3
00000E3F B10A                    		MOVU.B 05H[R0], R2
00000E41 FB42rrrrrrrr            		MOV.L #_L19, R4
00000E47 FB12rrrrrrrr            		MOV.L #__$main_u8g, R1
00000E4D 05rrrrrr             A  		BSR _u8g_DrawStr
00000E51                         L318:	; bb140.split24
                                 ;     565 						u8g_prepare(u8g_font_6x10);
                                 		.LINE  "C:\Workspace\e2studio\git\MT01_master\src\Display\lcd.c",565
00000E51 FB12rrrrrrrr            		MOV.L #_u8g_font_6x10, R1
00000E57 39rrrr               W  		BSR __$u8g_prepare
00000E5A                         L319:	; bb140.split25
                                 ;     566 						str = textZ;
                                 		.LINE  "C:\Workspace\e2studio\git\MT01_master\src\Display\lcd.c",566
00000E5A E5000302                		MOV.L 0CH[R0], 08H[R0]
00000E5E                         L320:	; bb140.split26
                                 ;     567 						x = 12;
                                 		.LINE  "C:\Workspace\e2studio\git\MT01_master\src\Display\lcd.c",567
00000E5E 3C050C                  		MOV.B #0CH, 05H[R0]
00000E61                         L321:	; bb145
                                 ;     568 						break;
                                 ;     569 			}
                                 ;     570 				/* Draw glyph */
                                 ;     571 			u8g_DrawStr(&main_u8g, x, y, str);
                                 		.LINE  "C:\Workspace\e2studio\git\MT01_master\src\Display\lcd.c",571
00000E61 A884                    		MOV.L 08H[R0], R4
00000E63 B183                    		MOVU.B 06H[R0], R3
00000E65 B10A                    		MOVU.B 05H[R0], R2
00000E67 FB12rrrrrrrr            		MOV.L #__$main_u8g, R1
00000E6D 05rrrrrr             A  		BSR _u8g_DrawStr
00000E71                         L322:	; bb145.split
                                 ;     572 
                                 ;     573 			/* Next position */
                                 ;     574 			y += h;
                                 		.LINE  "C:\Workspace\e2studio\git\MT01_master\src\Display\lcd.c",574
00000E71 B181                    		MOVU.B 06H[R0], R1
00000E73 490107                  		ADD 07H[R0].UB, R1
00000E76 8181                    		MOV.B R1, 06H[R0]
00000E78 B101                    		MOVU.B 04H[R0], R1
00000E7A 6211                    		ADD #01H, R1
00000E7C 8101                    		MOV.B R1, 04H[R0]
00000E7E                         L323:	; bb158
                                 		.LINE  "C:\Workspace\e2studio\git\MT01_master\src\Display\lcd.c",522
00000E7E B101                    		MOVU.B 04H[R0], R1
00000E80 6171                    		CMP #07H, R1
00000E82 28rr                  * 		BLT L280
         38rrrr                  
00000E87                         L324:	; bb164
                                 		.LINE  "C:\Workspace\e2studio\git\MT01_master\src\Display\lcd.c",500
00000E87 FB12rrrrrrrr            		MOV.L #__$main_u8g, R1
00000E8D 05rrrrrr             A  		BSR _u8g_NextPage
00000E91 6101                    		CMP #00H, R1
00000E93 3Brrrr               W  		BNE L263
00000E96                         L325:	; bb170
                                 ;     575 		}
                                 ;     576 
                                 ;     577 	} while(u8g_NextPage(&main_u8g));
                                 ;     578 	xSemaphoreGive(rspi_semaphore);
                                 		.LINE  "C:\Workspace\e2studio\git\MT01_master\src\Display\lcd.c",578
00000E96 FBE2rrrrrrrr            		MOV.L #_rspi_semaphore, R14
00000E9C ECE1                    		MOV.L [R14], R1
00000E9E 6602                    		MOV.L #00000000H, R2
00000EA0 EF23                    		MOV.L R2, R3
00000EA2 EF24                    		MOV.L R2, R4
00000EA4 05rrrrrr             A  		BSR _xQueueGenericSend
00000EA8 3F6609                  		RTSD #24H, R6-R6
00000EAB                         _ut_lcd_output_int_var:
                                 		.STACK	_ut_lcd_output_int_var=48
                                 ;     579 }
                                 ;     580 
                                 ;     581 void ut_lcd_output_int_var(const char* title,const char* varStr, uint8_t blinkpos, bool blink)
                                 		.LINE  "C:\Workspace\e2studio\git\MT01_master\src\Display\lcd.c",581
00000EAB 7100D8                  		ADD #0FFFFFFD8H, R0
00000EAE A209                    		MOV.L R1, 24H[R0]
00000EB0 A202                    		MOV.L R2, 20H[R0]
00000EB2 878B                    		MOV.B R3, 1FH[R0]
00000EB4 8784                    		MOV.B R4, 1EH[R0]
                                 ;     582 {
                                 ;     583 	char str2Show[20];
                                 ;     584 	uint8_t h;
                                 ;     585 	uint8_t endPos = 0, pointPos = 0;
                                 		.LINE  "C:\Workspace\e2studio\git\MT01_master\src\Display\lcd.c",585
00000EB6 3C8C00                  		MOV.B #00H, 1CH[R0]
00000EB9 3C8D00                  		MOV.B #00H, 1DH[R0]
00000EBC                         L327:	; entry.split
00000EBC FB36FF                  		MOV.L #0FFFFFFFFH, R3
                                 ;     586 
                                 ;     587 	strcpy(str2Show,varStr);
                                 		.LINE  "C:\Workspace\e2studio\git\MT01_master\src\Display\lcd.c",587
00000EBF AA02                    		MOV.L 20H[R0], R2
00000EC1 710107                  		ADD #07H, R0, R1
00000EC4 7F87                    		SMOVU
00000EC6                         L328:	; entry.split1
                                 ;     588 	xSemaphoreTake(rspi_semaphore, portMAX_DELAY);
                                 		.LINE  "C:\Workspace\e2studio\git\MT01_master\src\Display\lcd.c",588
00000EC6 FBE2rrrrrrrr            		MOV.L #_rspi_semaphore, R14
00000ECC ECE1                    		MOV.L [R14], R1
00000ECE FB36FF                  		MOV.L #0FFFFFFFFH, R3
00000ED1 6602                    		MOV.L #00000000H, R2
00000ED3 EF24                    		MOV.L R2, R4
00000ED5 05rrrrrr             A  		BSR _xQueueGenericReceive
00000ED9                         L329:	; entry.split2
                                 ;     589 	u8g_FirstPage(&main_u8g);
                                 		.LINE  "C:\Workspace\e2studio\git\MT01_master\src\Display\lcd.c",589
00000ED9 FB12rrrrrrrr            		MOV.L #__$main_u8g, R1
00000EDF 05rrrrrr             A  		BSR _u8g_FirstPage
00000EE3 2Err                 B  		BRA L333
00000EE5                         L330:	; bb12
                                 ;     590 
                                 ;     591 	while (str2Show[endPos] != ' ')
                                 ;     592 	{
                                 ;     593 		if (str2Show[endPos] == '.')
                                 		.LINE  "C:\Workspace\e2studio\git\MT01_master\src\Display\lcd.c",593
00000EE5 B701                    		MOVU.B 1CH[R0], R1
00000EE7 710E07                  		ADD #07H, R0, R14
00000EEA FECE1E                  		MOVU.B [R14,R1], R14
00000EED 755E2E                  		CMP #2EH, R14
00000EF0 18                   S  		BNE L332
00000EF1                         L331:	; bb13
                                 ;     594 			pointPos = endPos;
                                 		.LINE  "C:\Workspace\e2studio\git\MT01_master\src\Display\lcd.c",594
00000EF1 C5001C1D                		MOV.B 1CH[R0], 1DH[R0]
00000EF5                         L332:	; bb23
                                 ;     595 		endPos++;
                                 		.LINE  "C:\Workspace\e2studio\git\MT01_master\src\Display\lcd.c",595
00000EF5 B701                    		MOVU.B 1CH[R0], R1
00000EF7 6211                    		ADD #01H, R1
00000EF9 8701                    		MOV.B R1, 1CH[R0]
00000EFB                         L333:	; bb26
                                 		.LINE  "C:\Workspace\e2studio\git\MT01_master\src\Display\lcd.c",591
00000EFB B701                    		MOVU.B 1CH[R0], R1
00000EFD 710E07                  		ADD #07H, R0, R14
00000F00 FECE1E                  		MOVU.B [R14,R1], R14
00000F03 755E20                  		CMP #20H, R14
00000F06 21rr                    		BNE L330
00000F08                         L334:	; bb36
                                 ;     596 	}
                                 ;     597 	pointPos = endPos - pointPos;
                                 		.LINE  "C:\Workspace\e2studio\git\MT01_master\src\Display\lcd.c",597
00000F08 B701                    		MOVU.B 1CH[R0], R1
00000F0A 41011D                  		SUB 1DH[R0].UB, R1
00000F0D 8709                    		MOV.B R1, 1DH[R0]
00000F0F                         L335:	; bb36.split
                                 ;     598 	if (blink)
                                 		.LINE  "C:\Workspace\e2studio\git\MT01_master\src\Display\lcd.c",598
00000F0F B781                    		MOVU.B 1EH[R0], R1
00000F11 6101                    		CMP #00H, R1
00000F13 20rr                    		BEQ L343
00000F15                         L336:	; bb45
                                 ;     599 	{
                                 ;     600 
                                 ;     601 		if (blinkpos >=  pointPos && pointPos < endPos)
                                 		.LINE  "C:\Workspace\e2studio\git\MT01_master\src\Display\lcd.c",601
00000F15 B789                    		MOVU.B 1FH[R0], R1
00000F17 45011D                  		CMP 1DH[R0].UB, R1
00000F1A 28rr                    		BGE L339
00000F1C 2Err                 B  		BRA L341
00000F1E                         L337:	; bb46
00000F1E 710E07                  		ADD #07H, R0, R14
00000F21 4BE1                    		ADD R14, R1
00000F23 FBE6FF                  		MOV.L #0FFFFFFFFH, R14
00000F26 754F20                  		MOV.L #00000020H, R15
                                 ;     602 			str2Show[endPos - blinkpos - 1] = 0x20;
                                 		.LINE  "C:\Workspace\e2studio\git\MT01_master\src\Display\lcd.c",602
00000F29 FE01EF                  		MOV.B R15, [R1,R14]
00000F2C 2Err                 B  		BRA L343
00000F2E                         L338:	; bb55
00000F2E 710E07                  		ADD #07H, R0, R14
00000F31 754F20                  		MOV.L #00000020H, R15
                                 ;     603 		else
                                 ;     604 			str2Show[endPos - blinkpos] = 0x20;
                                 		.LINE  "C:\Workspace\e2studio\git\MT01_master\src\Display\lcd.c",604
00000F34 FE0E1F                  		MOV.B R15, [R14,R1]
00000F37 2Err                 B  		BRA L343
00000F39                         L339:	; bb69
00000F39 B709                    		MOVU.B 1DH[R0], R1
00000F3B 45011C                  		CMP 1CH[R0].UB, R1
00000F3E 28rr                    		BGE L341
00000F40                         L340:	; bb76
00000F40 F80601                  		MOV.L #00000001H, [R0]
00000F43 08                   S  		BRA L342
00000F44                         L341:	; bb77
00000F44 F80600                  		MOV.L #00000000H, [R0]
00000F47                         L342:	; bb78
00000F47 B701                    		MOVU.B 1CH[R0], R1
00000F49 41011F                  		SUB 1FH[R0].UB, R1
00000F4C EC02                    		MOV.L [R0], R2
00000F4E 6102                    		CMP #00H, R2
00000F50 21rr                    		BNE L337
00000F52 2Err                 B  		BRA L338
00000F54                         L343:	; bb90
00000F54 6040                    		SUB #04H, R0
                                 ;     605 	}
                                 ;     606 	/* Picture loop */
                                 ;     607 	do
                                 ;     608 	{
                                 ;     609 		u8g_DrawFrame(&main_u8g,3, 10, 120, 44);
                                 		.LINE  "C:\Workspace\e2studio\git\MT01_master\src\Display\lcd.c",609
00000F56 F8042C                  		MOV.B #2CH, [R0]
00000F59 754478                  		MOV.L #00000078H, R4
00000F5C 66A3                    		MOV.L #0000000AH, R3
00000F5E 6632                    		MOV.L #00000003H, R2
00000F60 FB12rrrrrrrr            		MOV.L #__$main_u8g, R1
00000F66 05rrrrrr             A  		BSR _u8g_DrawFrame
00000F6A 6240                    		ADD #04H, R0
00000F6C                         L344:	; bb90.split
                                 ;     610 		u8g_prepare(u8g_font_6x10);
                                 		.LINE  "C:\Workspace\e2studio\git\MT01_master\src\Display\lcd.c",610
00000F6C FB12rrrrrrrr            		MOV.L #_u8g_font_6x10, R1
00000F72 39rrrr               W  		BSR __$u8g_prepare
00000F75                         L345:	; bb90.split3
                                 ;     611 		h = u8g_GetFontAscent(&main_u8g) - u8g_GetFontDescent(&main_u8g) + 1;
                                 		.LINE  "C:\Workspace\e2studio\git\MT01_master\src\Display\lcd.c",611
00000F75 FBE2rrrrrrrr            		MOV.L #__$main_u8g, R14
00000F7B CDE129                  		MOV.B 29H[R14], R1
00000F7E 0601E12A                		SUB 2AH[R14].B, R1
00000F82 6211                    		ADD #01H, R1
00000F84 8689                    		MOV.B R1, 1BH[R0]
00000F86                         L346:	; bb90.split4
                                 ;     612 		u8g_DrawStr(&main_u8g, 0, 11, title);
                                 		.LINE  "C:\Workspace\e2studio\git\MT01_master\src\Display\lcd.c",612
00000F86 AA0C                    		MOV.L 24H[R0], R4
00000F88 66B3                    		MOV.L #0000000BH, R3
00000F8A 6602                    		MOV.L #00000000H, R2
00000F8C FB12rrrrrrrr            		MOV.L #__$main_u8g, R1
00000F92 05rrrrrr             A  		BSR _u8g_DrawStr
00000F96                         L347:	; bb90.split5
                                 ;     613 		u8g_DrawHLine(&main_u8g, 3, h+11, 120);
                                 		.LINE  "C:\Workspace\e2studio\git\MT01_master\src\Display\lcd.c",613
00000F96 B689                    		MOVU.B 1BH[R0], R1
00000F98 62B1                    		ADD #0BH, R1
00000F9A 5B13                    		MOVU.B R1, R3
00000F9C 754478                  		MOV.L #00000078H, R4
00000F9F 6632                    		MOV.L #00000003H, R2
00000FA1 FB12rrrrrrrr            		MOV.L #__$main_u8g, R1
00000FA7 05rrrrrr             A  		BSR _u8g_DrawHLine
00000FAB                         L348:	; bb90.split6
                                 ;     614 		u8g_DrawStr(&main_u8g, 33, h+20, str2Show);
                                 		.LINE  "C:\Workspace\e2studio\git\MT01_master\src\Display\lcd.c",614
00000FAB B689                    		MOVU.B 1BH[R0], R1
00000FAD 711114                  		ADD #14H, R1
00000FB0 5B13                    		MOVU.B R1, R3
00000FB2 710407                  		ADD #07H, R0, R4
00000FB5 754221                  		MOV.L #00000021H, R2
00000FB8 FB12rrrrrrrr            		MOV.L #__$main_u8g, R1
00000FBE 05rrrrrr             A  		BSR _u8g_DrawStr
00000FC2                         L349:	; bb90.split7
                                 		.LINE  "C:\Workspace\e2studio\git\MT01_master\src\Display\lcd.c",607
00000FC2 FB12rrrrrrrr            		MOV.L #__$main_u8g, R1
00000FC8 05rrrrrr             A  		BSR _u8g_NextPage
00000FCC 6101                    		CMP #00H, R1
00000FCE 21rr                    		BNE L343
00000FD0                         L350:	; bb115
                                 ;     615 	} while(u8g_NextPage(&main_u8g));
                                 ;     616 	xSemaphoreGive(rspi_semaphore);
                                 		.LINE  "C:\Workspace\e2studio\git\MT01_master\src\Display\lcd.c",616
00000FD0 FBE2rrrrrrrr            		MOV.L #_rspi_semaphore, R14
00000FD6 ECE1                    		MOV.L [R14], R1
00000FD8 6602                    		MOV.L #00000000H, R2
00000FDA EF23                    		MOV.L R2, R3
00000FDC EF24                    		MOV.L R2, R4
00000FDE 05rrrrrr             A  		BSR _xQueueGenericSend
00000FE2 670A                    		RTSD #28H
00000FE4                         _ut_lcd_output_warning:
                                 		.STACK	_ut_lcd_output_warning=88
                                 ;     617 }
                                 ;     618 
                                 ;     619 void ut_lcd_output_warning(const char* Str)
                                 		.LINE  "C:\Workspace\e2studio\git\MT01_master\src\Display\lcd.c",619
00000FE4 7100B0                  		ADD #0FFFFFFB0H, R0
00000FE7 A489                    		MOV.L R1, 4CH[R0]
                                 ;     620 {
                                 ;     621 	uint8_t h,hfont,x,y;
                                 ;     622 	uint8_t lineSize;
                                 ;     623 	uint8_t lineSizeMax = 0;
                                 		.LINE  "C:\Workspace\e2studio\git\MT01_master\src\Display\lcd.c",623
00000FE9 3C0700                  		MOV.B #00H, 07H[R0]
00000FEC                         L352:	; entry.split
                                 ;     624 	char line[3][21];
                                 ;     625 	uint8_t count;
                                 ;     626 	const char *message = Str;
                                 		.LINE  "C:\Workspace\e2studio\git\MT01_master\src\Display\lcd.c",626
00000FEC E5001312                		MOV.L 4CH[R0], 48H[R0]
00000FF0                         L353:	; entry.split1
                                 ;     627 	count = 0;
                                 		.LINE  "C:\Workspace\e2studio\git\MT01_master\src\Display\lcd.c",627
00000FF0 F9044700                		MOV.B #00H, 47H[R0]
00000FF4                         L354:	; entry.split2
                                 ;     628 	xSemaphoreTake(rspi_semaphore, portMAX_DELAY);
                                 		.LINE  "C:\Workspace\e2studio\git\MT01_master\src\Display\lcd.c",628
00000FF4 FBE2rrrrrrrr            		MOV.L #_rspi_semaphore, R14
00000FFA ECE1                    		MOV.L [R14], R1
00000FFC FB36FF                  		MOV.L #0FFFFFFFFH, R3
00000FFF 6602                    		MOV.L #00000000H, R2
00001001 EF24                    		MOV.L R2, R4
00001003 05rrrrrr             A  		BSR _xQueueGenericReceive
00001007                         L355:	; entry.split3
                                 ;     629 	u8g_FirstPage(&main_u8g);
                                 		.LINE  "C:\Workspace\e2studio\git\MT01_master\src\Display\lcd.c",629
00001007 FB12rrrrrrrr            		MOV.L #__$main_u8g, R1
0000100D 05rrrrrr             A  		BSR _u8g_FirstPage
00001011                         L356:	; entry.split4
                                 ;     630 	u8g_prepare(u8g_font_helvB08);
                                 		.LINE  "C:\Workspace\e2studio\git\MT01_master\src\Display\lcd.c",630
00001011 FB12rrrrrrrr            		MOV.L #_u8g_font_helvB08, R1
00001017 39rrrr               W  		BSR __$u8g_prepare
0000101A                         L357:	; entry.split5
                                 ;     631 	hfont = u8g_GetFontAscent(&main_u8g) - u8g_GetFontDescent(&main_u8g) + 1;
                                 		.LINE  "C:\Workspace\e2studio\git\MT01_master\src\Display\lcd.c",631
0000101A FBE2rrrrrrrr            		MOV.L #__$main_u8g, R14
00001020 CDE129                  		MOV.B 29H[R14], R1
00001023 0601E12A                		SUB 2AH[R14].B, R1
00001027 6211                    		ADD #01H, R1
00001029 8089                    		MOV.B R1, 03H[R0]
0000102B                         L358:	; entry.split6
                                 ;     632 	readline(message,line[0],&count);
                                 		.LINE  "C:\Workspace\e2studio\git\MT01_master\src\Display\lcd.c",632
0000102B AC81                    		MOV.L 48H[R0], R1
0000102D 710347                  		ADD #47H, R0, R3
00001030 710208                  		ADD #08H, R0, R2
00001033 39rrrr               W  		BSR __$readline
00001036                         L359:	; entry.split7
                                 ;     633 	readline(message,line[1],&count);
                                 		.LINE  "C:\Workspace\e2studio\git\MT01_master\src\Display\lcd.c",633
00001036 AC81                    		MOV.L 48H[R0], R1
00001038 710347                  		ADD #47H, R0, R3
0000103B 71021D                  		ADD #1DH, R0, R2
0000103E 39rrrr               W  		BSR __$readline
00001041                         L360:	; entry.split8
                                 ;     634 	readline(message,line[2],&count);
                                 		.LINE  "C:\Workspace\e2studio\git\MT01_master\src\Display\lcd.c",634
00001041 AC81                    		MOV.L 48H[R0], R1
00001043 710347                  		ADD #47H, R0, R3
00001046 710232                  		ADD #32H, R0, R2
00001049 39rrrr               W  		BSR __$readline
0000104C                         L361:	; entry.split9
                                 ;     635 	h = 3*hfont;
                                 		.LINE  "C:\Workspace\e2studio\git\MT01_master\src\Display\lcd.c",635
0000104C B089                    		MOVU.B 03H[R0], R1
0000104E 6331                    		MUL #03H, R1
00001050 8081                    		MOV.B R1, 02H[R0]
00001052                         L362:	; entry.split10
                                 ;     636 	if(line[2][0] == 0)
                                 		.LINE  "C:\Workspace\e2studio\git\MT01_master\src\Display\lcd.c",636
00001052 590E32                  		MOVU.B 32H[R0], R14
00001055 610E                    		CMP #00H, R14
00001057 21rr                    		BNE L366
00001059                         L363:	; bb36
                                 ;     637 	{
                                 ;     638 		h -= hfont;
                                 		.LINE  "C:\Workspace\e2studio\git\MT01_master\src\Display\lcd.c",638
00001059 B081                    		MOVU.B 02H[R0], R1
0000105B 410103                  		SUB 03H[R0].UB, R1
0000105E 8081                    		MOV.B R1, 02H[R0]
00001060                         L364:	; bb36.split
                                 ;     639 		if(line[1][0] == 0)
                                 		.LINE  "C:\Workspace\e2studio\git\MT01_master\src\Display\lcd.c",639
00001060 B709                    		MOVU.B 1DH[R0], R1
00001062 6101                    		CMP #00H, R1
00001064 18                   S  		BNE L366
00001065                         L365:	; bb44
                                 ;     640 		{
                                 ;     641 			h -= hfont;
                                 		.LINE  "C:\Workspace\e2studio\git\MT01_master\src\Display\lcd.c",641
00001065 B081                    		MOVU.B 02H[R0], R1
00001067 410103                  		SUB 03H[R0].UB, R1
0000106A 8081                    		MOV.B R1, 02H[R0]
0000106C                         L366:	; bb70
0000106C 710208                  		ADD #08H, R0, R2
                                 ;     642 		}
                                 ;     643 	}
                                 ;     644 
                                 ;     645 	/* Picture loop */
                                 ;     646 	do
                                 ;     647 	{
                                 ;     648 		lineSize = u8g_GetStrWidth(&main_u8g,line[0]);
                                 		.LINE  "C:\Workspace\e2studio\git\MT01_master\src\Display\lcd.c",648
0000106F FB12rrrrrrrr            		MOV.L #__$main_u8g, R1
00001075 05rrrrrr             A  		BSR _u8g_GetStrWidth
00001079 8181                    		MOV.B R1, 06H[R0]
0000107B                         L367:	; bb70.split
                                 ;     649 		lineSizeMax = max(lineSizeMax,lineSize);
                                 		.LINE  "C:\Workspace\e2studio\git\MT01_master\src\Display\lcd.c",649
0000107B B189                    		MOVU.B 07H[R0], R1
0000107D FC110106                		MAX 06H[R0].UB, R1
00001081 8189                    		MOV.B R1, 07H[R0]
00001083                         L368:	; bb70.split11
00001083 754180                  		MOV.L #00000080H, R1
                                 ;     650 		x = (128 - lineSize)/2;
                                 		.LINE  "C:\Workspace\e2studio\git\MT01_master\src\Display\lcd.c",650
00001086 410106                  		SUB 06H[R0].UB, R1
00001089 FD748102                		DIV #02H, R1
0000108D 8101                    		MOV.B R1, 04H[R0]
0000108F                         L369:	; bb70.split12
0000108F 754140                  		MOV.L #00000040H, R1
                                 ;     651 		y = (64-h)/2;
                                 		.LINE  "C:\Workspace\e2studio\git\MT01_master\src\Display\lcd.c",651
00001092 410102                  		SUB 02H[R0].UB, R1
00001095 FD748102                		DIV #02H, R1
00001099 8109                    		MOV.B R1, 05H[R0]
0000109B                         L370:	; bb70.split13
                                 ;     652 		u8g_DrawStr(&main_u8g, x, y, line[0]);
                                 		.LINE  "C:\Workspace\e2studio\git\MT01_master\src\Display\lcd.c",652
0000109B B10B                    		MOVU.B 05H[R0], R3
0000109D B102                    		MOVU.B 04H[R0], R2
0000109F 710408                  		ADD #08H, R0, R4
000010A2 FB12rrrrrrrr            		MOV.L #__$main_u8g, R1
000010A8 05rrrrrr             A  		BSR _u8g_DrawStr
000010AC                         L371:	; bb70.split14
                                 ;     653 
                                 ;     654 		lineSize = u8g_GetStrWidth(&main_u8g,line[1]);
                                 		.LINE  "C:\Workspace\e2studio\git\MT01_master\src\Display\lcd.c",654
000010AC 71021D                  		ADD #1DH, R0, R2
000010AF FB12rrrrrrrr            		MOV.L #__$main_u8g, R1
000010B5 05rrrrrr             A  		BSR _u8g_GetStrWidth
000010B9 8181                    		MOV.B R1, 06H[R0]
000010BB                         L372:	; bb70.split15
                                 ;     655 		lineSizeMax = max(lineSizeMax,lineSize);
                                 		.LINE  "C:\Workspace\e2studio\git\MT01_master\src\Display\lcd.c",655
000010BB B189                    		MOVU.B 07H[R0], R1
000010BD FC110106                		MAX 06H[R0].UB, R1
000010C1 8189                    		MOV.B R1, 07H[R0]
000010C3                         L373:	; bb70.split16
000010C3 754180                  		MOV.L #00000080H, R1
                                 ;     656 		x = (128 - lineSize)/2;
                                 		.LINE  "C:\Workspace\e2studio\git\MT01_master\src\Display\lcd.c",656
000010C6 410106                  		SUB 06H[R0].UB, R1
000010C9 FD748102                		DIV #02H, R1
000010CD 8101                    		MOV.B R1, 04H[R0]
000010CF                         L374:	; bb70.split17
                                 ;     657 		y += hfont;
                                 		.LINE  "C:\Workspace\e2studio\git\MT01_master\src\Display\lcd.c",657
000010CF B109                    		MOVU.B 05H[R0], R1
000010D1 490103                  		ADD 03H[R0].UB, R1
000010D4 8109                    		MOV.B R1, 05H[R0]
000010D6                         L375:	; bb70.split18
                                 ;     658 		u8g_DrawStr(&main_u8g, x, y, line[1]);
                                 		.LINE  "C:\Workspace\e2studio\git\MT01_master\src\Display\lcd.c",658
000010D6 B10B                    		MOVU.B 05H[R0], R3
000010D8 B102                    		MOVU.B 04H[R0], R2
000010DA 71041D                  		ADD #1DH, R0, R4
000010DD FB12rrrrrrrr            		MOV.L #__$main_u8g, R1
000010E3 05rrrrrr             A  		BSR _u8g_DrawStr
000010E7                         L376:	; bb70.split19
                                 ;     659 
                                 ;     660 		lineSize = u8g_GetStrWidth(&main_u8g,line[2]);
                                 		.LINE  "C:\Workspace\e2studio\git\MT01_master\src\Display\lcd.c",660
000010E7 710232                  		ADD #32H, R0, R2
000010EA FB12rrrrrrrr            		MOV.L #__$main_u8g, R1
000010F0 05rrrrrr             A  		BSR _u8g_GetStrWidth
000010F4 8181                    		MOV.B R1, 06H[R0]
000010F6                         L377:	; bb70.split20
                                 ;     661 		lineSizeMax = max(lineSizeMax,lineSize);
                                 		.LINE  "C:\Workspace\e2studio\git\MT01_master\src\Display\lcd.c",661
000010F6 B189                    		MOVU.B 07H[R0], R1
000010F8 FC110106                		MAX 06H[R0].UB, R1
000010FC 8189                    		MOV.B R1, 07H[R0]
000010FE                         L378:	; bb70.split21
000010FE 754180                  		MOV.L #00000080H, R1
                                 ;     662 		x = (128 - lineSize)/2;
                                 		.LINE  "C:\Workspace\e2studio\git\MT01_master\src\Display\lcd.c",662
00001101 410106                  		SUB 06H[R0].UB, R1
00001104 FD748102                		DIV #02H, R1
00001108 8101                    		MOV.B R1, 04H[R0]
0000110A                         L379:	; bb70.split22
                                 ;     663 		y += hfont;
                                 		.LINE  "C:\Workspace\e2studio\git\MT01_master\src\Display\lcd.c",663
0000110A B109                    		MOVU.B 05H[R0], R1
0000110C 490103                  		ADD 03H[R0].UB, R1
0000110F 8109                    		MOV.B R1, 05H[R0]
00001111                         L380:	; bb70.split23
                                 ;     664 		u8g_DrawStr(&main_u8g, x, y, line[2]);
                                 		.LINE  "C:\Workspace\e2studio\git\MT01_master\src\Display\lcd.c",664
00001111 B10B                    		MOVU.B 05H[R0], R3
00001113 B102                    		MOVU.B 04H[R0], R2
00001115 710432                  		ADD #32H, R0, R4
00001118 FB12rrrrrrrr            		MOV.L #__$main_u8g, R1
0000111E 05rrrrrr             A  		BSR _u8g_DrawStr
00001122                         L381:	; bb70.split24
00001122 754180                  		MOV.L #00000080H, R1
                                 ;     665 
                                 ;     666 		x = (128 - lineSizeMax)/2;
                                 		.LINE  "C:\Workspace\e2studio\git\MT01_master\src\Display\lcd.c",666
00001125 410107                  		SUB 07H[R0].UB, R1
00001128 FD748102                		DIV #02H, R1
0000112C 8101                    		MOV.B R1, 04H[R0]
0000112E                         L382:	; bb70.split25
0000112E 754140                  		MOV.L #00000040H, R1
                                 ;     667 		y = (64-h)/2;
                                 		.LINE  "C:\Workspace\e2studio\git\MT01_master\src\Display\lcd.c",667
00001131 410102                  		SUB 02H[R0].UB, R1
00001134 FD748102                		DIV #02H, R1
00001138 8109                    		MOV.B R1, 05H[R0]
0000113A                         L383:	; bb70.split26
                                 ;     668 		u8g_DrawFrame(&main_u8g,(x-3), (y-3), (lineSizeMax+6), (h+6));
                                 		.LINE  "C:\Workspace\e2studio\git\MT01_master\src\Display\lcd.c",668
0000113A B081                    		MOVU.B 02H[R0], R1
0000113C B18A                    		MOVU.B 07H[R0], R2
0000113E B10B                    		MOVU.B 05H[R0], R3
00001140 B105                    		MOVU.B 04H[R0], R5
00001142 6040                    		SUB #04H, R0
00001144 6261                    		ADD #06H, R1
00001146 C301                    		MOV.B R1, [R0]
00001148 6262                    		ADD #06H, R2
0000114A 5B24                    		MOVU.B R2, R4
0000114C 6033                    		SUB #03H, R3
0000114E 5B33                    		MOVU.B R3, R3
00001150 6035                    		SUB #03H, R5
00001152 5B52                    		MOVU.B R5, R2
00001154 FB12rrrrrrrr            		MOV.L #__$main_u8g, R1
0000115A 05rrrrrr             A  		BSR _u8g_DrawFrame
0000115E 6240                    		ADD #04H, R0
00001160                         L384:	; bb70.split27
                                 		.LINE  "C:\Workspace\e2studio\git\MT01_master\src\Display\lcd.c",646
00001160 FB12rrrrrrrr            		MOV.L #__$main_u8g, R1
00001166 05rrrrrr             A  		BSR _u8g_NextPage
0000116A 6101                    		CMP #00H, R1
0000116C 3Brrrr               W  		BNE L366
0000116F                         L385:	; bb182
                                 ;     669 	} while(u8g_NextPage(&main_u8g));
                                 ;     670 	xSemaphoreGive(rspi_semaphore);
                                 		.LINE  "C:\Workspace\e2studio\git\MT01_master\src\Display\lcd.c",670
0000116F FBE2rrrrrrrr            		MOV.L #_rspi_semaphore, R14
00001175 ECE1                    		MOV.L [R14], R1
00001177 6602                    		MOV.L #00000000H, R2
00001179 EF23                    		MOV.L R2, R3
0000117B EF24                    		MOV.L R2, R4
0000117D 05rrrrrr             A  		BSR _xQueueGenericSend
00001181 6714                    		RTSD #50H
00001183                         __$readline:
                                 		.STACK	__$readline=20
                                 ;     671 }
                                 ;     672 
                                 ;     673 static void readline(const char *message, char *line, uint8_t *counter){
                                 		.LINE  "C:\Workspace\e2studio\git\MT01_master\src\Display\lcd.c",673
00001183 7100F0                  		ADD #0FFFFFFF0H, R0
00001186 A089                    		MOV.L R1, 0CH[R0]
00001188 A082                    		MOV.L R2, 08H[R0]
0000118A A00B                    		MOV.L R3, 04H[R0]
                                 ;     674 
                                 ;     675     int index = 0;
                                 		.LINE  "C:\Workspace\e2studio\git\MT01_master\src\Display\lcd.c",675
0000118C F80600                  		MOV.L #00000000H, [R0]
0000118F                         L387:	; entry.split
                                 ;     676 	if(message[*counter] != '\0')
                                 		.LINE  "C:\Workspace\e2studio\git\MT01_master\src\Display\lcd.c",676
0000118F A809                    		MOV.L 04H[R0], R1
00001191 581E                    		MOVU.B [R1], R14
00001193 A889                    		MOV.L 0CH[R0], R1
00001195 FEC1EE                  		MOVU.B [R1,R14], R14
00001198 610E                    		CMP #00H, R14
0000119A 21rr                    		BNE L391
0000119C 2Err                 B  		BRA L393
0000119E                         L388:	; bb6
                                 ;     677 	{
                                 ;     678 		while(message[*counter] != '\n'){
                                 ;     679 			line[index] = message[*counter];
                                 		.LINE  "C:\Workspace\e2studio\git\MT01_master\src\Display\lcd.c",679
0000119E A809                    		MOV.L 04H[R0], R1
000011A0 581E                    		MOVU.B [R1], R14
000011A2 A889                    		MOV.L 0CH[R0], R1
000011A4 FEC1EE                  		MOVU.B [R1,R14], R14
000011A7 EC01                    		MOV.L [R0], R1
000011A9 A882                    		MOV.L 08H[R0], R2
000011AB FE021E                  		MOV.B R14, [R2,R1]
000011AE                         L389:	; bb6.split
                                 ;     680 			(*counter)++;
                                 		.LINE  "C:\Workspace\e2studio\git\MT01_master\src\Display\lcd.c",680
000011AE A809                    		MOV.L 04H[R0], R1
000011B0 581E                    		MOVU.B [R1], R14
000011B2 621E                    		ADD #01H, R14
000011B4 C31E                    		MOV.B R14, [R1]
000011B6                         L390:	; bb6.split1
                                 ;     681 			index ++;
                                 		.LINE  "C:\Workspace\e2studio\git\MT01_master\src\Display\lcd.c",681
000011B6 EC01                    		MOV.L [R0], R1
000011B8 6211                    		ADD #01H, R1
000011BA E301                    		MOV.L R1, [R0]
000011BC                         L391:	; bb20
                                 		.LINE  "C:\Workspace\e2studio\git\MT01_master\src\Display\lcd.c",678
000011BC A809                    		MOV.L 04H[R0], R1
000011BE 581E                    		MOVU.B [R1], R14
000011C0 A889                    		MOV.L 0CH[R0], R1
000011C2 FEC1EE                  		MOVU.B [R1,R14], R14
000011C5 61AE                    		CMP #0AH, R14
000011C7 21rr                    		BNE L388
000011C9                         L392:	; bb30
                                 ;     682 		}
                                 ;     683 		(*counter)++;
                                 		.LINE  "C:\Workspace\e2studio\git\MT01_master\src\Display\lcd.c",683
000011C9 A809                    		MOV.L 04H[R0], R1
000011CB 581E                    		MOVU.B [R1], R14
000011CD 621E                    		ADD #01H, R14
000011CF C31E                    		MOV.B R14, [R1]
000011D1                         L393:	; bb44
000011D1 660E                    		MOV.L #00000000H, R14
                                 ;     684 	}
                                 ;     685 	line[index] = 0;
                                 		.LINE  "C:\Workspace\e2studio\git\MT01_master\src\Display\lcd.c",685
000011D3 EC01                    		MOV.L [R0], R1
000011D5 A882                    		MOV.L 08H[R0], R2
000011D7 FE021E                  		MOV.B R14, [R2,R1]
000011DA 6704                    		RTSD #10H
                                 ;     686 }
                                 		.SECTION	L,ROMDATA,ALIGN=4
00000000                         _L10:
00000000 44                      		.byte	"D"
00000001 0A00                    		.byte	0AH,00H
00000003                         _L11:
00000003 4D4F444F                		.byte	"MODO OXICORTE"
         204F5849                
         434F5254                
         45                      
00000010 00                      		.byte	00H
00000011                         _L12:
00000011 4D4F444F                		.byte	"MODO PLASMA"
         20504C41                
         534D41                  
0000001C 00                      		.byte	00H
0000001D                         _L13:
0000001D 544F4348                		.byte	"TOCHA"
         41                      
00000022 00                      		.byte	00H
00000023                         _L14:
00000023 41434553                		.byte	"ACESA"
         41                      
00000028 00                      		.byte	00H
00000029                         _L15:
00000029 41504147                		.byte	"APAGADA"
         414441                  
00000030 00                      		.byte	00H
00000031                         _L16:
00000031 00                      		.byte	0
00000032                         _L17:
00000032 583A                    		.byte	"X:"
00000034 00                      		.byte	00H
00000035                         _L18:
00000035 593A                    		.byte	"Y:"
00000037 00                      		.byte	00H
00000038                         _L19:
00000038 5A3A                    		.byte	"Z:"
0000003A 00                      		.byte	00H
                                 		.SECTION	D,ROMDATA,ALIGN=4
00000000                         _rspi_semaphore:
00000000 00000000                		.lword	00000000H
                                 		.SECTION	D_1,ROMDATA
00000000                         __$warning_bits:
00000000 00100000                		.byte	00H,10H,00H,00H,00H
         00                      
00000005 38                      		.byte	"8"
00000006 000000                  		.byte	00H,00H,00H
00000009 28                      		.byte	"("
0000000A 000000                  		.byte	00H,00H,00H
0000000D 6C                      		.byte	"l"
0000000E 000000C6                		.byte	00H,00H,00H,0C6H,00H,00H,00H,82H,00H,00H,00H,0BBH,01H,00H,00H
         00000082                
         000000BB                
         010000                  
0000001D 39                      		.byte	"9"
0000001E 010080                  		.byte	01H,00H,80H
00000021 39                      		.byte	"9"
00000022 0300C0                  		.byte	03H,00H,0C0H
00000025 38                      		.byte	"8"
00000026 0200C0                  		.byte	02H,00H,0C0H
00000029 38                      		.byte	"8"
0000002A 0400                    		.byte	04H,00H
0000002C 6038                    		.byte	"`8"
0000002E 0C00                    		.byte	0CH,00H
00000030 2038                    		.byte	" 8"
00000032 0800                    		.byte	08H,00H
00000034 3038                    		.byte	"08"
00000036 180010                  		.byte	18H,00H,10H
00000039 38                      		.byte	"8"
0000003A 10001800                		.byte	10H,00H,18H,00H
0000003E 30                      		.byte	"0"
0000003F 000C                    		.byte	00H,0CH
00000041 3860                    		.byte	"8`"
00000043 000C                    		.byte	00H,0CH
00000045 3860                    		.byte	"8`"
00000047 0006                    		.byte	00H,06H
00000049 38                      		.byte	"8"
0000004A C0000200                		.byte	0C0H,00H,02H,00H,80H,00H,0FFH,0FFH,0FFH,01H,0FFH,0FFH,0FFH,01H
         8000FFFF                
         FF01FFFF                
         FF01                    
                                 		.SECTION	B,DATA,ALIGN=4
00000000                         __$gacStr:
00000000(00000018H)              		.blkl	6
00000018                         __$gaboFontStr:
00000018(00000018H)              		.blkl	6
00000030                         __$main_u8g:
00000030(0000004CH)              		.blkl	19
                                 		.SECTION	B_1,DATA
00000000                         __$gaboBackColor:
00000000(00000078H)              		.blkb	120
00000078                         __$gacChar:
00000078(00000078H)              		.blkb	120
000000F0                         __$gaboBackColorStr:
000000F0(00000006H)              		.blkb	6
000000F6                         __$gabolineMarked:
000000F6(00000006H)              		.blkb	6
                                 		.END

Information List

TOTAL ERROR(S)    00000
TOTAL WARNING(S)  00000
TOTAL LINE(S)     03060   LINES

Section List

Attr         Size               Name
CODE     0000004572(000011DCH)  P
ROMDATA  0000000059(0000003BH)  L
ROMDATA  0000000004(00000004H)  D
ROMDATA  0000000088(00000058H)  D_1
DATA     0000000124(0000007CH)  B
DATA     0000000252(000000FCH)  B_1

Cpu Type

-ISA=RXV1 -FPU

Command Parameter

-subcommand=C:\Users\LAFONS~1\AppData\Local\Temp\$ccrx124\$ccrx\lcd.src.cmd
    -nologo
    -isa=rxv1
    -fpu
    -show=conditionals,definitions,expansions
    -define=__RXV1=1
    -fint_register=0
    -debug
    -endian=little
-listfile=C:\Workspace\e2studio\git\MT01_master\MT01_build\lcd.lst
-output=C:\Workspace\e2studio\git\MT01_master\MT01_build\src\Display\lcd.obj
