* RX FAMILY ASSEMBLER V2.03.00.01 [24 Oct 2014] *  SOURCE LIST  Mon Mar 20 17:54:26 2017

LOC.     OBJ.              0XMDA SOURCE STATEMENT

                                 ;RX Family C/C++ Compiler (V2.03.00.03 [04 Dec 2014])  20-Mar-2017 17:54:26
                                 
                                 ;*** CPU TYPE ***
                                 
                                 ;-ISA=RXV1
                                 
                                 ;*** COMMAND PARAMETER ***
                                 
                                 ;-output=src=r_usb_hmsc_driver.src
                                 ;-lang=c99
                                 ;-include=C:\PROGRA~2\Renesas\RX\2_3_0/include,C:\Workspace\e2studio\git\MT01_master\r_lvd_rx,C:\Workspace\e2studio\git\MT01_master\r_lvd_rx\src,C:/Workspace/e2studio/
                                 ;-debug
                                 ;-show=source,conditionals,definitions,expansions
                                 ;-listfile=r_usb_hmsc_driver.lst
                                 ;-isa=rxv1
                                 ;-optimize=0
                                 ;-fpu
                                 ;-alias=noansi
                                 ;-nologo
                                 ;-nomessage
                                 ;-define=__RX,COMPACTAXP=0,EASYMAK=1,MOBILE=0,FREE_RTOS_PP
                                 ;r_usb_hmsc_driver.c
                                 
                                 		.glb	_usb_ghmsc_DefEpTbl
                                 		.glb	_usb_ghmsc_Data
                                 		.glb	_usb_ghmsc_TransData
                                 		.glb	_usb_ghmsc_ReceiveData
                                 		.glb	_usb_ghmsc_ControlData
                                 		.glb	_usb_ghmsc_OutPipe
                                 		.glb	_usb_ghmsc_InPipe
                                 		.glb	_usb_shmsc_MsgNum
                                 		.glb	_usb_ghmsc_Cbw
                                 		.glb	_usb_ghmsc_Csw
                                 		.glb	_usb_ghmsc_CbwTagNo
                                 		.glb	_usb_ghmsc_AtapiFlag
                                 		.glb	_usb_ghmsc_AttSts
                                 		.glb	_usb_ghmsc_TransSize
                                 		.glb	_usb_ghmsc_Buff
                                 		.glb	_usb_shmsc_Process
                                 		.glb	_usb_shmsc_NoDataSeq
                                 		.glb	_usb_shmsc_DataInSeq
                                 		.glb	_usb_shmsc_DataOutSeq
                                 		.glb	_usb_shmsc_StallErrSeq
                                 		.glb	_usb_shmsc_DataStallSeq
                                 		.glb	_usb_ghmsc_RootDrive
                                 		.glb	_usb_ghmsc_CswErrRoop
                                 		.glb	_usb_ghmsc_drive_no
                                 		.glb	_usb_ghmsc_drv_no_tbl
                                 		.glb	_usb_ghmsc_DeviceTable
                                 		.glb	_usb_ghmsc_ConfigTable
                                 		.glb	_usb_ghmsc_InterfaceTable
                                 		.glb	_usb_ghmsc_Speed
                                 		.glb	_usb_ghmsc_Devaddr
                                 		.glb	_usb_shmsc_InitSeq
                                 		.glb	_usb_ghmsc_PipeTable
                                 		.glb	_usb_shmsc_ClassControl
                                 		.glb	_usb_shmsc_command_result
                                 		.glb	_usb_ghmsc_DriveChk
                                 		.glb	_usb_shmsc_ClassRequest
                                 		.glb	_usb_shmsc_DeviceReady
                                 		.glb	_usb_ghmsc_ClassData
                                 		.glb	_usb_ghmsc_MaxLUN
                                 		.glb	_usb_ghmsc_StrgCount
                                 		.glb	_usb_ghmsc_MaxDrive
                                 		.glb	_usb_shmsc_StrgProcess
                                 		.glb	_usb_shmsc_StrgDriveSearchSeq
                                 		.glb	_usb_shmsc_StrgDriveSearchErrCount
                                 		.glb	_usb_shmsc_StrgDriveSearchCount
                                 		.glb	_usb_shmsc_DevReadSectorSizeSeq
                                 		.glb	_usb_shmsc_DevReadSectorSizeErrCount
                                 		.glb	_usb_shmsc_DevReadPartitionSeq
                                 		.glb	_usb_shmsc_StrgDriveOpenSeq
                                 		.glb	_usb_shmsc_StrgDriveOpenCount
                                 		.glb	_usb_shmsc_StrgDriveOpenParCount
                                 		.glb	_usb_shmsc_PartitionLba
                                 		.glb	_usb_ghmsc_RootDevaddr
                                 		.glb	_usb_shmsc_NewDrive
                                 		.glb	_usb_shmsc_LoopCont
                                 		.glb	_usb_shmsc_Unit
                                 		.glb	_usb_ghmsc_PartTransSize
                                 		.glb	_usb_shmsc_PartitionInfo
                                 		.glb	_usb_hmsc_Task
                                 		.glb	_R_usb_cstd_RecMsg
                                 		.glb	_usb_hmsc_ClassCheck
                                 		.glb	_usb_hmsc_ClassWait
                                 		.glb	_R_usb_cstd_RelBlk
                                 		.glb	_usb_hmsc_SetRwCbw
                                 		.glb	_usb_hmsc_SmpDrive2Msgnum
                                 		.glb	_usb_hmsc_SmpDrive2Unit
                                 		.glb	_usb_hmsc_SetElsCbw
                                 		.glb	_usb_hmsc_CbwTagCount
                                 		.glb	_usb_hmsc_CheckCsw
                                 		.glb	_usb_hmsc_SmpBotDescriptor
                                 		.glb	_usb_hmsc_SmpPipeInfo
                                 		.glb	_R_usb_hstd_ChkPipeInfo
                                 		.glb	_usb_hmsc_NoData
                                 		.glb	_usb_hmsc_NoDataAct
                                 		.glb	_vTaskEnterCritical
                                 		.glb	_vTaskExitCritical
                                 		.glb	_usb_hmsc_SendCbw
                                 		.glb	_usb_hmsc_SendCbwReq
                                 		.glb	_usb_hmsc_SendCbwCheck
                                 		.glb	_usb_hmsc_GetCsw
                                 		.glb	_usb_hmsc_GetCswReq
                                 		.glb	_usb_hmsc_GetCswCheck
                                 		.glb	_R_usb_hmsc_RequestSense
                                 		.glb	_usb_hmsc_DataIn
                                 		.glb	_usb_hmsc_DataInAct
                                 		.glb	_usb_hmsc_GetData
                                 		.glb	_usb_hmsc_GetDataReq
                                 		.glb	_usb_hmsc_GetDataCheck
                                 		.glb	_usb_hmsc_DataOut
                                 		.glb	_usb_hmsc_DataOutAct
                                 		.glb	_usb_hmsc_SpecifiedPath
                                 		.glb	_usb_hmsc_SendData
                                 		.glb	_usb_hmsc_SendDataReq
                                 		.glb	_usb_hmsc_SendDataCheck
                                 		.glb	_R_usb_cstd_SndMsg
                                 		.glb	_R_usb_cstd_PgetBlk
                                 		.glb	_usb_hmsc_CheckResult
                                 		.glb	_usb_hmsc_class_check_result
                                 		.glb	_usb_hmsc_StallErr
                                 		.glb	_usb_hmsc_DataStall
                                 		.glb	_usb_hmsc_CommandResult
                                 		.glb	_usb_hmsc_SmpDrive2Addr
                                 		.glb	_R_usb_hhub_get_hub_addr
                                 		.glb	_R_usb_hhub_get_hub_port_no
                                 		.glb	_R_usb_hhub_GetPortInformation
                                 		.glb	_R_usb_hmsc_MassStorageReset
                                 		.glb	_usb_cstd_SndMsg
                                 		.glb	_usb_hmsc_MassStorageResetCheck
                                 		.glb	_R_usb_hmsc_ClearStall
                                 		.glb	_usb_hmsc_ClearStallCheck
                                 		.glb	_R_usb_hhub_chk_connect_status
                                 ;LineNo. C-SOURCE STATEMENT
                                 
                                 		.SECTION	P,CODE
00000000                         _usb_hmsc_Task:
                                 		.STACK	_usb_hmsc_Task=12
                                 ;       1 /***********************************************************************************************************************
                                 ;       2 * DISCLAIMER
                                 ;       3 * This software is supplied by Renesas Electronics Corporation and is only intended for use with Renesas products. No
                                 ;       4 * other uses are authorized. This software is owned by Renesas Electronics Corporation and is protected under all
                                 ;       5 * applicable laws, including copyright laws.
                                 ;       6 * THIS SOFTWARE IS PROVIDED "AS IS" AND RENESAS MAKES NO WARRANTIES REGARDING
                                 ;       7 * THIS SOFTWARE, WHETHER EXPRESS, IMPLIED OR STATUTORY, INCLUDING BUT NOT LIMITED TO WARRANTIES OF MERCHANTABILITY,
                                 ;       8 * FITNESS FOR A PARTICULAR PURPOSE AND NON-INFRINGEMENT. ALL SUCH WARRANTIES ARE EXPRESSLY DISCLAIMED. TO THE MAXIMUM
                                 ;       9 * EXTENT PERMITTED NOT PROHIBITED BY LAW, NEITHER RENESAS ELECTRONICS CORPORATION NOR ANY OF ITS AFFILIATED COMPANIES
                                 ;      10 * SHALL BE LIABLE FOR ANY DIRECT, INDIRECT, SPECIAL, INCIDENTAL OR CONSEQUENTIAL DAMAGES FOR ANY REASON RELATED TO THIS
                                 ;      11 * SOFTWARE, EVEN IF RENESAS OR ITS AFFILIATES HAVE BEEN ADVISED OF THE POSSIBILITY OF SUCH DAMAGES.
                                 ;      12 * Renesas reserves the right, without notice, to make changes to this software and to discontinue the availability of
                                 ;      13 * this software. By using this software, you agree to the additional terms and conditions found by accessing the
                                 ;      14 * following link:
                                 ;      15 * http://www.renesas.com/disclaimer
                                 ;      16 *
                                 ;      17 * Copyright (C) 2014(2015) Renesas Electronics Corporation. All rights reserved.
                                 ;      18 ***********************************************************************************************************************/
                                 ;      19 /***********************************************************************************************************************
                                 ;      20 * File Name    : r_usb_hmsc_driver.c
                                 ;      21 * Description  : USB Host MSC BOT driver
                                 ;      22 ***********************************************************************************************************************/
                                 ;      23 /**********************************************************************************************************************
                                 ;      24 * History : DD.MM.YYYY Version Description
                                 ;      25 *         : 04.01.2014 1.00 First Release
                                 ;      26 *         : 30.01.2015 1.01    Support Multi device.
                                 ;      27 ***********************************************************************************************************************/
                                 ;      28 
                                 ;      29 /******************************************************************************
                                 ;      30 Includes   <System Includes> , "Project Includes"
                                 ;      31 ******************************************************************************/
                                 ;      32 #include "r_usb_basic_if.h"
                                 ;      33 #include "r_usb_hatapi_define.h"    /* Peripheral ATAPI Device extern */
                                 ;      34 #include "r_usb_hmsc_define.h"      /* Host Mass Storage Class Driver */
                                 ;      35 #include "r_usb_hmsc_extern.h"      /* Host MSC grobal define */
                                 ;      36 #include "r_usb_api.h"
                                 ;      37 #include "r_usb_hmsc_config.h"
                                 ;      38 #include "r_usb_hmsc_if.h"
                                 ;      39 
                                 ;      40 #ifdef FREE_RTOS_PP
                                 ;      41 #include "FreeRTOS.h"
                                 ;      42 #include "task.h"
                                 ;      43 #endif
                                 ;      44 
                                 ;      45 /******************************************************************************
                                 ;      46 Private global variables and functions
                                 ;      47 ******************************************************************************/
                                 ;      48 uint16_t usb_ghmsc_DefEpTbl[USB_NUM_USBIP][USB_EPL+1] =
                                 ;      49 {
                                 ;      50   {  /* USB IP No.0 */
                                 ;      51     USB_NONE,
                                 ;      52     USB_NONE,
                                 ;      53     USB_NONE,
                                 ;      54     USB_NONE,
                                 ;      55     USB_NONE,
                                 ;      56     USB_NONE,
                                 ;      57     USB_PDTBLEND /* Pipe end */
                                 ;      58   },
                                 ;      59   {  /* USB IP No.1 */
                                 ;      60     USB_NONE,
                                 ;      61     USB_NONE,
                                 ;      62     USB_NONE,
                                 ;      63     USB_NONE,
                                 ;      64     USB_NONE,
                                 ;      65     USB_NONE,
                                 ;      66     USB_PDTBLEND /* Pipe end */
                                 ;      67   }
                                 ;      68 };
                                 ;      69 
                                 ;      70 uint8_t             usb_ghmsc_Data[USB_NUM_USBIP][5120];
                                 ;      71 USB_UTR_t           usb_ghmsc_TransData[USB_NUM_USBIP][USB_MAXSTRAGE];     /* Send data transfer message */
                                 ;      72 USB_UTR_t           usb_ghmsc_ReceiveData[USB_NUM_USBIP][USB_MAXSTRAGE];   /* Receive data transfer message */
                                 ;      73 USB_UTR_t           usb_ghmsc_ControlData[USB_NUM_USBIP];                  /* Control data transfer message */
                                 ;      74 uint16_t            usb_ghmsc_OutPipe[USB_NUM_USBIP][USB_MAXSTRAGE][2];    /* Pipenumber / Pipectr(SQTGL) */
                                 ;      75 uint16_t            usb_ghmsc_InPipe[USB_NUM_USBIP][USB_MAXSTRAGE][2];     /* Pipenumber / Pipectr(SQTGL) */
                                 ;      76 uint16_t            usb_shmsc_MsgNum[USB_NUM_USBIP];
                                 ;      77 USB_MSC_CBW_t       usb_ghmsc_Cbw[USB_NUM_USBIP][USB_MAXSTRAGE];           /* CBW headder */
                                 ;      78 USB_MSC_CSW_t       usb_ghmsc_Csw[USB_NUM_USBIP][USB_MAXSTRAGE];           /* CSW headder */
                                 ;      79 uint32_t            usb_ghmsc_CbwTagNo[USB_NUM_USBIP][USB_MAXSTRAGE];      /* CBW tag number */
                                 ;      80 uint8_t             usb_ghmsc_AtapiFlag[USB_NUM_USBIP][USB_MAXSTRAGE];
                                 ;      81 uint16_t            usb_ghmsc_AttSts[USB_MAXSTRAGE];
                                 ;      82 uint32_t            usb_ghmsc_TransSize[USB_NUM_USBIP];
                                 ;      83 uint8_t             *usb_ghmsc_Buff[USB_NUM_USBIP];
                                 ;      84 uint16_t            usb_shmsc_Process[USB_NUM_USBIP];
                                 ;      85 uint16_t            usb_shmsc_NoDataSeq[USB_NUM_USBIP]                      = { USB_SEQ_0, USB_SEQ_0 };
                                 ;      86 uint16_t            usb_shmsc_DataInSeq[USB_NUM_USBIP]                      = { USB_SEQ_0, USB_SEQ_0 };
                                 ;      87 uint16_t            usb_shmsc_DataOutSeq[USB_NUM_USBIP]                     = { USB_SEQ_0, USB_SEQ_0 };
                                 ;      88 uint16_t            usb_shmsc_StallErrSeq[USB_NUM_USBIP]                    = { USB_SEQ_0, USB_SEQ_0 };
                                 ;      89 uint16_t            usb_shmsc_DataStallSeq[USB_NUM_USBIP]                   = { USB_SEQ_0, USB_SEQ_0 };
                                 ;      90 uint16_t            usb_ghmsc_RootDrive[USB_NUM_USBIP];
                                 ;      91 uint16_t            usb_ghmsc_CswErrRoop[USB_NUM_USBIP]                     = { USB_OFF, USB_OFF };
                                 ;      92 uint16_t            usb_ghmsc_drive_no[USB_NUM_USBIP][USB_MAXDEVADDR];
                                 ;      93 DRIVE_MANAGEMENT_t  usb_ghmsc_drv_no_tbl[USB_DEVICENUM];             /* Drive no. management table */
                                 ;      94 
                                 ;      95 uint8_t             *usb_ghmsc_DeviceTable[USB_NUM_USBIP];
                                 ;      96 uint8_t             *usb_ghmsc_ConfigTable[USB_NUM_USBIP];
                                 ;      97 uint8_t             *usb_ghmsc_InterfaceTable[USB_NUM_USBIP];
                                 ;      98 uint16_t            usb_ghmsc_Speed[USB_NUM_USBIP];
                                 ;      99 uint16_t            usb_ghmsc_Devaddr[USB_NUM_USBIP];
                                 ;     100 uint16_t            usb_shmsc_InitSeq[USB_NUM_USBIP]                        = { USB_SEQ_0, USB_SEQ_0 };
                                 ;     101 uint16_t            *usb_ghmsc_PipeTable[USB_NUM_USBIP];                   /* Pipe Table(DefEP) */
                                 ;     102 
                                 ;     103 /*----------------*/
                                 ;     104 /* Storage Driver */
                                 ;     105 /*----------------*/
                                 ;     106 USB_UTR_t           usb_shmsc_ClassControl[USB_NUM_USBIP];
                                 ;     107 USB_CB_t            usb_shmsc_command_result[USB_NUM_USBIP];
                                 ;     108 uint16_t            usb_ghmsc_DriveChk[USB_MAXDRIVE + 1][6];
                                 ;     109 uint16_t            usb_shmsc_ClassRequest[USB_NUM_USBIP][5];
                                 ;     110 uint8_t             usb_shmsc_DeviceReady[USB_MAXUNITNUM];
                                 ;     111 uint8_t             usb_ghmsc_ClassData[USB_NUM_USBIP][USB_HMSC_CLSDATASIZE];
                                 ;     112 
                                 ;     113 /* Yes/No, Unit Number, Partition Number, device address, EPtbl offset */
                                 ;     114 uint32_t            usb_ghmsc_MaxLUN[USB_NUM_USBIP];
                                 ;     115 uint16_t            usb_ghmsc_StrgCount;
                                 ;     116 uint16_t            usb_ghmsc_MaxDrive;
                                 ;     117 uint16_t            usb_shmsc_StrgProcess[USB_NUM_USBIP]                    = { USB_NONE, USB_NONE };
                                 ;     118 uint16_t            usb_shmsc_StrgDriveSearchSeq[USB_NUM_USBIP]             = { USB_SEQ_0, USB_SEQ_0 };
                                 ;     119 uint16_t            usb_shmsc_StrgDriveSearchErrCount[USB_NUM_USBIP]        = { USB_SEQ_0, USB_SEQ_0 };
                                 ;     120 uint16_t            usb_shmsc_StrgDriveSearchCount[USB_NUM_USBIP]           = { USB_SEQ_0, USB_SEQ_0 };
                                 ;     121 
                                 ;     122 /* Read Sector */
                                 ;     123 uint16_t            usb_shmsc_DevReadSectorSizeSeq[USB_NUM_USBIP]           = { USB_SEQ_0, USB_SEQ_0 };
                                 ;     124 uint16_t            usb_shmsc_DevReadSectorSizeErrCount[USB_NUM_USBIP]      = { USB_SEQ_0, USB_SEQ_0 };
                                 ;     125 uint16_t            usb_shmsc_DevReadPartitionSeq[USB_NUM_USBIP]            = { USB_SEQ_0, USB_SEQ_0 };
                                 ;     126 
                                 ;     127 /* Drive Open */
                                 ;     128 uint16_t            usb_shmsc_StrgDriveOpenSeq[USB_NUM_USBIP]               = { USB_SEQ_0, USB_SEQ_0 };
                                 ;     129 uint16_t            usb_shmsc_StrgDriveOpenCount[USB_NUM_USBIP]             = { USB_SEQ_0, USB_SEQ_0 };
                                 ;     130 uint16_t            usb_shmsc_StrgDriveOpenParCount[USB_NUM_USBIP]          = { USB_SEQ_0, USB_SEQ_0 };
                                 ;     131 
                                 ;     132 /* Partition */
                                 ;     133 uint32_t            usb_shmsc_PartitionLba[USB_NUM_USBIP][USB_BOOTPARTNUM + 1u];
                                 ;     134 uint16_t            usb_ghmsc_RootDevaddr[USB_NUM_USBIP];
                                 ;     135 uint16_t            usb_shmsc_NewDrive[USB_NUM_USBIP];
                                 ;     136 uint16_t            usb_shmsc_LoopCont[USB_NUM_USBIP]                       = { USB_SEQ_0, USB_SEQ_0 };
                                 ;     137 uint16_t            usb_shmsc_Unit[USB_NUM_USBIP];
                                 ;     138 uint16_t            usb_ghmsc_PartTransSize[USB_NUM_USBIP];
                                 ;     139 uint8_t             usb_shmsc_PartitionInfo[USB_NUM_USBIP][USB_BOOTPARTNUM];
                                 ;     140 
                                 ;     141 
                                 ;     142 /******************************************************************************
                                 ;     143 Renesas Abstracted HMSC Driver functions
                                 ;     144 ******************************************************************************/
                                 ;     145 
                                 ;     146 /******************************************************************************
                                 ;     147 Function Name   : usb_hmsc_Task
                                 ;     148 Description     : USB HMSC Task
                                 ;     149 Arguments       : none
                                 ;     150 Return value    : none
                                 ;     151 ******************************************************************************/
                                 ;     152 void usb_hmsc_Task(void)
                                 		.LINE  "C:\Workspace\e2studio\git\MT01_master\r_usb_hmsc\src\r_usb_hmsc_driver.c",152
00000000 6080                    		SUB #08H, R0
00000002 2Err                 B  		BRA L28
00000004                         L11:	; bb10
                                 ;     153 {
                                 ;     154     USB_UTR_t       *mess;
                                 ;     155     /* Error code */
                                 ;     156     USB_ER_t        err;
                                 ;     157 #ifdef FREE_RTOS_PP
                                 ;     158     for( ;; )
                                 ;     159 	{
                                 ;     160 #endif
                                 ;     161     /* Receive message */
                                 ;     162     err = R_USB_TRCV_MSG( USB_HMSC_MBX, (USB_MSG_t**)&mess, (uint16_t)0 );
                                 ;     163     if( err != USB_E_OK )
                                 ;     164     {
                                 ;     165 #ifdef FREE_RTOS_PP
                                 ;     166 		continue;
                                 ;     167 #else
                                 ;     168         return;
                                 ;     169 #endif
                                 ;     170     }
                                 ;     171 
                                 ;     172     switch( mess->msginfo )
                                 		.LINE  "C:\Workspace\e2studio\git\MT01_master\r_usb_hmsc\src\r_usb_hmsc_driver.c",172
00000004 EC01                    		MOV.L [R0], R1
00000006 B891                    		MOVU.W 04H[R1], R1
00000008 76010705                		CMP #0507H, R1
0000000C 20rr                    		BEQ L23
0000000E                         L12:	; bb10
0000000E 76010402                		CMP #0204H, R1
00000012 20rr                    		BEQ L26
00000014                         L13:	; bb10
00000014 76010105                		CMP #0501H, R1
00000018 20rr                    		BEQ L20
0000001A                         L14:	; bb10
0000001A 76010205                		CMP #0502H, R1
0000001E 20rr                    		BEQ L21
00000020                         L15:	; bb10
00000020 76010305                		CMP #0503H, R1
00000024 20rr                    		BEQ L22
00000026                         L16:	; bb10
00000026 76010505                		CMP #0505H, R1
0000002A 20rr                    		BEQ L25
0000002C                         L17:	; bb10
0000002C 76010605                		CMP #0506H, R1
00000030 20rr                    		BEQ L24
00000032                         L18:	; bb10
00000032 76010202                		CMP #0202H, R1
00000036 21rr                    		BNE L27
00000038                         L19:	; bb15
                                 ;     173     {
                                 ;     174     case USB_MSG_CLS_INIT:
                                 ;     175         usb_hmsc_ClassCheck(mess, (USB_CLSINFO_t *)mess);
                                 		.LINE  "C:\Workspace\e2studio\git\MT01_master\r_usb_hmsc\src\r_usb_hmsc_driver.c",175
00000038 EC01                    		MOV.L [R0], R1
0000003A EF12                    		MOV.L R1, R2
0000003C 05rrrrrr             A  		BSR _usb_hmsc_ClassCheck
00000040 2Err                 B  		BRA L27
00000042                         L20:	; bb18
                                 ;     176         break;
                                 ;     177 
                                 ;     178     case USB_MSG_HMSC_NO_DATA:
                                 ;     179         usb_hmsc_NoDataAct((USB_CLSINFO_t *)mess);
                                 		.LINE  "C:\Workspace\e2studio\git\MT01_master\r_usb_hmsc\src\r_usb_hmsc_driver.c",179
00000042 EC01                    		MOV.L [R0], R1
00000044 39rrrr               W  		BSR _usb_hmsc_NoDataAct
00000047 2Err                 B  		BRA L27
00000049                         L21:	; bb21
                                 ;     180         break;
                                 ;     181     case USB_MSG_HMSC_DATA_IN:
                                 ;     182         usb_hmsc_DataInAct((USB_CLSINFO_t *)mess);
                                 		.LINE  "C:\Workspace\e2studio\git\MT01_master\r_usb_hmsc\src\r_usb_hmsc_driver.c",182
00000049 EC01                    		MOV.L [R0], R1
0000004B 39rrrr               W  		BSR _usb_hmsc_DataInAct
0000004E 2Err                 B  		BRA L27
00000050                         L22:	; bb24
                                 ;     183         break;
                                 ;     184     case USB_MSG_HMSC_DATA_OUT:
                                 ;     185         usb_hmsc_DataOutAct((USB_CLSINFO_t *)mess);
                                 		.LINE  "C:\Workspace\e2studio\git\MT01_master\r_usb_hmsc\src\r_usb_hmsc_driver.c",185
00000050 EC01                    		MOV.L [R0], R1
00000052 39rrrr               W  		BSR _usb_hmsc_DataOutAct
00000055 2Err                 B  		BRA L27
00000057                         L23:	; bb27
                                 ;     186         break;
                                 ;     187     case USB_MSG_HMSC_DATA_STALL:
                                 ;     188         usb_hmsc_DataStall((USB_UTR_t *)mess);
                                 		.LINE  "C:\Workspace\e2studio\git\MT01_master\r_usb_hmsc\src\r_usb_hmsc_driver.c",188
00000057 EC01                    		MOV.L [R0], R1
00000059 39rrrr               W  		BSR _usb_hmsc_DataStall
0000005C 2Err                 B  		BRA L27
0000005E                         L24:	; bb29
                                 ;     189         break;
                                 ;     190     case USB_MSG_HMSC_CBW_ERR:
                                 ;     191         usb_hmsc_StallErr((USB_UTR_t *)mess);
                                 		.LINE  "C:\Workspace\e2studio\git\MT01_master\r_usb_hmsc\src\r_usb_hmsc_driver.c",191
0000005E EC01                    		MOV.L [R0], R1
00000060 39rrrr               W  		BSR _usb_hmsc_StallErr
00000063 2Err                 B  		BRA L27
00000065                         L25:	; bb31
                                 ;     192         break;      
                                 ;     193     case USB_MSG_HMSC_CSW_PHASE_ERR:
                                 ;     194         usb_hmsc_StallErr((USB_UTR_t *)mess);
                                 		.LINE  "C:\Workspace\e2studio\git\MT01_master\r_usb_hmsc\src\r_usb_hmsc_driver.c",194
00000065 EC01                    		MOV.L [R0], R1
00000067 39rrrr               W  		BSR _usb_hmsc_StallErr
0000006A 08                   S  		BRA L27
0000006B                         L26:	; bb33
                                 ;     195         break;
                                 ;     196 /* enumeration waiting of other device */
                                 ;     197     case USB_MSG_CLS_WAIT:
                                 ;     198         usb_hmsc_ClassWait(USB_HMSC_MBX, mess);
                                 		.LINE  "C:\Workspace\e2studio\git\MT01_master\r_usb_hmsc\src\r_usb_hmsc_driver.c",198
0000006B EC02                    		MOV.L [R0], R2
0000006D 6641                    		MOV.L #00000004H, R1
0000006F 05rrrrrr             A  		BSR _usb_hmsc_ClassWait
00000073                         L27:	; bb36
                                 ;     199         break;
                                 ;     200     default:
                                 ;     201         break;
                                 ;     202     }
                                 ;     203     err = R_USB_REL_BLK(USB_HMSC_MPL,(USB_MH_t)mess);
                                 		.LINE  "C:\Workspace\e2studio\git\MT01_master\r_usb_hmsc\src\r_usb_hmsc_driver.c",203
00000073 EC02                    		MOV.L [R0], R2
00000075 6641                    		MOV.L #00000004H, R1
00000077 05rrrrrr             A  		BSR _R_usb_cstd_RelBlk
0000007B A009                    		MOV.L R1, 04H[R0]
0000007D                         L28:	; bb49.split
0000007D 6603                    		MOV.L #00000000H, R3
0000007F EF02                    		MOV.L R0, R2
00000081 6641                    		MOV.L #00000004H, R1
                                 		.LINE  "C:\Workspace\e2studio\git\MT01_master\r_usb_hmsc\src\r_usb_hmsc_driver.c",162
00000083 05rrrrrr             A  		BSR _R_usb_cstd_RecMsg
00000087 A009                    		MOV.L R1, 04H[R0]
00000089                         L29:	; bb49.split1
                                 		.LINE  "C:\Workspace\e2studio\git\MT01_master\r_usb_hmsc\src\r_usb_hmsc_driver.c",163
00000089 A809                    		MOV.L 04H[R0], R1
0000008B 6101                    		CMP #00H, R1
0000008D 21rr                    		BNE L28
0000008F 38rrrr               W  		BRA L11
00000092                         _usb_hmsc_SetRwCbw:
                                 		.STACK	_usb_hmsc_SetRwCbw=36
                                 ;     204     if( err != USB_E_OK )
                                 ;     205     {
                                 ;     206         USB_PRINTF0("### USB Strg Task rel_blk error\n");
                                 ;     207     }
                                 ;     208 #ifdef FREE_RTOS_PP
                                 ;     209 	}
                                 ;     210 #endif
                                 ;     211 }   /* eof usb_hmsc_Task() */
                                 ;     212 
                                 ;     213 
                                 ;     214 /******************************************************************************
                                 ;     215 Function Name   : usb_hmsc_SetRwCbw
                                 ;     216 Description     : CBW parameter initialization for the READ10/WRITE10 command
                                 ;     217 Arguments       : uint16_t command : 
                                 ;     218                 : uint32_t secno : 
                                 ;     219                 : uint16_t seccnt : 
                                 ;     220                 : uint32_t trans_byte : 
                                 ;     221                 : uint16_t side : 
                                 ;     222 Return value    : none
                                 ;     223 ******************************************************************************/
                                 ;     224 void usb_hmsc_SetRwCbw(USB_UTR_t *ptr, uint16_t command, uint32_t secno, uint16_t seccnt,
                                 		.LINE  "C:\Workspace\e2studio\git\MT01_master\r_usb_hmsc\src\r_usb_hmsc_driver.c",224
00000092 6E67                    		PUSHM R6-R7
00000094 7100E8                  		ADD #0FFFFFFE8H, R0
00000097 A109                    		MOV.L R1, 14H[R0]
00000099 920A                    		MOV.W R2, 12H[R0]
0000009B A08B                    		MOV.L R3, 0CH[R0]
0000009D 910C                    		MOV.W R4, 0AH[R0]
0000009F E5000901                		MOV.L 24H[R0], 04H[R0]
000000A3 D5001401                		MOV.W 28H[R0], 02H[R0]
                                 ;     225      uint32_t trans_byte, uint16_t side)
                                 ;     226 {
                                 ;     227     uint16_t    msgnum;
                                 ;     228 
                                 ;     229     /* Data IN */
                                 ;     230     msgnum = usb_hmsc_SmpDrive2Msgnum(ptr, side);
                                 		.LINE  "C:\Workspace\e2studio\git\MT01_master\r_usb_hmsc\src\r_usb_hmsc_driver.c",230
000000A7 B80A                    		MOVU.W 02H[R0], R2
000000A9 A909                    		MOV.L 14H[R0], R1
000000AB 05rrrrrr             A  		BSR _usb_hmsc_SmpDrive2Msgnum
000000AF D301                    		MOV.W R1, [R0]
000000B1                         L31:	; entry.split
                                 ;     231     if( USB_ERROR == msgnum )
                                 		.LINE  "C:\Workspace\e2studio\git\MT01_master\r_usb_hmsc\src\r_usb_hmsc_driver.c",231
000000B1 5C01                    		MOVU.W [R0], R1
000000B3 7701FFFF00              		CMP #0FFFFH, R1
000000B8 3Arrrr               W  		BEQ L61
000000BB                         L32:	; bb16
                                 ;     232     {
                                 ;     233         return;
                                 ;     234     }
                                 ;     235 
                                 ;     236     /* CBW parameter set */
                                 ;     237     usb_ghmsc_Cbw[ptr->ip][msgnum].dCBWTag = usb_ghmsc_CbwTagNo[ptr->ip][msgnum];
                                 		.LINE  "C:\Workspace\e2studio\git\MT01_master\r_usb_hmsc\src\r_usb_hmsc_driver.c",237
000000BB A909                    		MOV.L 14H[R0], R1
000000BD B991                    		MOVU.W 0CH[R1], R1
000000BF FDC91E                  		SHLL #09H, R1, R14
000000C2 FB22rrrrrrrr            		MOV.L #_usb_ghmsc_Cbw, R2
000000C8 4BE2                    		ADD R14, R2
000000CA 6C51                    		SHLL #05H, R1
000000CC FBE2rrrrrrrr            		MOV.L #_usb_ghmsc_CbwTagNo, R14
000000D2 4B1E                    		ADD R1, R14
000000D4 5C01                    		MOVU.W [R0], R1
000000D6 FE61E3                  		MOV.L [R1,R14], R3
000000D9 6C61                    		SHLL #06H, R1
000000DB 4B12                    		ADD R1, R2
000000DD A02B                    		MOV.L R3, 04H[R2]
000000DF                         L33:	; bb16.split
                                 ;     238     usb_ghmsc_Cbw[ptr->ip][msgnum].dCBWDTL_Lo = (uint8_t)trans_byte;
                                 		.LINE  "C:\Workspace\e2studio\git\MT01_master\r_usb_hmsc\src\r_usb_hmsc_driver.c",238
000000DF A909                    		MOV.L 14H[R0], R1
000000E1 B991                    		MOVU.W 0CH[R1], R1
000000E3 6C91                    		SHLL #09H, R1
000000E5 FB22rrrrrrrr            		MOV.L #_usb_ghmsc_Cbw, R2
000000EB 4B12                    		ADD R1, R2
000000ED 5C01                    		MOVU.W [R0], R1
000000EF 6C61                    		SHLL #06H, R1
000000F1 4B12                    		ADD R1, R2
000000F3 A809                    		MOV.L 04H[R0], R1
000000F5 8221                    		MOV.B R1, 08H[R2]
000000F7                         L34:	; bb16.split1
                                 ;     239     usb_ghmsc_Cbw[ptr->ip][msgnum].dCBWDTL_ML = (uint8_t)(trans_byte >> 8);
                                 		.LINE  "C:\Workspace\e2studio\git\MT01_master\r_usb_hmsc\src\r_usb_hmsc_driver.c",239
000000F7 A909                    		MOV.L 14H[R0], R1
000000F9 B991                    		MOVU.W 0CH[R1], R1
000000FB 6C91                    		SHLL #09H, R1
000000FD FB22rrrrrrrr            		MOV.L #_usb_ghmsc_Cbw, R2
00000103 4B12                    		ADD R1, R2
00000105 5C01                    		MOVU.W [R0], R1
00000107 6C61                    		SHLL #06H, R1
00000109 4B12                    		ADD R1, R2
0000010B A809                    		MOV.L 04H[R0], R1
0000010D 6881                    		SHLR #08H, R1
0000010F 8229                    		MOV.B R1, 09H[R2]
00000111                         L35:	; bb16.split2
                                 ;     240     usb_ghmsc_Cbw[ptr->ip][msgnum].dCBWDTL_MH = (uint8_t)(trans_byte >> 16);
                                 		.LINE  "C:\Workspace\e2studio\git\MT01_master\r_usb_hmsc\src\r_usb_hmsc_driver.c",240
00000111 A909                    		MOV.L 14H[R0], R1
00000113 B991                    		MOVU.W 0CH[R1], R1
00000115 6C91                    		SHLL #09H, R1
00000117 FB22rrrrrrrr            		MOV.L #_usb_ghmsc_Cbw, R2
0000011D 4B12                    		ADD R1, R2
0000011F 5C01                    		MOVU.W [R0], R1
00000121 6C61                    		SHLL #06H, R1
00000123 4B12                    		ADD R1, R2
00000125 A809                    		MOV.L 04H[R0], R1
00000127 6901                    		SHLR #10H, R1
00000129 82A1                    		MOV.B R1, 0AH[R2]
0000012B                         L36:	; bb16.split3
                                 ;     241     usb_ghmsc_Cbw[ptr->ip][msgnum].dCBWDTL_Hi = (uint8_t)(trans_byte >> 24);
                                 		.LINE  "C:\Workspace\e2studio\git\MT01_master\r_usb_hmsc\src\r_usb_hmsc_driver.c",241
0000012B A909                    		MOV.L 14H[R0], R1
0000012D B991                    		MOVU.W 0CH[R1], R1
0000012F 6C91                    		SHLL #09H, R1
00000131 FB22rrrrrrrr            		MOV.L #_usb_ghmsc_Cbw, R2
00000137 4B12                    		ADD R1, R2
00000139 5C01                    		MOVU.W [R0], R1
0000013B 6C61                    		SHLL #06H, R1
0000013D 4B12                    		ADD R1, R2
0000013F A809                    		MOV.L 04H[R0], R1
00000141 6981                    		SHLR #18H, R1
00000143 82A9                    		MOV.B R1, 0BH[R2]
00000145                         L37:	; bb16.split4
                                 ;     242     usb_ghmsc_Cbw[ptr->ip][msgnum].bmCBWFlags.CBWdir = 0;
                                 		.LINE  "C:\Workspace\e2studio\git\MT01_master\r_usb_hmsc\src\r_usb_hmsc_driver.c",242
00000145 A909                    		MOV.L 14H[R0], R1
00000147 B991                    		MOVU.W 0CH[R1], R1
00000149 6C91                    		SHLL #09H, R1
0000014B FBE2rrrrrrrr            		MOV.L #_usb_ghmsc_Cbw, R14
00000151 4B1E                    		ADD R1, R14
00000153 5C01                    		MOVU.W [R0], R1
00000155 6C61                    		SHLL #06H, R1
00000157 4B1E                    		ADD R1, R14
00000159 F1EF0C                  		BCLR #07H, 0CH[R14].B
0000015C                         L38:	; bb16.split5
                                 ;     243     usb_ghmsc_Cbw[ptr->ip][msgnum].bmCBWFlags.reserved7 = 0;
                                 		.LINE  "C:\Workspace\e2studio\git\MT01_master\r_usb_hmsc\src\r_usb_hmsc_driver.c",243
0000015C A909                    		MOV.L 14H[R0], R1
0000015E B991                    		MOVU.W 0CH[R1], R1
00000160 6C91                    		SHLL #09H, R1
00000162 FB22rrrrrrrr            		MOV.L #_usb_ghmsc_Cbw, R2
00000168 4B12                    		ADD R1, R2
0000016A 5C01                    		MOVU.W [R0], R1
0000016C 6C61                    		SHLL #06H, R1
0000016E 4B12                    		ADD R1, R2
00000170 754180                  		MOV.L #00000080H, R1
00000173 51210C                  		AND 0CH[R2].UB, R1
00000176 8321                    		MOV.B R1, 0CH[R2]
00000178                         L39:	; bb16.split6
                                 ;     244     usb_ghmsc_Cbw[ptr->ip][msgnum].bCBWLUN.bCBWLUN = usb_hmsc_SmpDrive2Unit(ptr, side);
                                 		.LINE  "C:\Workspace\e2studio\git\MT01_master\r_usb_hmsc\src\r_usb_hmsc_driver.c",244
00000178 A909                    		MOV.L 14H[R0], R1
0000017A B996                    		MOVU.W 0CH[R1], R6
0000017C B80A                    		MOVU.W 02H[R0], R2
0000017E 5C07                    		MOVU.W [R0], R7
00000180 05rrrrrr             A  		BSR _usb_hmsc_SmpDrive2Unit
00000184 6C96                    		SHLL #09H, R6
00000186 FB22rrrrrrrr            		MOV.L #_usb_ghmsc_Cbw, R2
0000018C 4B62                    		ADD R6, R2
0000018E 6C67                    		SHLL #06H, R7
00000190 4B72                    		ADD R7, R2
00000192 7543F0                  		MOV.L #000000F0H, R3
00000195 51230D                  		AND 0DH[R2].UB, R3
00000198 64F1                    		AND #0FH, R1
0000019A 5713                    		OR R1, R3
0000019C 832B                    		MOV.B R3, 0DH[R2]
0000019E                         L40:	; bb16.split7
                                 ;     245     usb_ghmsc_Cbw[ptr->ip][msgnum].bCBWLUN.reserved4 = 0;
                                 		.LINE  "C:\Workspace\e2studio\git\MT01_master\r_usb_hmsc\src\r_usb_hmsc_driver.c",245
0000019E A909                    		MOV.L 14H[R0], R1
000001A0 B991                    		MOVU.W 0CH[R1], R1
000001A2 6C91                    		SHLL #09H, R1
000001A4 FB22rrrrrrrr            		MOV.L #_usb_ghmsc_Cbw, R2
000001AA 4B12                    		ADD R1, R2
000001AC 5C01                    		MOVU.W [R0], R1
000001AE 6C61                    		SHLL #06H, R1
000001B0 4B12                    		ADD R1, R2
000001B2 B329                    		MOVU.B 0DH[R2], R1
000001B4 64F1                    		AND #0FH, R1
000001B6 8329                    		MOV.B R1, 0DH[R2]
000001B8                         L41:	; bb16.split8
                                 ;     246     usb_ghmsc_Cbw[ptr->ip][msgnum].bCBWCBLength.bCBWCBLength = 0;
                                 		.LINE  "C:\Workspace\e2studio\git\MT01_master\r_usb_hmsc\src\r_usb_hmsc_driver.c",246
000001B8 A909                    		MOV.L 14H[R0], R1
000001BA B991                    		MOVU.W 0CH[R1], R1
000001BC 6C91                    		SHLL #09H, R1
000001BE FB22rrrrrrrr            		MOV.L #_usb_ghmsc_Cbw, R2
000001C4 4B12                    		ADD R1, R2
000001C6 5C01                    		MOVU.W [R0], R1
000001C8 6C61                    		SHLL #06H, R1
000001CA 4B12                    		ADD R1, R2
000001CC 7541E0                  		MOV.L #000000E0H, R1
000001CF 51210E                  		AND 0EH[R2].UB, R1
000001D2 83A1                    		MOV.B R1, 0EH[R2]
000001D4                         L42:	; bb16.split9
                                 ;     247     usb_ghmsc_Cbw[ptr->ip][msgnum].bCBWCBLength.reserved3 = 0;
                                 		.LINE  "C:\Workspace\e2studio\git\MT01_master\r_usb_hmsc\src\r_usb_hmsc_driver.c",247
000001D4 A909                    		MOV.L 14H[R0], R1
000001D6 B991                    		MOVU.W 0CH[R1], R1
000001D8 6C91                    		SHLL #09H, R1
000001DA FB22rrrrrrrr            		MOV.L #_usb_ghmsc_Cbw, R2
000001E0 4B12                    		ADD R1, R2
000001E2 5C01                    		MOVU.W [R0], R1
000001E4 6C61                    		SHLL #06H, R1
000001E6 4B12                    		ADD R1, R2
000001E8 B3A1                    		MOVU.B 0EH[R2], R1
000001EA 75211F                  		AND #1FH, R1
000001ED 83A1                    		MOV.B R1, 0EH[R2]
000001EF                         L43:	; bb16.split10
                                 ;     248 
                                 ;     249     /* ATAPI_COMMAND */
                                 ;     250     usb_ghmsc_Cbw[ptr->ip][msgnum].CBWCB[0] = (uint8_t)command;
                                 		.LINE  "C:\Workspace\e2studio\git\MT01_master\r_usb_hmsc\src\r_usb_hmsc_driver.c",250
000001EF A909                    		MOV.L 14H[R0], R1
000001F1 B991                    		MOVU.W 0CH[R1], R1
000001F3 6C91                    		SHLL #09H, R1
000001F5 FB22rrrrrrrr            		MOV.L #_usb_ghmsc_Cbw, R2
000001FB 4B12                    		ADD R1, R2
000001FD 5C01                    		MOVU.W [R0], R1
000001FF 6C61                    		SHLL #06H, R1
00000201 4B12                    		ADD R1, R2
00000203 C502120F                		MOV.B 12H[R0], 0FH[R2]
00000207                         L44:	; bb16.split11
                                 ;     251     /* LUN */
                                 ;     252     usb_ghmsc_Cbw[ptr->ip][msgnum].CBWCB[1] = 0x00;
                                 		.LINE  "C:\Workspace\e2studio\git\MT01_master\r_usb_hmsc\src\r_usb_hmsc_driver.c",252
00000207 A909                    		MOV.L 14H[R0], R1
00000209 B991                    		MOVU.W 0CH[R1], R1
0000020B 6C91                    		SHLL #09H, R1
0000020D FB22rrrrrrrr            		MOV.L #_usb_ghmsc_Cbw, R2
00000213 4B12                    		ADD R1, R2
00000215 5C01                    		MOVU.W [R0], R1
00000217 6C61                    		SHLL #06H, R1
00000219 4B12                    		ADD R1, R2
0000021B 3CA000                  		MOV.B #00H, 10H[R2]
0000021E                         L45:	; bb16.split12
                                 ;     253     /* sector address */
                                 ;     254     usb_ghmsc_Cbw[ptr->ip][msgnum].CBWCB[2] = (uint8_t)(secno >> 24);
                                 		.LINE  "C:\Workspace\e2studio\git\MT01_master\r_usb_hmsc\src\r_usb_hmsc_driver.c",254
0000021E A909                    		MOV.L 14H[R0], R1
00000220 B991                    		MOVU.W 0CH[R1], R1
00000222 6C91                    		SHLL #09H, R1
00000224 FB22rrrrrrrr            		MOV.L #_usb_ghmsc_Cbw, R2
0000022A 4B12                    		ADD R1, R2
0000022C 5C01                    		MOVU.W [R0], R1
0000022E 6C61                    		SHLL #06H, R1
00000230 4B12                    		ADD R1, R2
00000232 A889                    		MOV.L 0CH[R0], R1
00000234 6981                    		SHLR #18H, R1
00000236 8429                    		MOV.B R1, 11H[R2]
00000238                         L46:	; bb16.split13
                                 ;     255     usb_ghmsc_Cbw[ptr->ip][msgnum].CBWCB[3] = (uint8_t)(secno >> 16);
                                 		.LINE  "C:\Workspace\e2studio\git\MT01_master\r_usb_hmsc\src\r_usb_hmsc_driver.c",255
00000238 A909                    		MOV.L 14H[R0], R1
0000023A B991                    		MOVU.W 0CH[R1], R1
0000023C 6C91                    		SHLL #09H, R1
0000023E FB22rrrrrrrr            		MOV.L #_usb_ghmsc_Cbw, R2
00000244 4B12                    		ADD R1, R2
00000246 5C01                    		MOVU.W [R0], R1
00000248 6C61                    		SHLL #06H, R1
0000024A 4B12                    		ADD R1, R2
0000024C A889                    		MOV.L 0CH[R0], R1
0000024E 6901                    		SHLR #10H, R1
00000250 84A1                    		MOV.B R1, 12H[R2]
00000252                         L47:	; bb16.split14
                                 ;     256     usb_ghmsc_Cbw[ptr->ip][msgnum].CBWCB[4] = (uint8_t)(secno >> 8);
                                 		.LINE  "C:\Workspace\e2studio\git\MT01_master\r_usb_hmsc\src\r_usb_hmsc_driver.c",256
00000252 A909                    		MOV.L 14H[R0], R1
00000254 B991                    		MOVU.W 0CH[R1], R1
00000256 6C91                    		SHLL #09H, R1
00000258 FB22rrrrrrrr            		MOV.L #_usb_ghmsc_Cbw, R2
0000025E 4B12                    		ADD R1, R2
00000260 5C01                    		MOVU.W [R0], R1
00000262 6C61                    		SHLL #06H, R1
00000264 4B12                    		ADD R1, R2
00000266 A889                    		MOV.L 0CH[R0], R1
00000268 6881                    		SHLR #08H, R1
0000026A 84A9                    		MOV.B R1, 13H[R2]
0000026C                         L48:	; bb16.split15
                                 ;     257     usb_ghmsc_Cbw[ptr->ip][msgnum].CBWCB[5] = (uint8_t)secno;
                                 		.LINE  "C:\Workspace\e2studio\git\MT01_master\r_usb_hmsc\src\r_usb_hmsc_driver.c",257
0000026C A909                    		MOV.L 14H[R0], R1
0000026E B991                    		MOVU.W 0CH[R1], R1
00000270 6C91                    		SHLL #09H, R1
00000272 FB22rrrrrrrr            		MOV.L #_usb_ghmsc_Cbw, R2
00000278 4B12                    		ADD R1, R2
0000027A 5C01                    		MOVU.W [R0], R1
0000027C 6C61                    		SHLL #06H, R1
0000027E 4B12                    		ADD R1, R2
00000280 A889                    		MOV.L 0CH[R0], R1
00000282 8521                    		MOV.B R1, 14H[R2]
00000284                         L49:	; bb16.split16
                                 ;     258     /* Reserved */
                                 ;     259     usb_ghmsc_Cbw[ptr->ip][msgnum].CBWCB[6] = 0x00;
                                 		.LINE  "C:\Workspace\e2studio\git\MT01_master\r_usb_hmsc\src\r_usb_hmsc_driver.c",259
00000284 A909                    		MOV.L 14H[R0], R1
00000286 B991                    		MOVU.W 0CH[R1], R1
00000288 6C91                    		SHLL #09H, R1
0000028A FB22rrrrrrrr            		MOV.L #_usb_ghmsc_Cbw, R2
00000290 4B12                    		ADD R1, R2
00000292 5C01                    		MOVU.W [R0], R1
00000294 6C61                    		SHLL #06H, R1
00000296 4B12                    		ADD R1, R2
00000298 3CA500                  		MOV.B #00H, 15H[R2]
0000029B                         L50:	; bb16.split17
                                 ;     260     /* Sector length */
                                 ;     261     usb_ghmsc_Cbw[ptr->ip][msgnum].CBWCB[7] = (uint8_t)(seccnt >> 8);
                                 		.LINE  "C:\Workspace\e2studio\git\MT01_master\r_usb_hmsc\src\r_usb_hmsc_driver.c",261
0000029B A909                    		MOV.L 14H[R0], R1
0000029D B991                    		MOVU.W 0CH[R1], R1
0000029F 6C91                    		SHLL #09H, R1
000002A1 FB22rrrrrrrr            		MOV.L #_usb_ghmsc_Cbw, R2
000002A7 4B12                    		ADD R1, R2
000002A9 5C01                    		MOVU.W [R0], R1
000002AB 6C61                    		SHLL #06H, R1
000002AD 4B12                    		ADD R1, R2
000002AF B909                    		MOVU.W 0AH[R0], R1
000002B1 6881                    		SHLR #08H, R1
000002B3 85A1                    		MOV.B R1, 16H[R2]
000002B5                         L51:	; bb16.split18
                                 ;     262     /* Block address */
                                 ;     263     usb_ghmsc_Cbw[ptr->ip][msgnum].CBWCB[8] = (uint8_t)seccnt;
                                 		.LINE  "C:\Workspace\e2studio\git\MT01_master\r_usb_hmsc\src\r_usb_hmsc_driver.c",263
000002B5 A909                    		MOV.L 14H[R0], R1
000002B7 B991                    		MOVU.W 0CH[R1], R1
000002B9 6C91                    		SHLL #09H, R1
000002BB FB22rrrrrrrr            		MOV.L #_usb_ghmsc_Cbw, R2
000002C1 4B12                    		ADD R1, R2
000002C3 5C01                    		MOVU.W [R0], R1
000002C5 6C61                    		SHLL #06H, R1
000002C7 4B12                    		ADD R1, R2
000002C9 C5020A17                		MOV.B 0AH[R0], 17H[R2]
000002CD                         L52:	; bb16.split19
                                 ;     264     /* Control data */
                                 ;     265     usb_ghmsc_Cbw[ptr->ip][msgnum].CBWCB[9] = (uint8_t)0x00;
                                 		.LINE  "C:\Workspace\e2studio\git\MT01_master\r_usb_hmsc\src\r_usb_hmsc_driver.c",265
000002CD A909                    		MOV.L 14H[R0], R1
000002CF B991                    		MOVU.W 0CH[R1], R1
000002D1 6C91                    		SHLL #09H, R1
000002D3 FB22rrrrrrrr            		MOV.L #_usb_ghmsc_Cbw, R2
000002D9 4B12                    		ADD R1, R2
000002DB 5C01                    		MOVU.W [R0], R1
000002DD 6C61                    		SHLL #06H, R1
000002DF 4B12                    		ADD R1, R2
000002E1 3CA800                  		MOV.B #00H, 18H[R2]
000002E4                         L53:	; bb16.split20
                                 ;     266 
                                 ;     267     /* ATAPI command check */
                                 ;     268     switch( command )
                                 		.LINE  "C:\Workspace\e2studio\git\MT01_master\r_usb_hmsc\src\r_usb_hmsc_driver.c",268
000002E4 BA09                    		MOVU.W 12H[R0], R1
000002E6 75512A                  		CMP #2AH, R1
000002E9 20rr                    		BEQ L57
000002EB                         L54:	; bb16.split20
000002EB 755128                  		CMP #28H, R1
000002EE 21rr                    		BNE L59
000002F0                         L55:	; bb325
                                 ;     269     {
                                 ;     270     case USB_ATAPI_TEST_UNIT_READY:
                                 ;     271     case USB_ATAPI_REQUEST_SENSE:
                                 ;     272     case USB_ATAPI_INQUIRY:
                                 ;     273     case USB_ATAPI_MODE_SELECT6:
                                 ;     274     case USB_ATAPI_MODE_SENSE6:
                                 ;     275     case USB_ATAPI_START_STOP_UNIT:
                                 ;     276     case USB_ATAPI_PREVENT_ALLOW:
                                 ;     277     case USB_ATAPI_READ_FORMAT_CAPACITY:
                                 ;     278     case USB_ATAPI_READ_CAPACITY:
                                 ;     279         USB_PRINTF0("### Non-mounted command demand generating !\n");
                                 ;     280         break;
                                 ;     281     /* Initialized READ CBW TAG */
                                 ;     282     case USB_ATAPI_READ10:
                                 ;     283         usb_ghmsc_Cbw[ptr->ip][msgnum].bmCBWFlags.CBWdir = 1;
                                 		.LINE  "C:\Workspace\e2studio\git\MT01_master\r_usb_hmsc\src\r_usb_hmsc_driver.c",283
000002F0 A909                    		MOV.L 14H[R0], R1
000002F2 B991                    		MOVU.W 0CH[R1], R1
000002F4 6C91                    		SHLL #09H, R1
000002F6 FBE2rrrrrrrr            		MOV.L #_usb_ghmsc_Cbw, R14
000002FC 4B1E                    		ADD R1, R14
000002FE 5C01                    		MOVU.W [R0], R1
00000300 6C61                    		SHLL #06H, R1
00000302 4B1E                    		ADD R1, R14
00000304 F1E70C                  		BSET #07H, 0CH[R14].B
00000307                         L56:	; bb325.split
                                 ;     284         /* 10bytes */
                                 ;     285         usb_ghmsc_Cbw[ptr->ip][msgnum].bCBWCBLength.bCBWCBLength = 10;
                                 		.LINE  "C:\Workspace\e2studio\git\MT01_master\r_usb_hmsc\src\r_usb_hmsc_driver.c",285
00000307 A909                    		MOV.L 14H[R0], R1
00000309 B991                    		MOVU.W 0CH[R1], R1
0000030B 6C91                    		SHLL #09H, R1
0000030D FB22rrrrrrrr            		MOV.L #_usb_ghmsc_Cbw, R2
00000313 4B12                    		ADD R1, R2
00000315 5C01                    		MOVU.W [R0], R1
00000317 6C61                    		SHLL #06H, R1
00000319 4B12                    		ADD R1, R2
0000031B B3A1                    		MOVU.B 0EH[R2], R1
0000031D 65A1                    		OR #0AH, R1
0000031F 7621EA00                		AND #0EAH, R1
00000323 83A1                    		MOV.B R1, 0EH[R2]
00000325 2Err                 B  		BRA L59
00000327                         L57:	; bb356
                                 ;     286         break;
                                 ;     287     /* Initialized WRITE CBW TAG */
                                 ;     288     case USB_ATAPI_WRITE10:
                                 ;     289         usb_ghmsc_Cbw[ptr->ip][msgnum].bmCBWFlags.CBWdir = 0;
                                 		.LINE  "C:\Workspace\e2studio\git\MT01_master\r_usb_hmsc\src\r_usb_hmsc_driver.c",289
00000327 A909                    		MOV.L 14H[R0], R1
00000329 B991                    		MOVU.W 0CH[R1], R1
0000032B 6C91                    		SHLL #09H, R1
0000032D FBE2rrrrrrrr            		MOV.L #_usb_ghmsc_Cbw, R14
00000333 4B1E                    		ADD R1, R14
00000335 5C01                    		MOVU.W [R0], R1
00000337 6C61                    		SHLL #06H, R1
00000339 4B1E                    		ADD R1, R14
0000033B F1EF0C                  		BCLR #07H, 0CH[R14].B
0000033E                         L58:	; bb356.split
                                 ;     290         /* 10bytes */
                                 ;     291         usb_ghmsc_Cbw[ptr->ip][msgnum].bCBWCBLength.bCBWCBLength = 10;
                                 		.LINE  "C:\Workspace\e2studio\git\MT01_master\r_usb_hmsc\src\r_usb_hmsc_driver.c",291
0000033E A909                    		MOV.L 14H[R0], R1
00000340 B991                    		MOVU.W 0CH[R1], R1
00000342 6C91                    		SHLL #09H, R1
00000344 FB22rrrrrrrr            		MOV.L #_usb_ghmsc_Cbw, R2
0000034A 4B12                    		ADD R1, R2
0000034C 5C01                    		MOVU.W [R0], R1
0000034E 6C61                    		SHLL #06H, R1
00000350 4B12                    		ADD R1, R2
00000352 B3A1                    		MOVU.B 0EH[R2], R1
00000354 65A1                    		OR #0AH, R1
00000356 7621EA00                		AND #0EAH, R1
0000035A 83A1                    		MOV.B R1, 0EH[R2]
0000035C                         L59:	; bb389
                                 ;     292         break;
                                 ;     293     case USB_ATAPI_SEEK:
                                 ;     294     case USB_ATAPI_WRITE_AND_VERIFY:
                                 ;     295     case USB_ATAPI_VERIFY10:
                                 ;     296     case USB_ATAPI_MODE_SELECT10:
                                 ;     297     case USB_ATAPI_MODE_SENSE10:
                                 ;     298     default:
                                 ;     299         USB_PRINTF0("### Non-mounted command demand generating !\n");
                                 ;     300         break;
                                 ;     301     }
                                 ;     302 
                                 ;     303     if( usb_ghmsc_AtapiFlag[ptr->ip][msgnum] == USB_ATAPI )
                                 		.LINE  "C:\Workspace\e2studio\git\MT01_master\r_usb_hmsc\src\r_usb_hmsc_driver.c",303
0000035C A909                    		MOV.L 14H[R0], R1
0000035E B991                    		MOVU.W 0CH[R1], R1
00000360 6C31                    		SHLL #03H, R1
00000362 FBE2rrrrrrrr            		MOV.L #_usb_ghmsc_AtapiFlag, R14
00000368 4B1E                    		ADD R1, R14
0000036A 5C01                    		MOVU.W [R0], R1
0000036C FECE1E                  		MOVU.B [R14,R1], R14
0000036F 615E                    		CMP #05H, R14
00000371 21rr                    		BNE L61
00000373                         L60:	; bb390
                                 ;     304     {
                                 ;     305         /* 12bytes */
                                 ;     306         usb_ghmsc_Cbw[ptr->ip][msgnum].bCBWCBLength.bCBWCBLength
                                 		.LINE  "C:\Workspace\e2studio\git\MT01_master\r_usb_hmsc\src\r_usb_hmsc_driver.c",306
00000373 A909                    		MOV.L 14H[R0], R1
00000375 B991                    		MOVU.W 0CH[R1], R1
00000377 6C91                    		SHLL #09H, R1
00000379 FB22rrrrrrrr            		MOV.L #_usb_ghmsc_Cbw, R2
0000037F 4B12                    		ADD R1, R2
00000381 5C01                    		MOVU.W [R0], R1
00000383 6C61                    		SHLL #06H, R1
00000385 4B12                    		ADD R1, R2
00000387 B3A1                    		MOVU.B 0EH[R2], R1
00000389 65C1                    		OR #0CH, R1
0000038B 7621EC00                		AND #0ECH, R1
0000038F 83A1                    		MOV.B R1, 0EH[R2]
00000391 3F6708                  		RTSD #20H, R6-R7
00000394                         L61:	; return
                                 ;     307         = USB_MSC_CBWCB_LENGTH;
                                 ;     308     }
                                 ;     309 }   /* eof usb_hmsc_SetRwCbw() */
                                 		.LINE  "C:\Workspace\e2studio\git\MT01_master\r_usb_hmsc\src\r_usb_hmsc_driver.c",309
00000394 3F6708                  		RTSD #20H, R6-R7
00000397                         _usb_hmsc_SetElsCbw:
                                 		.STACK	_usb_hmsc_SetElsCbw=32
                                 ;     310 
                                 ;     311 /******************************************************************************
                                 ;     312 Function Name   : usb_hmsc_SetElsCbw
                                 ;     313 Description     : CBW parameter initialization for other commands
                                 ;     314 Arguments       : uint8_t *data : 
                                 ;     315                 : uint32_t trans_byte : 
                                 ;     316                 : uint16_t side : 
                                 ;     317 Return value    : none
                                 ;     318 ******************************************************************************/
                                 ;     319 void usb_hmsc_SetElsCbw(USB_UTR_t *ptr, uint8_t *data, uint32_t trans_byte, uint16_t side)
                                 		.LINE  "C:\Workspace\e2studio\git\MT01_master\r_usb_hmsc\src\r_usb_hmsc_driver.c",319
00000397 6E67                    		PUSHM R6-R7
00000399 7100EC                  		ADD #0FFFFFFECH, R0
0000039C A101                    		MOV.L R1, 10H[R0]
0000039E A08A                    		MOV.L R2, 0CH[R0]
000003A0 A083                    		MOV.L R3, 08H[R0]
000003A2 908C                    		MOV.W R4, 06H[R0]
                                 ;     320 {
                                 ;     321     uint8_t     i;
                                 ;     322     uint16_t    msgnum;
                                 ;     323 
                                 ;     324     /* Data IN */
                                 ;     325     msgnum = usb_hmsc_SmpDrive2Msgnum(ptr, side);
                                 		.LINE  "C:\Workspace\e2studio\git\MT01_master\r_usb_hmsc\src\r_usb_hmsc_driver.c",325
000003A4 B88A                    		MOVU.W 06H[R0], R2
000003A6 A901                    		MOV.L 10H[R0], R1
000003A8 05rrrrrr             A  		BSR _usb_hmsc_SmpDrive2Msgnum
000003AC 9081                    		MOV.W R1, 04H[R0]
000003AE                         L63:	; entry.split
                                 ;     326     if( USB_ERROR == msgnum )
                                 		.LINE  "C:\Workspace\e2studio\git\MT01_master\r_usb_hmsc\src\r_usb_hmsc_driver.c",326
000003AE B881                    		MOVU.W 04H[R0], R1
000003B0 7701FFFF00              		CMP #0FFFFH, R1
000003B5 3Arrrr               W  		BEQ L100
000003B8                         L64:	; bb15
                                 ;     327     {
                                 ;     328         return;
                                 ;     329     }
                                 ;     330 
                                 ;     331     /* CBW parameter set */
                                 ;     332     usb_ghmsc_Cbw[ptr->ip][msgnum].dCBWTag = usb_ghmsc_CbwTagNo[ptr->ip][msgnum];
                                 		.LINE  "C:\Workspace\e2studio\git\MT01_master\r_usb_hmsc\src\r_usb_hmsc_driver.c",332
000003B8 A901                    		MOV.L 10H[R0], R1
000003BA B991                    		MOVU.W 0CH[R1], R1
000003BC FDC91E                  		SHLL #09H, R1, R14
000003BF FB22rrrrrrrr            		MOV.L #_usb_ghmsc_Cbw, R2
000003C5 4BE2                    		ADD R14, R2
000003C7 6C51                    		SHLL #05H, R1
000003C9 FBE2rrrrrrrr            		MOV.L #_usb_ghmsc_CbwTagNo, R14
000003CF 4B1E                    		ADD R1, R14
000003D1 B881                    		MOVU.W 04H[R0], R1
000003D3 FE61E3                  		MOV.L [R1,R14], R3
000003D6 6C61                    		SHLL #06H, R1
000003D8 4B12                    		ADD R1, R2
000003DA A02B                    		MOV.L R3, 04H[R2]
000003DC                         L65:	; bb15.split
                                 ;     333     usb_ghmsc_Cbw[ptr->ip][msgnum].dCBWDTL_Lo = (uint8_t)trans_byte;
                                 		.LINE  "C:\Workspace\e2studio\git\MT01_master\r_usb_hmsc\src\r_usb_hmsc_driver.c",333
000003DC A901                    		MOV.L 10H[R0], R1
000003DE B991                    		MOVU.W 0CH[R1], R1
000003E0 6C91                    		SHLL #09H, R1
000003E2 FB22rrrrrrrr            		MOV.L #_usb_ghmsc_Cbw, R2
000003E8 4B12                    		ADD R1, R2
000003EA B881                    		MOVU.W 04H[R0], R1
000003EC 6C61                    		SHLL #06H, R1
000003EE 4B12                    		ADD R1, R2
000003F0 A881                    		MOV.L 08H[R0], R1
000003F2 8221                    		MOV.B R1, 08H[R2]
000003F4                         L66:	; bb15.split1
                                 ;     334     usb_ghmsc_Cbw[ptr->ip][msgnum].dCBWDTL_ML = (uint8_t)(trans_byte >> 8);
                                 		.LINE  "C:\Workspace\e2studio\git\MT01_master\r_usb_hmsc\src\r_usb_hmsc_driver.c",334
000003F4 A901                    		MOV.L 10H[R0], R1
000003F6 B991                    		MOVU.W 0CH[R1], R1
000003F8 6C91                    		SHLL #09H, R1
000003FA FB22rrrrrrrr            		MOV.L #_usb_ghmsc_Cbw, R2
00000400 4B12                    		ADD R1, R2
00000402 B881                    		MOVU.W 04H[R0], R1
00000404 6C61                    		SHLL #06H, R1
00000406 4B12                    		ADD R1, R2
00000408 A881                    		MOV.L 08H[R0], R1
0000040A 6881                    		SHLR #08H, R1
0000040C 8229                    		MOV.B R1, 09H[R2]
0000040E                         L67:	; bb15.split2
                                 ;     335     usb_ghmsc_Cbw[ptr->ip][msgnum].dCBWDTL_MH = (uint8_t)(trans_byte >> 16);
                                 		.LINE  "C:\Workspace\e2studio\git\MT01_master\r_usb_hmsc\src\r_usb_hmsc_driver.c",335
0000040E A901                    		MOV.L 10H[R0], R1
00000410 B991                    		MOVU.W 0CH[R1], R1
00000412 6C91                    		SHLL #09H, R1
00000414 FB22rrrrrrrr            		MOV.L #_usb_ghmsc_Cbw, R2
0000041A 4B12                    		ADD R1, R2
0000041C B881                    		MOVU.W 04H[R0], R1
0000041E 6C61                    		SHLL #06H, R1
00000420 4B12                    		ADD R1, R2
00000422 A881                    		MOV.L 08H[R0], R1
00000424 6901                    		SHLR #10H, R1
00000426 82A1                    		MOV.B R1, 0AH[R2]
00000428                         L68:	; bb15.split3
                                 ;     336     usb_ghmsc_Cbw[ptr->ip][msgnum].dCBWDTL_Hi = (uint8_t)(trans_byte >> 24);
                                 		.LINE  "C:\Workspace\e2studio\git\MT01_master\r_usb_hmsc\src\r_usb_hmsc_driver.c",336
00000428 A901                    		MOV.L 10H[R0], R1
0000042A B991                    		MOVU.W 0CH[R1], R1
0000042C 6C91                    		SHLL #09H, R1
0000042E FB22rrrrrrrr            		MOV.L #_usb_ghmsc_Cbw, R2
00000434 4B12                    		ADD R1, R2
00000436 B881                    		MOVU.W 04H[R0], R1
00000438 6C61                    		SHLL #06H, R1
0000043A 4B12                    		ADD R1, R2
0000043C A881                    		MOV.L 08H[R0], R1
0000043E 6981                    		SHLR #18H, R1
00000440 82A9                    		MOV.B R1, 0BH[R2]
00000442                         L69:	; bb15.split4
                                 ;     337     /* Receive */
                                 ;     338     usb_ghmsc_Cbw[ptr->ip][msgnum].bmCBWFlags.CBWdir = 0;
                                 		.LINE  "C:\Workspace\e2studio\git\MT01_master\r_usb_hmsc\src\r_usb_hmsc_driver.c",338
00000442 A901                    		MOV.L 10H[R0], R1
00000444 B991                    		MOVU.W 0CH[R1], R1
00000446 6C91                    		SHLL #09H, R1
00000448 FBE2rrrrrrrr            		MOV.L #_usb_ghmsc_Cbw, R14
0000044E 4B1E                    		ADD R1, R14
00000450 B881                    		MOVU.W 04H[R0], R1
00000452 6C61                    		SHLL #06H, R1
00000454 4B1E                    		ADD R1, R14
00000456 F1EF0C                  		BCLR #07H, 0CH[R14].B
00000459                         L70:	; bb15.split5
                                 ;     339     usb_ghmsc_Cbw[ptr->ip][msgnum].bmCBWFlags.reserved7 = 0;
                                 		.LINE  "C:\Workspace\e2studio\git\MT01_master\r_usb_hmsc\src\r_usb_hmsc_driver.c",339
00000459 A901                    		MOV.L 10H[R0], R1
0000045B B991                    		MOVU.W 0CH[R1], R1
0000045D 6C91                    		SHLL #09H, R1
0000045F FB22rrrrrrrr            		MOV.L #_usb_ghmsc_Cbw, R2
00000465 4B12                    		ADD R1, R2
00000467 B881                    		MOVU.W 04H[R0], R1
00000469 6C61                    		SHLL #06H, R1
0000046B 4B12                    		ADD R1, R2
0000046D 754180                  		MOV.L #00000080H, R1
00000470 51210C                  		AND 0CH[R2].UB, R1
00000473 8321                    		MOV.B R1, 0CH[R2]
00000475                         L71:	; bb15.split6
                                 ;     340     usb_ghmsc_Cbw[ptr->ip][msgnum].bCBWLUN.bCBWLUN = usb_hmsc_SmpDrive2Unit(ptr, side);
                                 		.LINE  "C:\Workspace\e2studio\git\MT01_master\r_usb_hmsc\src\r_usb_hmsc_driver.c",340
00000475 A901                    		MOV.L 10H[R0], R1
00000477 B996                    		MOVU.W 0CH[R1], R6
00000479 B88A                    		MOVU.W 06H[R0], R2
0000047B B887                    		MOVU.W 04H[R0], R7
0000047D 05rrrrrr             A  		BSR _usb_hmsc_SmpDrive2Unit
00000481 6C96                    		SHLL #09H, R6
00000483 FB22rrrrrrrr            		MOV.L #_usb_ghmsc_Cbw, R2
00000489 4B62                    		ADD R6, R2
0000048B 6C67                    		SHLL #06H, R7
0000048D 4B72                    		ADD R7, R2
0000048F 7543F0                  		MOV.L #000000F0H, R3
00000492 51230D                  		AND 0DH[R2].UB, R3
00000495 64F1                    		AND #0FH, R1
00000497 5713                    		OR R1, R3
00000499 832B                    		MOV.B R3, 0DH[R2]
0000049B                         L72:	; bb15.split7
                                 ;     341     usb_ghmsc_Cbw[ptr->ip][msgnum].bCBWLUN.reserved4 = 0;
                                 		.LINE  "C:\Workspace\e2studio\git\MT01_master\r_usb_hmsc\src\r_usb_hmsc_driver.c",341
0000049B A901                    		MOV.L 10H[R0], R1
0000049D B991                    		MOVU.W 0CH[R1], R1
0000049F 6C91                    		SHLL #09H, R1
000004A1 FB22rrrrrrrr            		MOV.L #_usb_ghmsc_Cbw, R2
000004A7 4B12                    		ADD R1, R2
000004A9 B881                    		MOVU.W 04H[R0], R1
000004AB 6C61                    		SHLL #06H, R1
000004AD 4B12                    		ADD R1, R2
000004AF B329                    		MOVU.B 0DH[R2], R1
000004B1 64F1                    		AND #0FH, R1
000004B3 8329                    		MOV.B R1, 0DH[R2]
000004B5                         L73:	; bb15.split8
                                 ;     342     usb_ghmsc_Cbw[ptr->ip][msgnum].bCBWCBLength.reserved3 = 0;
                                 		.LINE  "C:\Workspace\e2studio\git\MT01_master\r_usb_hmsc\src\r_usb_hmsc_driver.c",342
000004B5 A901                    		MOV.L 10H[R0], R1
000004B7 B991                    		MOVU.W 0CH[R1], R1
000004B9 6C91                    		SHLL #09H, R1
000004BB FB22rrrrrrrr            		MOV.L #_usb_ghmsc_Cbw, R2
000004C1 4B12                    		ADD R1, R2
000004C3 B881                    		MOVU.W 04H[R0], R1
000004C5 6C61                    		SHLL #06H, R1
000004C7 4B12                    		ADD R1, R2
000004C9 B3A1                    		MOVU.B 0EH[R2], R1
000004CB 75211F                  		AND #1FH, R1
000004CE 83A1                    		MOV.B R1, 0EH[R2]
000004D0                         L74:	; bb15.split9
                                 ;     343 
                                 ;     344     for( i = 0; i < 12; i++ )
                                 		.LINE  "C:\Workspace\e2studio\git\MT01_master\r_usb_hmsc\src\r_usb_hmsc_driver.c",344
000004D0 3C0300                  		MOV.B #00H, 03H[R0]
000004D3 2Err                 B  		BRA L76
000004D5                         L75:	; bb167
                                 ;     345     {
                                 ;     346         usb_ghmsc_Cbw[ptr->ip][msgnum].CBWCB[i] = data[i];
                                 		.LINE  "C:\Workspace\e2studio\git\MT01_master\r_usb_hmsc\src\r_usb_hmsc_driver.c",346
000004D5 A901                    		MOV.L 10H[R0], R1
000004D7 B991                    		MOVU.W 0CH[R1], R1
000004D9 6C91                    		SHLL #09H, R1
000004DB FB22rrrrrrrr            		MOV.L #_usb_ghmsc_Cbw, R2
000004E1 4B12                    		ADD R1, R2
000004E3 B881                    		MOVU.W 04H[R0], R1
000004E5 6C61                    		SHLL #06H, R1
000004E7 4B12                    		ADD R1, R2
000004E9 B089                    		MOVU.B 03H[R0], R1
000004EB 4B12                    		ADD R1, R2
000004ED A88B                    		MOV.L 0CH[R0], R3
000004EF FEC311                  		MOVU.B [R3,R1], R1
000004F2 83A9                    		MOV.B R1, 0FH[R2]
000004F4 B089                    		MOVU.B 03H[R0], R1
000004F6 6211                    		ADD #01H, R1
000004F8 8089                    		MOV.B R1, 03H[R0]
000004FA                         L76:	; bb189
                                 		.LINE  "C:\Workspace\e2studio\git\MT01_master\r_usb_hmsc\src\r_usb_hmsc_driver.c",344
000004FA B089                    		MOVU.B 03H[R0], R1
000004FC 61C1                    		CMP #0CH, R1
000004FE 29rr                    		BLT L75
00000500                         L77:	; bb195
                                 ;     347     }
                                 ;     348 
                                 ;     349     /* ATAPI command check */
                                 ;     350     switch( data[0] )
                                 		.LINE  "C:\Workspace\e2studio\git\MT01_master\r_usb_hmsc\src\r_usb_hmsc_driver.c",350
00000500 A889                    		MOV.L 0CH[R0], R1
00000502 581E                    		MOVU.B [R1], R14
00000504 755E5A                  		CMP #5AH, R14
00000507 3Arrrr               W  		BEQ L96
0000050A                         L78:	; bb195
0000050A 613E                    		CMP #03H, R14
0000050C 20rr                    		BEQ L86
0000050E                         L79:	; bb195
0000050E 755E12                  		CMP #12H, R14
00000511 20rr                    		BEQ L88
00000513                         L80:	; bb195
00000513 755E1B                  		CMP #1BH, R14
00000516 3Arrrr               W  		BEQ L90
00000519                         L81:	; bb195
00000519 755E1E                  		CMP #1EH, R14
0000051C 3Arrrr               W  		BEQ L91
0000051F                         L82:	; bb195
0000051F 755E23                  		CMP #23H, R14
00000522 3Arrrr               W  		BEQ L92
00000525                         L83:	; bb195
00000525 755E25                  		CMP #25H, R14
00000528 3Arrrr               W  		BEQ L94
0000052B                         L84:	; bb195
0000052B 610E                    		CMP #00H, R14
0000052D 3Brrrr               W  		BNE L98
00000530                         L85:	; bb200
                                 ;     351     {
                                 ;     352     /* No data */
                                 ;     353     case USB_ATAPI_TEST_UNIT_READY:
                                 ;     354         usb_ghmsc_Cbw[ptr->ip][msgnum].bCBWCBLength.bCBWCBLength = 6;
                                 		.LINE  "C:\Workspace\e2studio\git\MT01_master\r_usb_hmsc\src\r_usb_hmsc_driver.c",354
00000530 A901                    		MOV.L 10H[R0], R1
00000532 B991                    		MOVU.W 0CH[R1], R1
00000534 6C91                    		SHLL #09H, R1
00000536 FB22rrrrrrrr            		MOV.L #_usb_ghmsc_Cbw, R2
0000053C 4B12                    		ADD R1, R2
0000053E B881                    		MOVU.W 04H[R0], R1
00000540 6C61                    		SHLL #06H, R1
00000542 4B12                    		ADD R1, R2
00000544 B3A1                    		MOVU.B 0EH[R2], R1
00000546 6561                    		OR #06H, R1
00000548 7621E600                		AND #0E6H, R1
0000054C 83A1                    		MOV.B R1, 0EH[R2]
0000054E 38rrrr               W  		BRA L98
00000551                         L86:	; bb216
                                 ;     355         break;
                                 ;     356     /* Receive */
                                 ;     357     case USB_ATAPI_REQUEST_SENSE:
                                 ;     358         usb_ghmsc_Cbw[ptr->ip][msgnum].bmCBWFlags.CBWdir = 1;
                                 		.LINE  "C:\Workspace\e2studio\git\MT01_master\r_usb_hmsc\src\r_usb_hmsc_driver.c",358
00000551 A901                    		MOV.L 10H[R0], R1
00000553 B991                    		MOVU.W 0CH[R1], R1
00000555 6C91                    		SHLL #09H, R1
00000557 FBE2rrrrrrrr            		MOV.L #_usb_ghmsc_Cbw, R14
0000055D 4B1E                    		ADD R1, R14
0000055F B881                    		MOVU.W 04H[R0], R1
00000561 6C61                    		SHLL #06H, R1
00000563 4B1E                    		ADD R1, R14
00000565 F1E70C                  		BSET #07H, 0CH[R14].B
00000568                         L87:	; bb216.split
                                 ;     359         usb_ghmsc_Cbw[ptr->ip][msgnum].bCBWCBLength.bCBWCBLength = 6;
                                 		.LINE  "C:\Workspace\e2studio\git\MT01_master\r_usb_hmsc\src\r_usb_hmsc_driver.c",359
00000568 A901                    		MOV.L 10H[R0], R1
0000056A B991                    		MOVU.W 0CH[R1], R1
0000056C 6C91                    		SHLL #09H, R1
0000056E FB22rrrrrrrr            		MOV.L #_usb_ghmsc_Cbw, R2
00000574 4B12                    		ADD R1, R2
00000576 B881                    		MOVU.W 04H[R0], R1
00000578 6C61                    		SHLL #06H, R1
0000057A 4B12                    		ADD R1, R2
0000057C B3A1                    		MOVU.B 0EH[R2], R1
0000057E 6561                    		OR #06H, R1
00000580 7621E600                		AND #0E6H, R1
00000584 83A1                    		MOV.B R1, 0EH[R2]
00000586 38rrrr               W  		BRA L98
00000589                         L88:	; bb248
                                 ;     360         break;
                                 ;     361     /* Send */
                                 ;     362     case USB_ATAPI_FORMAT_UNIT:
                                 ;     363         USB_PRINTF0("### Non-mounted command demand generating !\n");
                                 ;     364         break;
                                 ;     365     /* Receive */
                                 ;     366     case USB_ATAPI_INQUIRY:
                                 ;     367         usb_ghmsc_Cbw[ptr->ip][msgnum].bmCBWFlags.CBWdir = 1;
                                 		.LINE  "C:\Workspace\e2studio\git\MT01_master\r_usb_hmsc\src\r_usb_hmsc_driver.c",367
00000589 A901                    		MOV.L 10H[R0], R1
0000058B B991                    		MOVU.W 0CH[R1], R1
0000058D 6C91                    		SHLL #09H, R1
0000058F FBE2rrrrrrrr            		MOV.L #_usb_ghmsc_Cbw, R14
00000595 4B1E                    		ADD R1, R14
00000597 B881                    		MOVU.W 04H[R0], R1
00000599 6C61                    		SHLL #06H, R1
0000059B 4B1E                    		ADD R1, R14
0000059D F1E70C                  		BSET #07H, 0CH[R14].B
000005A0                         L89:	; bb248.split
                                 ;     368         usb_ghmsc_Cbw[ptr->ip][msgnum].bCBWCBLength.bCBWCBLength = 6;
                                 		.LINE  "C:\Workspace\e2studio\git\MT01_master\r_usb_hmsc\src\r_usb_hmsc_driver.c",368
000005A0 A901                    		MOV.L 10H[R0], R1
000005A2 B991                    		MOVU.W 0CH[R1], R1
000005A4 6C91                    		SHLL #09H, R1
000005A6 FB22rrrrrrrr            		MOV.L #_usb_ghmsc_Cbw, R2
000005AC 4B12                    		ADD R1, R2
000005AE B881                    		MOVU.W 04H[R0], R1
000005B0 6C61                    		SHLL #06H, R1
000005B2 4B12                    		ADD R1, R2
000005B4 B3A1                    		MOVU.B 0EH[R2], R1
000005B6 6561                    		OR #06H, R1
000005B8 7621E600                		AND #0E6H, R1
000005BC 83A1                    		MOV.B R1, 0EH[R2]
000005BE 38rrrr               W  		BRA L98
000005C1                         L90:	; bb280
                                 ;     369         break;
                                 ;     370     case USB_ATAPI_MODE_SELECT6:
                                 ;     371     case USB_ATAPI_MODE_SENSE6:
                                 ;     372         break;
                                 ;     373     /* No data */
                                 ;     374     case USB_ATAPI_START_STOP_UNIT:
                                 ;     375         usb_ghmsc_Cbw[ptr->ip][msgnum].bCBWCBLength.bCBWCBLength = 6;
                                 		.LINE  "C:\Workspace\e2studio\git\MT01_master\r_usb_hmsc\src\r_usb_hmsc_driver.c",375
000005C1 A901                    		MOV.L 10H[R0], R1
000005C3 B991                    		MOVU.W 0CH[R1], R1
000005C5 6C91                    		SHLL #09H, R1
000005C7 FB22rrrrrrrr            		MOV.L #_usb_ghmsc_Cbw, R2
000005CD 4B12                    		ADD R1, R2
000005CF B881                    		MOVU.W 04H[R0], R1
000005D1 6C61                    		SHLL #06H, R1
000005D3 4B12                    		ADD R1, R2
000005D5 B3A1                    		MOVU.B 0EH[R2], R1
000005D7 6561                    		OR #06H, R1
000005D9 7621E600                		AND #0E6H, R1
000005DD 83A1                    		MOV.B R1, 0EH[R2]
000005DF 38rrrr               W  		BRA L98
000005E2                         L91:	; bb296
                                 ;     376         break;
                                 ;     377     /* No data */
                                 ;     378     case USB_ATAPI_PREVENT_ALLOW:
                                 ;     379         usb_ghmsc_Cbw[ptr->ip][msgnum].bCBWCBLength.bCBWCBLength = 6;
                                 		.LINE  "C:\Workspace\e2studio\git\MT01_master\r_usb_hmsc\src\r_usb_hmsc_driver.c",379
000005E2 A901                    		MOV.L 10H[R0], R1
000005E4 B991                    		MOVU.W 0CH[R1], R1
000005E6 6C91                    		SHLL #09H, R1
000005E8 FB22rrrrrrrr            		MOV.L #_usb_ghmsc_Cbw, R2
000005EE 4B12                    		ADD R1, R2
000005F0 B881                    		MOVU.W 04H[R0], R1
000005F2 6C61                    		SHLL #06H, R1
000005F4 4B12                    		ADD R1, R2
000005F6 B3A1                    		MOVU.B 0EH[R2], R1
000005F8 6561                    		OR #06H, R1
000005FA 7621E600                		AND #0E6H, R1
000005FE 83A1                    		MOV.B R1, 0EH[R2]
00000600 38rrrr               W  		BRA L98
00000603                         L92:	; bb312
                                 ;     380         break;
                                 ;     381     /* Receive */
                                 ;     382     case USB_ATAPI_READ_FORMAT_CAPACITY:
                                 ;     383         usb_ghmsc_Cbw[ptr->ip][msgnum].bmCBWFlags.CBWdir = 1;
                                 		.LINE  "C:\Workspace\e2studio\git\MT01_master\r_usb_hmsc\src\r_usb_hmsc_driver.c",383
00000603 A901                    		MOV.L 10H[R0], R1
00000605 B991                    		MOVU.W 0CH[R1], R1
00000607 6C91                    		SHLL #09H, R1
00000609 FBE2rrrrrrrr            		MOV.L #_usb_ghmsc_Cbw, R14
0000060F 4B1E                    		ADD R1, R14
00000611 B881                    		MOVU.W 04H[R0], R1
00000613 6C61                    		SHLL #06H, R1
00000615 4B1E                    		ADD R1, R14
00000617 F1E70C                  		BSET #07H, 0CH[R14].B
0000061A                         L93:	; bb312.split
                                 ;     384         usb_ghmsc_Cbw[ptr->ip][msgnum].bCBWCBLength.bCBWCBLength = 10;
                                 		.LINE  "C:\Workspace\e2studio\git\MT01_master\r_usb_hmsc\src\r_usb_hmsc_driver.c",384
0000061A A901                    		MOV.L 10H[R0], R1
0000061C B991                    		MOVU.W 0CH[R1], R1
0000061E 6C91                    		SHLL #09H, R1
00000620 FB22rrrrrrrr            		MOV.L #_usb_ghmsc_Cbw, R2
00000626 4B12                    		ADD R1, R2
00000628 B881                    		MOVU.W 04H[R0], R1
0000062A 6C61                    		SHLL #06H, R1
0000062C 4B12                    		ADD R1, R2
0000062E B3A1                    		MOVU.B 0EH[R2], R1
00000630 65A1                    		OR #0AH, R1
00000632 7621EA00                		AND #0EAH, R1
00000636 83A1                    		MOV.B R1, 0EH[R2]
00000638 2Err                 B  		BRA L98
0000063A                         L94:	; bb343
                                 ;     385         break;
                                 ;     386     /* Receive */
                                 ;     387     case USB_ATAPI_READ_CAPACITY:
                                 ;     388         usb_ghmsc_Cbw[ptr->ip][msgnum].bmCBWFlags.CBWdir = 1;
                                 		.LINE  "C:\Workspace\e2studio\git\MT01_master\r_usb_hmsc\src\r_usb_hmsc_driver.c",388
0000063A A901                    		MOV.L 10H[R0], R1
0000063C B991                    		MOVU.W 0CH[R1], R1
0000063E 6C91                    		SHLL #09H, R1
00000640 FBE2rrrrrrrr            		MOV.L #_usb_ghmsc_Cbw, R14
00000646 4B1E                    		ADD R1, R14
00000648 B881                    		MOVU.W 04H[R0], R1
0000064A 6C61                    		SHLL #06H, R1
0000064C 4B1E                    		ADD R1, R14
0000064E F1E70C                  		BSET #07H, 0CH[R14].B
00000651                         L95:	; bb343.split
                                 ;     389         usb_ghmsc_Cbw[ptr->ip][msgnum].bCBWCBLength.bCBWCBLength = 10;
                                 		.LINE  "C:\Workspace\e2studio\git\MT01_master\r_usb_hmsc\src\r_usb_hmsc_driver.c",389
00000651 A901                    		MOV.L 10H[R0], R1
00000653 B991                    		MOVU.W 0CH[R1], R1
00000655 6C91                    		SHLL #09H, R1
00000657 FB22rrrrrrrr            		MOV.L #_usb_ghmsc_Cbw, R2
0000065D 4B12                    		ADD R1, R2
0000065F B881                    		MOVU.W 04H[R0], R1
00000661 6C61                    		SHLL #06H, R1
00000663 4B12                    		ADD R1, R2
00000665 B3A1                    		MOVU.B 0EH[R2], R1
00000667 65A1                    		OR #0AH, R1
00000669 7621EA00                		AND #0EAH, R1
0000066D 83A1                    		MOV.B R1, 0EH[R2]
0000066F 2Err                 B  		BRA L98
00000671                         L96:	; bb377
                                 ;     390         break;
                                 ;     391     case USB_ATAPI_READ10:
                                 ;     392     case USB_ATAPI_WRITE10:
                                 ;     393         USB_PRINTF0("### Non-mounted command demand generating !\n");
                                 ;     394         break;
                                 ;     395     case USB_ATAPI_SEEK:
                                 ;     396     case USB_ATAPI_WRITE_AND_VERIFY:
                                 ;     397     case USB_ATAPI_VERIFY10:
                                 ;     398         USB_PRINTF0("### Non-mounted command demand generating !\n");
                                 ;     399         break;
                                 ;     400     /* Send */
                                 ;     401     case USB_ATAPI_MODE_SELECT10:
                                 ;     402         USB_PRINTF0("### Non-mounted command demand generating !\n");
                                 ;     403         break;
                                 ;     404     /* Receive */
                                 ;     405     case USB_ATAPI_MODE_SENSE10:
                                 ;     406         usb_ghmsc_Cbw[ptr->ip][msgnum].bmCBWFlags.CBWdir = 1;
                                 		.LINE  "C:\Workspace\e2studio\git\MT01_master\r_usb_hmsc\src\r_usb_hmsc_driver.c",406
00000671 A901                    		MOV.L 10H[R0], R1
00000673 B991                    		MOVU.W 0CH[R1], R1
00000675 6C91                    		SHLL #09H, R1
00000677 FBE2rrrrrrrr            		MOV.L #_usb_ghmsc_Cbw, R14
0000067D 4B1E                    		ADD R1, R14
0000067F B881                    		MOVU.W 04H[R0], R1
00000681 6C61                    		SHLL #06H, R1
00000683 4B1E                    		ADD R1, R14
00000685 F1E70C                  		BSET #07H, 0CH[R14].B
00000688                         L97:	; bb377.split
                                 ;     407         usb_ghmsc_Cbw[ptr->ip][msgnum].bCBWCBLength.bCBWCBLength = 10;
                                 		.LINE  "C:\Workspace\e2studio\git\MT01_master\r_usb_hmsc\src\r_usb_hmsc_driver.c",407
00000688 A901                    		MOV.L 10H[R0], R1
0000068A B991                    		MOVU.W 0CH[R1], R1
0000068C 6C91                    		SHLL #09H, R1
0000068E FB22rrrrrrrr            		MOV.L #_usb_ghmsc_Cbw, R2
00000694 4B12                    		ADD R1, R2
00000696 B881                    		MOVU.W 04H[R0], R1
00000698 6C61                    		SHLL #06H, R1
0000069A 4B12                    		ADD R1, R2
0000069C B3A1                    		MOVU.B 0EH[R2], R1
0000069E 65A1                    		OR #0AH, R1
000006A0 7621EA00                		AND #0EAH, R1
000006A4 83A1                    		MOV.B R1, 0EH[R2]
000006A6                         L98:	; bb410
                                 ;     408         break;
                                 ;     409     default:
                                 ;     410         USB_PRINTF0("### Non-mounted command demand generating !\n");
                                 ;     411         break;
                                 ;     412     }
                                 ;     413 
                                 ;     414     if( usb_ghmsc_AtapiFlag[ptr->ip][msgnum] == USB_ATAPI )
                                 		.LINE  "C:\Workspace\e2studio\git\MT01_master\r_usb_hmsc\src\r_usb_hmsc_driver.c",414
000006A6 A901                    		MOV.L 10H[R0], R1
000006A8 B991                    		MOVU.W 0CH[R1], R1
000006AA 6C31                    		SHLL #03H, R1
000006AC FBE2rrrrrrrr            		MOV.L #_usb_ghmsc_AtapiFlag, R14
000006B2 4B1E                    		ADD R1, R14
000006B4 B881                    		MOVU.W 04H[R0], R1
000006B6 FECE1E                  		MOVU.B [R14,R1], R14
000006B9 615E                    		CMP #05H, R14
000006BB 21rr                    		BNE L100
000006BD                         L99:	; bb411
                                 ;     415     {
                                 ;     416         /* 12bytes */
                                 ;     417         usb_ghmsc_Cbw[ptr->ip][msgnum].bCBWCBLength.bCBWCBLength
                                 		.LINE  "C:\Workspace\e2studio\git\MT01_master\r_usb_hmsc\src\r_usb_hmsc_driver.c",417
000006BD A901                    		MOV.L 10H[R0], R1
000006BF B991                    		MOVU.W 0CH[R1], R1
000006C1 6C91                    		SHLL #09H, R1
000006C3 FB22rrrrrrrr            		MOV.L #_usb_ghmsc_Cbw, R2
000006C9 4B12                    		ADD R1, R2
000006CB B881                    		MOVU.W 04H[R0], R1
000006CD 6C61                    		SHLL #06H, R1
000006CF 4B12                    		ADD R1, R2
000006D1 B3A1                    		MOVU.B 0EH[R2], R1
000006D3 65C1                    		OR #0CH, R1
000006D5 7621EC00                		AND #0ECH, R1
000006D9 83A1                    		MOV.B R1, 0EH[R2]
000006DB 3F6707                  		RTSD #1CH, R6-R7
000006DE                         L100:	; return
                                 ;     418         = USB_MSC_CBWCB_LENGTH;
                                 ;     419     }
                                 ;     420 }   /* eof usb_hmsc_SetElsCbw() */
                                 		.LINE  "C:\Workspace\e2studio\git\MT01_master\r_usb_hmsc\src\r_usb_hmsc_driver.c",420
000006DE 3F6707                  		RTSD #1CH, R6-R7
000006E1                         _usb_hmsc_CbwTagCount:
                                 		.STACK	_usb_hmsc_CbwTagCount=12
                                 ;     421 
                                 ;     422 /******************************************************************************
                                 ;     423 Function Name   : usb_hmsc_CbwTagCount
                                 ;     424 Description     : Updates tag information
                                 ;     425 Arguments       : uint16_t msgnum : 
                                 ;     426 Return value    : none
                                 ;     427 ******************************************************************************/
                                 ;     428 void usb_hmsc_CbwTagCount(USB_UTR_t *ptr, uint16_t msgnum)
                                 		.LINE  "C:\Workspace\e2studio\git\MT01_master\r_usb_hmsc\src\r_usb_hmsc_driver.c",428
000006E1 6080                    		SUB #08H, R0
000006E3 A009                    		MOV.L R1, 04H[R0]
000006E5 900A                    		MOV.W R2, 02H[R0]
                                 ;     429 {
                                 ;     430     usb_ghmsc_CbwTagNo[ptr->ip][msgnum]++;
                                 		.LINE  "C:\Workspace\e2studio\git\MT01_master\r_usb_hmsc\src\r_usb_hmsc_driver.c",430
000006E7 A809                    		MOV.L 04H[R0], R1
000006E9 B991                    		MOVU.W 0CH[R1], R1
000006EB 6C51                    		SHLL #05H, R1
000006ED FBE2rrrrrrrr            		MOV.L #_usb_ghmsc_CbwTagNo, R14
000006F3 4B1E                    		ADD R1, R14
000006F5 B809                    		MOVU.W 02H[R0], R1
000006F7 FE61EF                  		MOV.L [R1,R14], R15
000006FA 621F                    		ADD #01H, R15
000006FC FE21EF                  		MOV.L R15, [R1,R14]
000006FF                         L102:	; entry.split
                                 ;     431     if( usb_ghmsc_CbwTagNo[ptr->ip][msgnum] == (uint16_t)0 )
                                 		.LINE  "C:\Workspace\e2studio\git\MT01_master\r_usb_hmsc\src\r_usb_hmsc_driver.c",431
000006FF A809                    		MOV.L 04H[R0], R1
00000701 B991                    		MOVU.W 0CH[R1], R1
00000703 6C51                    		SHLL #05H, R1
00000705 FBE2rrrrrrrr            		MOV.L #_usb_ghmsc_CbwTagNo, R14
0000070B 4B1E                    		ADD R1, R14
0000070D B809                    		MOVU.W 02H[R0], R1
0000070F FE61EE                  		MOV.L [R1,R14], R14
00000712 610E                    		CMP #00H, R14
00000714 21rr                    		BNE L104
00000716                         L103:	; bb13
                                 ;     432     {
                                 ;     433         usb_ghmsc_CbwTagNo[ptr->ip][msgnum] = (uint16_t)1;
                                 		.LINE  "C:\Workspace\e2studio\git\MT01_master\r_usb_hmsc\src\r_usb_hmsc_driver.c",433
00000716 A809                    		MOV.L 04H[R0], R1
00000718 B991                    		MOVU.W 0CH[R1], R1
0000071A 6C51                    		SHLL #05H, R1
0000071C FBE2rrrrrrrr            		MOV.L #_usb_ghmsc_CbwTagNo, R14
00000722 4B1E                    		ADD R1, R14
00000724 661F                    		MOV.L #00000001H, R15
00000726 B809                    		MOVU.W 02H[R0], R1
00000728 FE21EF                  		MOV.L R15, [R1,R14]
0000072B 6702                    		RTSD #08H
0000072D                         L104:	; return
                                 ;     434     }
                                 ;     435 }   /* eof usb_hmsc_CbwTagCount() */
                                 		.LINE  "C:\Workspace\e2studio\git\MT01_master\r_usb_hmsc\src\r_usb_hmsc_driver.c",435
0000072D 6702                    		RTSD #08H
0000072F                         _usb_hmsc_CheckCsw:
                                 		.STACK	_usb_hmsc_CheckCsw=20
                                 ;     436 
                                 ;     437 /******************************************************************************
                                 ;     438 Function Name   : usb_hmsc_CheckCsw
                                 ;     439 Description     : CSW check
                                 ;     440 Arguments       : uint16_t drvnum : 
                                 ;     441 Return value    : uint16_t : 
                                 ;     442 ******************************************************************************/
                                 ;     443 uint16_t usb_hmsc_CheckCsw(USB_UTR_t *ptr, uint16_t drvnum)
                                 		.LINE  "C:\Workspace\e2studio\git\MT01_master\r_usb_hmsc\src\r_usb_hmsc_driver.c",443
0000072F 7100F0                  		ADD #0FFFFFFF0H, R0
00000732 A089                    		MOV.L R1, 0CH[R0]
00000734 910A                    		MOV.W R2, 0AH[R0]
                                 ;     444 {
                                 ;     445     uint16_t    msgnum;
                                 ;     446     USB_CLSINFO_t *mess;
                                 ;     447     
                                 ;     448     msgnum = usb_hmsc_SmpDrive2Msgnum(ptr, drvnum);
                                 		.LINE  "C:\Workspace\e2studio\git\MT01_master\r_usb_hmsc\src\r_usb_hmsc_driver.c",448
00000736 B90A                    		MOVU.W 0AH[R0], R2
00000738 A889                    		MOV.L 0CH[R0], R1
0000073A 05rrrrrr             A  		BSR _usb_hmsc_SmpDrive2Msgnum
0000073E 9009                    		MOV.W R1, 02H[R0]
00000740                         L106:	; entry.split1
                                 ;     449     if( USB_ERROR == msgnum )
                                 ;     450     {
                                 ;     451         USB_HMSC_CSW_ERR;
                                 ;     452     }
                                 ;     453 
                                 ;     454     /* CSW Check */
                                 ;     455     if( usb_ghmsc_Csw[ptr->ip][msgnum].dCSWSignature != USB_MSC_CSW_SIGNATURE )
                                 		.LINE  "C:\Workspace\e2studio\git\MT01_master\r_usb_hmsc\src\r_usb_hmsc_driver.c",455
00000740 A889                    		MOV.L 0CH[R0], R1
00000742 B991                    		MOVU.W 0CH[R1], R1
00000744 6C91                    		SHLL #09H, R1
00000746 FBE2rrrrrrrr            		MOV.L #_usb_ghmsc_Csw, R14
0000074C 4B1E                    		ADD R1, R14
0000074E B809                    		MOVU.W 02H[R0], R1
00000750 6C61                    		SHLL #06H, R1
00000752 4B1E                    		ADD R1, R14
00000754 ECEE                    		MOV.L [R14], R14
00000756 740E55534253            		CMP #53425355H, R14
0000075C 10                   S  		BEQ L108
0000075D                         L107:	; bb15
                                 ;     456     {
                                 ;     457         USB_PRINTF2("### CSW signature error 0x%08x:SIGN=0x%08x.\n",
                                 ;     458              usb_ghmsc_Csw[ptr->ip][msgnum].dCSWSignature, USB_MSC_CSW_SIGNATURE);
                                 ;     459         return USB_HMSC_CSW_ERR;
                                 		.LINE  "C:\Workspace\e2studio\git\MT01_master\r_usb_hmsc\src\r_usb_hmsc_driver.c",459
0000075D F809FBFF                		MOV.W #0FFFBH, [R0]
00000761 38rrrr               W  		BRA L122
00000764                         L108:	; bb32
                                 ;     460     }
                                 ;     461     if( usb_ghmsc_Csw[ptr->ip][msgnum].dCSWTag != usb_ghmsc_Cbw[ptr->ip][msgnum].dCBWTag )
                                 		.LINE  "C:\Workspace\e2studio\git\MT01_master\r_usb_hmsc\src\r_usb_hmsc_driver.c",461
00000764 A889                    		MOV.L 0CH[R0], R1
00000766 B991                    		MOVU.W 0CH[R1], R1
00000768 6C91                    		SHLL #09H, R1
0000076A FB22rrrrrrrr            		MOV.L #_usb_ghmsc_Csw, R2
00000770 4B12                    		ADD R1, R2
00000772 B80B                    		MOVU.W 02H[R0], R3
00000774 6C63                    		SHLL #06H, R3
00000776 4B32                    		ADD R3, R2
00000778 A82A                    		MOV.L 04H[R2], R2
0000077A FBE2rrrrrrrr            		MOV.L #_usb_ghmsc_Cbw, R14
00000780 4B1E                    		ADD R1, R14
00000782 4B3E                    		ADD R3, R14
00000784 0685E201                		CMP 04H[R14].L, R2
00000788 10                   S  		BEQ L110
00000789                         L109:	; bb33
                                 ;     462     {
                                 ;     463         USB_PRINTF2("### CSW Tag error 0x%08x:CBWTAG=0x%08x.\n",
                                 ;     464              usb_ghmsc_Csw[ptr->ip][msgnum].dCSWTag, usb_ghmsc_Cbw[ptr->ip][msgnum].dCBWTag);
                                 ;     465         return USB_HMSC_CSW_ERR;
                                 		.LINE  "C:\Workspace\e2studio\git\MT01_master\r_usb_hmsc\src\r_usb_hmsc_driver.c",465
00000789 F809FBFF                		MOV.W #0FFFBH, [R0]
0000078D 2Err                 B  		BRA L122
0000078F                         L110:	; bb60
                                 ;     466     }
                                 ;     467     switch( usb_ghmsc_Csw[ptr->ip][msgnum].bCSWStatus )
                                 		.LINE  "C:\Workspace\e2studio\git\MT01_master\r_usb_hmsc\src\r_usb_hmsc_driver.c",467
0000078F A889                    		MOV.L 0CH[R0], R1
00000791 B991                    		MOVU.W 0CH[R1], R1
00000793 6C91                    		SHLL #09H, R1
00000795 FB22rrrrrrrr            		MOV.L #_usb_ghmsc_Csw, R2
0000079B 4B12                    		ADD R1, R2
0000079D B809                    		MOVU.W 02H[R0], R1
0000079F 6C61                    		SHLL #06H, R1
000007A1 4B12                    		ADD R1, R2
000007A3 B321                    		MOVU.B 0CH[R2], R1
000007A5 6121                    		CMP #02H, R1
000007A7 20rr                    		BEQ L115
000007A9                         L111:	; bb60
000007A9 6111                    		CMP #01H, R1
000007AB 10                   S  		BEQ L114
000007AC                         L112:	; bb60
000007AC 6101                    		CMP #00H, R1
000007AE 21rr                    		BNE L121
000007B0                         L113:	; bb73
                                 ;     468     {
                                 ;     469     case USB_MSC_CSW_OK:
                                 ;     470         return USB_HMSC_OK;
                                 		.LINE  "C:\Workspace\e2studio\git\MT01_master\r_usb_hmsc\src\r_usb_hmsc_driver.c",470
000007B0 F80500                  		MOV.W #0000H, [R0]
000007B3 2Err                 B  		BRA L122
000007B5                         L114:	; bb75
                                 ;     471         break;
                                 ;     472     case USB_MSC_CSW_NG:
                                 ;     473         return USB_HMSC_CSW_ERR;
                                 		.LINE  "C:\Workspace\e2studio\git\MT01_master\r_usb_hmsc\src\r_usb_hmsc_driver.c",473
000007B5 F809FBFF                		MOV.W #0FFFBH, [R0]
000007B9 2Err                 B  		BRA L122
000007BB                         L115:	; bb77
                                 ;     474         break;
                                 ;     475     case USB_MSC_CSW_PHASE_ERR:
                                 ;     476         usb_shmsc_Process[ptr->ip] = USB_MSG_HMSC_CSW_PHASE_ERR;
                                 		.LINE  "C:\Workspace\e2studio\git\MT01_master\r_usb_hmsc\src\r_usb_hmsc_driver.c",476
000007BB A889                    		MOV.L 0CH[R0], R1
000007BD B991                    		MOVU.W 0CH[R1], R1
000007BF FBE2rrrrrrrr            		MOV.L #_usb_shmsc_Process, R14
000007C5 FBFA0505                		MOV.L #00000505H, R15
000007C9 FE11EF                  		MOV.W R15, [R1,R14]
000007CC                         L116:	; bb77.split
                                 ;     477         usb_shmsc_StallErrSeq[ptr->ip] = USB_SEQ_0;
                                 		.LINE  "C:\Workspace\e2studio\git\MT01_master\r_usb_hmsc\src\r_usb_hmsc_driver.c",477
000007CC A889                    		MOV.L 0CH[R0], R1
000007CE B991                    		MOVU.W 0CH[R1], R1
000007D0 FBE2rrrrrrrr            		MOV.L #_usb_shmsc_StallErrSeq, R14
000007D6 660F                    		MOV.L #00000000H, R15
000007D8 FE11EF                  		MOV.W R15, [R1,R14]
000007DB                         L117:	; bb77.split2
                                 ;     478         mess->keyword = drvnum;
                                 		.LINE  "C:\Workspace\e2studio\git\MT01_master\r_usb_hmsc\src\r_usb_hmsc_driver.c",478
000007DB 9909                    		MOV.W 0AH[R0], R1
000007DD A80A                    		MOV.L 04H[R0], R2
000007DF 90A9                    		MOV.W R1, 06H[R2]
000007E1                         L118:	; bb77.split3
                                 ;     479         mess->msginfo = usb_shmsc_Process[ptr->ip];
                                 		.LINE  "C:\Workspace\e2studio\git\MT01_master\r_usb_hmsc\src\r_usb_hmsc_driver.c",479
000007E1 A889                    		MOV.L 0CH[R0], R1
000007E3 B991                    		MOVU.W 0CH[R1], R1
000007E5 FBE2rrrrrrrr            		MOV.L #_usb_shmsc_Process, R14
000007EB FE51E1                  		MOV.W [R1,R14], R1
000007EE A80A                    		MOV.L 04H[R0], R2
000007F0 90A1                    		MOV.W R1, 04H[R2]
000007F2                         L119:	; bb77.split4
                                 ;     480         usb_hmsc_SpecifiedPath((USB_CLSINFO_t *)mess );
                                 		.LINE  "C:\Workspace\e2studio\git\MT01_master\r_usb_hmsc\src\r_usb_hmsc_driver.c",480
000007F2 A809                    		MOV.L 04H[R0], R1
000007F4 39rrrr               W  		BSR _usb_hmsc_SpecifiedPath
000007F7                         L120:	; bb77.split5
                                 ;     481         return USB_HMSC_CSW_PHASE_ERR;
                                 		.LINE  "C:\Workspace\e2studio\git\MT01_master\r_usb_hmsc\src\r_usb_hmsc_driver.c",481
000007F7 F809FAFF                		MOV.W #0FFFAH, [R0]
000007FB 08                   S  		BRA L122
000007FC                         L121:	; bb102
                                 ;     482         break;
                                 ;     483     default:
                                 ;     484         break;
                                 ;     485     }
                                 ;     486     USB_PRINTF1("### CSW status error 0x%2x.\n", usb_ghmsc_Csw[ptr->ip][msgnum].bCSWStatus);
                                 ;     487     return USB_HMSC_CSW_ERR;
                                 		.LINE  "C:\Workspace\e2studio\git\MT01_master\r_usb_hmsc\src\r_usb_hmsc_driver.c",487
000007FC F809FBFF                		MOV.W #0FFFBH, [R0]
00000800                         L122:	; bb104
00000800 D40004                  		MOV.W [R0], 08H[R0]
                                 ;     488 }   /* eof usb_hmsc_CheckCsw() */
                                 		.LINE  "C:\Workspace\e2studio\git\MT01_master\r_usb_hmsc\src\r_usb_hmsc_driver.c",488
00000803 B901                    		MOVU.W 08H[R0], R1
00000805 6704                    		RTSD #10H
00000807                         _usb_hmsc_SmpBotDescriptor:
                                 		.STACK	_usb_hmsc_SmpBotDescriptor=20
                                 ;     489 
                                 ;     490 /******************************************************************************
                                 ;     491 Function Name   : usb_hmsc_SmpBotDescriptor
                                 ;     492 Description     : BOT Descriptor
                                 ;     493 Arguments       : uint8_t *table : 
                                 ;     494                 : uint16_t msgnum : 
                                 ;     495 Return value    : uint16_t : 
                                 ;     496 ******************************************************************************/
                                 ;     497 uint16_t usb_hmsc_SmpBotDescriptor(USB_UTR_t *ptr, uint8_t *table, uint16_t msgnum)
                                 		.LINE  "C:\Workspace\e2studio\git\MT01_master\r_usb_hmsc\src\r_usb_hmsc_driver.c",497
00000807 7100F0                  		ADD #0FFFFFFF0H, R0
0000080A A089                    		MOV.L R1, 0CH[R0]
0000080C A082                    		MOV.L R2, 08H[R0]
0000080E 908B                    		MOV.W R3, 06H[R0]
                                 ;     498 {
                                 ;     499     /* Check Descriptor */
                                 ;     500     switch( table[1] )
                                 		.LINE  "C:\Workspace\e2studio\git\MT01_master\r_usb_hmsc\src\r_usb_hmsc_driver.c",500
00000810 A881                    		MOV.L 08H[R0], R1
00000812 B019                    		MOVU.B 01H[R1], R1
00000814 6181                    		CMP #08H, R1
00000816 3Arrrr               W  		BEQ L152
00000819                         L124:	; entry
00000819 6121                    		CMP #02H, R1
0000081B 20rr                    		BEQ L132
0000081D                         L125:	; entry
0000081D 6131                    		CMP #03H, R1
0000081F 20rr                    		BEQ L133
00000821                         L126:	; entry
00000821 6141                    		CMP #04H, R1
00000823 20rr                    		BEQ L134
00000825                         L127:	; entry
00000825 6151                    		CMP #05H, R1
00000827 3Arrrr               W  		BEQ L149
0000082A                         L128:	; entry
0000082A 6161                    		CMP #06H, R1
0000082C 3Arrrr               W  		BEQ L150
0000082F                         L129:	; entry
0000082F 6171                    		CMP #07H, R1
00000831 3Arrrr               W  		BEQ L151
00000834                         L130:	; entry
00000834 6111                    		CMP #01H, R1
00000836 3Brrrr               W  		BNE L153
00000839                         L131:	; bb
                                 ;     501     {
                                 ;     502     /* Device Descriptor */
                                 ;     503     case USB_DT_DEVICE:
                                 ;     504         USB_PRINTF0("### Not Interface descriptor (Device Desc).\n");
                                 ;     505         return USB_ERROR;
                                 		.LINE  "C:\Workspace\e2studio\git\MT01_master\r_usb_hmsc\src\r_usb_hmsc_driver.c",505
00000839 F90901FFFF              		MOV.W #0FFFFH, 02H[R0]
0000083E 38rrrr               W  		BRA L154
00000841                         L132:	; bb9
                                 ;     506         break;
                                 ;     507     /* Configuration Descriptor */
                                 ;     508     case USB_DT_CONFIGURATION:
                                 ;     509         USB_PRINTF0("### Not Interface descriptor (Config Desc).\n");
                                 ;     510         return USB_ERROR;
                                 		.LINE  "C:\Workspace\e2studio\git\MT01_master\r_usb_hmsc\src\r_usb_hmsc_driver.c",510
00000841 F90901FFFF              		MOV.W #0FFFFH, 02H[R0]
00000846 38rrrr               W  		BRA L154
00000849                         L133:	; bb11
                                 ;     511         break;
                                 ;     512     /* String Descriptor */
                                 ;     513     case USB_DT_STRING:
                                 ;     514         USB_PRINTF0("### Not Interface descriptor (String Desc).\n");
                                 ;     515         return USB_ERROR;
                                 		.LINE  "C:\Workspace\e2studio\git\MT01_master\r_usb_hmsc\src\r_usb_hmsc_driver.c",515
00000849 F90901FFFF              		MOV.W #0FFFFH, 02H[R0]
0000084E 38rrrr               W  		BRA L154
00000851                         L134:	; bb14
                                 ;     516         break;
                                 ;     517     /* Interface Descriptor ? */
                                 ;     518     case USB_DT_INTERFACE:
                                 ;     519         /* Check Interface Descriptor (deviceclass) */
                                 ;     520         if( table[5] != USB_IFCLS_MAS )
                                 		.LINE  "C:\Workspace\e2studio\git\MT01_master\r_usb_hmsc\src\r_usb_hmsc_driver.c",520
00000851 A881                    		MOV.L 08H[R0], R1
00000853 B119                    		MOVU.B 05H[R1], R1
00000855 6181                    		CMP #08H, R1
00000857 10                   S  		BEQ L136
00000858                         L135:	; bb15
                                 ;     521         {
                                 ;     522             USB_PRINTF1("### Interface deviceclass is %x , not support.\n", table[5]);
                                 ;     523             return USB_ERROR;
                                 		.LINE  "C:\Workspace\e2studio\git\MT01_master\r_usb_hmsc\src\r_usb_hmsc_driver.c",523
00000858 F90901FFFF              		MOV.W #0FFFFH, 02H[R0]
0000085D 38rrrr               W  		BRA L154
00000860                         L136:	; bb24
                                 ;     524         }
                                 ;     525         /* Check Interface Descriptor (subclass) */
                                 ;     526         if( table[6] == USB_ATAPI )
                                 		.LINE  "C:\Workspace\e2studio\git\MT01_master\r_usb_hmsc\src\r_usb_hmsc_driver.c",526
00000860 A881                    		MOV.L 08H[R0], R1
00000862 B191                    		MOVU.B 06H[R1], R1
00000864 6151                    		CMP #05H, R1
00000866 21rr                    		BNE L138
00000868                         L137:	; bb25
                                 ;     527         {
                                 ;     528             USB_PRINTF0("    Interface subclass  : SFF-8070i\n");
                                 ;     529             /* ATAPI Command */
                                 ;     530             usb_ghmsc_AtapiFlag[ptr->ip][msgnum] = USB_ATAPI;
                                 		.LINE  "C:\Workspace\e2studio\git\MT01_master\r_usb_hmsc\src\r_usb_hmsc_driver.c",530
00000868 A889                    		MOV.L 0CH[R0], R1
0000086A B991                    		MOVU.W 0CH[R1], R1
0000086C 6C31                    		SHLL #03H, R1
0000086E FBE2rrrrrrrr            		MOV.L #_usb_ghmsc_AtapiFlag, R14
00000874 4B1E                    		ADD R1, R14
00000876 665F                    		MOV.L #00000005H, R15
00000878 B889                    		MOVU.W 06H[R0], R1
0000087A FE0E1F                  		MOV.B R15, [R14,R1]
0000087D 2Err                 B  		BRA L144
0000087F                         L138:	; bb36
                                 ;     531         }
                                 ;     532         else if (table[6] == USB_SCSI)
                                 		.LINE  "C:\Workspace\e2studio\git\MT01_master\r_usb_hmsc\src\r_usb_hmsc_driver.c",532
0000087F A881                    		MOV.L 08H[R0], R1
00000881 B191                    		MOVU.B 06H[R1], R1
00000883 6161                    		CMP #06H, R1
00000885 21rr                    		BNE L140
00000887                         L139:	; bb37
                                 ;     533         {
                                 ;     534             USB_PRINTF0(
                                 ;     535                 "Interface subclass  : SCSI transparent command set\n");
                                 ;     536             /* SCSI Command */
                                 ;     537             usb_ghmsc_AtapiFlag[ptr->ip][msgnum] = USB_SCSI;
                                 		.LINE  "C:\Workspace\e2studio\git\MT01_master\r_usb_hmsc\src\r_usb_hmsc_driver.c",537
00000887 A889                    		MOV.L 0CH[R0], R1
00000889 B991                    		MOVU.W 0CH[R1], R1
0000088B 6C31                    		SHLL #03H, R1
0000088D FBE2rrrrrrrr            		MOV.L #_usb_ghmsc_AtapiFlag, R14
00000893 4B1E                    		ADD R1, R14
00000895 666F                    		MOV.L #00000006H, R15
00000897 B889                    		MOVU.W 06H[R0], R1
00000899 FE0E1F                  		MOV.B R15, [R14,R1]
0000089C 2Err                 B  		BRA L144
0000089E                         L140:	; bb48
                                 ;     538         }
                                 ;     539         else if (table[6] == USB_ATAPI_MMC5)
                                 		.LINE  "C:\Workspace\e2studio\git\MT01_master\r_usb_hmsc\src\r_usb_hmsc_driver.c",539
0000089E A889                    		MOV.L 0CH[R0], R1
000008A0 B991                    		MOVU.W 0CH[R1], R1
000008A2 6C31                    		SHLL #03H, R1
000008A4 FBE2rrrrrrrr            		MOV.L #_usb_ghmsc_AtapiFlag, R14
000008AA 4B1E                    		ADD R1, R14
000008AC A881                    		MOV.L 08H[R0], R1
000008AE B191                    		MOVU.B 06H[R1], R1
000008B0 6121                    		CMP #02H, R1
000008B2 B889                    		MOVU.W 06H[R0], R1
000008B4 18                   S  		BNE L142
000008B5                         L141:	; bb49
000008B5 662F                    		MOV.L #00000002H, R15
                                 ;     540         {
                                 ;     541             USB_PRINTF0("   Interface subclass   : ATAPI command set\n");
                                 ;     542             /* ATAPI Command */
                                 ;     543             usb_ghmsc_AtapiFlag[ptr->ip][msgnum] = USB_ATAPI_MMC5;
                                 		.LINE  "C:\Workspace\e2studio\git\MT01_master\r_usb_hmsc\src\r_usb_hmsc_driver.c",543
000008B7 FE01EF                  		MOV.B R15, [R1,R14]
000008BA 2Err                 B  		BRA L144
000008BC                         L142:	; bb59
000008BC 660F                    		MOV.L #00000000H, R15
                                 ;     544         }
                                 ;     545         else
                                 ;     546         {
                                 ;     547             USB_PRINTF1("### Interface subclass is %x , not support.\n", table[6]);
                                 ;     548             /* Unknown Command */
                                 ;     549             usb_ghmsc_AtapiFlag[ptr->ip][msgnum] = USB_NONE;
                                 		.LINE  "C:\Workspace\e2studio\git\MT01_master\r_usb_hmsc\src\r_usb_hmsc_driver.c",549
000008BE FE01EF                  		MOV.B R15, [R1,R14]
000008C1                         L143:	; bb59.split
                                 ;     550             return USB_ERROR;
                                 		.LINE  "C:\Workspace\e2studio\git\MT01_master\r_usb_hmsc\src\r_usb_hmsc_driver.c",550
000008C1 F90901FFFF              		MOV.W #0FFFFH, 02H[R0]
000008C6 2Err                 B  		BRA L154
000008C8                         L144:	; bb94
                                 ;     551         }
                                 ;     552         /* Check Interface Descriptor (protocol) */
                                 ;     553         if( table[7] == USB_BOTP )
                                 		.LINE  "C:\Workspace\e2studio\git\MT01_master\r_usb_hmsc\src\r_usb_hmsc_driver.c",553
000008C8 A881                    		MOV.L 08H[R0], R1
000008CA B199                    		MOVU.B 07H[R1], R1
000008CC 755150                  		CMP #50H, R1
000008CF 10                   S  		BEQ L146
000008D0                         L145:	; bb96
                                 ;     554         {
                                 ;     555             USB_PRINTF0("   Interface protocol   : BOT \n");
                                 ;     556         }
                                 ;     557         else
                                 ;     558         {
                                 ;     559             USB_PRINTF1("### Interface protocol is %x , not support.\n", table[7]);
                                 ;     560             return USB_ERROR;
                                 		.LINE  "C:\Workspace\e2studio\git\MT01_master\r_usb_hmsc\src\r_usb_hmsc_driver.c",560
000008D0 F90901FFFF              		MOV.W #0FFFFH, 02H[R0]
000008D5 2Err                 B  		BRA L154
000008D7                         L146:	; bb106
                                 ;     561         }
                                 ;     562         /* Check Endpoint number */
                                 ;     563         if( table[4] < USB_TOTALEP )
                                 		.LINE  "C:\Workspace\e2studio\git\MT01_master\r_usb_hmsc\src\r_usb_hmsc_driver.c",563
000008D7 A881                    		MOV.L 08H[R0], R1
000008D9 B111                    		MOVU.B 04H[R1], R1
000008DB 6111                    		CMP #01H, R1
000008DD 2Arr                    		BGT L148
000008DF                         L147:	; bb107
                                 ;     564         {
                                 ;     565             USB_PRINTF1("### Endpoint number is %x , less than 2.\n", table[4]);
                                 ;     566             return USB_ERROR;
                                 		.LINE  "C:\Workspace\e2studio\git\MT01_master\r_usb_hmsc\src\r_usb_hmsc_driver.c",566
000008DF F90901FFFF              		MOV.W #0FFFFH, 02H[R0]
000008E4 2Err                 B  		BRA L154
000008E6                         L148:	; bb116
                                 ;     567         }
                                 ;     568         return USB_DONE;
                                 		.LINE  "C:\Workspace\e2studio\git\MT01_master\r_usb_hmsc\src\r_usb_hmsc_driver.c",568
000008E6 3D0100                  		MOV.W #0000H, 02H[R0]
000008E9 2Err                 B  		BRA L154
000008EB                         L149:	; bb118
                                 ;     569         break;
                                 ;     570     /* Endpoint Descriptor */
                                 ;     571     case USB_DT_ENDPOINT:
                                 ;     572         USB_PRINTF0("### Not Interface descrip (Endpoint Desc).\n");
                                 ;     573         return USB_ERROR;
                                 		.LINE  "C:\Workspace\e2studio\git\MT01_master\r_usb_hmsc\src\r_usb_hmsc_driver.c",573
000008EB F90901FFFF              		MOV.W #0FFFFH, 02H[R0]
000008F0 2Err                 B  		BRA L154
000008F2                         L150:	; bb120
                                 ;     574         break;
                                 ;     575     /* Device Qualifier Descriptor */
                                 ;     576     case USB_DT_DEVICE_QUALIFIER:
                                 ;     577         USB_PRINTF0("### Not Interface descrip (Dev Qualifier Desc).\n");
                                 ;     578         return USB_ERROR;
                                 		.LINE  "C:\Workspace\e2studio\git\MT01_master\r_usb_hmsc\src\r_usb_hmsc_driver.c",578
000008F2 F90901FFFF              		MOV.W #0FFFFH, 02H[R0]
000008F7 2Err                 B  		BRA L154
000008F9                         L151:	; bb122
                                 ;     579         break;
                                 ;     580     /* Other Speed Configuration Descriptor */
                                 ;     581     case USB_DT_OTHER_SPEED_CONF:
                                 ;     582         USB_PRINTF0("### Not Interface descrip (Other Speed Config Desc).\n");
                                 ;     583         return USB_ERROR;
                                 		.LINE  "C:\Workspace\e2studio\git\MT01_master\r_usb_hmsc\src\r_usb_hmsc_driver.c",583
000008F9 F90901FFFF              		MOV.W #0FFFFH, 02H[R0]
000008FE 2Err                 B  		BRA L154
00000900                         L152:	; bb124
                                 ;     584         break;
                                 ;     585     /* Interface Power Descriptor */
                                 ;     586     case USB_DT_INTERFACE_POWER:
                                 ;     587         USB_PRINTF0("### Not Interface descrip (Interface Power Desc).\n");
                                 ;     588         return USB_ERROR;
                                 		.LINE  "C:\Workspace\e2studio\git\MT01_master\r_usb_hmsc\src\r_usb_hmsc_driver.c",588
00000900 F90901FFFF              		MOV.W #0FFFFH, 02H[R0]
00000905 08                   S  		BRA L154
00000906                         L153:	; bb127
                                 ;     589         break;
                                 ;     590     /* Not Descriptor */
                                 ;     591     default:
                                 ;     592         USB_PRINTF0("### Not Interface descrip ( Not Standard Desc ).\n");
                                 ;     593         break;
                                 ;     594     }
                                 ;     595     return USB_ERROR;
                                 		.LINE  "C:\Workspace\e2studio\git\MT01_master\r_usb_hmsc\src\r_usb_hmsc_driver.c",595
00000906 F90901FFFF              		MOV.W #0FFFFH, 02H[R0]
0000090B                         L154:	; bb129
0000090B D5000102                		MOV.W 02H[R0], 04H[R0]
                                 ;     596 }   /* eof usb_hmsc_SmpBotDescriptor() */
                                 		.LINE  "C:\Workspace\e2studio\git\MT01_master\r_usb_hmsc\src\r_usb_hmsc_driver.c",596
0000090F B881                    		MOVU.W 04H[R0], R1
00000911 6704                    		RTSD #10H
00000913                         _usb_hmsc_SmpPipeInfo:
                                 		.STACK	_usb_hmsc_SmpPipeInfo=36
                                 ;     597 
                                 ;     598 /******************************************************************************
                                 ;     599 Function Name   : usb_hmsc_SmpPipeInfo
                                 ;     600 Description     : Pipe Information
                                 ;     601 Arguments       : uint8_t *table : 
                                 ;     602                 : uint16_t msgnum : 
                                 ;     603                 : uint16_t speed : 
                                 ;     604                 : uint16_t length : 
                                 ;     605 Return value    : uint16_t : 
                                 ;     606 ******************************************************************************/
                                 ;     607 uint16_t usb_hmsc_SmpPipeInfo(USB_UTR_t *ptr, uint8_t *table, uint16_t msgnum, uint16_t speed, uint16_t length)
                                 		.LINE  "C:\Workspace\e2studio\git\MT01_master\r_usb_hmsc\src\r_usb_hmsc_driver.c",607
00000913 7100E0                  		ADD #0FFFFFFE0H, R0
00000916 A189                    		MOV.L R1, 1CH[R0]
00000918 A182                    		MOV.L R2, 18H[R0]
0000091A 928B                    		MOV.W R3, 16H[R0]
0000091C 9284                    		MOV.W R4, 14H[R0]
0000091E D5001209                		MOV.W 24H[R0], 12H[R0]
                                 ;     608 {
                                 ;     609     uint16_t        dirflag = 0;
                                 		.LINE  "C:\Workspace\e2studio\git\MT01_master\r_usb_hmsc\src\r_usb_hmsc_driver.c",609
00000922 3D0400                  		MOV.W #0000H, 08H[R0]
00000925                         L156:	; entry.split
                                 ;     610     uint16_t        ofdsc, offset;
                                 ;     611     uint16_t        retval;
                                 ;     612 
                                 ;     613     /* Check Descriptor */
                                 ;     614     if( table[1] != USB_DT_INTERFACE )
                                 		.LINE  "C:\Workspace\e2studio\git\MT01_master\r_usb_hmsc\src\r_usb_hmsc_driver.c",614
00000925 A981                    		MOV.L 18H[R0], R1
00000927 B019                    		MOVU.B 01H[R1], R1
00000929 6141                    		CMP #04H, R1
0000092B 10                   S  		BEQ L158
0000092C                         L157:	; bb11
                                 ;     615     {
                                 ;     616         /* Configuration Descriptor */
                                 ;     617         USB_PRINTF0("### Not Interface descriptor.\n");
                                 ;     618         return USB_ERROR;
                                 		.LINE  "C:\Workspace\e2studio\git\MT01_master\r_usb_hmsc\src\r_usb_hmsc_driver.c",618
0000092C F90903FFFF              		MOV.W #0FFFFH, 06H[R0]
00000931 38rrrr               W  		BRA L193
00000934                         L158:	; bb19
                                 ;     619     }
                                 ;     620 
                                 ;     621     offset = (uint16_t)(2u * USB_EPL * msgnum);
                                 		.LINE  "C:\Workspace\e2studio\git\MT01_master\r_usb_hmsc\src\r_usb_hmsc_driver.c",621
00000934 BA89                    		MOVU.W 16H[R0], R1
00000936 63C1                    		MUL #0CH, R1
00000938 9181                    		MOV.W R1, 0CH[R0]
0000093A                         L159:	; bb19.split
                                 ;     622 
                                 ;     623     /* Check Endpoint Descriptor */
                                 ;     624     ofdsc = table[0];
                                 		.LINE  "C:\Workspace\e2studio\git\MT01_master\r_usb_hmsc\src\r_usb_hmsc_driver.c",624
0000093A A981                    		MOV.L 18H[R0], R1
0000093C 5811                    		MOVU.B [R1], R1
0000093E 9109                    		MOV.W R1, 0AH[R0]
00000940                         L160:	; bb19.split1
                                 ;     625     /* Pipe initial */
                                 ;     626     usb_ghmsc_OutPipe[ptr->ip][msgnum][0]    = USB_NOPORT;
                                 		.LINE  "C:\Workspace\e2studio\git\MT01_master\r_usb_hmsc\src\r_usb_hmsc_driver.c",626
00000940 A989                    		MOV.L 1CH[R0], R1
00000942 B991                    		MOVU.W 0CH[R1], R1
00000944 6C51                    		SHLL #05H, R1
00000946 FBE2rrrrrrrr            		MOV.L #_usb_ghmsc_OutPipe, R14
0000094C 4B1E                    		ADD R1, R14
0000094E BA89                    		MOVU.W 16H[R0], R1
00000950 6C21                    		SHLL #02H, R1
00000952 4B1E                    		ADD R1, R14
00000954 F8E9FFFF                		MOV.W #0FFFFH, [R14]
00000958                         L161:	; bb19.split2
                                 ;     627     usb_ghmsc_InPipe[ptr->ip][msgnum][0]     = USB_NOPORT;
                                 		.LINE  "C:\Workspace\e2studio\git\MT01_master\r_usb_hmsc\src\r_usb_hmsc_driver.c",627
00000958 A989                    		MOV.L 1CH[R0], R1
0000095A B991                    		MOVU.W 0CH[R1], R1
0000095C 6C51                    		SHLL #05H, R1
0000095E FBE2rrrrrrrr            		MOV.L #_usb_ghmsc_InPipe, R14
00000964 4B1E                    		ADD R1, R14
00000966 BA89                    		MOVU.W 16H[R0], R1
00000968 6C21                    		SHLL #02H, R1
0000096A 4B1E                    		ADD R1, R14
0000096C F8E9FFFF                		MOV.W #0FFFFH, [R14]
00000970                         L162:	; bb19.split3
                                 ;     628     /* Toggle clear */
                                 ;     629     usb_ghmsc_OutPipe[ptr->ip][msgnum][1]    = 0;
                                 		.LINE  "C:\Workspace\e2studio\git\MT01_master\r_usb_hmsc\src\r_usb_hmsc_driver.c",629
00000970 A989                    		MOV.L 1CH[R0], R1
00000972 B991                    		MOVU.W 0CH[R1], R1
00000974 6C51                    		SHLL #05H, R1
00000976 FB22rrrrrrrr            		MOV.L #_usb_ghmsc_OutPipe, R2
0000097C 4B12                    		ADD R1, R2
0000097E BA89                    		MOVU.W 16H[R0], R1
00000980 6C21                    		SHLL #02H, R1
00000982 4B12                    		ADD R1, R2
00000984 3D2100                  		MOV.W #0000H, 02H[R2]
00000987                         L163:	; bb19.split4
                                 ;     630     usb_ghmsc_InPipe[ptr->ip][msgnum][1]     = 0;
                                 		.LINE  "C:\Workspace\e2studio\git\MT01_master\r_usb_hmsc\src\r_usb_hmsc_driver.c",630
00000987 A989                    		MOV.L 1CH[R0], R1
00000989 B991                    		MOVU.W 0CH[R1], R1
0000098B 6C51                    		SHLL #05H, R1
0000098D FB22rrrrrrrr            		MOV.L #_usb_ghmsc_InPipe, R2
00000993 4B12                    		ADD R1, R2
00000995 BA89                    		MOVU.W 16H[R0], R1
00000997 6C21                    		SHLL #02H, R1
00000999 4B12                    		ADD R1, R2
0000099B 3D2100                  		MOV.W #0000H, 02H[R2]
0000099E 38rrrr               W  		BRA L191
000009A1                         L164:	; bb72
                                 ;     631     while( ofdsc < (length - table[0]) )
                                 ;     632     {
                                 ;     633         /* Search within Interface */
                                 ;     634         switch( table[ofdsc + 1] )
                                 		.LINE  "C:\Workspace\e2studio\git\MT01_master\r_usb_hmsc\src\r_usb_hmsc_driver.c",634
000009A1 B909                    		MOVU.W 0AH[R0], R1
000009A3 06890106                		ADD 18H[R0].L, R1
000009A7 B019                    		MOVU.B 01H[R1], R1
000009A9 711EFA                  		ADD #0FFFFFFFAH, R1, R14
000009AC 613E                    		CMP #03H, R14
000009AE 22rr                  * 		BLTU L189
         38rrrr                  
000009B3                         L165:	; bb72
000009B3 6151                    		CMP #05H, R1
000009B5 20rr                    		BEQ L168
000009B7                         L166:	; bb72
000009B7 6011                    		SUB #01H, R1
000009B9 6131                    		CMP #03H, R1
000009BB 25rr                  * 		BGTU L190
         38rrrr                  
000009C0                         L167:	; bb80
                                 ;     635         {
                                 ;     636         /* Device Descriptor ? */
                                 ;     637         case USB_DT_DEVICE:
                                 ;     638         /* Configuration Descriptor ? */
                                 ;     639         case USB_DT_CONFIGURATION:
                                 ;     640         /* String Descriptor ? */
                                 ;     641         case USB_DT_STRING:
                                 ;     642         /* Interface Descriptor ? */
                                 ;     643         case USB_DT_INTERFACE:
                                 ;     644             USB_PRINTF0("### Endpoint Descriptor error.\n");
                                 ;     645             return USB_ERROR;
                                 		.LINE  "C:\Workspace\e2studio\git\MT01_master\r_usb_hmsc\src\r_usb_hmsc_driver.c",645
000009C0 F90903FFFF              		MOV.W #0FFFFH, 06H[R0]
000009C5 38rrrr               W  		BRA L193
000009C8                         L168:	; bb83
                                 ;     646             break;
                                 ;     647         /* Endpoint Descriptor */
                                 ;     648         case USB_DT_ENDPOINT:
                                 ;     649             /* Bulk Endpoint */
                                 ;     650             if( (table[ofdsc + 3] & USB_EP_TRNSMASK) == USB_EP_BULK )
                                 		.LINE  "C:\Workspace\e2studio\git\MT01_master\r_usb_hmsc\src\r_usb_hmsc_driver.c",650
000009C8 B909                    		MOVU.W 0AH[R0], R1
000009CA 06890106                		ADD 18H[R0].L, R1
000009CE B099                    		MOVU.B 03H[R1], R1
000009D0 6431                    		AND #03H, R1
000009D2 6121                    		CMP #02H, R1
000009D4 3Brrrr               W  		BNE L188
000009D7                         L169:	; bb84
                                 ;     651             {
                                 ;     652                 switch( dirflag )
                                 		.LINE  "C:\Workspace\e2studio\git\MT01_master\r_usb_hmsc\src\r_usb_hmsc_driver.c",652
000009D7 B901                    		MOVU.W 08H[R0], R1
000009D9 6111                    		CMP #01H, R1
000009DB 20rr                    		BEQ L177
000009DD                         L170:	; bb84
000009DD 6101                    		CMP #00H, R1
000009DF 3Brrrr               W  		BNE L188
000009E2                         L171:	; bb87
                                 ;     653                 {
                                 ;     654                 case 0:
                                 ;     655                     retval = R_usb_hstd_ChkPipeInfo(speed, &usb_ghmsc_PipeTable[ptr->ip][offset], &table[ofdsc]);
                                 		.LINE  "C:\Workspace\e2studio\git\MT01_master\r_usb_hmsc\src\r_usb_hmsc_driver.c",655
000009E2 A989                    		MOV.L 1CH[R0], R1
000009E4 B991                    		MOVU.W 0CH[R1], R1
000009E6 6C21                    		SHLL #02H, R1
000009E8 FBE2rrrrrrrr            		MOV.L #_usb_ghmsc_PipeTable, R14
000009EE 4B1E                    		ADD R1, R14
000009F0 B982                    		MOVU.W 0CH[R0], R2
000009F2 6C12                    		SHLL #01H, R2
000009F4 0688E2                  		ADD [R14].L, R2
000009F7 A983                    		MOV.L 18H[R0], R3
000009F9 06C90305                		ADD 0AH[R0].UW, R3
000009FD BA81                    		MOVU.W 14H[R0], R1
000009FF 05rrrrrr             A  		BSR _R_usb_hstd_ChkPipeInfo
00000A03 9189                    		MOV.W R1, 0EH[R0]
00000A05                         L172:	; bb87.split
                                 ;     656                     if( retval == USB_DIR_H_OUT )
                                 		.LINE  "C:\Workspace\e2studio\git\MT01_master\r_usb_hmsc\src\r_usb_hmsc_driver.c",656
00000A05 B989                    		MOVU.W 0EH[R0], R1
00000A07 755110                  		CMP #10H, R1
00000A0A 21rr                    		BNE L174
00000A0C                         L173:	; bb104
                                 ;     657                     {
                                 ;     658                         usb_ghmsc_OutPipe[ptr->ip][msgnum][0] = offset;
                                 		.LINE  "C:\Workspace\e2studio\git\MT01_master\r_usb_hmsc\src\r_usb_hmsc_driver.c",658
00000A0C A989                    		MOV.L 1CH[R0], R1
00000A0E B991                    		MOVU.W 0CH[R1], R1
00000A10 6C51                    		SHLL #05H, R1
00000A12 FBE2rrrrrrrr            		MOV.L #_usb_ghmsc_OutPipe, R14
00000A18 4B1E                    		ADD R1, R14
00000A1A BA89                    		MOVU.W 16H[R0], R1
00000A1C 6C21                    		SHLL #02H, R1
00000A1E 4B1E                    		ADD R1, R14
00000A20 D10E06                  		MOV.W 0CH[R0], [R14]
00000A23                         L174:	; bb123
                                 ;     659                     }
                                 ;     660                     if( retval == USB_DIR_H_IN )
                                 		.LINE  "C:\Workspace\e2studio\git\MT01_master\r_usb_hmsc\src\r_usb_hmsc_driver.c",660
00000A23 B989                    		MOVU.W 0EH[R0], R1
00000A25 6101                    		CMP #00H, R1
00000A27 21rr                    		BNE L176
00000A29                         L175:	; bb124
                                 ;     661                     {
                                 ;     662                         usb_ghmsc_InPipe[ptr->ip][msgnum][0] = offset;
                                 		.LINE  "C:\Workspace\e2studio\git\MT01_master\r_usb_hmsc\src\r_usb_hmsc_driver.c",662
00000A29 A989                    		MOV.L 1CH[R0], R1
00000A2B B991                    		MOVU.W 0CH[R1], R1
00000A2D 6C51                    		SHLL #05H, R1
00000A2F FBE2rrrrrrrr            		MOV.L #_usb_ghmsc_InPipe, R14
00000A35 4B1E                    		ADD R1, R14
00000A37 BA89                    		MOVU.W 16H[R0], R1
00000A39 6C21                    		SHLL #02H, R1
00000A3B 4B1E                    		ADD R1, R14
00000A3D D10E06                  		MOV.W 0CH[R0], [R14]
00000A40                         L176:	; bb142
                                 ;     663                     }
                                 ;     664                     dirflag++;
                                 		.LINE  "C:\Workspace\e2studio\git\MT01_master\r_usb_hmsc\src\r_usb_hmsc_driver.c",664
00000A40 9901                    		MOV.W 08H[R0], R1
00000A42 6211                    		ADD #01H, R1
00000A44 9101                    		MOV.W R1, 08H[R0]
00000A46 38rrrr               W  		BRA L188
00000A49                         L177:	; bb145
                                 ;     665                     break;
                                 ;     666                 case 1:
                                 ;     667                     retval = R_usb_hstd_ChkPipeInfo(speed, &usb_ghmsc_PipeTable[ptr->ip][offset + USB_EPL],
                                 		.LINE  "C:\Workspace\e2studio\git\MT01_master\r_usb_hmsc\src\r_usb_hmsc_driver.c",667
00000A49 A989                    		MOV.L 1CH[R0], R1
00000A4B B991                    		MOVU.W 0CH[R1], R1
00000A4D 6C21                    		SHLL #02H, R1
00000A4F FBE2rrrrrrrr            		MOV.L #_usb_ghmsc_PipeTable, R14
00000A55 4B1E                    		ADD R1, R14
00000A57 B982                    		MOVU.W 0CH[R0], R2
00000A59 6C12                    		SHLL #01H, R2
00000A5B 0688E2                  		ADD [R14].L, R2
00000A5E A983                    		MOV.L 18H[R0], R3
00000A60 06C90305                		ADD 0AH[R0].UW, R3
00000A64 BA81                    		MOVU.W 14H[R0], R1
00000A66 62C2                    		ADD #0CH, R2
00000A68 05rrrrrr             A  		BSR _R_usb_hstd_ChkPipeInfo
00000A6C 9189                    		MOV.W R1, 0EH[R0]
00000A6E                         L178:	; bb145.split
                                 ;     668                                 &table[ofdsc]);
                                 ;     669                     if( retval == USB_DIR_H_OUT )
                                 		.LINE  "C:\Workspace\e2studio\git\MT01_master\r_usb_hmsc\src\r_usb_hmsc_driver.c",669
00000A6E B989                    		MOVU.W 0EH[R0], R1
00000A70 755110                  		CMP #10H, R1
00000A73 21rr                    		BNE L180
00000A75                         L179:	; bb163
                                 ;     670                     {
                                 ;     671                         usb_ghmsc_OutPipe[ptr->ip][msgnum][0] = (uint16_t)(offset + USB_EPL);
                                 		.LINE  "C:\Workspace\e2studio\git\MT01_master\r_usb_hmsc\src\r_usb_hmsc_driver.c",671
00000A75 A989                    		MOV.L 1CH[R0], R1
00000A77 B991                    		MOVU.W 0CH[R1], R1
00000A79 6C51                    		SHLL #05H, R1
00000A7B FBE2rrrrrrrr            		MOV.L #_usb_ghmsc_OutPipe, R14
00000A81 4B1E                    		ADD R1, R14
00000A83 BA89                    		MOVU.W 16H[R0], R1
00000A85 6C21                    		SHLL #02H, R1
00000A87 4B1E                    		ADD R1, R14
00000A89 B981                    		MOVU.W 0CH[R0], R1
00000A8B 6261                    		ADD #06H, R1
00000A8D D3E1                    		MOV.W R1, [R14]
00000A8F                         L180:	; bb185
                                 ;     672                     }
                                 ;     673                     if( retval == USB_DIR_H_IN )
                                 		.LINE  "C:\Workspace\e2studio\git\MT01_master\r_usb_hmsc\src\r_usb_hmsc_driver.c",673
00000A8F B989                    		MOVU.W 0EH[R0], R1
00000A91 6101                    		CMP #00H, R1
00000A93 21rr                    		BNE L182
00000A95                         L181:	; bb186
                                 ;     674                     {
                                 ;     675                         usb_ghmsc_InPipe[ptr->ip][msgnum][0] = (uint16_t)(offset + USB_EPL);
                                 		.LINE  "C:\Workspace\e2studio\git\MT01_master\r_usb_hmsc\src\r_usb_hmsc_driver.c",675
00000A95 A989                    		MOV.L 1CH[R0], R1
00000A97 B991                    		MOVU.W 0CH[R1], R1
00000A99 6C51                    		SHLL #05H, R1
00000A9B FBE2rrrrrrrr            		MOV.L #_usb_ghmsc_InPipe, R14
00000AA1 4B1E                    		ADD R1, R14
00000AA3 BA89                    		MOVU.W 16H[R0], R1
00000AA5 6C21                    		SHLL #02H, R1
00000AA7 4B1E                    		ADD R1, R14
00000AA9 B981                    		MOVU.W 0CH[R0], R1
00000AAB 6261                    		ADD #06H, R1
00000AAD D3E1                    		MOV.W R1, [R14]
00000AAF                         L182:	; bb208
                                 ;     676                     }
                                 ;     677                     if( (usb_ghmsc_InPipe[ptr->ip][msgnum][0] != USB_NOPORT) &&
                                 		.LINE  "C:\Workspace\e2studio\git\MT01_master\r_usb_hmsc\src\r_usb_hmsc_driver.c",677
00000AAF A989                    		MOV.L 1CH[R0], R1
00000AB1 B991                    		MOVU.W 0CH[R1], R1
00000AB3 6C51                    		SHLL #05H, R1
00000AB5 FBE2rrrrrrrr            		MOV.L #_usb_ghmsc_InPipe, R14
00000ABB 4B1E                    		ADD R1, R14
00000ABD BA89                    		MOVU.W 16H[R0], R1
00000ABF 6C21                    		SHLL #02H, R1
00000AC1 4B1E                    		ADD R1, R14
00000AC3 5CEE                    		MOVU.W [R14], R14
00000AC5 770EFFFF00              		CMP #0FFFFH, R14
00000ACA 18                   S  		BNE L184
00000ACB 2Err                 B  		BRA L186
00000ACD                         L183:	; bb209
                                 ;     678                         (usb_ghmsc_OutPipe[ptr->ip][msgnum][0] != USB_NOPORT) )
                                 ;     679                     {
                                 ;     680                         return USB_DONE;
                                 		.LINE  "C:\Workspace\e2studio\git\MT01_master\r_usb_hmsc\src\r_usb_hmsc_driver.c",680
00000ACD 3D0300                  		MOV.W #0000H, 06H[R0]
00000AD0 2Err                 B  		BRA L193
00000AD2                         L184:	; bb226
00000AD2 A989                    		MOV.L 1CH[R0], R1
00000AD4 B991                    		MOVU.W 0CH[R1], R1
00000AD6 6C51                    		SHLL #05H, R1
00000AD8 FBE2rrrrrrrr            		MOV.L #_usb_ghmsc_OutPipe, R14
00000ADE 4B1E                    		ADD R1, R14
00000AE0 BA89                    		MOVU.W 16H[R0], R1
00000AE2 6C21                    		SHLL #02H, R1
00000AE4 4B1E                    		ADD R1, R14
00000AE6 5CEE                    		MOVU.W [R14], R14
00000AE8 770EFFFF00              		CMP #0FFFFH, R14
00000AED 10                   S  		BEQ L186
00000AEE                         L185:	; bb242
00000AEE F80601                  		MOV.L #00000001H, [R0]
00000AF1 08                   S  		BRA L187
00000AF2                         L186:	; bb243
00000AF2 F80600                  		MOV.L #00000000H, [R0]
00000AF5                         L187:	; bb244
00000AF5 EC01                    		MOV.L [R0], R1
00000AF7 6101                    		CMP #00H, R1
00000AF9 21rr                    		BNE L183
00000AFB                         L188:	; bb263
                                 ;     681                     }
                                 ;     682                     USB_PRINTF0("### Endpoint Descriptor error.\n");
                                 ;     683                     break;
                                 ;     684                 default:
                                 ;     685                     break;
                                 ;     686                 }
                                 ;     687             }
                                 ;     688             ofdsc += table[ofdsc];
                                 		.LINE  "C:\Workspace\e2studio\git\MT01_master\r_usb_hmsc\src\r_usb_hmsc_driver.c",688
00000AFB B909                    		MOVU.W 0AH[R0], R1
00000AFD EF1E                    		MOV.L R1, R14
00000AFF 06890E06                		ADD 18H[R0].L, R14
00000B03 48E1                    		ADD [R14].UB, R1
00000B05 9109                    		MOV.W R1, 0AH[R0]
00000B07 2Err                 B  		BRA L191
00000B09                         L189:	; bb274
                                 ;     689             break;
                                 ;     690         /* Device Qualifier Descriptor */
                                 ;     691         case USB_DT_DEVICE_QUALIFIER:
                                 ;     692         /* Other Speed Configuration Descriptor */
                                 ;     693         case USB_DT_OTHER_SPEED_CONF:
                                 ;     694         /* Interface Power Descriptor */
                                 ;     695         case USB_DT_INTERFACE_POWER:
                                 ;     696             USB_PRINTF0("### Endpoint Descriptor error.\n");
                                 ;     697             return USB_ERROR;
                                 		.LINE  "C:\Workspace\e2studio\git\MT01_master\r_usb_hmsc\src\r_usb_hmsc_driver.c",697
00000B09 F90903FFFF              		MOV.W #0FFFFH, 06H[R0]
00000B0E 2Err                 B  		BRA L193
00000B10                         L190:	; bb276
                                 ;     698             break;
                                 ;     699         /* Antoher Descriptor */
                                 ;     700         default:
                                 ;     701             ofdsc += table[ofdsc];
                                 		.LINE  "C:\Workspace\e2studio\git\MT01_master\r_usb_hmsc\src\r_usb_hmsc_driver.c",701
00000B10 B909                    		MOVU.W 0AH[R0], R1
00000B12 EF1E                    		MOV.L R1, R14
00000B14 06890E06                		ADD 18H[R0].L, R14
00000B18 48E1                    		ADD [R14].UB, R1
00000B1A 9109                    		MOV.W R1, 0AH[R0]
00000B1C                         L191:	; bb288
                                 		.LINE  "C:\Workspace\e2studio\git\MT01_master\r_usb_hmsc\src\r_usb_hmsc_driver.c",631
00000B1C BA09                    		MOVU.W 12H[R0], R1
00000B1E A982                    		MOV.L 18H[R0], R2
00000B20 4021                    		SUB [R2].UB, R1
00000B22 B90A                    		MOVU.W 0AH[R0], R2
00000B24 4712                    		CMP R1, R2
00000B26 28rr                  * 		BLT L164
         38rrrr                  
00000B2B                         L192:	; bb301
                                 ;     702             break;
                                 ;     703         }
                                 ;     704     }
                                 ;     705     return USB_ERROR;
                                 		.LINE  "C:\Workspace\e2studio\git\MT01_master\r_usb_hmsc\src\r_usb_hmsc_driver.c",705
00000B2B F90903FFFF              		MOV.W #0FFFFH, 06H[R0]
00000B30                         L193:	; bb303
00000B30 D5000308                		MOV.W 06H[R0], 10H[R0]
                                 ;     706 }   /* eof usb_hmsc_SmpPipeInfo() */
                                 		.LINE  "C:\Workspace\e2studio\git\MT01_master\r_usb_hmsc\src\r_usb_hmsc_driver.c",706
00000B34 BA01                    		MOVU.W 10H[R0], R1
00000B36 6708                    		RTSD #20H
00000B38                         _usb_hmsc_NoData:
                                 		.STACK	_usb_hmsc_NoData=56
                                 ;     707 
                                 ;     708 /******************************************************************************
                                 ;     709 Function Name   : usb_hmsc_NoData
                                 ;     710 Description     : HMSC No data
                                 ;     711 Arguments       : uint16_t drvnum : 
                                 ;     712 Return value    : uint16_t : 
                                 ;     713 ******************************************************************************/
                                 ;     714 uint16_t usb_hmsc_NoData(USB_UTR_t *ptr, uint16_t drvnum)
                                 		.LINE  "C:\Workspace\e2studio\git\MT01_master\r_usb_hmsc\src\r_usb_hmsc_driver.c",714
00000B38 7100CC                  		ADD #0FFFFFFCCH, R0
00000B3B A301                    		MOV.L R1, 30H[R0]
00000B3D 958A                    		MOV.W R2, 2EH[R0]
                                 ;     715 {
                                 ;     716     USB_CLSINFO_t mess;
                                 ;     717 #ifdef FREE_RTOS_PP
                                 ;     718     taskENTER_CRITICAL();
                                 		.LINE  "C:\Workspace\e2studio\git\MT01_master\r_usb_hmsc\src\r_usb_hmsc_driver.c",718
00000B3F 05rrrrrr             A  		BSR _vTaskEnterCritical
00000B43                         L195:	; entry.split
                                 ;     719 #endif
                                 ;     720 
                                 ;     721     mess.ip = ptr->ip;
                                 		.LINE  "C:\Workspace\e2studio\git\MT01_master\r_usb_hmsc\src\r_usb_hmsc_driver.c",721
00000B43 AB01                    		MOV.L 30H[R0], R1
00000B45 D5100606                		MOV.W 0CH[R1], 0CH[R0]
00000B49                         L196:	; entry.split1
                                 ;     722     mess.ipp = ptr->ipp;
                                 		.LINE  "C:\Workspace\e2studio\git\MT01_master\r_usb_hmsc\src\r_usb_hmsc_driver.c",722
00000B49 AB01                    		MOV.L 30H[R0], R1
00000B4B E5100202                		MOV.L 08H[R1], 08H[R0]
00000B4F                         L197:	; entry.split2
                                 ;     723 
                                 ;     724     mess.keyword = drvnum;
                                 		.LINE  "C:\Workspace\e2studio\git\MT01_master\r_usb_hmsc\src\r_usb_hmsc_driver.c",724
00000B4F D5001703                		MOV.W 2EH[R0], 06H[R0]
00000B53                         L198:	; entry.split3
                                 ;     725     usb_shmsc_Process[ptr->ip] = USB_MSG_HMSC_NO_DATA;
                                 		.LINE  "C:\Workspace\e2studio\git\MT01_master\r_usb_hmsc\src\r_usb_hmsc_driver.c",725
00000B53 AB01                    		MOV.L 30H[R0], R1
00000B55 B991                    		MOVU.W 0CH[R1], R1
00000B57 FBE2rrrrrrrr            		MOV.L #_usb_shmsc_Process, R14
00000B5D FBFA0105                		MOV.L #00000501H, R15
00000B61 FE11EF                  		MOV.W R15, [R1,R14]
00000B64                         L199:	; entry.split4
                                 ;     726     usb_shmsc_NoDataSeq[ptr->ip] = USB_SEQ_0;
                                 		.LINE  "C:\Workspace\e2studio\git\MT01_master\r_usb_hmsc\src\r_usb_hmsc_driver.c",726
00000B64 AB01                    		MOV.L 30H[R0], R1
00000B66 B991                    		MOVU.W 0CH[R1], R1
00000B68 FBE2rrrrrrrr            		MOV.L #_usb_shmsc_NoDataSeq, R14
00000B6E 660F                    		MOV.L #00000000H, R15
00000B70 FE11EF                  		MOV.W R15, [R1,R14]
00000B73                         L200:	; entry.split5
                                 ;     727     mess.msginfo = usb_shmsc_Process[ptr->ip];
                                 		.LINE  "C:\Workspace\e2studio\git\MT01_master\r_usb_hmsc\src\r_usb_hmsc_driver.c",727
00000B73 AB01                    		MOV.L 30H[R0], R1
00000B75 B991                    		MOVU.W 0CH[R1], R1
00000B77 FBE2rrrrrrrr            		MOV.L #_usb_shmsc_Process, R14
00000B7D FE51E1                  		MOV.W [R1,R14], R1
00000B80 9081                    		MOV.W R1, 04H[R0]
00000B82                         L201:	; entry.split6
                                 ;     728 #ifdef FREE_RTOS_PP
                                 ;     729     taskEXIT_CRITICAL();
                                 		.LINE  "C:\Workspace\e2studio\git\MT01_master\r_usb_hmsc\src\r_usb_hmsc_driver.c",729
00000B82 05rrrrrr             A  		BSR _vTaskExitCritical
00000B86                         L202:	; entry.split7
00000B86 EF01                    		MOV.L R0, R1
                                 ;     730 #endif
                                 ;     731     usb_hmsc_SpecifiedPath(&mess);
                                 		.LINE  "C:\Workspace\e2studio\git\MT01_master\r_usb_hmsc\src\r_usb_hmsc_driver.c",731
00000B88 39rrrr               W  		BSR _usb_hmsc_SpecifiedPath
00000B8B                         L203:	; entry.split8
                                 ;     732     return USB_DONE;
                                 		.LINE  "C:\Workspace\e2studio\git\MT01_master\r_usb_hmsc\src\r_usb_hmsc_driver.c",732
00000B8B 3D8600                  		MOV.W #0000H, 2CH[R0]
00000B8E 9D81                    		MOV.W 2CH[R0], R1
00000B90                         L204:	; entry.split9
                                 ;     733 }   /* eof usb_hmsc_NoData() */
                                 		.LINE  "C:\Workspace\e2studio\git\MT01_master\r_usb_hmsc\src\r_usb_hmsc_driver.c",733
00000B90 5F11                    		MOVU.W R1, R1
00000B92 670D                    		RTSD #34H
00000B94                         _usb_hmsc_NoDataAct:
                                 		.STACK	_usb_hmsc_NoDataAct=16
                                 ;     734 
                                 ;     735 /******************************************************************************
                                 ;     736 Function Name   : usb_hmsc_NoDataAct
                                 ;     737 Description     : No Data Request
                                 ;     738 Arguments       : USB_CLSINFO_t *mess : 
                                 ;     739 Return value    : uint16_t : 
                                 ;     740 ******************************************************************************/
                                 ;     741 uint16_t usb_hmsc_NoDataAct(USB_CLSINFO_t *mess)
                                 		.LINE  "C:\Workspace\e2studio\git\MT01_master\r_usb_hmsc\src\r_usb_hmsc_driver.c",741
00000B94 60C0                    		SUB #0CH, R0
00000B96 A081                    		MOV.L R1, 08H[R0]
                                 ;     742 {
                                 ;     743     uint16_t    hmsc_retval, result;
                                 ;     744     uint16_t    drvnum;
                                 ;     745     
                                 ;     746     drvnum = usb_ghmsc_RootDrive[mess->ip];
                                 		.LINE  "C:\Workspace\e2studio\git\MT01_master\r_usb_hmsc\src\r_usb_hmsc_driver.c",746
00000B98 B991                    		MOVU.W 0CH[R1], R1
00000B9A FBE2rrrrrrrr            		MOV.L #_usb_ghmsc_RootDrive, R14
00000BA0 FE51E1                  		MOV.W [R1,R14], R1
00000BA3 9081                    		MOV.W R1, 04H[R0]
00000BA5                         L206:	; entry.split
                                 ;     747     result = mess -> result;
                                 		.LINE  "C:\Workspace\e2studio\git\MT01_master\r_usb_hmsc\src\r_usb_hmsc_driver.c",747
00000BA5 A881                    		MOV.L 08H[R0], R1
00000BA7 D5100701                		MOV.W 0EH[R1], 02H[R0]
00000BAB                         L207:	; entry.split1
                                 ;     748     
                                 ;     749     switch( usb_shmsc_NoDataSeq[mess->ip] )
                                 		.LINE  "C:\Workspace\e2studio\git\MT01_master\r_usb_hmsc\src\r_usb_hmsc_driver.c",749
00000BAB A881                    		MOV.L 08H[R0], R1
00000BAD B991                    		MOVU.W 0CH[R1], R1
00000BAF FBE2rrrrrrrr            		MOV.L #_usb_shmsc_NoDataSeq, R14
00000BB5 FED1EE                  		MOVU.W [R1,R14], R14
00000BB8 614E                    		CMP #04H, R14
00000BBA 3Arrrr               W  		BEQ L236
00000BBD                         L208:	; entry.split1
00000BBD 611E                    		CMP #01H, R14
00000BBF 20rr                    		BEQ L219
00000BC1                         L209:	; entry.split1
00000BC1 612E                    		CMP #02H, R14
00000BC3 3Arrrr               W  		BEQ L222
00000BC6                         L210:	; entry.split1
00000BC6 613E                    		CMP #03H, R14
00000BC8 3Arrrr               W  		BEQ L233
00000BCB                         L211:	; entry.split1
00000BCB 610E                    		CMP #00H, R14
00000BCD 3Brrrr               W  		BNE L256
00000BD0                         L212:	; bb
                                 ;     750     {
                                 ;     751     case USB_SEQ_0:
                                 ;     752         /* CBW */
                                 ;     753         drvnum = mess -> keyword;
                                 		.LINE  "C:\Workspace\e2studio\git\MT01_master\r_usb_hmsc\src\r_usb_hmsc_driver.c",753
00000BD0 A881                    		MOV.L 08H[R0], R1
00000BD2 D5100302                		MOV.W 06H[R1], 04H[R0]
00000BD6                         L213:	; bb.split
                                 ;     754         usb_ghmsc_RootDrive[mess->ip] = drvnum;
                                 		.LINE  "C:\Workspace\e2studio\git\MT01_master\r_usb_hmsc\src\r_usb_hmsc_driver.c",754
00000BD6 A881                    		MOV.L 08H[R0], R1
00000BD8 B991                    		MOVU.W 0CH[R1], R1
00000BDA FBE2rrrrrrrr            		MOV.L #_usb_ghmsc_RootDrive, R14
00000BE0 9882                    		MOV.W 04H[R0], R2
00000BE2 FE11E2                  		MOV.W R2, [R1,R14]
00000BE5                         L214:	; bb.split2
                                 ;     755         hmsc_retval = usb_hmsc_SendCbw(mess, drvnum);
                                 		.LINE  "C:\Workspace\e2studio\git\MT01_master\r_usb_hmsc\src\r_usb_hmsc_driver.c",755
00000BE5 B882                    		MOVU.W 04H[R0], R2
00000BE7 A881                    		MOV.L 08H[R0], R1
00000BE9 05rrrrrr             A  		BSR _usb_hmsc_SendCbw
00000BED D301                    		MOV.W R1, [R0]
00000BEF                         L215:	; bb.split3
                                 ;     756         usb_shmsc_Process[mess->ip] = USB_MSG_HMSC_NO_DATA;
                                 		.LINE  "C:\Workspace\e2studio\git\MT01_master\r_usb_hmsc\src\r_usb_hmsc_driver.c",756
00000BEF A881                    		MOV.L 08H[R0], R1
00000BF1 B991                    		MOVU.W 0CH[R1], R1
00000BF3 FBE2rrrrrrrr            		MOV.L #_usb_shmsc_Process, R14
00000BF9 FBFA0105                		MOV.L #00000501H, R15
00000BFD FE11EF                  		MOV.W R15, [R1,R14]
00000C00                         L216:	; bb.split4
                                 ;     757         usb_shmsc_NoDataSeq[mess->ip]++;
                                 		.LINE  "C:\Workspace\e2studio\git\MT01_master\r_usb_hmsc\src\r_usb_hmsc_driver.c",757
00000C00 A881                    		MOV.L 08H[R0], R1
00000C02 B991                    		MOVU.W 0CH[R1], R1
00000C04 FBE2rrrrrrrr            		MOV.L #_usb_shmsc_NoDataSeq, R14
00000C0A FE51EF                  		MOV.W [R1,R14], R15
00000C0D 621F                    		ADD #01H, R15
00000C0F FE11EF                  		MOV.W R15, [R1,R14]
00000C12                         L217:	; bb.split5
                                 ;     758         mess->msginfo = usb_shmsc_Process[mess->ip];
                                 		.LINE  "C:\Workspace\e2studio\git\MT01_master\r_usb_hmsc\src\r_usb_hmsc_driver.c",758
00000C12 A881                    		MOV.L 08H[R0], R1
00000C14 B992                    		MOVU.W 0CH[R1], R2
00000C16 FBE2rrrrrrrr            		MOV.L #_usb_shmsc_Process, R14
00000C1C FE52E2                  		MOV.W [R2,R14], R2
00000C1F 9092                    		MOV.W R2, 04H[R1]
00000C21                         L218:	; bb.split6
                                 ;     759         usb_hmsc_SpecifiedPath((USB_CLSINFO_t *)mess);
                                 		.LINE  "C:\Workspace\e2studio\git\MT01_master\r_usb_hmsc\src\r_usb_hmsc_driver.c",759
00000C21 A881                    		MOV.L 08H[R0], R1
00000C23 39rrrr               W  		BSR _usb_hmsc_SpecifiedPath
00000C26 38rrrr               W  		BRA L258
00000C29                         L219:	; bb54
                                 ;     760         break;
                                 ;     761     case USB_SEQ_1:
                                 ;     762         hmsc_retval = usb_hmsc_SendCbwReq(mess, drvnum);
                                 		.LINE  "C:\Workspace\e2studio\git\MT01_master\r_usb_hmsc\src\r_usb_hmsc_driver.c",762
00000C29 B882                    		MOVU.W 04H[R0], R2
00000C2B A881                    		MOV.L 08H[R0], R1
00000C2D 05rrrrrr             A  		BSR _usb_hmsc_SendCbwReq
00000C31 D301                    		MOV.W R1, [R0]
00000C33                         L220:	; bb54.split
                                 ;     763         usb_shmsc_Process[mess->ip] = USB_MSG_HMSC_NO_DATA;
                                 		.LINE  "C:\Workspace\e2studio\git\MT01_master\r_usb_hmsc\src\r_usb_hmsc_driver.c",763
00000C33 A881                    		MOV.L 08H[R0], R1
00000C35 B991                    		MOVU.W 0CH[R1], R1
00000C37 FBE2rrrrrrrr            		MOV.L #_usb_shmsc_Process, R14
00000C3D FBFA0105                		MOV.L #00000501H, R15
00000C41 FE11EF                  		MOV.W R15, [R1,R14]
00000C44                         L221:	; bb54.split7
                                 ;     764         usb_shmsc_NoDataSeq[mess->ip]++;
                                 		.LINE  "C:\Workspace\e2studio\git\MT01_master\r_usb_hmsc\src\r_usb_hmsc_driver.c",764
00000C44 A881                    		MOV.L 08H[R0], R1
00000C46 B991                    		MOVU.W 0CH[R1], R1
00000C48 FBE2rrrrrrrr            		MOV.L #_usb_shmsc_NoDataSeq, R14
00000C4E FE51EF                  		MOV.W [R1,R14], R15
00000C51 621F                    		ADD #01H, R15
00000C53 FE11EF                  		MOV.W R15, [R1,R14]
00000C56 38rrrr               W  		BRA L258
00000C59                         L222:	; bb70
                                 ;     765         break;
                                 ;     766     case USB_SEQ_2:
                                 ;     767         hmsc_retval = usb_hmsc_SendCbwCheck(mess, drvnum, result);
                                 		.LINE  "C:\Workspace\e2studio\git\MT01_master\r_usb_hmsc\src\r_usb_hmsc_driver.c",767
00000C59 B80B                    		MOVU.W 02H[R0], R3
00000C5B B882                    		MOVU.W 04H[R0], R2
00000C5D A881                    		MOV.L 08H[R0], R1
00000C5F 05rrrrrr             A  		BSR _usb_hmsc_SendCbwCheck
00000C63 D301                    		MOV.W R1, [R0]
00000C65                         L223:	; bb70.split
                                 ;     768         if( hmsc_retval == USB_DATA_STALL )
                                 		.LINE  "C:\Workspace\e2studio\git\MT01_master\r_usb_hmsc\src\r_usb_hmsc_driver.c",768
00000C65 5C01                    		MOVU.W [R0], R1
00000C67 6161                    		CMP #06H, R1
00000C69 21rr                    		BNE L225
00000C6B                         L224:	; bb76
                                 ;     769         {
                                 ;     770             usb_shmsc_NoDataSeq[mess->ip] = USB_SEQ_0;
                                 		.LINE  "C:\Workspace\e2studio\git\MT01_master\r_usb_hmsc\src\r_usb_hmsc_driver.c",770
00000C6B A881                    		MOV.L 08H[R0], R1
00000C6D B991                    		MOVU.W 0CH[R1], R1
00000C6F FBE2rrrrrrrr            		MOV.L #_usb_shmsc_NoDataSeq, R14
00000C75 660F                    		MOV.L #00000000H, R15
00000C77 FE11EF                  		MOV.W R15, [R1,R14]
00000C7A 38rrrr               W  		BRA L258
00000C7D                         L225:	; bb84
                                 ;     771         }
                                 ;     772         else if( hmsc_retval != USB_HMSC_OK )
                                 		.LINE  "C:\Workspace\e2studio\git\MT01_master\r_usb_hmsc\src\r_usb_hmsc_driver.c",772
00000C7D 5C01                    		MOVU.W [R0], R1
00000C7F 6101                    		CMP #00H, R1
00000C81 A881                    		MOV.L 08H[R0], R1
00000C83 20rr                    		BEQ L228
00000C85                         L226:	; bb85
                                 ;     773         {
                                 ;     774             USB_PRINTF1("### NoData : SendCbw error(drive:%d) \n", drvnum);
                                 ;     775             usb_shmsc_NoDataSeq[mess->ip] = USB_SEQ_0;
                                 		.LINE  "C:\Workspace\e2studio\git\MT01_master\r_usb_hmsc\src\r_usb_hmsc_driver.c",775
00000C85 B991                    		MOVU.W 0CH[R1], R1
00000C87 FBE2rrrrrrrr            		MOV.L #_usb_shmsc_NoDataSeq, R14
00000C8D 660F                    		MOV.L #00000000H, R15
00000C8F FE11EF                  		MOV.W R15, [R1,R14]
00000C92                         L227:	; bb85.split
                                 ;     776             usb_hmsc_CommandResult(mess,hmsc_retval);
                                 		.LINE  "C:\Workspace\e2studio\git\MT01_master\r_usb_hmsc\src\r_usb_hmsc_driver.c",776
00000C92 5C02                    		MOVU.W [R0], R2
00000C94 A881                    		MOV.L 08H[R0], R1
00000C96 39rrrr               W  		BSR _usb_hmsc_CommandResult
00000C99 38rrrr               W  		BRA L258
00000C9C                         L228:	; bb93
                                 ;     777         }
                                 ;     778         else
                                 ;     779         {
                                 ;     780             /* CSW */
                                 ;     781             hmsc_retval = usb_hmsc_GetCsw(mess, drvnum);
                                 		.LINE  "C:\Workspace\e2studio\git\MT01_master\r_usb_hmsc\src\r_usb_hmsc_driver.c",781
00000C9C B882                    		MOVU.W 04H[R0], R2
00000C9E 05rrrrrr             A  		BSR _usb_hmsc_GetCsw
00000CA2 D301                    		MOV.W R1, [R0]
00000CA4                         L229:	; bb93.split
                                 ;     782             
                                 ;     783             usb_shmsc_Process[mess->ip] = USB_MSG_HMSC_NO_DATA;
                                 		.LINE  "C:\Workspace\e2studio\git\MT01_master\r_usb_hmsc\src\r_usb_hmsc_driver.c",783
00000CA4 A881                    		MOV.L 08H[R0], R1
00000CA6 B991                    		MOVU.W 0CH[R1], R1
00000CA8 FBE2rrrrrrrr            		MOV.L #_usb_shmsc_Process, R14
00000CAE FBFA0105                		MOV.L #00000501H, R15
00000CB2 FE11EF                  		MOV.W R15, [R1,R14]
00000CB5                         L230:	; bb93.split8
                                 ;     784             usb_shmsc_NoDataSeq[mess->ip]++;
                                 		.LINE  "C:\Workspace\e2studio\git\MT01_master\r_usb_hmsc\src\r_usb_hmsc_driver.c",784
00000CB5 A881                    		MOV.L 08H[R0], R1
00000CB7 B991                    		MOVU.W 0CH[R1], R1
00000CB9 FBE2rrrrrrrr            		MOV.L #_usb_shmsc_NoDataSeq, R14
00000CBF FE51EF                  		MOV.W [R1,R14], R15
00000CC2 621F                    		ADD #01H, R15
00000CC4 FE11EF                  		MOV.W R15, [R1,R14]
00000CC7                         L231:	; bb93.split9
                                 ;     785             mess->msginfo = usb_shmsc_Process[mess->ip];
                                 		.LINE  "C:\Workspace\e2studio\git\MT01_master\r_usb_hmsc\src\r_usb_hmsc_driver.c",785
00000CC7 A881                    		MOV.L 08H[R0], R1
00000CC9 B992                    		MOVU.W 0CH[R1], R2
00000CCB FBE2rrrrrrrr            		MOV.L #_usb_shmsc_Process, R14
00000CD1 FE52E2                  		MOV.W [R2,R14], R2
00000CD4 9092                    		MOV.W R2, 04H[R1]
00000CD6                         L232:	; bb93.split10
                                 ;     786             usb_hmsc_SpecifiedPath((USB_CLSINFO_t *)mess);
                                 		.LINE  "C:\Workspace\e2studio\git\MT01_master\r_usb_hmsc\src\r_usb_hmsc_driver.c",786
00000CD6 A881                    		MOV.L 08H[R0], R1
00000CD8 39rrrr               W  		BSR _usb_hmsc_SpecifiedPath
00000CDB 38rrrr               W  		BRA L258
00000CDE                         L233:	; bb129
                                 ;     787         }
                                 ;     788         break;
                                 ;     789     case USB_SEQ_3:
                                 ;     790         hmsc_retval = usb_hmsc_GetCswReq(mess, drvnum);
                                 		.LINE  "C:\Workspace\e2studio\git\MT01_master\r_usb_hmsc\src\r_usb_hmsc_driver.c",790
00000CDE B882                    		MOVU.W 04H[R0], R2
00000CE0 A881                    		MOV.L 08H[R0], R1
00000CE2 05rrrrrr             A  		BSR _usb_hmsc_GetCswReq
00000CE6 D301                    		MOV.W R1, [R0]
00000CE8                         L234:	; bb129.split
                                 ;     791         usb_shmsc_Process[mess->ip] = USB_MSG_HMSC_NO_DATA;
                                 		.LINE  "C:\Workspace\e2studio\git\MT01_master\r_usb_hmsc\src\r_usb_hmsc_driver.c",791
00000CE8 A881                    		MOV.L 08H[R0], R1
00000CEA B991                    		MOVU.W 0CH[R1], R1
00000CEC FBE2rrrrrrrr            		MOV.L #_usb_shmsc_Process, R14
00000CF2 FBFA0105                		MOV.L #00000501H, R15
00000CF6 FE11EF                  		MOV.W R15, [R1,R14]
00000CF9                         L235:	; bb129.split11
                                 ;     792         usb_shmsc_NoDataSeq[mess->ip]++;
                                 		.LINE  "C:\Workspace\e2studio\git\MT01_master\r_usb_hmsc\src\r_usb_hmsc_driver.c",792
00000CF9 A881                    		MOV.L 08H[R0], R1
00000CFB B991                    		MOVU.W 0CH[R1], R1
00000CFD FBE2rrrrrrrr            		MOV.L #_usb_shmsc_NoDataSeq, R14
00000D03 FE51EF                  		MOV.W [R1,R14], R15
00000D06 621F                    		ADD #01H, R15
00000D08 FE11EF                  		MOV.W R15, [R1,R14]
00000D0B 38rrrr               W  		BRA L258
00000D0E                         L236:	; bb145
                                 ;     793         break;
                                 ;     794     case USB_SEQ_4:
                                 ;     795         hmsc_retval = usb_hmsc_GetCswCheck(mess, drvnum, result);
                                 		.LINE  "C:\Workspace\e2studio\git\MT01_master\r_usb_hmsc\src\r_usb_hmsc_driver.c",795
00000D0E B80B                    		MOVU.W 02H[R0], R3
00000D10 B882                    		MOVU.W 04H[R0], R2
00000D12 A881                    		MOV.L 08H[R0], R1
00000D14 05rrrrrr             A  		BSR _usb_hmsc_GetCswCheck
00000D18 D301                    		MOV.W R1, [R0]
00000D1A                         L237:	; bb145.split
                                 ;     796 
                                 ;     797         switch( hmsc_retval )
                                 		.LINE  "C:\Workspace\e2studio\git\MT01_master\r_usb_hmsc\src\r_usb_hmsc_driver.c",797
00000D1A 5C01                    		MOVU.W [R0], R1
00000D1C 7701FBFF00              		CMP #0FFFBH, R1
00000D21 20rr                    		BEQ L244
00000D23                         L238:	; bb145.split
00000D23 76010705                		CMP #0507H, R1
00000D27 20rr                    		BEQ L247
00000D29                         L239:	; bb145.split
00000D29 6101                    		CMP #00H, R1
00000D2B 3Brrrr               W  		BNE L251
00000D2E                         L240:	; bb153
                                 ;     798         {
                                 ;     799         case USB_HMSC_OK:
                                 ;     800             if(usb_ghmsc_CswErrRoop[mess->ip] == USB_ON)
                                 		.LINE  "C:\Workspace\e2studio\git\MT01_master\r_usb_hmsc\src\r_usb_hmsc_driver.c",800
00000D2E A881                    		MOV.L 08H[R0], R1
00000D30 B991                    		MOVU.W 0CH[R1], R1
00000D32 FBE2rrrrrrrr            		MOV.L #_usb_ghmsc_CswErrRoop, R14
00000D38 FED1EE                  		MOVU.W [R1,R14], R14
00000D3B 611E                    		CMP #01H, R14
00000D3D 21rr                    		BNE L243
00000D3F                         L241:	; bb154
                                 ;     801             {
                                 ;     802                 usb_ghmsc_CswErrRoop[mess->ip] = USB_OFF;
                                 		.LINE  "C:\Workspace\e2studio\git\MT01_master\r_usb_hmsc\src\r_usb_hmsc_driver.c",802
00000D3F A881                    		MOV.L 08H[R0], R1
00000D41 B991                    		MOVU.W 0CH[R1], R1
00000D43 FBE2rrrrrrrr            		MOV.L #_usb_ghmsc_CswErrRoop, R14
00000D49 660F                    		MOV.L #00000000H, R15
00000D4B FE11EF                  		MOV.W R15, [R1,R14]
00000D4E                         L242:	; bb154.split
                                 ;     803                 hmsc_retval = USB_HMSC_CSW_ERR;
                                 		.LINE  "C:\Workspace\e2studio\git\MT01_master\r_usb_hmsc\src\r_usb_hmsc_driver.c",803
00000D4E F809FBFF                		MOV.W #0FFFBH, [R0]
00000D52                         L243:	; bb170
                                 ;     804             }
                                 ;     805             usb_hmsc_CommandResult(mess, hmsc_retval);
                                 		.LINE  "C:\Workspace\e2studio\git\MT01_master\r_usb_hmsc\src\r_usb_hmsc_driver.c",805
00000D52 5C02                    		MOVU.W [R0], R2
00000D54 A881                    		MOV.L 08H[R0], R1
00000D56 39rrrr               W  		BSR _usb_hmsc_CommandResult
00000D59 38rrrr               W  		BRA L255
00000D5C                         L244:	; bb173
                                 ;     806             break;
                                 ;     807         case USB_HMSC_CSW_ERR:
                                 ;     808             USB_PRINTF1("*** NoData : CSW-NG(drive:%d) \n", drvnum);
                                 ;     809             usb_ghmsc_CswErrRoop[mess->ip] = USB_ON;
                                 		.LINE  "C:\Workspace\e2studio\git\MT01_master\r_usb_hmsc\src\r_usb_hmsc_driver.c",809
00000D5C A881                    		MOV.L 08H[R0], R1
00000D5E B991                    		MOVU.W 0CH[R1], R1
00000D60 FBE2rrrrrrrr            		MOV.L #_usb_ghmsc_CswErrRoop, R14
00000D66 661F                    		MOV.L #00000001H, R15
00000D68 FE11EF                  		MOV.W R15, [R1,R14]
00000D6B                         L245:	; bb173.split
                                 ;     810             drvnum = usb_ghmsc_RootDrive[mess->ip];
                                 		.LINE  "C:\Workspace\e2studio\git\MT01_master\r_usb_hmsc\src\r_usb_hmsc_driver.c",810
00000D6B A881                    		MOV.L 08H[R0], R1
00000D6D B991                    		MOVU.W 0CH[R1], R1
00000D6F FBE2rrrrrrrr            		MOV.L #_usb_ghmsc_RootDrive, R14
00000D75 FE51E1                  		MOV.W [R1,R14], R1
00000D78 9081                    		MOV.W R1, 04H[R0]
00000D7A                         L246:	; bb173.split12
                                 ;     811             R_usb_hmsc_RequestSense(mess, drvnum, (uint8_t *)usb_ghmsc_Data[mess->ip]);
                                 		.LINE  "C:\Workspace\e2studio\git\MT01_master\r_usb_hmsc\src\r_usb_hmsc_driver.c",811
00000D7A A881                    		MOV.L 08H[R0], R1
00000D7C B994                    		MOVU.W 0CH[R1], R4
00000D7E B882                    		MOVU.W 04H[R0], R2
00000D80 76140014                		MUL #1400H, R4
00000D84 FB32rrrrrrrr            		MOV.L #_usb_ghmsc_Data, R3
00000D8A 4B43                    		ADD R4, R3
00000D8C 05rrrrrr             A  		BSR _R_usb_hmsc_RequestSense
00000D90 2Err                 B  		BRA L255
00000D92                         L247:	; bb194
                                 ;     812             break;
                                 ;     813         case USB_MSG_HMSC_DATA_STALL:
                                 ;     814             USB_PRINTF1("*** NoData : CSW-STALL(drive:%d) \n", drvnum);
                                 ;     815             usb_shmsc_Process[mess->ip] = USB_MSG_HMSC_DATA_STALL;
                                 		.LINE  "C:\Workspace\e2studio\git\MT01_master\r_usb_hmsc\src\r_usb_hmsc_driver.c",815
00000D92 A881                    		MOV.L 08H[R0], R1
00000D94 B991                    		MOVU.W 0CH[R1], R1
00000D96 FBE2rrrrrrrr            		MOV.L #_usb_shmsc_Process, R14
00000D9C FBFA0705                		MOV.L #00000507H, R15
00000DA0 FE11EF                  		MOV.W R15, [R1,R14]
00000DA3                         L248:	; bb194.split
                                 ;     816             mess->keyword = drvnum;
                                 		.LINE  "C:\Workspace\e2studio\git\MT01_master\r_usb_hmsc\src\r_usb_hmsc_driver.c",816
00000DA3 9881                    		MOV.W 04H[R0], R1
00000DA5 A882                    		MOV.L 08H[R0], R2
00000DA7 90A9                    		MOV.W R1, 06H[R2]
00000DA9                         L249:	; bb194.split13
                                 ;     817             mess->msginfo = usb_shmsc_Process[mess->ip];
                                 		.LINE  "C:\Workspace\e2studio\git\MT01_master\r_usb_hmsc\src\r_usb_hmsc_driver.c",817
00000DA9 A881                    		MOV.L 08H[R0], R1
00000DAB B992                    		MOVU.W 0CH[R1], R2
00000DAD FBE2rrrrrrrr            		MOV.L #_usb_shmsc_Process, R14
00000DB3 FE52E2                  		MOV.W [R2,R14], R2
00000DB6 9092                    		MOV.W R2, 04H[R1]
00000DB8                         L250:	; bb194.split14
                                 ;     818             usb_hmsc_SpecifiedPath((USB_CLSINFO_t *)mess);
                                 		.LINE  "C:\Workspace\e2studio\git\MT01_master\r_usb_hmsc\src\r_usb_hmsc_driver.c",818
00000DB8 A881                    		MOV.L 08H[R0], R1
00000DBA 39rrrr               W  		BSR _usb_hmsc_SpecifiedPath
00000DBD 2Err                 B  		BRA L255
00000DBF                         L251:	; bb213
                                 ;     819             break;
                                 ;     820         default:
                                 ;     821             if(usb_ghmsc_CswErrRoop[mess->ip] == USB_ON)
                                 		.LINE  "C:\Workspace\e2studio\git\MT01_master\r_usb_hmsc\src\r_usb_hmsc_driver.c",821
00000DBF A881                    		MOV.L 08H[R0], R1
00000DC1 B991                    		MOVU.W 0CH[R1], R1
00000DC3 FBE2rrrrrrrr            		MOV.L #_usb_ghmsc_CswErrRoop, R14
00000DC9 FED1EE                  		MOVU.W [R1,R14], R14
00000DCC 611E                    		CMP #01H, R14
00000DCE 21rr                    		BNE L254
00000DD0                         L252:	; bb214
                                 ;     822             {
                                 ;     823                 usb_ghmsc_CswErrRoop[mess->ip]  =USB_OFF;
                                 		.LINE  "C:\Workspace\e2studio\git\MT01_master\r_usb_hmsc\src\r_usb_hmsc_driver.c",823
00000DD0 A881                    		MOV.L 08H[R0], R1
00000DD2 B991                    		MOVU.W 0CH[R1], R1
00000DD4 FBE2rrrrrrrr            		MOV.L #_usb_ghmsc_CswErrRoop, R14
00000DDA 660F                    		MOV.L #00000000H, R15
00000DDC FE11EF                  		MOV.W R15, [R1,R14]
00000DDF                         L253:	; bb214.split
                                 ;     824                 hmsc_retval = USB_HMSC_CSW_ERR;
                                 		.LINE  "C:\Workspace\e2studio\git\MT01_master\r_usb_hmsc\src\r_usb_hmsc_driver.c",824
00000DDF F809FBFF                		MOV.W #0FFFBH, [R0]
00000DE3                         L254:	; bb230
                                 ;     825             }
                                 ;     826             USB_PRINTF1("### NoData : GetCSW error(drive:%d) \n", drvnum);
                                 ;     827             usb_hmsc_CommandResult(mess, hmsc_retval);
                                 		.LINE  "C:\Workspace\e2studio\git\MT01_master\r_usb_hmsc\src\r_usb_hmsc_driver.c",827
00000DE3 5C02                    		MOVU.W [R0], R2
00000DE5 A881                    		MOV.L 08H[R0], R1
00000DE7 39rrrr               W  		BSR _usb_hmsc_CommandResult
00000DEA                         L255:	; bb233
                                 ;     828             break;
                                 ;     829         }
                                 ;     830         usb_shmsc_NoDataSeq[mess->ip] = USB_SEQ_0;
                                 		.LINE  "C:\Workspace\e2studio\git\MT01_master\r_usb_hmsc\src\r_usb_hmsc_driver.c",830
00000DEA A881                    		MOV.L 08H[R0], R1
00000DEC B991                    		MOVU.W 0CH[R1], R1
00000DEE FBE2rrrrrrrr            		MOV.L #_usb_shmsc_NoDataSeq, R14
00000DF4 660F                    		MOV.L #00000000H, R15
00000DF6 FE11EF                  		MOV.W R15, [R1,R14]
00000DF9 2Err                 B  		BRA L258
00000DFB                         L256:	; bb239
                                 ;     831         break;
                                 ;     832     default:
                                 ;     833         usb_hmsc_CommandResult(mess, hmsc_retval);
                                 		.LINE  "C:\Workspace\e2studio\git\MT01_master\r_usb_hmsc\src\r_usb_hmsc_driver.c",833
00000DFB 5C02                    		MOVU.W [R0], R2
00000DFD A881                    		MOV.L 08H[R0], R1
00000DFF 39rrrr               W  		BSR _usb_hmsc_CommandResult
00000E02                         L257:	; bb239.split
                                 ;     834         usb_shmsc_NoDataSeq[mess->ip] = USB_SEQ_0;
                                 		.LINE  "C:\Workspace\e2studio\git\MT01_master\r_usb_hmsc\src\r_usb_hmsc_driver.c",834
00000E02 A881                    		MOV.L 08H[R0], R1
00000E04 B991                    		MOVU.W 0CH[R1], R1
00000E06 FBE2rrrrrrrr            		MOV.L #_usb_shmsc_NoDataSeq, R14
00000E0C 660F                    		MOV.L #00000000H, R15
00000E0E FE11EF                  		MOV.W R15, [R1,R14]
00000E11                         L258:	; bb247
                                 ;     835         break;
                                 ;     836     }
                                 ;     837     return (hmsc_retval);
                                 		.LINE  "C:\Workspace\e2studio\git\MT01_master\r_usb_hmsc\src\r_usb_hmsc_driver.c",837
00000E11 D40003                  		MOV.W [R0], 06H[R0]
00000E14 9889                    		MOV.W 06H[R0], R1
00000E16                         L259:	; bb247.split
                                 ;     838 }   /* eof usb_hmsc_NoDataAct() */
                                 		.LINE  "C:\Workspace\e2studio\git\MT01_master\r_usb_hmsc\src\r_usb_hmsc_driver.c",838
00000E16 5F11                    		MOVU.W R1, R1
00000E18 6703                    		RTSD #0CH
00000E1A                         _usb_hmsc_DataIn:
                                 		.STACK	_usb_hmsc_DataIn=68
                                 ;     839 
                                 ;     840 /******************************************************************************
                                 ;     841 Function Name   : usb_hmsc_DataIn
                                 ;     842 Description     : HMSC Data In
                                 ;     843 Arguments       : uint16_t drvnum : 
                                 ;     844                 : uint8_t *buff : 
                                 ;     845                 : uint32_t size : 
                                 ;     846 Return value    : uint16_t : 
                                 ;     847 ******************************************************************************/
                                 ;     848 uint16_t usb_hmsc_DataIn(USB_UTR_t *ptr, uint16_t drvnum, uint8_t *buff, uint32_t size)
                                 		.LINE  "C:\Workspace\e2studio\git\MT01_master\r_usb_hmsc\src\r_usb_hmsc_driver.c",848
00000E1A 7100C0                  		ADD #0FFFFFFC0H, R0
00000E1D A389                    		MOV.L R1, 3CH[R0]
00000E1F 970A                    		MOV.W R2, 3AH[R0]
00000E21 A30B                    		MOV.L R3, 34H[R0]
00000E23 A304                    		MOV.L R4, 30H[R0]
                                 ;     849 {
                                 ;     850     USB_CLSINFO_t mess;
                                 ;     851 #ifdef FREE_RTOS_PP
                                 ;     852     taskENTER_CRITICAL();
                                 		.LINE  "C:\Workspace\e2studio\git\MT01_master\r_usb_hmsc\src\r_usb_hmsc_driver.c",852
00000E25 05rrrrrr             A  		BSR _vTaskEnterCritical
00000E29                         L261:	; entry.split
                                 ;     853 #endif
                                 ;     854     mess.ip = ptr->ip;
                                 		.LINE  "C:\Workspace\e2studio\git\MT01_master\r_usb_hmsc\src\r_usb_hmsc_driver.c",854
00000E29 AB89                    		MOV.L 3CH[R0], R1
00000E2B D5100606                		MOV.W 0CH[R1], 0CH[R0]
00000E2F                         L262:	; entry.split1
                                 ;     855     mess.ipp = ptr->ipp;
                                 		.LINE  "C:\Workspace\e2studio\git\MT01_master\r_usb_hmsc\src\r_usb_hmsc_driver.c",855
00000E2F AB89                    		MOV.L 3CH[R0], R1
00000E31 E5100202                		MOV.L 08H[R1], 08H[R0]
00000E35                         L263:	; entry.split2
                                 ;     856 
                                 ;     857     mess.keyword = drvnum;
                                 		.LINE  "C:\Workspace\e2studio\git\MT01_master\r_usb_hmsc\src\r_usb_hmsc_driver.c",857
00000E35 D5001D03                		MOV.W 3AH[R0], 06H[R0]
00000E39                         L264:	; entry.split3
                                 ;     858 
                                 ;     859     usb_ghmsc_Buff[ptr->ip] = buff;
                                 		.LINE  "C:\Workspace\e2studio\git\MT01_master\r_usb_hmsc\src\r_usb_hmsc_driver.c",859
00000E39 AB89                    		MOV.L 3CH[R0], R1
00000E3B B991                    		MOVU.W 0CH[R1], R1
00000E3D FBE2rrrrrrrr            		MOV.L #_usb_ghmsc_Buff, R14
00000E43 AB0A                    		MOV.L 34H[R0], R2
00000E45 FE21E2                  		MOV.L R2, [R1,R14]
00000E48                         L265:	; entry.split4
                                 ;     860     usb_ghmsc_TransSize[ptr->ip] = size;
                                 		.LINE  "C:\Workspace\e2studio\git\MT01_master\r_usb_hmsc\src\r_usb_hmsc_driver.c",860
00000E48 AB89                    		MOV.L 3CH[R0], R1
00000E4A B991                    		MOVU.W 0CH[R1], R1
00000E4C FBE2rrrrrrrr            		MOV.L #_usb_ghmsc_TransSize, R14
00000E52 AB02                    		MOV.L 30H[R0], R2
00000E54 FE21E2                  		MOV.L R2, [R1,R14]
00000E57                         L266:	; entry.split5
                                 ;     861 
                                 ;     862     usb_shmsc_Process[ptr->ip] = USB_MSG_HMSC_DATA_IN;
                                 		.LINE  "C:\Workspace\e2studio\git\MT01_master\r_usb_hmsc\src\r_usb_hmsc_driver.c",862
00000E57 AB89                    		MOV.L 3CH[R0], R1
00000E59 B991                    		MOVU.W 0CH[R1], R1
00000E5B FBE2rrrrrrrr            		MOV.L #_usb_shmsc_Process, R14
00000E61 FBFA0205                		MOV.L #00000502H, R15
00000E65 FE11EF                  		MOV.W R15, [R1,R14]
00000E68                         L267:	; entry.split6
                                 ;     863     usb_shmsc_DataInSeq[ptr->ip] = USB_SEQ_0;
                                 		.LINE  "C:\Workspace\e2studio\git\MT01_master\r_usb_hmsc\src\r_usb_hmsc_driver.c",863
00000E68 AB89                    		MOV.L 3CH[R0], R1
00000E6A B991                    		MOVU.W 0CH[R1], R1
00000E6C FBE2rrrrrrrr            		MOV.L #_usb_shmsc_DataInSeq, R14
00000E72 660F                    		MOV.L #00000000H, R15
00000E74 FE11EF                  		MOV.W R15, [R1,R14]
00000E77                         L268:	; entry.split7
                                 ;     864     mess.msginfo = usb_shmsc_Process[ptr->ip];
                                 		.LINE  "C:\Workspace\e2studio\git\MT01_master\r_usb_hmsc\src\r_usb_hmsc_driver.c",864
00000E77 AB89                    		MOV.L 3CH[R0], R1
00000E79 B991                    		MOVU.W 0CH[R1], R1
00000E7B FBE2rrrrrrrr            		MOV.L #_usb_shmsc_Process, R14
00000E81 FE51E1                  		MOV.W [R1,R14], R1
00000E84 9081                    		MOV.W R1, 04H[R0]
00000E86                         L269:	; entry.split8
                                 ;     865 #ifdef FREE_RTOS_PP
                                 ;     866     taskEXIT_CRITICAL();
                                 		.LINE  "C:\Workspace\e2studio\git\MT01_master\r_usb_hmsc\src\r_usb_hmsc_driver.c",866
00000E86 05rrrrrr             A  		BSR _vTaskExitCritical
00000E8A                         L270:	; entry.split9
00000E8A EF01                    		MOV.L R0, R1
                                 ;     867 #endif
                                 ;     868     usb_hmsc_SpecifiedPath(&mess);
                                 		.LINE  "C:\Workspace\e2studio\git\MT01_master\r_usb_hmsc\src\r_usb_hmsc_driver.c",868
00000E8C 39rrrr               W  		BSR _usb_hmsc_SpecifiedPath
00000E8F                         L271:	; entry.split10
                                 ;     869     return USB_DONE;
                                 		.LINE  "C:\Workspace\e2studio\git\MT01_master\r_usb_hmsc\src\r_usb_hmsc_driver.c",869
00000E8F 3D8700                  		MOV.W #0000H, 2EH[R0]
00000E92 9D89                    		MOV.W 2EH[R0], R1
00000E94                         L272:	; entry.split11
                                 ;     870 }   /* eof usb_hmsc_DataIn() */
                                 		.LINE  "C:\Workspace\e2studio\git\MT01_master\r_usb_hmsc\src\r_usb_hmsc_driver.c",870
00000E94 5F11                    		MOVU.W R1, R1
00000E96 6710                    		RTSD #40H
00000E98                         _usb_hmsc_DataInAct:
                                 		.STACK	_usb_hmsc_DataInAct=28
                                 ;     871 
                                 ;     872 /******************************************************************************
                                 ;     873 Function Name   : usb_hmsc_DataInAct
                                 ;     874 Description     : Receive Data request
                                 ;     875 Arguments       : USB_CLSINFO_t *mess : 
                                 ;     876 Return value    : uint16_t : 
                                 ;     877 ******************************************************************************/
                                 ;     878 uint16_t usb_hmsc_DataInAct(USB_CLSINFO_t *mess)
                                 		.LINE  "C:\Workspace\e2studio\git\MT01_master\r_usb_hmsc\src\r_usb_hmsc_driver.c",878
00000E98 7100E8                  		ADD #0FFFFFFE8H, R0
00000E9B A109                    		MOV.L R1, 14H[R0]
                                 ;     879 {
                                 ;     880     uint16_t    hmsc_retval, result;
                                 ;     881     uint16_t    drvnum;
                                 ;     882     uint32_t    size;
                                 ;     883     uint8_t     *buff;
                                 ;     884 
                                 ;     885     drvnum = usb_ghmsc_RootDrive[mess->ip];
                                 		.LINE  "C:\Workspace\e2studio\git\MT01_master\r_usb_hmsc\src\r_usb_hmsc_driver.c",885
00000E9D B991                    		MOVU.W 0CH[R1], R1
00000E9F FBE2rrrrrrrr            		MOV.L #_usb_ghmsc_RootDrive, R14
00000EA5 FE51E1                  		MOV.W [R1,R14], R1
00000EA8 9089                    		MOV.W R1, 06H[R0]
00000EAA                         L274:	; entry.split
                                 ;     886     buff = usb_ghmsc_Buff[mess->ip];
                                 		.LINE  "C:\Workspace\e2studio\git\MT01_master\r_usb_hmsc\src\r_usb_hmsc_driver.c",886
00000EAA A909                    		MOV.L 14H[R0], R1
00000EAC B991                    		MOVU.W 0CH[R1], R1
00000EAE FBE2rrrrrrrr            		MOV.L #_usb_ghmsc_Buff, R14
00000EB4 FE61E1                  		MOV.L [R1,R14], R1
00000EB7 A089                    		MOV.L R1, 0CH[R0]
00000EB9                         L275:	; entry.split1
                                 ;     887     size = usb_ghmsc_TransSize[mess->ip];
                                 		.LINE  "C:\Workspace\e2studio\git\MT01_master\r_usb_hmsc\src\r_usb_hmsc_driver.c",887
00000EB9 A909                    		MOV.L 14H[R0], R1
00000EBB B991                    		MOVU.W 0CH[R1], R1
00000EBD FBE2rrrrrrrr            		MOV.L #_usb_ghmsc_TransSize, R14
00000EC3 FE61E1                  		MOV.L [R1,R14], R1
00000EC6 A081                    		MOV.L R1, 08H[R0]
00000EC8                         L276:	; entry.split2
                                 ;     888     result = mess -> result;
                                 		.LINE  "C:\Workspace\e2studio\git\MT01_master\r_usb_hmsc\src\r_usb_hmsc_driver.c",888
00000EC8 A909                    		MOV.L 14H[R0], R1
00000ECA D5100702                		MOV.W 0EH[R1], 04H[R0]
00000ECE                         L277:	; entry.split3
                                 ;     889 
                                 ;     890     switch( usb_shmsc_DataInSeq[mess->ip] )
                                 		.LINE  "C:\Workspace\e2studio\git\MT01_master\r_usb_hmsc\src\r_usb_hmsc_driver.c",890
00000ECE A909                    		MOV.L 14H[R0], R1
00000ED0 B991                    		MOVU.W 0CH[R1], R1
00000ED2 FBE2rrrrrrrr            		MOV.L #_usb_shmsc_DataInSeq, R14
00000ED8 FED1EE                  		MOVU.W [R1,R14], R14
00000EDB 616E                    		CMP #06H, R14
00000EDD 3Arrrr               W  		BEQ L322
00000EE0                         L278:	; entry.split3
00000EE0 611E                    		CMP #01H, R14
00000EE2 20rr                    		BEQ L291
00000EE4                         L279:	; entry.split3
00000EE4 612E                    		CMP #02H, R14
00000EE6 3Arrrr               W  		BEQ L293
00000EE9                         L280:	; entry.split3
00000EE9 613E                    		CMP #03H, R14
00000EEB 3Arrrr               W  		BEQ L304
00000EEE                         L281:	; entry.split3
00000EEE 614E                    		CMP #04H, R14
00000EF0 3Arrrr               W  		BEQ L307
00000EF3                         L282:	; entry.split3
00000EF3 615E                    		CMP #05H, R14
00000EF5 3Arrrr               W  		BEQ L319
00000EF8                         L283:	; entry.split3
00000EF8 610E                    		CMP #00H, R14
00000EFA 3Brrrr               W  		BNE L342
00000EFD                         L284:	; bb
                                 ;     891     {
                                 ;     892     case USB_SEQ_0:
                                 ;     893         /* CBW */
                                 ;     894         drvnum = mess -> keyword;
                                 		.LINE  "C:\Workspace\e2studio\git\MT01_master\r_usb_hmsc\src\r_usb_hmsc_driver.c",894
00000EFD A909                    		MOV.L 14H[R0], R1
00000EFF D5100303                		MOV.W 06H[R1], 06H[R0]
00000F03                         L285:	; bb.split
                                 ;     895         usb_ghmsc_RootDrive[mess->ip] = drvnum;
                                 		.LINE  "C:\Workspace\e2studio\git\MT01_master\r_usb_hmsc\src\r_usb_hmsc_driver.c",895
00000F03 A909                    		MOV.L 14H[R0], R1
00000F05 B991                    		MOVU.W 0CH[R1], R1
00000F07 FBE2rrrrrrrr            		MOV.L #_usb_ghmsc_RootDrive, R14
00000F0D 988A                    		MOV.W 06H[R0], R2
00000F0F FE11E2                  		MOV.W R2, [R1,R14]
00000F12                         L286:	; bb.split4
                                 ;     896         hmsc_retval = usb_hmsc_SendCbw(mess, drvnum);
                                 		.LINE  "C:\Workspace\e2studio\git\MT01_master\r_usb_hmsc\src\r_usb_hmsc_driver.c",896
00000F12 B88A                    		MOVU.W 06H[R0], R2
00000F14 A909                    		MOV.L 14H[R0], R1
00000F16 05rrrrrr             A  		BSR _usb_hmsc_SendCbw
00000F1A 9009                    		MOV.W R1, 02H[R0]
00000F1C                         L287:	; bb.split5
                                 ;     897         usb_shmsc_Process[mess->ip] = USB_MSG_HMSC_DATA_IN;
                                 		.LINE  "C:\Workspace\e2studio\git\MT01_master\r_usb_hmsc\src\r_usb_hmsc_driver.c",897
00000F1C A909                    		MOV.L 14H[R0], R1
00000F1E B991                    		MOVU.W 0CH[R1], R1
00000F20 FBE2rrrrrrrr            		MOV.L #_usb_shmsc_Process, R14
00000F26 FBFA0205                		MOV.L #00000502H, R15
00000F2A FE11EF                  		MOV.W R15, [R1,R14]
00000F2D                         L288:	; bb.split6
                                 ;     898         usb_shmsc_DataInSeq[mess->ip]++;
                                 		.LINE  "C:\Workspace\e2studio\git\MT01_master\r_usb_hmsc\src\r_usb_hmsc_driver.c",898
00000F2D A909                    		MOV.L 14H[R0], R1
00000F2F B991                    		MOVU.W 0CH[R1], R1
00000F31 FBE2rrrrrrrr            		MOV.L #_usb_shmsc_DataInSeq, R14
00000F37 FE51EF                  		MOV.W [R1,R14], R15
00000F3A 621F                    		ADD #01H, R15
00000F3C FE11EF                  		MOV.W R15, [R1,R14]
00000F3F                         L289:	; bb.split7
                                 ;     899         mess->msginfo = usb_shmsc_Process[mess->ip];
                                 		.LINE  "C:\Workspace\e2studio\git\MT01_master\r_usb_hmsc\src\r_usb_hmsc_driver.c",899
00000F3F A909                    		MOV.L 14H[R0], R1
00000F41 B992                    		MOVU.W 0CH[R1], R2
00000F43 FBE2rrrrrrrr            		MOV.L #_usb_shmsc_Process, R14
00000F49 FE52E2                  		MOV.W [R2,R14], R2
00000F4C 9092                    		MOV.W R2, 04H[R1]
00000F4E                         L290:	; bb.split8
                                 ;     900         usb_hmsc_SpecifiedPath((USB_CLSINFO_t *)mess);
                                 		.LINE  "C:\Workspace\e2studio\git\MT01_master\r_usb_hmsc\src\r_usb_hmsc_driver.c",900
00000F4E A909                    		MOV.L 14H[R0], R1
00000F50 39rrrr               W  		BSR _usb_hmsc_SpecifiedPath
00000F53 38rrrr               W  		BRA L344
00000F56                         L291:	; bb68
                                 ;     901         break;
                                 ;     902     case USB_SEQ_1:
                                 ;     903         hmsc_retval = usb_hmsc_SendCbwReq(mess, drvnum);
                                 		.LINE  "C:\Workspace\e2studio\git\MT01_master\r_usb_hmsc\src\r_usb_hmsc_driver.c",903
00000F56 B88A                    		MOVU.W 06H[R0], R2
00000F58 A909                    		MOV.L 14H[R0], R1
00000F5A 05rrrrrr             A  		BSR _usb_hmsc_SendCbwReq
00000F5E 9009                    		MOV.W R1, 02H[R0]
00000F60                         L292:	; bb68.split
                                 ;     904         usb_shmsc_DataInSeq[mess->ip]++;
                                 		.LINE  "C:\Workspace\e2studio\git\MT01_master\r_usb_hmsc\src\r_usb_hmsc_driver.c",904
00000F60 A909                    		MOV.L 14H[R0], R1
00000F62 B991                    		MOVU.W 0CH[R1], R1
00000F64 FBE2rrrrrrrr            		MOV.L #_usb_shmsc_DataInSeq, R14
00000F6A FE51EF                  		MOV.W [R1,R14], R15
00000F6D 621F                    		ADD #01H, R15
00000F6F FE11EF                  		MOV.W R15, [R1,R14]
00000F72 38rrrr               W  		BRA L344
00000F75                         L293:	; bb79
                                 ;     905         break;
                                 ;     906     case USB_SEQ_2:
                                 ;     907         hmsc_retval = usb_hmsc_SendCbwCheck(mess, drvnum, result);
                                 		.LINE  "C:\Workspace\e2studio\git\MT01_master\r_usb_hmsc\src\r_usb_hmsc_driver.c",907
00000F75 B883                    		MOVU.W 04H[R0], R3
00000F77 B88A                    		MOVU.W 06H[R0], R2
00000F79 A909                    		MOV.L 14H[R0], R1
00000F7B 05rrrrrr             A  		BSR _usb_hmsc_SendCbwCheck
00000F7F 9009                    		MOV.W R1, 02H[R0]
00000F81                         L294:	; bb79.split
                                 ;     908         if( hmsc_retval == USB_DATA_STALL )
                                 		.LINE  "C:\Workspace\e2studio\git\MT01_master\r_usb_hmsc\src\r_usb_hmsc_driver.c",908
00000F81 B809                    		MOVU.W 02H[R0], R1
00000F83 6161                    		CMP #06H, R1
00000F85 21rr                    		BNE L296
00000F87                         L295:	; bb85
                                 ;     909         {
                                 ;     910             usb_shmsc_DataInSeq[mess->ip] = USB_SEQ_0;
                                 		.LINE  "C:\Workspace\e2studio\git\MT01_master\r_usb_hmsc\src\r_usb_hmsc_driver.c",910
00000F87 A909                    		MOV.L 14H[R0], R1
00000F89 B991                    		MOVU.W 0CH[R1], R1
00000F8B FBE2rrrrrrrr            		MOV.L #_usb_shmsc_DataInSeq, R14
00000F91 660F                    		MOV.L #00000000H, R15
00000F93 FE11EF                  		MOV.W R15, [R1,R14]
00000F96 38rrrr               W  		BRA L344
00000F99                         L296:	; bb92
                                 ;     911         }
                                 ;     912         else if( hmsc_retval != USB_HMSC_OK )
                                 		.LINE  "C:\Workspace\e2studio\git\MT01_master\r_usb_hmsc\src\r_usb_hmsc_driver.c",912
00000F99 B809                    		MOVU.W 02H[R0], R1
00000F9B 6101                    		CMP #00H, R1
00000F9D A909                    		MOV.L 14H[R0], R1
00000F9F 20rr                    		BEQ L299
00000FA1                         L297:	; bb93
                                 ;     913         {
                                 ;     914             USB_PRINTF1("### DataIN : SendCBW error(drive:%d) \n", drvnum);
                                 ;     915             usb_shmsc_DataInSeq[mess->ip] = USB_SEQ_0;
                                 		.LINE  "C:\Workspace\e2studio\git\MT01_master\r_usb_hmsc\src\r_usb_hmsc_driver.c",915
00000FA1 B991                    		MOVU.W 0CH[R1], R1
00000FA3 FBE2rrrrrrrr            		MOV.L #_usb_shmsc_DataInSeq, R14
00000FA9 660F                    		MOV.L #00000000H, R15
00000FAB FE11EF                  		MOV.W R15, [R1,R14]
00000FAE                         L298:	; bb93.split
                                 ;     916             usb_hmsc_CommandResult(mess, hmsc_retval);
                                 		.LINE  "C:\Workspace\e2studio\git\MT01_master\r_usb_hmsc\src\r_usb_hmsc_driver.c",916
00000FAE B80A                    		MOVU.W 02H[R0], R2
00000FB0 A909                    		MOV.L 14H[R0], R1
00000FB2 39rrrr               W  		BSR _usb_hmsc_CommandResult
00000FB5 38rrrr               W  		BRA L344
00000FB8                         L299:	; bb101
                                 ;     917         }
                                 ;     918         else
                                 ;     919         {
                                 ;     920 /* Data */
                                 ;     921             hmsc_retval = usb_hmsc_GetData(mess, drvnum, buff, size);
                                 		.LINE  "C:\Workspace\e2studio\git\MT01_master\r_usb_hmsc\src\r_usb_hmsc_driver.c",921
00000FB8 A884                    		MOV.L 08H[R0], R4
00000FBA A88B                    		MOV.L 0CH[R0], R3
00000FBC B88A                    		MOVU.W 06H[R0], R2
00000FBE 05rrrrrr             A  		BSR _usb_hmsc_GetData
00000FC2 9009                    		MOV.W R1, 02H[R0]
00000FC4                         L300:	; bb101.split
                                 ;     922             usb_shmsc_Process[mess->ip] = USB_MSG_HMSC_DATA_IN;
                                 		.LINE  "C:\Workspace\e2studio\git\MT01_master\r_usb_hmsc\src\r_usb_hmsc_driver.c",922
00000FC4 A909                    		MOV.L 14H[R0], R1
00000FC6 B991                    		MOVU.W 0CH[R1], R1
00000FC8 FBE2rrrrrrrr            		MOV.L #_usb_shmsc_Process, R14
00000FCE FBFA0205                		MOV.L #00000502H, R15
00000FD2 FE11EF                  		MOV.W R15, [R1,R14]
00000FD5                         L301:	; bb101.split9
                                 ;     923             usb_shmsc_DataInSeq[mess->ip]++;
                                 		.LINE  "C:\Workspace\e2studio\git\MT01_master\r_usb_hmsc\src\r_usb_hmsc_driver.c",923
00000FD5 A909                    		MOV.L 14H[R0], R1
00000FD7 B991                    		MOVU.W 0CH[R1], R1
00000FD9 FBE2rrrrrrrr            		MOV.L #_usb_shmsc_DataInSeq, R14
00000FDF FE51EF                  		MOV.W [R1,R14], R15
00000FE2 621F                    		ADD #01H, R15
00000FE4 FE11EF                  		MOV.W R15, [R1,R14]
00000FE7                         L302:	; bb101.split10
                                 ;     924             mess->msginfo = usb_shmsc_Process[mess->ip];
                                 		.LINE  "C:\Workspace\e2studio\git\MT01_master\r_usb_hmsc\src\r_usb_hmsc_driver.c",924
00000FE7 A909                    		MOV.L 14H[R0], R1
00000FE9 B992                    		MOVU.W 0CH[R1], R2
00000FEB FBE2rrrrrrrr            		MOV.L #_usb_shmsc_Process, R14
00000FF1 FE52E2                  		MOV.W [R2,R14], R2
00000FF4 9092                    		MOV.W R2, 04H[R1]
00000FF6                         L303:	; bb101.split11
                                 ;     925             usb_hmsc_SpecifiedPath((USB_CLSINFO_t *)mess);
                                 		.LINE  "C:\Workspace\e2studio\git\MT01_master\r_usb_hmsc\src\r_usb_hmsc_driver.c",925
00000FF6 A909                    		MOV.L 14H[R0], R1
00000FF8 39rrrr               W  		BSR _usb_hmsc_SpecifiedPath
00000FFB 38rrrr               W  		BRA L344
00000FFE                         L304:	; bb139
                                 ;     926         }
                                 ;     927         break;
                                 ;     928     case USB_SEQ_3:
                                 ;     929         hmsc_retval = usb_hmsc_GetDataReq(mess, drvnum, buff, size);
                                 		.LINE  "C:\Workspace\e2studio\git\MT01_master\r_usb_hmsc\src\r_usb_hmsc_driver.c",929
00000FFE A884                    		MOV.L 08H[R0], R4
00001000 A88B                    		MOV.L 0CH[R0], R3
00001002 B88A                    		MOVU.W 06H[R0], R2
00001004 A909                    		MOV.L 14H[R0], R1
00001006 05rrrrrr             A  		BSR _usb_hmsc_GetDataReq
0000100A 9009                    		MOV.W R1, 02H[R0]
0000100C                         L305:	; bb139.split
                                 ;     930         usb_shmsc_Process[mess->ip] = USB_MSG_HMSC_DATA_IN;
                                 		.LINE  "C:\Workspace\e2studio\git\MT01_master\r_usb_hmsc\src\r_usb_hmsc_driver.c",930
0000100C A909                    		MOV.L 14H[R0], R1
0000100E B991                    		MOVU.W 0CH[R1], R1
00001010 FBE2rrrrrrrr            		MOV.L #_usb_shmsc_Process, R14
00001016 FBFA0205                		MOV.L #00000502H, R15
0000101A FE11EF                  		MOV.W R15, [R1,R14]
0000101D                         L306:	; bb139.split12
                                 ;     931         usb_shmsc_DataInSeq[mess->ip]++;
                                 		.LINE  "C:\Workspace\e2studio\git\MT01_master\r_usb_hmsc\src\r_usb_hmsc_driver.c",931
0000101D A909                    		MOV.L 14H[R0], R1
0000101F B991                    		MOVU.W 0CH[R1], R1
00001021 FBE2rrrrrrrr            		MOV.L #_usb_shmsc_DataInSeq, R14
00001027 FE51EF                  		MOV.W [R1,R14], R15
0000102A 621F                    		ADD #01H, R15
0000102C FE11EF                  		MOV.W R15, [R1,R14]
0000102F 38rrrr               W  		BRA L344
00001032                         L307:	; bb157
                                 ;     932         break;
                                 ;     933     case USB_SEQ_4:
                                 ;     934         hmsc_retval = usb_hmsc_GetDataCheck(mess, drvnum, result);
                                 		.LINE  "C:\Workspace\e2studio\git\MT01_master\r_usb_hmsc\src\r_usb_hmsc_driver.c",934
00001032 B883                    		MOVU.W 04H[R0], R3
00001034 B88A                    		MOVU.W 06H[R0], R2
00001036 A909                    		MOV.L 14H[R0], R1
00001038 05rrrrrr             A  		BSR _usb_hmsc_GetDataCheck
0000103C 9009                    		MOV.W R1, 02H[R0]
0000103E                         L308:	; bb157.split
                                 ;     935         if( hmsc_retval == USB_HMSC_STALL )
                                 		.LINE  "C:\Workspace\e2studio\git\MT01_master\r_usb_hmsc\src\r_usb_hmsc_driver.c",935
0000103E B809                    		MOVU.W 02H[R0], R1
00001040 7701FFFF00              		CMP #0FFFFH, R1
00001045 21rr                    		BNE L311
00001047                         L309:	; bb163
                                 ;     936         {
                                 ;     937             usb_shmsc_Process[mess->ip] = USB_MSG_HMSC_DATA_IN;
                                 		.LINE  "C:\Workspace\e2studio\git\MT01_master\r_usb_hmsc\src\r_usb_hmsc_driver.c",937
00001047 A909                    		MOV.L 14H[R0], R1
00001049 B991                    		MOVU.W 0CH[R1], R1
0000104B FBE2rrrrrrrr            		MOV.L #_usb_shmsc_Process, R14
00001051 FBFA0205                		MOV.L #00000502H, R15
00001055 FE11EF                  		MOV.W R15, [R1,R14]
00001058                         L310:	; bb163.split
                                 ;     938             usb_shmsc_DataInSeq[mess->ip]++;
                                 		.LINE  "C:\Workspace\e2studio\git\MT01_master\r_usb_hmsc\src\r_usb_hmsc_driver.c",938
00001058 A909                    		MOV.L 14H[R0], R1
0000105A B991                    		MOVU.W 0CH[R1], R1
0000105C FBE2rrrrrrrr            		MOV.L #_usb_shmsc_DataInSeq, R14
00001062 FE51EF                  		MOV.W [R1,R14], R15
00001065 621F                    		ADD #01H, R15
00001067 FE11EF                  		MOV.W R15, [R1,R14]
0000106A 38rrrr               W  		BRA L344
0000106D                         L311:	; bb177
                                 ;     939         }
                                 ;     940         else if( hmsc_retval != USB_HMSC_OK )
                                 		.LINE  "C:\Workspace\e2studio\git\MT01_master\r_usb_hmsc\src\r_usb_hmsc_driver.c",940
0000106D B809                    		MOVU.W 02H[R0], R1
0000106F 6101                    		CMP #00H, R1
00001071 A909                    		MOV.L 14H[R0], R1
00001073 20rr                    		BEQ L314
00001075                         L312:	; bb178
                                 ;     941         {
                                 ;     942             USB_PRINTF1("### DataIN : GetData error(drive:%d) \n", drvnum);
                                 ;     943             usb_hmsc_CommandResult(mess, hmsc_retval);
                                 		.LINE  "C:\Workspace\e2studio\git\MT01_master\r_usb_hmsc\src\r_usb_hmsc_driver.c",943
00001075 B80A                    		MOVU.W 02H[R0], R2
00001077 39rrrr               W  		BSR _usb_hmsc_CommandResult
0000107A                         L313:	; bb178.split
                                 ;     944             usb_shmsc_DataInSeq[mess->ip] = USB_SEQ_0;
                                 		.LINE  "C:\Workspace\e2studio\git\MT01_master\r_usb_hmsc\src\r_usb_hmsc_driver.c",944
0000107A A909                    		MOV.L 14H[R0], R1
0000107C B991                    		MOVU.W 0CH[R1], R1
0000107E FBE2rrrrrrrr            		MOV.L #_usb_shmsc_DataInSeq, R14
00001084 660F                    		MOV.L #00000000H, R15
00001086 FE11EF                  		MOV.W R15, [R1,R14]
00001089 38rrrr               W  		BRA L344
0000108C                         L314:	; bb186
                                 ;     945         }
                                 ;     946         else
                                 ;     947         {
                                 ;     948             /* CSW */
                                 ;     949             hmsc_retval = usb_hmsc_GetCsw(mess, drvnum);
                                 		.LINE  "C:\Workspace\e2studio\git\MT01_master\r_usb_hmsc\src\r_usb_hmsc_driver.c",949
0000108C B88A                    		MOVU.W 06H[R0], R2
0000108E 05rrrrrr             A  		BSR _usb_hmsc_GetCsw
00001092 9009                    		MOV.W R1, 02H[R0]
00001094                         L315:	; bb186.split
                                 ;     950 
                                 ;     951             usb_shmsc_Process[mess->ip] = USB_MSG_HMSC_DATA_IN;
                                 		.LINE  "C:\Workspace\e2studio\git\MT01_master\r_usb_hmsc\src\r_usb_hmsc_driver.c",951
00001094 A909                    		MOV.L 14H[R0], R1
00001096 B991                    		MOVU.W 0CH[R1], R1
00001098 FBE2rrrrrrrr            		MOV.L #_usb_shmsc_Process, R14
0000109E FBFA0205                		MOV.L #00000502H, R15
000010A2 FE11EF                  		MOV.W R15, [R1,R14]
000010A5                         L316:	; bb186.split13
                                 ;     952             usb_shmsc_DataInSeq[mess->ip]++;
                                 		.LINE  "C:\Workspace\e2studio\git\MT01_master\r_usb_hmsc\src\r_usb_hmsc_driver.c",952
000010A5 A909                    		MOV.L 14H[R0], R1
000010A7 B991                    		MOVU.W 0CH[R1], R1
000010A9 FBE2rrrrrrrr            		MOV.L #_usb_shmsc_DataInSeq, R14
000010AF FE51EF                  		MOV.W [R1,R14], R15
000010B2 621F                    		ADD #01H, R15
000010B4 FE11EF                  		MOV.W R15, [R1,R14]
000010B7                         L317:	; bb186.split14
                                 ;     953             mess->msginfo = usb_shmsc_Process[mess->ip];
                                 		.LINE  "C:\Workspace\e2studio\git\MT01_master\r_usb_hmsc\src\r_usb_hmsc_driver.c",953
000010B7 A909                    		MOV.L 14H[R0], R1
000010B9 B992                    		MOVU.W 0CH[R1], R2
000010BB FBE2rrrrrrrr            		MOV.L #_usb_shmsc_Process, R14
000010C1 FE52E2                  		MOV.W [R2,R14], R2
000010C4 9092                    		MOV.W R2, 04H[R1]
000010C6                         L318:	; bb186.split15
                                 ;     954             usb_hmsc_SpecifiedPath((USB_CLSINFO_t *)mess);
                                 		.LINE  "C:\Workspace\e2studio\git\MT01_master\r_usb_hmsc\src\r_usb_hmsc_driver.c",954
000010C6 A909                    		MOV.L 14H[R0], R1
000010C8 39rrrr               W  		BSR _usb_hmsc_SpecifiedPath
000010CB 38rrrr               W  		BRA L344
000010CE                         L319:	; bb223
                                 ;     955         }
                                 ;     956         break;
                                 ;     957     case USB_SEQ_5:
                                 ;     958         hmsc_retval = usb_hmsc_GetCswReq(mess, drvnum);
                                 		.LINE  "C:\Workspace\e2studio\git\MT01_master\r_usb_hmsc\src\r_usb_hmsc_driver.c",958
000010CE B88A                    		MOVU.W 06H[R0], R2
000010D0 A909                    		MOV.L 14H[R0], R1
000010D2 05rrrrrr             A  		BSR _usb_hmsc_GetCswReq
000010D6 9009                    		MOV.W R1, 02H[R0]
000010D8                         L320:	; bb223.split
                                 ;     959         usb_shmsc_Process[mess->ip] = USB_MSG_HMSC_DATA_IN;
                                 		.LINE  "C:\Workspace\e2studio\git\MT01_master\r_usb_hmsc\src\r_usb_hmsc_driver.c",959
000010D8 A909                    		MOV.L 14H[R0], R1
000010DA B991                    		MOVU.W 0CH[R1], R1
000010DC FBE2rrrrrrrr            		MOV.L #_usb_shmsc_Process, R14
000010E2 FBFA0205                		MOV.L #00000502H, R15
000010E6 FE11EF                  		MOV.W R15, [R1,R14]
000010E9                         L321:	; bb223.split16
                                 ;     960         usb_shmsc_DataInSeq[mess->ip]++;
                                 		.LINE  "C:\Workspace\e2studio\git\MT01_master\r_usb_hmsc\src\r_usb_hmsc_driver.c",960
000010E9 A909                    		MOV.L 14H[R0], R1
000010EB B991                    		MOVU.W 0CH[R1], R1
000010ED FBE2rrrrrrrr            		MOV.L #_usb_shmsc_DataInSeq, R14
000010F3 FE51EF                  		MOV.W [R1,R14], R15
000010F6 621F                    		ADD #01H, R15
000010F8 FE11EF                  		MOV.W R15, [R1,R14]
000010FB 38rrrr               W  		BRA L344
000010FE                         L322:	; bb239
                                 ;     961         break;
                                 ;     962     case USB_SEQ_6:
                                 ;     963         hmsc_retval = usb_hmsc_GetCswCheck(mess, drvnum, result);
                                 		.LINE  "C:\Workspace\e2studio\git\MT01_master\r_usb_hmsc\src\r_usb_hmsc_driver.c",963
000010FE B883                    		MOVU.W 04H[R0], R3
00001100 B88A                    		MOVU.W 06H[R0], R2
00001102 A909                    		MOV.L 14H[R0], R1
00001104 05rrrrrr             A  		BSR _usb_hmsc_GetCswCheck
00001108 9009                    		MOV.W R1, 02H[R0]
0000110A                         L323:	; bb239.split
                                 ;     964         switch( hmsc_retval )
                                 		.LINE  "C:\Workspace\e2studio\git\MT01_master\r_usb_hmsc\src\r_usb_hmsc_driver.c",964
0000110A B809                    		MOVU.W 02H[R0], R1
0000110C 7701FBFF00              		CMP #0FFFBH, R1
00001111 20rr                    		BEQ L330
00001113                         L324:	; bb239.split
00001113 76010705                		CMP #0507H, R1
00001117 20rr                    		BEQ L333
00001119                         L325:	; bb239.split
00001119 6101                    		CMP #00H, R1
0000111B 3Brrrr               W  		BNE L337
0000111E                         L326:	; bb247
                                 ;     965         {
                                 ;     966         case USB_HMSC_OK:
                                 ;     967             if(usb_ghmsc_CswErrRoop[mess->ip] == USB_ON)
                                 		.LINE  "C:\Workspace\e2studio\git\MT01_master\r_usb_hmsc\src\r_usb_hmsc_driver.c",967
0000111E A909                    		MOV.L 14H[R0], R1
00001120 B991                    		MOVU.W 0CH[R1], R1
00001122 FBE2rrrrrrrr            		MOV.L #_usb_ghmsc_CswErrRoop, R14
00001128 FED1EE                  		MOVU.W [R1,R14], R14
0000112B 611E                    		CMP #01H, R14
0000112D 21rr                    		BNE L329
0000112F                         L327:	; bb248
                                 ;     968             {
                                 ;     969                 usb_ghmsc_CswErrRoop[mess->ip] = USB_OFF;
                                 		.LINE  "C:\Workspace\e2studio\git\MT01_master\r_usb_hmsc\src\r_usb_hmsc_driver.c",969
0000112F A909                    		MOV.L 14H[R0], R1
00001131 B991                    		MOVU.W 0CH[R1], R1
00001133 FBE2rrrrrrrr            		MOV.L #_usb_ghmsc_CswErrRoop, R14
00001139 660F                    		MOV.L #00000000H, R15
0000113B FE11EF                  		MOV.W R15, [R1,R14]
0000113E                         L328:	; bb248.split
                                 ;     970                 hmsc_retval = USB_HMSC_CSW_ERR;
                                 		.LINE  "C:\Workspace\e2studio\git\MT01_master\r_usb_hmsc\src\r_usb_hmsc_driver.c",970
0000113E F90901FBFF              		MOV.W #0FFFBH, 02H[R0]
00001143                         L329:	; bb264
                                 ;     971             }
                                 ;     972             usb_hmsc_CommandResult(mess, hmsc_retval);
                                 		.LINE  "C:\Workspace\e2studio\git\MT01_master\r_usb_hmsc\src\r_usb_hmsc_driver.c",972
00001143 B80A                    		MOVU.W 02H[R0], R2
00001145 A909                    		MOV.L 14H[R0], R1
00001147 39rrrr               W  		BSR _usb_hmsc_CommandResult
0000114A 38rrrr               W  		BRA L341
0000114D                         L330:	; bb267
                                 ;     973             break;
                                 ;     974         case USB_HMSC_CSW_ERR:
                                 ;     975             USB_PRINTF1("*** DataIN : CSW-NG(drive:%d) \n", drvnum);
                                 ;     976             usb_ghmsc_CswErrRoop[mess->ip] = USB_ON;
                                 		.LINE  "C:\Workspace\e2studio\git\MT01_master\r_usb_hmsc\src\r_usb_hmsc_driver.c",976
0000114D A909                    		MOV.L 14H[R0], R1
0000114F B991                    		MOVU.W 0CH[R1], R1
00001151 FBE2rrrrrrrr            		MOV.L #_usb_ghmsc_CswErrRoop, R14
00001157 661F                    		MOV.L #00000001H, R15
00001159 FE11EF                  		MOV.W R15, [R1,R14]
0000115C                         L331:	; bb267.split
                                 ;     977             drvnum = usb_ghmsc_RootDrive[mess->ip];
                                 		.LINE  "C:\Workspace\e2studio\git\MT01_master\r_usb_hmsc\src\r_usb_hmsc_driver.c",977
0000115C A909                    		MOV.L 14H[R0], R1
0000115E B991                    		MOVU.W 0CH[R1], R1
00001160 FBE2rrrrrrrr            		MOV.L #_usb_ghmsc_RootDrive, R14
00001166 FE51E1                  		MOV.W [R1,R14], R1
00001169 9089                    		MOV.W R1, 06H[R0]
0000116B                         L332:	; bb267.split17
                                 ;     978             R_usb_hmsc_RequestSense(mess, drvnum, (uint8_t*)&usb_ghmsc_Data[mess->ip]);
                                 		.LINE  "C:\Workspace\e2studio\git\MT01_master\r_usb_hmsc\src\r_usb_hmsc_driver.c",978
0000116B A909                    		MOV.L 14H[R0], R1
0000116D B994                    		MOVU.W 0CH[R1], R4
0000116F B88A                    		MOVU.W 06H[R0], R2
00001171 76140014                		MUL #1400H, R4
00001175 FB32rrrrrrrr            		MOV.L #_usb_ghmsc_Data, R3
0000117B 4B43                    		ADD R4, R3
0000117D 05rrrrrr             A  		BSR _R_usb_hmsc_RequestSense
00001181 2Err                 B  		BRA L341
00001183                         L333:	; bb288
                                 ;     979             break;
                                 ;     980         case USB_MSG_HMSC_DATA_STALL:
                                 ;     981             USB_PRINTF1("*** DataIN : CSW-STALL(drive:%d) \n", drvnum);
                                 ;     982             usb_shmsc_Process[mess->ip] = USB_MSG_HMSC_DATA_STALL;
                                 		.LINE  "C:\Workspace\e2studio\git\MT01_master\r_usb_hmsc\src\r_usb_hmsc_driver.c",982
00001183 A909                    		MOV.L 14H[R0], R1
00001185 B991                    		MOVU.W 0CH[R1], R1
00001187 FBE2rrrrrrrr            		MOV.L #_usb_shmsc_Process, R14
0000118D FBFA0705                		MOV.L #00000507H, R15
00001191 FE11EF                  		MOV.W R15, [R1,R14]
00001194                         L334:	; bb288.split
                                 ;     983             mess->keyword = drvnum;
                                 		.LINE  "C:\Workspace\e2studio\git\MT01_master\r_usb_hmsc\src\r_usb_hmsc_driver.c",983
00001194 9889                    		MOV.W 06H[R0], R1
00001196 A90A                    		MOV.L 14H[R0], R2
00001198 90A9                    		MOV.W R1, 06H[R2]
0000119A                         L335:	; bb288.split18
                                 ;     984             mess->msginfo = usb_shmsc_Process[mess->ip];
                                 		.LINE  "C:\Workspace\e2studio\git\MT01_master\r_usb_hmsc\src\r_usb_hmsc_driver.c",984
0000119A A909                    		MOV.L 14H[R0], R1
0000119C B992                    		MOVU.W 0CH[R1], R2
0000119E FBE2rrrrrrrr            		MOV.L #_usb_shmsc_Process, R14
000011A4 FE52E2                  		MOV.W [R2,R14], R2
000011A7 9092                    		MOV.W R2, 04H[R1]
000011A9                         L336:	; bb288.split19
                                 ;     985             usb_hmsc_SpecifiedPath((USB_CLSINFO_t *)mess);
                                 		.LINE  "C:\Workspace\e2studio\git\MT01_master\r_usb_hmsc\src\r_usb_hmsc_driver.c",985
000011A9 A909                    		MOV.L 14H[R0], R1
000011AB 39rrrr               W  		BSR _usb_hmsc_SpecifiedPath
000011AE 2Err                 B  		BRA L341
000011B0                         L337:	; bb307
                                 ;     986             break;
                                 ;     987         default:
                                 ;     988             if(usb_ghmsc_CswErrRoop[mess->ip] == USB_ON)
                                 		.LINE  "C:\Workspace\e2studio\git\MT01_master\r_usb_hmsc\src\r_usb_hmsc_driver.c",988
000011B0 A909                    		MOV.L 14H[R0], R1
000011B2 B991                    		MOVU.W 0CH[R1], R1
000011B4 FBE2rrrrrrrr            		MOV.L #_usb_ghmsc_CswErrRoop, R14
000011BA FED1EE                  		MOVU.W [R1,R14], R14
000011BD 611E                    		CMP #01H, R14
000011BF 21rr                    		BNE L340
000011C1                         L338:	; bb308
                                 ;     989             {
                                 ;     990                 usb_ghmsc_CswErrRoop[mess->ip] = USB_OFF;
                                 		.LINE  "C:\Workspace\e2studio\git\MT01_master\r_usb_hmsc\src\r_usb_hmsc_driver.c",990
000011C1 A909                    		MOV.L 14H[R0], R1
000011C3 B991                    		MOVU.W 0CH[R1], R1
000011C5 FBE2rrrrrrrr            		MOV.L #_usb_ghmsc_CswErrRoop, R14
000011CB 660F                    		MOV.L #00000000H, R15
000011CD FE11EF                  		MOV.W R15, [R1,R14]
000011D0                         L339:	; bb308.split
                                 ;     991                 hmsc_retval = USB_HMSC_CSW_ERR;
                                 		.LINE  "C:\Workspace\e2studio\git\MT01_master\r_usb_hmsc\src\r_usb_hmsc_driver.c",991
000011D0 F90901FBFF              		MOV.W #0FFFBH, 02H[R0]
000011D5                         L340:	; bb324
                                 ;     992             }
                                 ;     993             USB_PRINTF1("### DataIN : GetCSW error(drive:%d) \n", drvnum);
                                 ;     994             usb_hmsc_CommandResult(mess, hmsc_retval);
                                 		.LINE  "C:\Workspace\e2studio\git\MT01_master\r_usb_hmsc\src\r_usb_hmsc_driver.c",994
000011D5 B80A                    		MOVU.W 02H[R0], R2
000011D7 A909                    		MOV.L 14H[R0], R1
000011D9 39rrrr               W  		BSR _usb_hmsc_CommandResult
000011DC                         L341:	; bb327
                                 ;     995             break;
                                 ;     996         }
                                 ;     997         
                                 ;     998         usb_shmsc_DataInSeq[mess->ip] = USB_SEQ_0;
                                 		.LINE  "C:\Workspace\e2studio\git\MT01_master\r_usb_hmsc\src\r_usb_hmsc_driver.c",998
000011DC A909                    		MOV.L 14H[R0], R1
000011DE B991                    		MOVU.W 0CH[R1], R1
000011E0 FBE2rrrrrrrr            		MOV.L #_usb_shmsc_DataInSeq, R14
000011E6 660F                    		MOV.L #00000000H, R15
000011E8 FE11EF                  		MOV.W R15, [R1,R14]
000011EB 2Err                 B  		BRA L344
000011ED                         L342:	; bb333
                                 ;     999         break;
                                 ;    1000     default:
                                 ;    1001         usb_hmsc_CommandResult(mess, hmsc_retval);
                                 		.LINE  "C:\Workspace\e2studio\git\MT01_master\r_usb_hmsc\src\r_usb_hmsc_driver.c",1001
000011ED B80A                    		MOVU.W 02H[R0], R2
000011EF A909                    		MOV.L 14H[R0], R1
000011F1 39rrrr               W  		BSR _usb_hmsc_CommandResult
000011F4                         L343:	; bb333.split
                                 ;    1002         usb_shmsc_DataInSeq[mess->ip] = USB_SEQ_0;
                                 		.LINE  "C:\Workspace\e2studio\git\MT01_master\r_usb_hmsc\src\r_usb_hmsc_driver.c",1002
000011F4 A909                    		MOV.L 14H[R0], R1
000011F6 B991                    		MOVU.W 0CH[R1], R1
000011F8 FBE2rrrrrrrr            		MOV.L #_usb_shmsc_DataInSeq, R14
000011FE 660F                    		MOV.L #00000000H, R15
00001200 FE11EF                  		MOV.W R15, [R1,R14]
00001203                         L344:	; bb341
                                 ;    1003         break;
                                 ;    1004     }
                                 ;    1005     /* Data read error */
                                 ;    1006     return (hmsc_retval);
                                 		.LINE  "C:\Workspace\e2studio\git\MT01_master\r_usb_hmsc\src\r_usb_hmsc_driver.c",1006
00001203 D5000109                		MOV.W 02H[R0], 12H[R0]
00001207 9A09                    		MOV.W 12H[R0], R1
00001209                         L345:	; bb341.split
                                 ;    1007 }   /* eof usb_hmsc_DataInAct() */
                                 		.LINE  "C:\Workspace\e2studio\git\MT01_master\r_usb_hmsc\src\r_usb_hmsc_driver.c",1007
00001209 5F11                    		MOVU.W R1, R1
0000120B 6706                    		RTSD #18H
0000120D                         _usb_hmsc_DataOut:
                                 		.STACK	_usb_hmsc_DataOut=68
                                 ;    1008 
                                 ;    1009 /******************************************************************************
                                 ;    1010 Function Name   : usb_hmsc_DataOut
                                 ;    1011 Description     : HMSC Data Out
                                 ;    1012 Arguments       : uint16_t drvnum : 
                                 ;    1013                 : uint8_t *buff : 
                                 ;    1014                 : uint32_t size : 
                                 ;    1015 Return value    : uint16_t : 
                                 ;    1016 ******************************************************************************/
                                 ;    1017 uint16_t usb_hmsc_DataOut(USB_UTR_t *ptr, uint16_t drvnum, uint8_t *buff, uint32_t size)
                                 		.LINE  "C:\Workspace\e2studio\git\MT01_master\r_usb_hmsc\src\r_usb_hmsc_driver.c",1017
0000120D 7100C0                  		ADD #0FFFFFFC0H, R0
00001210 A389                    		MOV.L R1, 3CH[R0]
00001212 970A                    		MOV.W R2, 3AH[R0]
00001214 A30B                    		MOV.L R3, 34H[R0]
00001216 A304                    		MOV.L R4, 30H[R0]
                                 ;    1018 {
                                 ;    1019     USB_CLSINFO_t mess;
                                 ;    1020 #ifdef FREE_RTOS_PP
                                 ;    1021     taskENTER_CRITICAL();
                                 		.LINE  "C:\Workspace\e2studio\git\MT01_master\r_usb_hmsc\src\r_usb_hmsc_driver.c",1021
00001218 05rrrrrr             A  		BSR _vTaskEnterCritical
0000121C                         L347:	; entry.split
                                 ;    1022 #endif
                                 ;    1023     mess.ip = ptr->ip;
                                 		.LINE  "C:\Workspace\e2studio\git\MT01_master\r_usb_hmsc\src\r_usb_hmsc_driver.c",1023
0000121C AB89                    		MOV.L 3CH[R0], R1
0000121E D5100606                		MOV.W 0CH[R1], 0CH[R0]
00001222                         L348:	; entry.split1
                                 ;    1024     mess.ipp = ptr->ipp;
                                 		.LINE  "C:\Workspace\e2studio\git\MT01_master\r_usb_hmsc\src\r_usb_hmsc_driver.c",1024
00001222 AB89                    		MOV.L 3CH[R0], R1
00001224 E5100202                		MOV.L 08H[R1], 08H[R0]
00001228                         L349:	; entry.split2
                                 ;    1025 
                                 ;    1026     mess.keyword = drvnum;
                                 		.LINE  "C:\Workspace\e2studio\git\MT01_master\r_usb_hmsc\src\r_usb_hmsc_driver.c",1026
00001228 D5001D03                		MOV.W 3AH[R0], 06H[R0]
0000122C                         L350:	; entry.split3
                                 ;    1027     usb_ghmsc_Buff[ptr->ip] = buff;
                                 		.LINE  "C:\Workspace\e2studio\git\MT01_master\r_usb_hmsc\src\r_usb_hmsc_driver.c",1027
0000122C AB89                    		MOV.L 3CH[R0], R1
0000122E B991                    		MOVU.W 0CH[R1], R1
00001230 FBE2rrrrrrrr            		MOV.L #_usb_ghmsc_Buff, R14
00001236 AB0A                    		MOV.L 34H[R0], R2
00001238 FE21E2                  		MOV.L R2, [R1,R14]
0000123B                         L351:	; entry.split4
                                 ;    1028     usb_ghmsc_TransSize[ptr->ip] = size;
                                 		.LINE  "C:\Workspace\e2studio\git\MT01_master\r_usb_hmsc\src\r_usb_hmsc_driver.c",1028
0000123B AB89                    		MOV.L 3CH[R0], R1
0000123D B991                    		MOVU.W 0CH[R1], R1
0000123F FBE2rrrrrrrr            		MOV.L #_usb_ghmsc_TransSize, R14
00001245 AB02                    		MOV.L 30H[R0], R2
00001247 FE21E2                  		MOV.L R2, [R1,R14]
0000124A                         L352:	; entry.split5
                                 ;    1029     usb_shmsc_Process[ptr->ip] = USB_MSG_HMSC_DATA_OUT;
                                 		.LINE  "C:\Workspace\e2studio\git\MT01_master\r_usb_hmsc\src\r_usb_hmsc_driver.c",1029
0000124A AB89                    		MOV.L 3CH[R0], R1
0000124C B991                    		MOVU.W 0CH[R1], R1
0000124E FBE2rrrrrrrr            		MOV.L #_usb_shmsc_Process, R14
00001254 FBFA0305                		MOV.L #00000503H, R15
00001258 FE11EF                  		MOV.W R15, [R1,R14]
0000125B                         L353:	; entry.split6
                                 ;    1030     usb_shmsc_DataOutSeq[ptr->ip] = USB_SEQ_0;
                                 		.LINE  "C:\Workspace\e2studio\git\MT01_master\r_usb_hmsc\src\r_usb_hmsc_driver.c",1030
0000125B AB89                    		MOV.L 3CH[R0], R1
0000125D B991                    		MOVU.W 0CH[R1], R1
0000125F FBE2rrrrrrrr            		MOV.L #_usb_shmsc_DataOutSeq, R14
00001265 660F                    		MOV.L #00000000H, R15
00001267 FE11EF                  		MOV.W R15, [R1,R14]
0000126A                         L354:	; entry.split7
                                 ;    1031     mess.msginfo = usb_shmsc_Process[ptr->ip];
                                 		.LINE  "C:\Workspace\e2studio\git\MT01_master\r_usb_hmsc\src\r_usb_hmsc_driver.c",1031
0000126A AB89                    		MOV.L 3CH[R0], R1
0000126C B991                    		MOVU.W 0CH[R1], R1
0000126E FBE2rrrrrrrr            		MOV.L #_usb_shmsc_Process, R14
00001274 FE51E1                  		MOV.W [R1,R14], R1
00001277 9081                    		MOV.W R1, 04H[R0]
00001279                         L355:	; entry.split8
                                 ;    1032 #ifdef FREE_RTOS_PP
                                 ;    1033     taskEXIT_CRITICAL();
                                 		.LINE  "C:\Workspace\e2studio\git\MT01_master\r_usb_hmsc\src\r_usb_hmsc_driver.c",1033
00001279 05rrrrrr             A  		BSR _vTaskExitCritical
0000127D                         L356:	; entry.split9
0000127D EF01                    		MOV.L R0, R1
                                 ;    1034 #endif
                                 ;    1035     usb_hmsc_SpecifiedPath(&mess);
                                 		.LINE  "C:\Workspace\e2studio\git\MT01_master\r_usb_hmsc\src\r_usb_hmsc_driver.c",1035
0000127F 39rrrr               W  		BSR _usb_hmsc_SpecifiedPath
00001282                         L357:	; entry.split10
                                 ;    1036     return USB_DONE;
                                 		.LINE  "C:\Workspace\e2studio\git\MT01_master\r_usb_hmsc\src\r_usb_hmsc_driver.c",1036
00001282 3D8700                  		MOV.W #0000H, 2EH[R0]
00001285 9D89                    		MOV.W 2EH[R0], R1
00001287                         L358:	; entry.split11
                                 ;    1037 }   /* eof usb_hmsc_DataOut() */
                                 		.LINE  "C:\Workspace\e2studio\git\MT01_master\r_usb_hmsc\src\r_usb_hmsc_driver.c",1037
00001287 5F11                    		MOVU.W R1, R1
00001289 6710                    		RTSD #40H
0000128B                         _usb_hmsc_DataOutAct:
                                 		.STACK	_usb_hmsc_DataOutAct=28
                                 ;    1038 
                                 ;    1039 /******************************************************************************
                                 ;    1040 Function Name   : usb_hmsc_DataOutAct
                                 ;    1041 Description     : Send Data request
                                 ;    1042 Arguments       : USB_CLSINFO_t *mess : 
                                 ;    1043 Return value    : uint16_t : 
                                 ;    1044 ******************************************************************************/
                                 ;    1045 uint16_t usb_hmsc_DataOutAct(USB_CLSINFO_t *mess)
                                 		.LINE  "C:\Workspace\e2studio\git\MT01_master\r_usb_hmsc\src\r_usb_hmsc_driver.c",1045
0000128B 7100E8                  		ADD #0FFFFFFE8H, R0
0000128E A109                    		MOV.L R1, 14H[R0]
                                 ;    1046 {
                                 ;    1047     uint16_t    hmsc_retval, result;
                                 ;    1048     uint16_t    drvnum;
                                 ;    1049     uint8_t     *buff;
                                 ;    1050     uint32_t    size;
                                 ;    1051 
                                 ;    1052     drvnum = usb_ghmsc_RootDrive[mess->ip];
                                 		.LINE  "C:\Workspace\e2studio\git\MT01_master\r_usb_hmsc\src\r_usb_hmsc_driver.c",1052
00001290 B991                    		MOVU.W 0CH[R1], R1
00001292 FBE2rrrrrrrr            		MOV.L #_usb_ghmsc_RootDrive, R14
00001298 FE51E1                  		MOV.W [R1,R14], R1
0000129B 9089                    		MOV.W R1, 06H[R0]
0000129D                         L360:	; entry.split
                                 ;    1053     buff = usb_ghmsc_Buff[mess->ip];
                                 		.LINE  "C:\Workspace\e2studio\git\MT01_master\r_usb_hmsc\src\r_usb_hmsc_driver.c",1053
0000129D A909                    		MOV.L 14H[R0], R1
0000129F B991                    		MOVU.W 0CH[R1], R1
000012A1 FBE2rrrrrrrr            		MOV.L #_usb_ghmsc_Buff, R14
000012A7 FE61E1                  		MOV.L [R1,R14], R1
000012AA A081                    		MOV.L R1, 08H[R0]
000012AC                         L361:	; entry.split1
                                 ;    1054     size = usb_ghmsc_TransSize[mess->ip];
                                 		.LINE  "C:\Workspace\e2studio\git\MT01_master\r_usb_hmsc\src\r_usb_hmsc_driver.c",1054
000012AC A909                    		MOV.L 14H[R0], R1
000012AE B991                    		MOVU.W 0CH[R1], R1
000012B0 FBE2rrrrrrrr            		MOV.L #_usb_ghmsc_TransSize, R14
000012B6 FE61E1                  		MOV.L [R1,R14], R1
000012B9 A089                    		MOV.L R1, 0CH[R0]
000012BB                         L362:	; entry.split2
                                 ;    1055     result = mess -> result;
                                 		.LINE  "C:\Workspace\e2studio\git\MT01_master\r_usb_hmsc\src\r_usb_hmsc_driver.c",1055
000012BB A909                    		MOV.L 14H[R0], R1
000012BD D5100702                		MOV.W 0EH[R1], 04H[R0]
000012C1                         L363:	; entry.split3
                                 ;    1056     
                                 ;    1057     switch( usb_shmsc_DataOutSeq[mess->ip] )
                                 		.LINE  "C:\Workspace\e2studio\git\MT01_master\r_usb_hmsc\src\r_usb_hmsc_driver.c",1057
000012C1 A909                    		MOV.L 14H[R0], R1
000012C3 B991                    		MOVU.W 0CH[R1], R1
000012C5 FBE2rrrrrrrr            		MOV.L #_usb_shmsc_DataOutSeq, R14
000012CB FED1EE                  		MOVU.W [R1,R14], R14
000012CE 616E                    		CMP #06H, R14
000012D0 3Arrrr               W  		BEQ L409
000012D3                         L364:	; entry.split3
000012D3 611E                    		CMP #01H, R14
000012D5 20rr                    		BEQ L377
000012D7                         L365:	; entry.split3
000012D7 612E                    		CMP #02H, R14
000012D9 3Arrrr               W  		BEQ L380
000012DC                         L366:	; entry.split3
000012DC 613E                    		CMP #03H, R14
000012DE 3Arrrr               W  		BEQ L391
000012E1                         L367:	; entry.split3
000012E1 614E                    		CMP #04H, R14
000012E3 3Arrrr               W  		BEQ L394
000012E6                         L368:	; entry.split3
000012E6 615E                    		CMP #05H, R14
000012E8 3Arrrr               W  		BEQ L406
000012EB                         L369:	; entry.split3
000012EB 610E                    		CMP #00H, R14
000012ED 3Brrrr               W  		BNE L429
000012F0                         L370:	; bb
                                 ;    1058     {
                                 ;    1059     case USB_SEQ_0:
                                 ;    1060         /* CBW */
                                 ;    1061         drvnum = mess -> keyword;
                                 		.LINE  "C:\Workspace\e2studio\git\MT01_master\r_usb_hmsc\src\r_usb_hmsc_driver.c",1061
000012F0 A909                    		MOV.L 14H[R0], R1
000012F2 D5100303                		MOV.W 06H[R1], 06H[R0]
000012F6                         L371:	; bb.split
                                 ;    1062         usb_ghmsc_RootDrive[mess->ip] = drvnum;
                                 		.LINE  "C:\Workspace\e2studio\git\MT01_master\r_usb_hmsc\src\r_usb_hmsc_driver.c",1062
000012F6 A909                    		MOV.L 14H[R0], R1
000012F8 B991                    		MOVU.W 0CH[R1], R1
000012FA FBE2rrrrrrrr            		MOV.L #_usb_ghmsc_RootDrive, R14
00001300 988A                    		MOV.W 06H[R0], R2
00001302 FE11E2                  		MOV.W R2, [R1,R14]
00001305                         L372:	; bb.split4
                                 ;    1063         hmsc_retval = usb_hmsc_SendCbw(mess, drvnum);
                                 		.LINE  "C:\Workspace\e2studio\git\MT01_master\r_usb_hmsc\src\r_usb_hmsc_driver.c",1063
00001305 B88A                    		MOVU.W 06H[R0], R2
00001307 A909                    		MOV.L 14H[R0], R1
00001309 05rrrrrr             A  		BSR _usb_hmsc_SendCbw
0000130D 9009                    		MOV.W R1, 02H[R0]
0000130F                         L373:	; bb.split5
                                 ;    1064         usb_shmsc_Process[mess->ip] = USB_MSG_HMSC_DATA_OUT;
                                 		.LINE  "C:\Workspace\e2studio\git\MT01_master\r_usb_hmsc\src\r_usb_hmsc_driver.c",1064
0000130F A909                    		MOV.L 14H[R0], R1
00001311 B991                    		MOVU.W 0CH[R1], R1
00001313 FBE2rrrrrrrr            		MOV.L #_usb_shmsc_Process, R14
00001319 FBFA0305                		MOV.L #00000503H, R15
0000131D FE11EF                  		MOV.W R15, [R1,R14]
00001320                         L374:	; bb.split6
                                 ;    1065         usb_shmsc_DataOutSeq[mess->ip]++;
                                 		.LINE  "C:\Workspace\e2studio\git\MT01_master\r_usb_hmsc\src\r_usb_hmsc_driver.c",1065
00001320 A909                    		MOV.L 14H[R0], R1
00001322 B991                    		MOVU.W 0CH[R1], R1
00001324 FBE2rrrrrrrr            		MOV.L #_usb_shmsc_DataOutSeq, R14
0000132A FE51EF                  		MOV.W [R1,R14], R15
0000132D 621F                    		ADD #01H, R15
0000132F FE11EF                  		MOV.W R15, [R1,R14]
00001332                         L375:	; bb.split7
                                 ;    1066         mess->msginfo = usb_shmsc_Process[mess->ip];
                                 		.LINE  "C:\Workspace\e2studio\git\MT01_master\r_usb_hmsc\src\r_usb_hmsc_driver.c",1066
00001332 A909                    		MOV.L 14H[R0], R1
00001334 B992                    		MOVU.W 0CH[R1], R2
00001336 FBE2rrrrrrrr            		MOV.L #_usb_shmsc_Process, R14
0000133C FE52E2                  		MOV.W [R2,R14], R2
0000133F 9092                    		MOV.W R2, 04H[R1]
00001341                         L376:	; bb.split8
                                 ;    1067         usb_hmsc_SpecifiedPath((USB_CLSINFO_t *)mess);
                                 		.LINE  "C:\Workspace\e2studio\git\MT01_master\r_usb_hmsc\src\r_usb_hmsc_driver.c",1067
00001341 A909                    		MOV.L 14H[R0], R1
00001343 39rrrr               W  		BSR _usb_hmsc_SpecifiedPath
00001346 38rrrr               W  		BRA L431
00001349                         L377:	; bb68
                                 ;    1068         break;
                                 ;    1069     case USB_SEQ_1:
                                 ;    1070         hmsc_retval = usb_hmsc_SendCbwReq(mess, drvnum);
                                 		.LINE  "C:\Workspace\e2studio\git\MT01_master\r_usb_hmsc\src\r_usb_hmsc_driver.c",1070
00001349 B88A                    		MOVU.W 06H[R0], R2
0000134B A909                    		MOV.L 14H[R0], R1
0000134D 05rrrrrr             A  		BSR _usb_hmsc_SendCbwReq
00001351 9009                    		MOV.W R1, 02H[R0]
00001353                         L378:	; bb68.split
                                 ;    1071         usb_shmsc_Process[mess->ip] = USB_MSG_HMSC_DATA_OUT;
                                 		.LINE  "C:\Workspace\e2studio\git\MT01_master\r_usb_hmsc\src\r_usb_hmsc_driver.c",1071
00001353 A909                    		MOV.L 14H[R0], R1
00001355 B991                    		MOVU.W 0CH[R1], R1
00001357 FBE2rrrrrrrr            		MOV.L #_usb_shmsc_Process, R14
0000135D FBFA0305                		MOV.L #00000503H, R15
00001361 FE11EF                  		MOV.W R15, [R1,R14]
00001364                         L379:	; bb68.split9
                                 ;    1072         usb_shmsc_DataOutSeq[mess->ip]++;
                                 		.LINE  "C:\Workspace\e2studio\git\MT01_master\r_usb_hmsc\src\r_usb_hmsc_driver.c",1072
00001364 A909                    		MOV.L 14H[R0], R1
00001366 B991                    		MOVU.W 0CH[R1], R1
00001368 FBE2rrrrrrrr            		MOV.L #_usb_shmsc_DataOutSeq, R14
0000136E FE51EF                  		MOV.W [R1,R14], R15
00001371 621F                    		ADD #01H, R15
00001373 FE11EF                  		MOV.W R15, [R1,R14]
00001376 38rrrr               W  		BRA L431
00001379                         L380:	; bb84
                                 ;    1073         break;
                                 ;    1074     case USB_SEQ_2:
                                 ;    1075         hmsc_retval = usb_hmsc_SendCbwCheck(mess, drvnum, result);
                                 		.LINE  "C:\Workspace\e2studio\git\MT01_master\r_usb_hmsc\src\r_usb_hmsc_driver.c",1075
00001379 B883                    		MOVU.W 04H[R0], R3
0000137B B88A                    		MOVU.W 06H[R0], R2
0000137D A909                    		MOV.L 14H[R0], R1
0000137F 05rrrrrr             A  		BSR _usb_hmsc_SendCbwCheck
00001383 9009                    		MOV.W R1, 02H[R0]
00001385                         L381:	; bb84.split
                                 ;    1076         if( hmsc_retval == USB_DATA_STALL )
                                 		.LINE  "C:\Workspace\e2studio\git\MT01_master\r_usb_hmsc\src\r_usb_hmsc_driver.c",1076
00001385 B809                    		MOVU.W 02H[R0], R1
00001387 6161                    		CMP #06H, R1
00001389 21rr                    		BNE L383
0000138B                         L382:	; bb90
                                 ;    1077         {
                                 ;    1078             usb_shmsc_DataOutSeq[mess->ip] = USB_SEQ_0;
                                 		.LINE  "C:\Workspace\e2studio\git\MT01_master\r_usb_hmsc\src\r_usb_hmsc_driver.c",1078
0000138B A909                    		MOV.L 14H[R0], R1
0000138D B991                    		MOVU.W 0CH[R1], R1
0000138F FBE2rrrrrrrr            		MOV.L #_usb_shmsc_DataOutSeq, R14
00001395 660F                    		MOV.L #00000000H, R15
00001397 FE11EF                  		MOV.W R15, [R1,R14]
0000139A 38rrrr               W  		BRA L431
0000139D                         L383:	; bb97
                                 ;    1079         }
                                 ;    1080         else if( hmsc_retval != USB_HMSC_OK )
                                 		.LINE  "C:\Workspace\e2studio\git\MT01_master\r_usb_hmsc\src\r_usb_hmsc_driver.c",1080
0000139D B809                    		MOVU.W 02H[R0], R1
0000139F 6101                    		CMP #00H, R1
000013A1 A909                    		MOV.L 14H[R0], R1
000013A3 20rr                    		BEQ L386
000013A5                         L384:	; bb98
                                 ;    1081         {
                                 ;    1082             USB_PRINTF1("### DataOUT : SendCBW error(drive:%d) \n", drvnum);
                                 ;    1083             usb_shmsc_DataOutSeq[mess->ip] = USB_SEQ_0;
                                 		.LINE  "C:\Workspace\e2studio\git\MT01_master\r_usb_hmsc\src\r_usb_hmsc_driver.c",1083
000013A5 B991                    		MOVU.W 0CH[R1], R1
000013A7 FBE2rrrrrrrr            		MOV.L #_usb_shmsc_DataOutSeq, R14
000013AD 660F                    		MOV.L #00000000H, R15
000013AF FE11EF                  		MOV.W R15, [R1,R14]
000013B2                         L385:	; bb98.split
                                 ;    1084             usb_hmsc_CommandResult(mess, hmsc_retval);
                                 		.LINE  "C:\Workspace\e2studio\git\MT01_master\r_usb_hmsc\src\r_usb_hmsc_driver.c",1084
000013B2 B80A                    		MOVU.W 02H[R0], R2
000013B4 A909                    		MOV.L 14H[R0], R1
000013B6 39rrrr               W  		BSR _usb_hmsc_CommandResult
000013B9 38rrrr               W  		BRA L431
000013BC                         L386:	; bb106
                                 ;    1085         }
                                 ;    1086         else
                                 ;    1087         {
                                 ;    1088             /* Data */
                                 ;    1089             usb_hmsc_SendData(mess, drvnum, buff, size);
                                 		.LINE  "C:\Workspace\e2studio\git\MT01_master\r_usb_hmsc\src\r_usb_hmsc_driver.c",1089
000013BC A88C                    		MOV.L 0CH[R0], R4
000013BE A883                    		MOV.L 08H[R0], R3
000013C0 B88A                    		MOVU.W 06H[R0], R2
000013C2 05rrrrrr             A  		BSR _usb_hmsc_SendData
000013C6                         L387:	; bb106.split
                                 ;    1090             usb_shmsc_Process[mess->ip] = USB_MSG_HMSC_DATA_OUT;
                                 		.LINE  "C:\Workspace\e2studio\git\MT01_master\r_usb_hmsc\src\r_usb_hmsc_driver.c",1090
000013C6 A909                    		MOV.L 14H[R0], R1
000013C8 B991                    		MOVU.W 0CH[R1], R1
000013CA FBE2rrrrrrrr            		MOV.L #_usb_shmsc_Process, R14
000013D0 FBFA0305                		MOV.L #00000503H, R15
000013D4 FE11EF                  		MOV.W R15, [R1,R14]
000013D7                         L388:	; bb106.split10
                                 ;    1091             usb_shmsc_DataOutSeq[mess->ip]++;
                                 		.LINE  "C:\Workspace\e2studio\git\MT01_master\r_usb_hmsc\src\r_usb_hmsc_driver.c",1091
000013D7 A909                    		MOV.L 14H[R0], R1
000013D9 B991                    		MOVU.W 0CH[R1], R1
000013DB FBE2rrrrrrrr            		MOV.L #_usb_shmsc_DataOutSeq, R14
000013E1 FE51EF                  		MOV.W [R1,R14], R15
000013E4 621F                    		ADD #01H, R15
000013E6 FE11EF                  		MOV.W R15, [R1,R14]
000013E9                         L389:	; bb106.split11
                                 ;    1092             mess->msginfo = usb_shmsc_Process[mess->ip];
                                 		.LINE  "C:\Workspace\e2studio\git\MT01_master\r_usb_hmsc\src\r_usb_hmsc_driver.c",1092
000013E9 A909                    		MOV.L 14H[R0], R1
000013EB B992                    		MOVU.W 0CH[R1], R2
000013ED FBE2rrrrrrrr            		MOV.L #_usb_shmsc_Process, R14
000013F3 FE52E2                  		MOV.W [R2,R14], R2
000013F6 9092                    		MOV.W R2, 04H[R1]
000013F8                         L390:	; bb106.split12
                                 ;    1093             usb_hmsc_SpecifiedPath((USB_CLSINFO_t *)mess);
                                 		.LINE  "C:\Workspace\e2studio\git\MT01_master\r_usb_hmsc\src\r_usb_hmsc_driver.c",1093
000013F8 A909                    		MOV.L 14H[R0], R1
000013FA 39rrrr               W  		BSR _usb_hmsc_SpecifiedPath
000013FD 38rrrr               W  		BRA L431
00001400                         L391:	; bb144
                                 ;    1094         }
                                 ;    1095         break;
                                 ;    1096     case USB_SEQ_3:
                                 ;    1097         usb_hmsc_SendDataReq(mess, drvnum, buff, size);
                                 		.LINE  "C:\Workspace\e2studio\git\MT01_master\r_usb_hmsc\src\r_usb_hmsc_driver.c",1097
00001400 A88C                    		MOV.L 0CH[R0], R4
00001402 A883                    		MOV.L 08H[R0], R3
00001404 B88A                    		MOVU.W 06H[R0], R2
00001406 A909                    		MOV.L 14H[R0], R1
00001408 05rrrrrr             A  		BSR _usb_hmsc_SendDataReq
0000140C                         L392:	; bb144.split
                                 ;    1098         usb_shmsc_Process[mess->ip] = USB_MSG_HMSC_DATA_OUT;
                                 		.LINE  "C:\Workspace\e2studio\git\MT01_master\r_usb_hmsc\src\r_usb_hmsc_driver.c",1098
0000140C A909                    		MOV.L 14H[R0], R1
0000140E B991                    		MOVU.W 0CH[R1], R1
00001410 FBE2rrrrrrrr            		MOV.L #_usb_shmsc_Process, R14
00001416 FBFA0305                		MOV.L #00000503H, R15
0000141A FE11EF                  		MOV.W R15, [R1,R14]
0000141D                         L393:	; bb144.split13
                                 ;    1099         usb_shmsc_DataOutSeq[mess->ip]++;
                                 		.LINE  "C:\Workspace\e2studio\git\MT01_master\r_usb_hmsc\src\r_usb_hmsc_driver.c",1099
0000141D A909                    		MOV.L 14H[R0], R1
0000141F B991                    		MOVU.W 0CH[R1], R1
00001421 FBE2rrrrrrrr            		MOV.L #_usb_shmsc_DataOutSeq, R14
00001427 FE51EF                  		MOV.W [R1,R14], R15
0000142A 621F                    		ADD #01H, R15
0000142C FE11EF                  		MOV.W R15, [R1,R14]
0000142F 38rrrr               W  		BRA L431
00001432                         L394:	; bb162
                                 ;    1100         break;
                                 ;    1101     case USB_SEQ_4:
                                 ;    1102         hmsc_retval = usb_hmsc_SendDataCheck(mess, drvnum, result);
                                 		.LINE  "C:\Workspace\e2studio\git\MT01_master\r_usb_hmsc\src\r_usb_hmsc_driver.c",1102
00001432 B883                    		MOVU.W 04H[R0], R3
00001434 B88A                    		MOVU.W 06H[R0], R2
00001436 A909                    		MOV.L 14H[R0], R1
00001438 05rrrrrr             A  		BSR _usb_hmsc_SendDataCheck
0000143C 9009                    		MOV.W R1, 02H[R0]
0000143E                         L395:	; bb162.split
                                 ;    1103         if( hmsc_retval == USB_HMSC_STALL )
                                 		.LINE  "C:\Workspace\e2studio\git\MT01_master\r_usb_hmsc\src\r_usb_hmsc_driver.c",1103
0000143E B809                    		MOVU.W 02H[R0], R1
00001440 7701FFFF00              		CMP #0FFFFH, R1
00001445 21rr                    		BNE L398
00001447                         L396:	; bb168
                                 ;    1104         {
                                 ;    1105             usb_shmsc_Process[mess->ip] = USB_MSG_HMSC_DATA_OUT;
                                 		.LINE  "C:\Workspace\e2studio\git\MT01_master\r_usb_hmsc\src\r_usb_hmsc_driver.c",1105
00001447 A909                    		MOV.L 14H[R0], R1
00001449 B991                    		MOVU.W 0CH[R1], R1
0000144B FBE2rrrrrrrr            		MOV.L #_usb_shmsc_Process, R14
00001451 FBFA0305                		MOV.L #00000503H, R15
00001455 FE11EF                  		MOV.W R15, [R1,R14]
00001458                         L397:	; bb168.split
                                 ;    1106             usb_shmsc_DataOutSeq[mess->ip]++;
                                 		.LINE  "C:\Workspace\e2studio\git\MT01_master\r_usb_hmsc\src\r_usb_hmsc_driver.c",1106
00001458 A909                    		MOV.L 14H[R0], R1
0000145A B991                    		MOVU.W 0CH[R1], R1
0000145C FBE2rrrrrrrr            		MOV.L #_usb_shmsc_DataOutSeq, R14
00001462 FE51EF                  		MOV.W [R1,R14], R15
00001465 621F                    		ADD #01H, R15
00001467 FE11EF                  		MOV.W R15, [R1,R14]
0000146A 38rrrr               W  		BRA L431
0000146D                         L398:	; bb182
                                 ;    1107         }
                                 ;    1108         else if( hmsc_retval != USB_HMSC_OK )
                                 		.LINE  "C:\Workspace\e2studio\git\MT01_master\r_usb_hmsc\src\r_usb_hmsc_driver.c",1108
0000146D B809                    		MOVU.W 02H[R0], R1
0000146F 6101                    		CMP #00H, R1
00001471 A909                    		MOV.L 14H[R0], R1
00001473 20rr                    		BEQ L401
00001475                         L399:	; bb183
                                 ;    1109         {
                                 ;    1110             USB_PRINTF1("### DataOUT : SendData error(drive:%d) \n", drvnum);
                                 ;    1111             usb_hmsc_CommandResult(mess, hmsc_retval);
                                 		.LINE  "C:\Workspace\e2studio\git\MT01_master\r_usb_hmsc\src\r_usb_hmsc_driver.c",1111
00001475 B80A                    		MOVU.W 02H[R0], R2
00001477 39rrrr               W  		BSR _usb_hmsc_CommandResult
0000147A                         L400:	; bb183.split
                                 ;    1112             usb_shmsc_DataOutSeq[mess->ip] = USB_SEQ_0;
                                 		.LINE  "C:\Workspace\e2studio\git\MT01_master\r_usb_hmsc\src\r_usb_hmsc_driver.c",1112
0000147A A909                    		MOV.L 14H[R0], R1
0000147C B991                    		MOVU.W 0CH[R1], R1
0000147E FBE2rrrrrrrr            		MOV.L #_usb_shmsc_DataOutSeq, R14
00001484 660F                    		MOV.L #00000000H, R15
00001486 FE11EF                  		MOV.W R15, [R1,R14]
00001489 38rrrr               W  		BRA L431
0000148C                         L401:	; bb191
                                 ;    1113         }
                                 ;    1114         else
                                 ;    1115         {
                                 ;    1116             /* CSW */
                                 ;    1117             hmsc_retval = usb_hmsc_GetCsw(mess, drvnum);
                                 		.LINE  "C:\Workspace\e2studio\git\MT01_master\r_usb_hmsc\src\r_usb_hmsc_driver.c",1117
0000148C B88A                    		MOVU.W 06H[R0], R2
0000148E 05rrrrrr             A  		BSR _usb_hmsc_GetCsw
00001492 9009                    		MOV.W R1, 02H[R0]
00001494                         L402:	; bb191.split
                                 ;    1118             usb_shmsc_Process[mess->ip] = USB_MSG_HMSC_DATA_OUT;
                                 		.LINE  "C:\Workspace\e2studio\git\MT01_master\r_usb_hmsc\src\r_usb_hmsc_driver.c",1118
00001494 A909                    		MOV.L 14H[R0], R1
00001496 B991                    		MOVU.W 0CH[R1], R1
00001498 FBE2rrrrrrrr            		MOV.L #_usb_shmsc_Process, R14
0000149E FBFA0305                		MOV.L #00000503H, R15
000014A2 FE11EF                  		MOV.W R15, [R1,R14]
000014A5                         L403:	; bb191.split14
                                 ;    1119             usb_shmsc_DataOutSeq[mess->ip]++;
                                 		.LINE  "C:\Workspace\e2studio\git\MT01_master\r_usb_hmsc\src\r_usb_hmsc_driver.c",1119
000014A5 A909                    		MOV.L 14H[R0], R1
000014A7 B991                    		MOVU.W 0CH[R1], R1
000014A9 FBE2rrrrrrrr            		MOV.L #_usb_shmsc_DataOutSeq, R14
000014AF FE51EF                  		MOV.W [R1,R14], R15
000014B2 621F                    		ADD #01H, R15
000014B4 FE11EF                  		MOV.W R15, [R1,R14]
000014B7                         L404:	; bb191.split15
                                 ;    1120             mess->msginfo = usb_shmsc_Process[mess->ip];
                                 		.LINE  "C:\Workspace\e2studio\git\MT01_master\r_usb_hmsc\src\r_usb_hmsc_driver.c",1120
000014B7 A909                    		MOV.L 14H[R0], R1
000014B9 B992                    		MOVU.W 0CH[R1], R2
000014BB FBE2rrrrrrrr            		MOV.L #_usb_shmsc_Process, R14
000014C1 FE52E2                  		MOV.W [R2,R14], R2
000014C4 9092                    		MOV.W R2, 04H[R1]
000014C6                         L405:	; bb191.split16
                                 ;    1121             usb_hmsc_SpecifiedPath((USB_CLSINFO_t *)mess);
                                 		.LINE  "C:\Workspace\e2studio\git\MT01_master\r_usb_hmsc\src\r_usb_hmsc_driver.c",1121
000014C6 A909                    		MOV.L 14H[R0], R1
000014C8 39rrrr               W  		BSR _usb_hmsc_SpecifiedPath
000014CB 38rrrr               W  		BRA L431
000014CE                         L406:	; bb228
                                 ;    1122         }
                                 ;    1123         break;
                                 ;    1124     case USB_SEQ_5:
                                 ;    1125         hmsc_retval = usb_hmsc_GetCswReq(mess, drvnum);
                                 		.LINE  "C:\Workspace\e2studio\git\MT01_master\r_usb_hmsc\src\r_usb_hmsc_driver.c",1125
000014CE B88A                    		MOVU.W 06H[R0], R2
000014D0 A909                    		MOV.L 14H[R0], R1
000014D2 05rrrrrr             A  		BSR _usb_hmsc_GetCswReq
000014D6 9009                    		MOV.W R1, 02H[R0]
000014D8                         L407:	; bb228.split
                                 ;    1126         usb_shmsc_Process[mess->ip] = USB_MSG_HMSC_DATA_OUT;
                                 		.LINE  "C:\Workspace\e2studio\git\MT01_master\r_usb_hmsc\src\r_usb_hmsc_driver.c",1126
000014D8 A909                    		MOV.L 14H[R0], R1
000014DA B991                    		MOVU.W 0CH[R1], R1
000014DC FBE2rrrrrrrr            		MOV.L #_usb_shmsc_Process, R14
000014E2 FBFA0305                		MOV.L #00000503H, R15
000014E6 FE11EF                  		MOV.W R15, [R1,R14]
000014E9                         L408:	; bb228.split17
                                 ;    1127         usb_shmsc_DataOutSeq[mess->ip]++;
                                 		.LINE  "C:\Workspace\e2studio\git\MT01_master\r_usb_hmsc\src\r_usb_hmsc_driver.c",1127
000014E9 A909                    		MOV.L 14H[R0], R1
000014EB B991                    		MOVU.W 0CH[R1], R1
000014ED FBE2rrrrrrrr            		MOV.L #_usb_shmsc_DataOutSeq, R14
000014F3 FE51EF                  		MOV.W [R1,R14], R15
000014F6 621F                    		ADD #01H, R15
000014F8 FE11EF                  		MOV.W R15, [R1,R14]
000014FB 38rrrr               W  		BRA L431
000014FE                         L409:	; bb244
                                 ;    1128         break;
                                 ;    1129     case USB_SEQ_6:
                                 ;    1130         hmsc_retval = usb_hmsc_GetCswCheck(mess, drvnum,result);
                                 		.LINE  "C:\Workspace\e2studio\git\MT01_master\r_usb_hmsc\src\r_usb_hmsc_driver.c",1130
000014FE B883                    		MOVU.W 04H[R0], R3
00001500 B88A                    		MOVU.W 06H[R0], R2
00001502 A909                    		MOV.L 14H[R0], R1
00001504 05rrrrrr             A  		BSR _usb_hmsc_GetCswCheck
00001508 9009                    		MOV.W R1, 02H[R0]
0000150A                         L410:	; bb244.split
                                 ;    1131         switch( hmsc_retval )
                                 		.LINE  "C:\Workspace\e2studio\git\MT01_master\r_usb_hmsc\src\r_usb_hmsc_driver.c",1131
0000150A B809                    		MOVU.W 02H[R0], R1
0000150C 7701FBFF00              		CMP #0FFFBH, R1
00001511 20rr                    		BEQ L417
00001513                         L411:	; bb244.split
00001513 76010705                		CMP #0507H, R1
00001517 20rr                    		BEQ L420
00001519                         L412:	; bb244.split
00001519 6101                    		CMP #00H, R1
0000151B 3Brrrr               W  		BNE L424
0000151E                         L413:	; bb252
                                 ;    1132         {
                                 ;    1133         case USB_HMSC_OK:
                                 ;    1134             if( usb_ghmsc_CswErrRoop[mess->ip] == USB_ON )
                                 		.LINE  "C:\Workspace\e2studio\git\MT01_master\r_usb_hmsc\src\r_usb_hmsc_driver.c",1134
0000151E A909                    		MOV.L 14H[R0], R1
00001520 B991                    		MOVU.W 0CH[R1], R1
00001522 FBE2rrrrrrrr            		MOV.L #_usb_ghmsc_CswErrRoop, R14
00001528 FED1EE                  		MOVU.W [R1,R14], R14
0000152B 611E                    		CMP #01H, R14
0000152D 21rr                    		BNE L416
0000152F                         L414:	; bb253
                                 ;    1135             {
                                 ;    1136                 usb_ghmsc_CswErrRoop[mess->ip] = USB_OFF;
                                 		.LINE  "C:\Workspace\e2studio\git\MT01_master\r_usb_hmsc\src\r_usb_hmsc_driver.c",1136
0000152F A909                    		MOV.L 14H[R0], R1
00001531 B991                    		MOVU.W 0CH[R1], R1
00001533 FBE2rrrrrrrr            		MOV.L #_usb_ghmsc_CswErrRoop, R14
00001539 660F                    		MOV.L #00000000H, R15
0000153B FE11EF                  		MOV.W R15, [R1,R14]
0000153E                         L415:	; bb253.split
                                 ;    1137                 hmsc_retval = USB_HMSC_CSW_ERR;
                                 		.LINE  "C:\Workspace\e2studio\git\MT01_master\r_usb_hmsc\src\r_usb_hmsc_driver.c",1137
0000153E F90901FBFF              		MOV.W #0FFFBH, 02H[R0]
00001543                         L416:	; bb269
                                 ;    1138             }
                                 ;    1139             usb_hmsc_CommandResult(mess, hmsc_retval);
                                 		.LINE  "C:\Workspace\e2studio\git\MT01_master\r_usb_hmsc\src\r_usb_hmsc_driver.c",1139
00001543 B80A                    		MOVU.W 02H[R0], R2
00001545 A909                    		MOV.L 14H[R0], R1
00001547 39rrrr               W  		BSR _usb_hmsc_CommandResult
0000154A 38rrrr               W  		BRA L428
0000154D                         L417:	; bb272
                                 ;    1140             break;
                                 ;    1141         case USB_HMSC_CSW_ERR:
                                 ;    1142             USB_PRINTF1("*** DataOUT : CSW-NG(drive:%d) \n", drvnum);
                                 ;    1143             usb_ghmsc_CswErrRoop[mess->ip] = USB_ON;
                                 		.LINE  "C:\Workspace\e2studio\git\MT01_master\r_usb_hmsc\src\r_usb_hmsc_driver.c",1143
0000154D A909                    		MOV.L 14H[R0], R1
0000154F B991                    		MOVU.W 0CH[R1], R1
00001551 FBE2rrrrrrrr            		MOV.L #_usb_ghmsc_CswErrRoop, R14
00001557 661F                    		MOV.L #00000001H, R15
00001559 FE11EF                  		MOV.W R15, [R1,R14]
0000155C                         L418:	; bb272.split
                                 ;    1144             drvnum = usb_ghmsc_RootDrive[mess->ip];
                                 		.LINE  "C:\Workspace\e2studio\git\MT01_master\r_usb_hmsc\src\r_usb_hmsc_driver.c",1144
0000155C A909                    		MOV.L 14H[R0], R1
0000155E B991                    		MOVU.W 0CH[R1], R1
00001560 FBE2rrrrrrrr            		MOV.L #_usb_ghmsc_RootDrive, R14
00001566 FE51E1                  		MOV.W [R1,R14], R1
00001569 9089                    		MOV.W R1, 06H[R0]
0000156B                         L419:	; bb272.split18
                                 ;    1145             R_usb_hmsc_RequestSense(mess, drvnum, (uint8_t*)usb_ghmsc_Data[mess->ip]);
                                 		.LINE  "C:\Workspace\e2studio\git\MT01_master\r_usb_hmsc\src\r_usb_hmsc_driver.c",1145
0000156B A909                    		MOV.L 14H[R0], R1
0000156D B994                    		MOVU.W 0CH[R1], R4
0000156F B88A                    		MOVU.W 06H[R0], R2
00001571 76140014                		MUL #1400H, R4
00001575 FB32rrrrrrrr            		MOV.L #_usb_ghmsc_Data, R3
0000157B 4B43                    		ADD R4, R3
0000157D 05rrrrrr             A  		BSR _R_usb_hmsc_RequestSense
00001581 2Err                 B  		BRA L428
00001583                         L420:	; bb293
                                 ;    1146             break;
                                 ;    1147         case USB_MSG_HMSC_DATA_STALL:
                                 ;    1148             USB_PRINTF1("*** DataOUT : CSW-STALL(drive:%d) \n", drvnum);
                                 ;    1149             usb_shmsc_Process[mess->ip] = USB_MSG_HMSC_DATA_STALL;
                                 		.LINE  "C:\Workspace\e2studio\git\MT01_master\r_usb_hmsc\src\r_usb_hmsc_driver.c",1149
00001583 A909                    		MOV.L 14H[R0], R1
00001585 B991                    		MOVU.W 0CH[R1], R1
00001587 FBE2rrrrrrrr            		MOV.L #_usb_shmsc_Process, R14
0000158D FBFA0705                		MOV.L #00000507H, R15
00001591 FE11EF                  		MOV.W R15, [R1,R14]
00001594                         L421:	; bb293.split
                                 ;    1150             mess->keyword = drvnum;
                                 		.LINE  "C:\Workspace\e2studio\git\MT01_master\r_usb_hmsc\src\r_usb_hmsc_driver.c",1150
00001594 9889                    		MOV.W 06H[R0], R1
00001596 A90A                    		MOV.L 14H[R0], R2
00001598 90A9                    		MOV.W R1, 06H[R2]
0000159A                         L422:	; bb293.split19
                                 ;    1151             mess->msginfo = usb_shmsc_Process[mess->ip];
                                 		.LINE  "C:\Workspace\e2studio\git\MT01_master\r_usb_hmsc\src\r_usb_hmsc_driver.c",1151
0000159A A909                    		MOV.L 14H[R0], R1
0000159C B992                    		MOVU.W 0CH[R1], R2
0000159E FBE2rrrrrrrr            		MOV.L #_usb_shmsc_Process, R14
000015A4 FE52E2                  		MOV.W [R2,R14], R2
000015A7 9092                    		MOV.W R2, 04H[R1]
000015A9                         L423:	; bb293.split20
                                 ;    1152             usb_hmsc_SpecifiedPath((USB_CLSINFO_t *)mess);
                                 		.LINE  "C:\Workspace\e2studio\git\MT01_master\r_usb_hmsc\src\r_usb_hmsc_driver.c",1152
000015A9 A909                    		MOV.L 14H[R0], R1
000015AB 39rrrr               W  		BSR _usb_hmsc_SpecifiedPath
000015AE 2Err                 B  		BRA L428
000015B0                         L424:	; bb312
                                 ;    1153             break;
                                 ;    1154         default:
                                 ;    1155             if( usb_ghmsc_CswErrRoop[mess->ip] == USB_ON )
                                 		.LINE  "C:\Workspace\e2studio\git\MT01_master\r_usb_hmsc\src\r_usb_hmsc_driver.c",1155
000015B0 A909                    		MOV.L 14H[R0], R1
000015B2 B991                    		MOVU.W 0CH[R1], R1
000015B4 FBE2rrrrrrrr            		MOV.L #_usb_ghmsc_CswErrRoop, R14
000015BA FED1EE                  		MOVU.W [R1,R14], R14
000015BD 611E                    		CMP #01H, R14
000015BF 21rr                    		BNE L427
000015C1                         L425:	; bb313
                                 ;    1156             {
                                 ;    1157                 usb_ghmsc_CswErrRoop[mess->ip] = USB_OFF;
                                 		.LINE  "C:\Workspace\e2studio\git\MT01_master\r_usb_hmsc\src\r_usb_hmsc_driver.c",1157
000015C1 A909                    		MOV.L 14H[R0], R1
000015C3 B991                    		MOVU.W 0CH[R1], R1
000015C5 FBE2rrrrrrrr            		MOV.L #_usb_ghmsc_CswErrRoop, R14
000015CB 660F                    		MOV.L #00000000H, R15
000015CD FE11EF                  		MOV.W R15, [R1,R14]
000015D0                         L426:	; bb313.split
                                 ;    1158                 hmsc_retval = USB_HMSC_CSW_ERR;
                                 		.LINE  "C:\Workspace\e2studio\git\MT01_master\r_usb_hmsc\src\r_usb_hmsc_driver.c",1158
000015D0 F90901FBFF              		MOV.W #0FFFBH, 02H[R0]
000015D5                         L427:	; bb329
                                 ;    1159             }
                                 ;    1160             USB_PRINTF1("### DataOUT : GetCSW error(drive:%d) \n", drvnum);
                                 ;    1161             usb_hmsc_CommandResult(mess, hmsc_retval);
                                 		.LINE  "C:\Workspace\e2studio\git\MT01_master\r_usb_hmsc\src\r_usb_hmsc_driver.c",1161
000015D5 B80A                    		MOVU.W 02H[R0], R2
000015D7 A909                    		MOV.L 14H[R0], R1
000015D9 39rrrr               W  		BSR _usb_hmsc_CommandResult
000015DC                         L428:	; bb332
                                 ;    1162             break;
                                 ;    1163         }
                                 ;    1164 
                                 ;    1165         usb_shmsc_DataOutSeq[mess->ip] = USB_SEQ_0;
                                 		.LINE  "C:\Workspace\e2studio\git\MT01_master\r_usb_hmsc\src\r_usb_hmsc_driver.c",1165
000015DC A909                    		MOV.L 14H[R0], R1
000015DE B991                    		MOVU.W 0CH[R1], R1
000015E0 FBE2rrrrrrrr            		MOV.L #_usb_shmsc_DataOutSeq, R14
000015E6 660F                    		MOV.L #00000000H, R15
000015E8 FE11EF                  		MOV.W R15, [R1,R14]
000015EB 2Err                 B  		BRA L431
000015ED                         L429:	; bb338
                                 ;    1166         break;
                                 ;    1167     default:
                                 ;    1168         usb_shmsc_DataOutSeq[mess->ip] = USB_SEQ_0;
                                 		.LINE  "C:\Workspace\e2studio\git\MT01_master\r_usb_hmsc\src\r_usb_hmsc_driver.c",1168
000015ED A909                    		MOV.L 14H[R0], R1
000015EF B991                    		MOVU.W 0CH[R1], R1
000015F1 FBE2rrrrrrrr            		MOV.L #_usb_shmsc_DataOutSeq, R14
000015F7 660F                    		MOV.L #00000000H, R15
000015F9 FE11EF                  		MOV.W R15, [R1,R14]
000015FC                         L430:	; bb338.split
                                 ;    1169         usb_hmsc_CommandResult(mess, hmsc_retval);
                                 		.LINE  "C:\Workspace\e2studio\git\MT01_master\r_usb_hmsc\src\r_usb_hmsc_driver.c",1169
000015FC B80A                    		MOVU.W 02H[R0], R2
000015FE A909                    		MOV.L 14H[R0], R1
00001600 39rrrr               W  		BSR _usb_hmsc_CommandResult
00001603                         L431:	; bb346
                                 ;    1170         break;
                                 ;    1171     }
                                 ;    1172     /* Data read error */
                                 ;    1173     return (hmsc_retval);
                                 		.LINE  "C:\Workspace\e2studio\git\MT01_master\r_usb_hmsc\src\r_usb_hmsc_driver.c",1173
00001603 D5000109                		MOV.W 02H[R0], 12H[R0]
00001607 9A09                    		MOV.W 12H[R0], R1
00001609                         L432:	; bb346.split
                                 ;    1174 }   /* eof usb_hmsc_DataOutAct() */
                                 		.LINE  "C:\Workspace\e2studio\git\MT01_master\r_usb_hmsc\src\r_usb_hmsc_driver.c",1174
00001609 5F11                    		MOVU.W R1, R1
0000160B 6706                    		RTSD #18H
0000160D                         _usb_hmsc_SpecifiedPath:
                                 		.STACK	_usb_hmsc_SpecifiedPath=20
                                 ;    1175 
                                 ;    1176 /******************************************************************************
                                 ;    1177 Function Name   : usb_hmsc_SpecifiedPath
                                 ;    1178 Description     : Next Process Selector
                                 ;    1179 Arguments       : USB_CLSINFO_t *mess : 
                                 ;    1180 Return value    : none
                                 ;    1181 ******************************************************************************/
                                 ;    1182 void usb_hmsc_SpecifiedPath(USB_CLSINFO_t *mess)
                                 		.LINE  "C:\Workspace\e2studio\git\MT01_master\r_usb_hmsc\src\r_usb_hmsc_driver.c",1182
0000160D 7100F0                  		ADD #0FFFFFFF0H, R0
00001610 A089                    		MOV.L R1, 0CH[R0]
00001612 EF02                    		MOV.L R0, R2
00001614 6641                    		MOV.L #00000004H, R1
                                 ;    1183 {
                                 ;    1184     USB_MH_t            p_blf;
                                 ;    1185     USB_ER_t            err;
                                 ;    1186     USB_CLSINFO_t       *ptr;
                                 ;    1187 
                                 ;    1188     /* Get mem pool blk */
                                 ;    1189     if( R_USB_PGET_BLK(USB_HMSC_MPL, &p_blf) == USB_E_OK )
                                 		.LINE  "C:\Workspace\e2studio\git\MT01_master\r_usb_hmsc\src\r_usb_hmsc_driver.c",1189
00001616 05rrrrrr             A  		BSR _R_usb_cstd_PgetBlk
0000161A 6101                    		CMP #00H, R1
0000161C 21rr                    		BNE L443
0000161E                         L434:	; bb5
                                 ;    1190     {
                                 ;    1191         ptr = (USB_CLSINFO_t*)p_blf;
                                 		.LINE  "C:\Workspace\e2studio\git\MT01_master\r_usb_hmsc\src\r_usb_hmsc_driver.c",1191
0000161E E40002                  		MOV.L [R0], 08H[R0]
00001621                         L435:	; bb5.split
                                 ;    1192         ptr->msginfo    = mess->msginfo;
                                 		.LINE  "C:\Workspace\e2studio\git\MT01_master\r_usb_hmsc\src\r_usb_hmsc_driver.c",1192
00001621 A889                    		MOV.L 0CH[R0], R1
00001623 A882                    		MOV.L 08H[R0], R2
00001625 D5120202                		MOV.W 04H[R1], 04H[R2]
00001629                         L436:	; bb5.split1
                                 ;    1193         ptr->keyword    = mess->keyword;
                                 		.LINE  "C:\Workspace\e2studio\git\MT01_master\r_usb_hmsc\src\r_usb_hmsc_driver.c",1193
00001629 A889                    		MOV.L 0CH[R0], R1
0000162B A882                    		MOV.L 08H[R0], R2
0000162D D5120303                		MOV.W 06H[R1], 06H[R2]
00001631                         L437:	; bb5.split2
                                 ;    1194         ptr->result     = mess->result;
                                 		.LINE  "C:\Workspace\e2studio\git\MT01_master\r_usb_hmsc\src\r_usb_hmsc_driver.c",1194
00001631 A889                    		MOV.L 0CH[R0], R1
00001633 A882                    		MOV.L 08H[R0], R2
00001635 D5120707                		MOV.W 0EH[R1], 0EH[R2]
00001639                         L438:	; bb5.split3
                                 ;    1195 
                                 ;    1196         ptr->ip         = mess->ip;
                                 		.LINE  "C:\Workspace\e2studio\git\MT01_master\r_usb_hmsc\src\r_usb_hmsc_driver.c",1196
00001639 A889                    		MOV.L 0CH[R0], R1
0000163B A882                    		MOV.L 08H[R0], R2
0000163D D5120606                		MOV.W 0CH[R1], 0CH[R2]
00001641                         L439:	; bb5.split4
                                 ;    1197         ptr->ipp        = mess->ipp;
                                 		.LINE  "C:\Workspace\e2studio\git\MT01_master\r_usb_hmsc\src\r_usb_hmsc_driver.c",1197
00001641 A889                    		MOV.L 0CH[R0], R1
00001643 A882                    		MOV.L 08H[R0], R2
00001645 E5120202                		MOV.L 08H[R1], 08H[R2]
00001649                         L440:	; bb5.split5
                                 ;    1198 
                                 ;    1199         /* Send message */
                                 ;    1200         err = R_USB_SND_MSG(USB_HMSC_MBX, (USB_MSG_t*)p_blf);
                                 		.LINE  "C:\Workspace\e2studio\git\MT01_master\r_usb_hmsc\src\r_usb_hmsc_driver.c",1200
00001649 EC02                    		MOV.L [R0], R2
0000164B 6641                    		MOV.L #00000004H, R1
0000164D 05rrrrrr             A  		BSR _R_usb_cstd_SndMsg
00001651 A009                    		MOV.L R1, 04H[R0]
00001653                         L441:	; bb5.split6
                                 ;    1201         if( err != USB_E_OK )
                                 		.LINE  "C:\Workspace\e2studio\git\MT01_master\r_usb_hmsc\src\r_usb_hmsc_driver.c",1201
00001653 A809                    		MOV.L 04H[R0], R1
00001655 6101                    		CMP #00H, R1
00001657 20rr                    		BEQ L443
00001659                         L442:	; bb38
                                 ;    1202         {
                                 ;    1203             err = R_USB_REL_BLK(USB_HMSC_MPL,(USB_MH_t)p_blf);
                                 		.LINE  "C:\Workspace\e2studio\git\MT01_master\r_usb_hmsc\src\r_usb_hmsc_driver.c",1203
00001659 EC02                    		MOV.L [R0], R2
0000165B 6641                    		MOV.L #00000004H, R1
0000165D 05rrrrrr             A  		BSR _R_usb_cstd_RelBlk
00001661 A009                    		MOV.L R1, 04H[R0]
00001663 6704                    		RTSD #10H
00001665                         L443:	; return
                                 ;    1204             USB_PRINTF0("### SpecifiedPass function snd_msg error\n");
                                 ;    1205         }
                                 ;    1206     }
                                 ;    1207     else
                                 ;    1208     {
                                 ;    1209         USB_PRINTF0("### SpecifiedPass function pget_blk error\n");
                                 ;    1210     }
                                 ;    1211 }   /* eof usb_hmsc_SpecifiedPath() */
                                 		.LINE  "C:\Workspace\e2studio\git\MT01_master\r_usb_hmsc\src\r_usb_hmsc_driver.c",1211
00001665 6704                    		RTSD #10H
00001667                         _usb_hmsc_CheckResult:
                                 		.STACK	_usb_hmsc_CheckResult=24
                                 ;    1212 
                                 ;    1213 /******************************************************************************
                                 ;    1214 Function Name   : usb_hmsc_CheckResult
                                 ;    1215 Description     : Hub class check result
                                 ;    1216 Arguments       : USB_UTR_t *mess : 
                                 ;    1217 Return value    : none
                                 ;    1218 ******************************************************************************/
                                 ;    1219 void usb_hmsc_CheckResult(USB_UTR_t *mess, uint16_t data1, uint16_t data2)
                                 		.LINE  "C:\Workspace\e2studio\git\MT01_master\r_usb_hmsc\src\r_usb_hmsc_driver.c",1219
00001667 7100EC                  		ADD #0FFFFFFECH, R0
0000166A A101                    		MOV.L R1, 10H[R0]
0000166C 918A                    		MOV.W R2, 0EH[R0]
0000166E 9183                    		MOV.W R3, 0CH[R0]
                                 ;    1220 {
                                 ;    1221     USB_MH_t            p_blf;
                                 ;    1222     USB_ER_t            err;
                                 ;    1223     USB_CLSINFO_t       *ptr;
                                 ;    1224 
                                 ;    1225     ptr = mess;
                                 		.LINE  "C:\Workspace\e2studio\git\MT01_master\r_usb_hmsc\src\r_usb_hmsc_driver.c",1225
00001670 E5000402                		MOV.L 10H[R0], 08H[R0]
00001674                         L445:	; entry.split
                                 ;    1226     if( mess->status == USB_DATA_STALL )
                                 		.LINE  "C:\Workspace\e2studio\git\MT01_master\r_usb_hmsc\src\r_usb_hmsc_driver.c",1226
00001674 A901                    		MOV.L 10H[R0], R1
00001676 BC11                    		MOVU.W 20H[R1], R1
00001678 6161                    		CMP #06H, R1
0000167A 21rr                    		BNE L447
0000167C                         L446:	; bb7
                                 ;    1227     {
                                 ;    1228         ptr->msginfo    = usb_shmsc_Process[mess->ip];
                                 		.LINE  "C:\Workspace\e2studio\git\MT01_master\r_usb_hmsc\src\r_usb_hmsc_driver.c",1228
0000167C A901                    		MOV.L 10H[R0], R1
0000167E B991                    		MOVU.W 0CH[R1], R1
00001680 FBE2rrrrrrrr            		MOV.L #_usb_shmsc_Process, R14
00001686 FE51E1                  		MOV.W [R1,R14], R1
00001689 A882                    		MOV.L 08H[R0], R2
0000168B 90A1                    		MOV.W R1, 04H[R2]
0000168D                         L447:	; bb23
0000168D EF02                    		MOV.L R0, R2
0000168F 6641                    		MOV.L #00000004H, R1
                                 ;    1229     }
                                 ;    1230     
                                 ;    1231     /* Get mem pool blk */
                                 ;    1232     if( R_USB_PGET_BLK(USB_HMSC_MPL, &p_blf) == USB_E_OK )
                                 		.LINE  "C:\Workspace\e2studio\git\MT01_master\r_usb_hmsc\src\r_usb_hmsc_driver.c",1232
00001691 05rrrrrr             A  		BSR _R_usb_cstd_PgetBlk
00001695 6101                    		CMP #00H, R1
00001697 21rr                    		BNE L457
00001699                         L448:	; bb24
                                 ;    1233     {
                                 ;    1234         ptr = (USB_CLSINFO_t*)p_blf;
                                 		.LINE  "C:\Workspace\e2studio\git\MT01_master\r_usb_hmsc\src\r_usb_hmsc_driver.c",1234
00001699 E40002                  		MOV.L [R0], 08H[R0]
0000169C                         L449:	; bb24.split
                                 ;    1235         ptr->msginfo    = usb_shmsc_Process[mess->ip];
                                 		.LINE  "C:\Workspace\e2studio\git\MT01_master\r_usb_hmsc\src\r_usb_hmsc_driver.c",1235
0000169C A901                    		MOV.L 10H[R0], R1
0000169E B991                    		MOVU.W 0CH[R1], R1
000016A0 FBE2rrrrrrrr            		MOV.L #_usb_shmsc_Process, R14
000016A6 FE51E1                  		MOV.W [R1,R14], R1
000016A9 A882                    		MOV.L 08H[R0], R2
000016AB 90A1                    		MOV.W R1, 04H[R2]
000016AD                         L450:	; bb24.split1
                                 ;    1236         ptr->keyword    = mess->keyword;
                                 		.LINE  "C:\Workspace\e2studio\git\MT01_master\r_usb_hmsc\src\r_usb_hmsc_driver.c",1236
000016AD A901                    		MOV.L 10H[R0], R1
000016AF A882                    		MOV.L 08H[R0], R2
000016B1 D5120303                		MOV.W 06H[R1], 06H[R2]
000016B5                         L451:	; bb24.split2
                                 ;    1237         ptr->result     = mess->status;
                                 		.LINE  "C:\Workspace\e2studio\git\MT01_master\r_usb_hmsc\src\r_usb_hmsc_driver.c",1237
000016B5 A901                    		MOV.L 10H[R0], R1
000016B7 A882                    		MOV.L 08H[R0], R2
000016B9 D5121007                		MOV.W 20H[R1], 0EH[R2]
000016BD                         L452:	; bb24.split3
                                 ;    1238 
                                 ;    1239         ptr->ip         = mess->ip;
                                 		.LINE  "C:\Workspace\e2studio\git\MT01_master\r_usb_hmsc\src\r_usb_hmsc_driver.c",1239
000016BD A901                    		MOV.L 10H[R0], R1
000016BF A882                    		MOV.L 08H[R0], R2
000016C1 D5120606                		MOV.W 0CH[R1], 0CH[R2]
000016C5                         L453:	; bb24.split4
                                 ;    1240         ptr->ipp        = mess->ipp;
                                 		.LINE  "C:\Workspace\e2studio\git\MT01_master\r_usb_hmsc\src\r_usb_hmsc_driver.c",1240
000016C5 A901                    		MOV.L 10H[R0], R1
000016C7 A882                    		MOV.L 08H[R0], R2
000016C9 E5120202                		MOV.L 08H[R1], 08H[R2]
000016CD                         L454:	; bb24.split5
                                 ;    1241 
                                 ;    1242         /* Send message */
                                 ;    1243         err = R_USB_SND_MSG( USB_HMSC_MBX, (USB_MSG_t*)p_blf );
                                 		.LINE  "C:\Workspace\e2studio\git\MT01_master\r_usb_hmsc\src\r_usb_hmsc_driver.c",1243
000016CD EC02                    		MOV.L [R0], R2
000016CF 6641                    		MOV.L #00000004H, R1
000016D1 05rrrrrr             A  		BSR _R_usb_cstd_SndMsg
000016D5 A009                    		MOV.L R1, 04H[R0]
000016D7                         L455:	; bb24.split6
                                 ;    1244         if( err != USB_E_OK )
                                 		.LINE  "C:\Workspace\e2studio\git\MT01_master\r_usb_hmsc\src\r_usb_hmsc_driver.c",1244
000016D7 A809                    		MOV.L 04H[R0], R1
000016D9 6101                    		CMP #00H, R1
000016DB 20rr                    		BEQ L457
000016DD                         L456:	; bb61
                                 ;    1245         {
                                 ;    1246             err = R_USB_REL_BLK(USB_HMSC_MPL,(USB_MH_t)p_blf);
                                 		.LINE  "C:\Workspace\e2studio\git\MT01_master\r_usb_hmsc\src\r_usb_hmsc_driver.c",1246
000016DD EC02                    		MOV.L [R0], R2
000016DF 6641                    		MOV.L #00000004H, R1
000016E1 05rrrrrr             A  		BSR _R_usb_cstd_RelBlk
000016E5 A009                    		MOV.L R1, 04H[R0]
000016E7 6705                    		RTSD #14H
000016E9                         L457:	; return
                                 ;    1247             USB_PRINTF0("### CheckResult function snd_msg error\n");
                                 ;    1248         }
                                 ;    1249     }
                                 ;    1250     else
                                 ;    1251     {
                                 ;    1252         USB_PRINTF0("### CheckResult function pget_blk error\n");
                                 ;    1253     }
                                 ;    1254 }   /* eof usb_hmsc_CheckResult() */
                                 		.LINE  "C:\Workspace\e2studio\git\MT01_master\r_usb_hmsc\src\r_usb_hmsc_driver.c",1254
000016E9 6705                    		RTSD #14H
000016EB                         _usb_hmsc_class_check_result:
                                 		.STACK	_usb_hmsc_class_check_result=24
                                 ;    1255 
                                 ;    1256 /******************************************************************************
                                 ;    1257 Function Name   : usb_hmsc_class_check_result
                                 ;    1258 Description     : Hub class check result
                                 ;    1259 Arguments       : USB_UTR_t *mess : 
                                 ;    1260 Return value    : none
                                 ;    1261 ******************************************************************************/
                                 ;    1262 void usb_hmsc_class_check_result(USB_UTR_t *mess, uint16_t data1, uint16_t data2)
                                 		.LINE  "C:\Workspace\e2studio\git\MT01_master\r_usb_hmsc\src\r_usb_hmsc_driver.c",1262
000016EB 7100EC                  		ADD #0FFFFFFECH, R0
000016EE A101                    		MOV.L R1, 10H[R0]
000016F0 918A                    		MOV.W R2, 0EH[R0]
000016F2 9183                    		MOV.W R3, 0CH[R0]
                                 ;    1263 {
                                 ;    1264     USB_MH_t            p_blf;
                                 ;    1265     USB_ER_t            err;
                                 ;    1266     USB_CLSINFO_t       *ptr;
                                 ;    1267 
                                 ;    1268     ptr = mess;
                                 		.LINE  "C:\Workspace\e2studio\git\MT01_master\r_usb_hmsc\src\r_usb_hmsc_driver.c",1268
000016F4 E5000402                		MOV.L 10H[R0], 08H[R0]
000016F8                         L459:	; entry.split
000016F8 EF02                    		MOV.L R0, R2
000016FA 6641                    		MOV.L #00000004H, R1
                                 ;    1269 
                                 ;    1270     /* Get mem pool blk */
                                 ;    1271     if( R_USB_PGET_BLK(USB_HMSC_MPL, &p_blf) == USB_E_OK )
                                 		.LINE  "C:\Workspace\e2studio\git\MT01_master\r_usb_hmsc\src\r_usb_hmsc_driver.c",1271
000016FC 05rrrrrr             A  		BSR _R_usb_cstd_PgetBlk
00001700 6101                    		CMP #00H, R1
00001702 21rr                    		BNE L469
00001704                         L460:	; bb7
                                 ;    1272     {
                                 ;    1273         ptr = (USB_CLSINFO_t*)p_blf;
                                 		.LINE  "C:\Workspace\e2studio\git\MT01_master\r_usb_hmsc\src\r_usb_hmsc_driver.c",1273
00001704 E40002                  		MOV.L [R0], 08H[R0]
00001707                         L461:	; bb7.split
                                 ;    1274         ptr->msginfo    = USB_MSG_CLS_INIT;
                                 		.LINE  "C:\Workspace\e2studio\git\MT01_master\r_usb_hmsc\src\r_usb_hmsc_driver.c",1274
00001707 A881                    		MOV.L 08H[R0], R1
00001709 F919020202              		MOV.W #0202H, 04H[R1]
0000170E                         L462:	; bb7.split1
                                 ;    1275         ptr->keyword    = mess->keyword;
                                 		.LINE  "C:\Workspace\e2studio\git\MT01_master\r_usb_hmsc\src\r_usb_hmsc_driver.c",1275
0000170E A901                    		MOV.L 10H[R0], R1
00001710 A882                    		MOV.L 08H[R0], R2
00001712 D5120303                		MOV.W 06H[R1], 06H[R2]
00001716                         L463:	; bb7.split2
                                 ;    1276         ptr->result     = mess->status;
                                 		.LINE  "C:\Workspace\e2studio\git\MT01_master\r_usb_hmsc\src\r_usb_hmsc_driver.c",1276
00001716 A901                    		MOV.L 10H[R0], R1
00001718 A882                    		MOV.L 08H[R0], R2
0000171A D5121007                		MOV.W 20H[R1], 0EH[R2]
0000171E                         L464:	; bb7.split3
                                 ;    1277 
                                 ;    1278         ptr->ip         = mess->ip;
                                 		.LINE  "C:\Workspace\e2studio\git\MT01_master\r_usb_hmsc\src\r_usb_hmsc_driver.c",1278
0000171E A901                    		MOV.L 10H[R0], R1
00001720 A882                    		MOV.L 08H[R0], R2
00001722 D5120606                		MOV.W 0CH[R1], 0CH[R2]
00001726                         L465:	; bb7.split4
                                 ;    1279         ptr->ipp        = mess->ipp;
                                 		.LINE  "C:\Workspace\e2studio\git\MT01_master\r_usb_hmsc\src\r_usb_hmsc_driver.c",1279
00001726 A901                    		MOV.L 10H[R0], R1
00001728 A882                    		MOV.L 08H[R0], R2
0000172A E5120202                		MOV.L 08H[R1], 08H[R2]
0000172E                         L466:	; bb7.split5
                                 ;    1280 
                                 ;    1281         /* Send message */
                                 ;    1282         err = R_USB_SND_MSG( USB_HMSC_MBX, (USB_MSG_t*)p_blf );
                                 		.LINE  "C:\Workspace\e2studio\git\MT01_master\r_usb_hmsc\src\r_usb_hmsc_driver.c",1282
0000172E EC02                    		MOV.L [R0], R2
00001730 6641                    		MOV.L #00000004H, R1
00001732 05rrrrrr             A  		BSR _R_usb_cstd_SndMsg
00001736 A009                    		MOV.L R1, 04H[R0]
00001738                         L467:	; bb7.split6
                                 ;    1283         if( err != USB_E_OK )
                                 		.LINE  "C:\Workspace\e2studio\git\MT01_master\r_usb_hmsc\src\r_usb_hmsc_driver.c",1283
00001738 A809                    		MOV.L 04H[R0], R1
0000173A 6101                    		CMP #00H, R1
0000173C 20rr                    		BEQ L469
0000173E                         L468:	; bb38
                                 ;    1284         {
                                 ;    1285             err = R_USB_REL_BLK(USB_HMSC_MPL,(USB_MH_t)p_blf);
                                 		.LINE  "C:\Workspace\e2studio\git\MT01_master\r_usb_hmsc\src\r_usb_hmsc_driver.c",1285
0000173E EC02                    		MOV.L [R0], R2
00001740 6641                    		MOV.L #00000004H, R1
00001742 05rrrrrr             A  		BSR _R_usb_cstd_RelBlk
00001746 A009                    		MOV.L R1, 04H[R0]
00001748 6705                    		RTSD #14H
0000174A                         L469:	; return
                                 ;    1286             USB_PRINTF0("### usb_hmsc_class_check_resultn snd_msg error\n");
                                 ;    1287         }
                                 ;    1288     }
                                 ;    1289     else
                                 ;    1290     {
                                 ;    1291         USB_PRINTF0("### usb_hmsc_class_check_result pget_blk error\n");
                                 ;    1292     }
                                 ;    1293 }   /* eof usb_hmsc_class_check_result() */
                                 		.LINE  "C:\Workspace\e2studio\git\MT01_master\r_usb_hmsc\src\r_usb_hmsc_driver.c",1293
0000174A 6705                    		RTSD #14H
0000174C                         _usb_hmsc_StallErr:
                                 		.STACK	_usb_hmsc_StallErr=84
                                 ;    1294 
                                 ;    1295 /******************************************************************************
                                 ;    1296 Function Name   : usb_hmsc_StallErr
                                 ;    1297 Description     : HMSC Stall Error
                                 ;    1298 Arguments       : USB_UTR_t *ptr : 
                                 ;    1299 Return value    : none
                                 ;    1300 ******************************************************************************/
                                 ;    1301 void usb_hmsc_StallErr(USB_UTR_t *ptr)
                                 		.LINE  "C:\Workspace\e2studio\git\MT01_master\r_usb_hmsc\src\r_usb_hmsc_driver.c",1301
0000174C 7100B0                  		ADD #0FFFFFFB0H, R0
0000174F A489                    		MOV.L R1, 4CH[R0]
                                 ;    1302 {
                                 ;    1303     uint16_t    drvnum, msgnum, result;
                                 ;    1304     uint16_t    hub_addr,hub_port_no;
                                 ;    1305     USB_ER_t    err,err2;
                                 ;    1306     USB_MH_t    p_blf;
                                 ;    1307     USB_UTR_t   *cp;
                                 ;    1308     USB_UTR_t   devadr;
                                 ;    1309 
                                 ;    1310     drvnum = usb_ghmsc_RootDrive[ptr->ip];
                                 		.LINE  "C:\Workspace\e2studio\git\MT01_master\r_usb_hmsc\src\r_usb_hmsc_driver.c",1310
00001751 B991                    		MOVU.W 0CH[R1], R1
00001753 FBE2rrrrrrrr            		MOV.L #_usb_ghmsc_RootDrive, R14
00001759 FE51E1                  		MOV.W [R1,R14], R1
0000175C 9089                    		MOV.W R1, 06H[R0]
0000175E                         L471:	; entry.split
                                 ;    1311     result = ptr->status;
                                 		.LINE  "C:\Workspace\e2studio\git\MT01_master\r_usb_hmsc\src\r_usb_hmsc_driver.c",1311
0000175E AC89                    		MOV.L 4CH[R0], R1
00001760 D5101005                		MOV.W 20H[R1], 0AH[R0]
00001764                         L472:	; entry.split1
                                 ;    1312     msgnum = usb_hmsc_SmpDrive2Msgnum(ptr, drvnum);
                                 		.LINE  "C:\Workspace\e2studio\git\MT01_master\r_usb_hmsc\src\r_usb_hmsc_driver.c",1312
00001764 B88A                    		MOVU.W 06H[R0], R2
00001766 AC89                    		MOV.L 4CH[R0], R1
00001768 05rrrrrr             A  		BSR _usb_hmsc_SmpDrive2Msgnum
0000176C 9101                    		MOV.W R1, 08H[R0]
0000176E                         L473:	; entry.split2
                                 ;    1313     if( USB_ERROR == msgnum )
                                 		.LINE  "C:\Workspace\e2studio\git\MT01_master\r_usb_hmsc\src\r_usb_hmsc_driver.c",1313
0000176E B901                    		MOVU.W 08H[R0], R1
00001770 7701FFFF00              		CMP #0FFFFH, R1
00001775 3Arrrr               W  		BEQ L548
00001778                         L474:	; bb29
                                 ;    1314     {
                                 ;    1315         return;
                                 ;    1316     }
                                 ;    1317 
                                 ;    1318     switch( usb_shmsc_StallErrSeq[ptr->ip] )
                                 		.LINE  "C:\Workspace\e2studio\git\MT01_master\r_usb_hmsc\src\r_usb_hmsc_driver.c",1318
00001778 AC89                    		MOV.L 4CH[R0], R1
0000177A B991                    		MOVU.W 0CH[R1], R1
0000177C FBE2rrrrrrrr            		MOV.L #_usb_shmsc_StallErrSeq, R14
00001782 FED1EE                  		MOVU.W [R1,R14], R14
00001785 614E                    		CMP #04H, R14
00001787 3Arrrr               W  		BEQ L518
0000178A                         L475:	; bb29
0000178A 611E                    		CMP #01H, R14
0000178C 3Arrrr               W  		BEQ L506
0000178F                         L476:	; bb29
0000178F 612E                    		CMP #02H, R14
00001791 3Arrrr               W  		BEQ L509
00001794                         L477:	; bb29
00001794 613E                    		CMP #03H, R14
00001796 3Arrrr               W  		BEQ L512
00001799                         L478:	; bb29
00001799 610E                    		CMP #00H, R14
0000179B 3Brrrr               W  		BNE L543
0000179E                         L479:	; bb37
                                 ;    1319     {
                                 ;    1320     case USB_SEQ_0:
                                 ;    1321         drvnum = ptr->keyword;
                                 		.LINE  "C:\Workspace\e2studio\git\MT01_master\r_usb_hmsc\src\r_usb_hmsc_driver.c",1321
0000179E AC89                    		MOV.L 4CH[R0], R1
000017A0 D5100303                		MOV.W 06H[R1], 06H[R0]
000017A4                         L480:	; bb37.split
                                 ;    1322         /* Device address set */
                                 ;    1323         usb_hmsc_SmpDrive2Addr( drvnum, &devadr );
                                 		.LINE  "C:\Workspace\e2studio\git\MT01_master\r_usb_hmsc\src\r_usb_hmsc_driver.c",1323
000017A4 B889                    		MOVU.W 06H[R0], R1
000017A6 710220                  		ADD #20H, R0, R2
000017A9 05rrrrrr             A  		BSR _usb_hmsc_SmpDrive2Addr
000017AD                         L481:	; bb37.split3
                                 ;    1324 
                                 ;    1325         /* Get connected Hub address from Device address. */
                                 ;    1326         hub_addr = R_usb_hhub_get_hub_addr(ptr, devadr.keyword);
                                 		.LINE  "C:\Workspace\e2studio\git\MT01_master\r_usb_hmsc\src\r_usb_hmsc_driver.c",1326
000017AD BC8A                    		MOVU.W 26H[R0], R2
000017AF AC89                    		MOV.L 4CH[R0], R1
000017B1 05rrrrrr             A  		BSR _R_usb_hhub_get_hub_addr
000017B5 9181                    		MOV.W R1, 0CH[R0]
000017B7                         L482:	; bb37.split4
                                 ;    1327 
                                 ;    1328         /* Get connected Hub port number from Device address. */
                                 ;    1329         hub_port_no = R_usb_hhub_get_hub_port_no(ptr, devadr.keyword);
                                 		.LINE  "C:\Workspace\e2studio\git\MT01_master\r_usb_hmsc\src\r_usb_hmsc_driver.c",1329
000017B7 BC8A                    		MOVU.W 26H[R0], R2
000017B9 AC89                    		MOV.L 4CH[R0], R1
000017BB 05rrrrrr             A  		BSR _R_usb_hhub_get_hub_port_no
000017BF 9189                    		MOV.W R1, 0EH[R0]
000017C1                         L483:	; bb37.split5
                                 ;    1330 
                                 ;    1331         /* Transfer Get Port Status when get Hub address and connected Hub port no. */
                                 ;    1332         if( (hub_addr != USB_ERROR) && (hub_port_no != USB_ERROR) )
                                 		.LINE  "C:\Workspace\e2studio\git\MT01_master\r_usb_hmsc\src\r_usb_hmsc_driver.c",1332
000017C1 B981                    		MOVU.W 0CH[R0], R1
000017C3 7701FFFF00              		CMP #0FFFFH, R1
000017C8 3Brrrr               W  		BNE L502
000017CB 38rrrr               W  		BRA L504
000017CE                         L484:	; bb51
                                 ;    1333         {
                                 ;    1334             /* Get Port Status(GET_STATUS) */
                                 ;    1335             R_usb_hhub_GetPortInformation(ptr, hub_addr, hub_port_no, (USB_CB_t)usb_hmsc_CheckResult );
                                 		.LINE  "C:\Workspace\e2studio\git\MT01_master\r_usb_hmsc\src\r_usb_hmsc_driver.c",1335
000017CE B98B                    		MOVU.W 0EH[R0], R3
000017D0 B982                    		MOVU.W 0CH[R0], R2
000017D2 FB42rrrrrrrr            		MOV.L #_usb_hmsc_CheckResult, R4
000017D8 05rrrrrr             A  		BSR _R_usb_hhub_GetPortInformation
000017DC                         L485:	; bb51.split
                                 ;    1336             usb_shmsc_StallErrSeq[ptr->ip] = USB_SEQ_4;
                                 		.LINE  "C:\Workspace\e2studio\git\MT01_master\r_usb_hmsc\src\r_usb_hmsc_driver.c",1336
000017DC AC89                    		MOV.L 4CH[R0], R1
000017DE B991                    		MOVU.W 0CH[R1], R1
000017E0 FBE2rrrrrrrr            		MOV.L #_usb_shmsc_StallErrSeq, R14
000017E6 664F                    		MOV.L #00000004H, R15
000017E8 FE11EF                  		MOV.W R15, [R1,R14]
000017EB 6714                    		RTSD #50H
000017ED                         L486:	; bb61
                                 ;    1337         }
                                 ;    1338         else
                                 ;    1339         {
                                 ;    1340             usb_ghmsc_RootDrive[ptr->ip] = drvnum;
                                 		.LINE  "C:\Workspace\e2studio\git\MT01_master\r_usb_hmsc\src\r_usb_hmsc_driver.c",1340
000017ED B991                    		MOVU.W 0CH[R1], R1
000017EF FBE2rrrrrrrr            		MOV.L #_usb_ghmsc_RootDrive, R14
000017F5 988A                    		MOV.W 06H[R0], R2
000017F7 FE11E2                  		MOV.W R2, [R1,R14]
000017FA                         L487:	; bb61.split
                                 ;    1341 
                                 ;    1342             err = R_usb_hmsc_MassStorageReset(ptr, drvnum, (USB_CB_t)usb_hmsc_CheckResult);
                                 		.LINE  "C:\Workspace\e2studio\git\MT01_master\r_usb_hmsc\src\r_usb_hmsc_driver.c",1342
000017FA B88A                    		MOVU.W 06H[R0], R2
000017FC AC89                    		MOV.L 4CH[R0], R1
000017FE FB32rrrrrrrr            		MOV.L #_usb_hmsc_CheckResult, R3
00001804 05rrrrrr             A  		BSR _R_usb_hmsc_MassStorageReset
00001808 A101                    		MOV.L R1, 10H[R0]
0000180A                         L488:	; bb61.split6
                                 ;    1343             /* Control Transfer overlaps */
                                 ;    1344             if( err == USB_E_QOVR )
                                 		.LINE  "C:\Workspace\e2studio\git\MT01_master\r_usb_hmsc\src\r_usb_hmsc_driver.c",1344
0000180A A901                    		MOV.L 10H[R0], R1
0000180C 7501D5                  		CMP #0FFFFFFD5H, R1
0000180F 21rr                    		BNE L501
00001811                         L489:	; bb72
00001811 710218                  		ADD #18H, R0, R2
00001814 6641                    		MOV.L #00000004H, R1
                                 ;    1345             {
                                 ;    1346                 /* Resend message */
                                 ;    1347                 err = R_USB_PGET_BLK(USB_HMSC_MPL, &p_blf);
                                 		.LINE  "C:\Workspace\e2studio\git\MT01_master\r_usb_hmsc\src\r_usb_hmsc_driver.c",1347
00001816 05rrrrrr             A  		BSR _R_usb_cstd_PgetBlk
0000181A A101                    		MOV.L R1, 10H[R0]
0000181C                         L490:	; bb72.split
                                 ;    1348                 if( err == USB_E_OK )
                                 		.LINE  "C:\Workspace\e2studio\git\MT01_master\r_usb_hmsc\src\r_usb_hmsc_driver.c",1348
0000181C A901                    		MOV.L 10H[R0], R1
0000181E 6101                    		CMP #00H, R1
00001820 3Brrrr               W  		BNE L548
00001823                         L491:	; bb76
                                 ;    1349                 {
                                 ;    1350                     cp = (USB_UTR_t*)p_blf;
                                 		.LINE  "C:\Workspace\e2studio\git\MT01_master\r_usb_hmsc\src\r_usb_hmsc_driver.c",1350
00001823 E5000607                		MOV.L 18H[R0], 1CH[R0]
00001827                         L492:	; bb76.split
                                 ;    1351                     cp->msginfo = ptr -> msginfo;
                                 		.LINE  "C:\Workspace\e2studio\git\MT01_master\r_usb_hmsc\src\r_usb_hmsc_driver.c",1351
00001827 AC89                    		MOV.L 4CH[R0], R1
00001829 A98A                    		MOV.L 1CH[R0], R2
0000182B D5120202                		MOV.W 04H[R1], 04H[R2]
0000182F                         L493:	; bb76.split7
                                 ;    1352                     cp->keyword = ptr -> keyword;
                                 		.LINE  "C:\Workspace\e2studio\git\MT01_master\r_usb_hmsc\src\r_usb_hmsc_driver.c",1352
0000182F AC89                    		MOV.L 4CH[R0], R1
00001831 A98A                    		MOV.L 1CH[R0], R2
00001833 D5120303                		MOV.W 06H[R1], 06H[R2]
00001837                         L494:	; bb76.split8
                                 ;    1353                     cp->status  = ptr -> status;
                                 		.LINE  "C:\Workspace\e2studio\git\MT01_master\r_usb_hmsc\src\r_usb_hmsc_driver.c",1353
00001837 AC89                    		MOV.L 4CH[R0], R1
00001839 A98A                    		MOV.L 1CH[R0], R2
0000183B D5121010                		MOV.W 20H[R1], 20H[R2]
0000183F                         L495:	; bb76.split9
                                 ;    1354 
                                 ;    1355                     cp->ip      = ptr->ip;
                                 		.LINE  "C:\Workspace\e2studio\git\MT01_master\r_usb_hmsc\src\r_usb_hmsc_driver.c",1355
0000183F AC89                    		MOV.L 4CH[R0], R1
00001841 A98A                    		MOV.L 1CH[R0], R2
00001843 D5120606                		MOV.W 0CH[R1], 0CH[R2]
00001847                         L496:	; bb76.split10
                                 ;    1356                     cp->ipp     = ptr->ipp;
                                 		.LINE  "C:\Workspace\e2studio\git\MT01_master\r_usb_hmsc\src\r_usb_hmsc_driver.c",1356
00001847 AC89                    		MOV.L 4CH[R0], R1
00001849 A98A                    		MOV.L 1CH[R0], R2
0000184B E5120202                		MOV.L 08H[R1], 08H[R2]
0000184F                         L497:	; bb76.split11
                                 ;    1357 
                                 ;    1358                     /* Send message */
                                 ;    1359                     err = USB_SND_MSG(USB_HMSC_MBX, (USB_MSG_t*)p_blf);
                                 		.LINE  "C:\Workspace\e2studio\git\MT01_master\r_usb_hmsc\src\r_usb_hmsc_driver.c",1359
0000184F A982                    		MOV.L 18H[R0], R2
00001851 6641                    		MOV.L #00000004H, R1
00001853 05rrrrrr             A  		BSR _usb_cstd_SndMsg
00001857 A101                    		MOV.L R1, 10H[R0]
00001859                         L498:	; bb76.split12
                                 ;    1360                     if( err != USB_E_OK )
                                 		.LINE  "C:\Workspace\e2studio\git\MT01_master\r_usb_hmsc\src\r_usb_hmsc_driver.c",1360
00001859 A901                    		MOV.L 10H[R0], R1
0000185B 6101                    		CMP #00H, R1
0000185D 3Arrrr               W  		BEQ L548
00001860                         L499:	; bb110
                                 ;    1361                     {
                                 ;    1362                         USB_PRINTF1("### StallErr snd_msg error (%ld)\n", err);
                                 ;    1363                         err2 = R_USB_REL_BLK(USB_HMSC_MPL, (USB_MH_t)p_blf);
                                 		.LINE  "C:\Workspace\e2studio\git\MT01_master\r_usb_hmsc\src\r_usb_hmsc_driver.c",1363
00001860 A982                    		MOV.L 18H[R0], R2
00001862 6641                    		MOV.L #00000004H, R1
00001864 05rrrrrr             A  		BSR _R_usb_cstd_RelBlk
00001868 A109                    		MOV.L R1, 14H[R0]
0000186A                         L500:	; bb110.split
                                 ;    1364                         if( err2 != USB_E_OK )
                                 		.LINE  "C:\Workspace\e2studio\git\MT01_master\r_usb_hmsc\src\r_usb_hmsc_driver.c",1364
0000186A 6714                    		RTSD #50H
0000186C                         L501:	; bb132
                                 ;    1365                         {
                                 ;    1366                             USB_PRINTF1("### StallErr rel_blk error (%ld)\n", err2);
                                 ;    1367                         }
                                 ;    1368                     }
                                 ;    1369                 }
                                 ;    1370                 else
                                 ;    1371                 {
                                 ;    1372                     USB_PRINTF1("### StallErr pget_blk error (%ld)\n", err);
                                 ;    1373                 }
                                 ;    1374             }
                                 ;    1375             else
                                 ;    1376             {
                                 ;    1377                 /* Control Transfer not overlaps */
                                 ;    1378                 usb_shmsc_StallErrSeq[ptr->ip]++;
                                 		.LINE  "C:\Workspace\e2studio\git\MT01_master\r_usb_hmsc\src\r_usb_hmsc_driver.c",1378
0000186C AC89                    		MOV.L 4CH[R0], R1
0000186E B991                    		MOVU.W 0CH[R1], R1
00001870 FBE2rrrrrrrr            		MOV.L #_usb_shmsc_StallErrSeq, R14
00001876 FE51EF                  		MOV.W [R1,R14], R15
00001879 621F                    		ADD #01H, R15
0000187B FE11EF                  		MOV.W R15, [R1,R14]
0000187E 6714                    		RTSD #50H
00001880                         L502:	; bb149
00001880 B989                    		MOVU.W 0EH[R0], R1
00001882 7701FFFF00              		CMP #0FFFFH, R1
00001887 10                   S  		BEQ L504
00001888                         L503:	; bb154
00001888 F80601                  		MOV.L #00000001H, [R0]
0000188B 08                   S  		BRA L505
0000188C                         L504:	; bb155
0000188C F80600                  		MOV.L #00000000H, [R0]
0000188F                         L505:	; bb156
0000188F EC01                    		MOV.L [R0], R1
00001891 6101                    		CMP #00H, R1
00001893 AC89                    		MOV.L 4CH[R0], R1
00001895 3Brrrr               W  		BNE L484
00001898 38rrrr               W  		BRA L486
0000189B                         L506:	; bb162
                                 ;    1379             }
                                 ;    1380         }
                                 ;    1381         break;
                                 ;    1382 
                                 ;    1383     case USB_SEQ_1:
                                 ;    1384         usb_hmsc_MassStorageResetCheck(ptr, result);
                                 		.LINE  "C:\Workspace\e2studio\git\MT01_master\r_usb_hmsc\src\r_usb_hmsc_driver.c",1384
0000189B B90A                    		MOVU.W 0AH[R0], R2
0000189D AC89                    		MOV.L 4CH[R0], R1
0000189F 05rrrrrr             A  		BSR _usb_hmsc_MassStorageResetCheck
000018A3                         L507:	; bb162.split
                                 ;    1385         R_usb_hmsc_ClearStall(ptr, (uint16_t)USB_DATA_NONE, msgnum,
                                 		.LINE  "C:\Workspace\e2studio\git\MT01_master\r_usb_hmsc\src\r_usb_hmsc_driver.c",1385
000018A3 B903                    		MOVU.W 08H[R0], R3
000018A5 AC89                    		MOV.L 4CH[R0], R1
000018A7 FB42rrrrrrrr            		MOV.L #_usb_hmsc_CheckResult, R4
000018AD 6612                    		MOV.L #00000001H, R2
000018AF 05rrrrrr             A  		BSR _R_usb_hmsc_ClearStall
000018B3                         L508:	; bb162.split13
                                 ;    1386              usb_hmsc_CheckResult);
                                 ;    1387         usb_shmsc_StallErrSeq[ptr->ip]++;
                                 		.LINE  "C:\Workspace\e2studio\git\MT01_master\r_usb_hmsc\src\r_usb_hmsc_driver.c",1387
000018B3 AC89                    		MOV.L 4CH[R0], R1
000018B5 B991                    		MOVU.W 0CH[R1], R1
000018B7 FBE2rrrrrrrr            		MOV.L #_usb_shmsc_StallErrSeq, R14
000018BD FE51EF                  		MOV.W [R1,R14], R15
000018C0 621F                    		ADD #01H, R15
000018C2 FE11EF                  		MOV.W R15, [R1,R14]
000018C5 6714                    		RTSD #50H
000018C7                         L509:	; bb175
                                 ;    1388         break;
                                 ;    1389     case USB_SEQ_2:
                                 ;    1390         usb_hmsc_ClearStallCheck(ptr, result);
                                 		.LINE  "C:\Workspace\e2studio\git\MT01_master\r_usb_hmsc\src\r_usb_hmsc_driver.c",1390
000018C7 B90A                    		MOVU.W 0AH[R0], R2
000018C9 AC89                    		MOV.L 4CH[R0], R1
000018CB 05rrrrrr             A  		BSR _usb_hmsc_ClearStallCheck
000018CF                         L510:	; bb175.split
                                 ;    1391         R_usb_hmsc_ClearStall(ptr, (uint16_t)USB_DATA_OK, msgnum,
                                 		.LINE  "C:\Workspace\e2studio\git\MT01_master\r_usb_hmsc\src\r_usb_hmsc_driver.c",1391
000018CF B903                    		MOVU.W 08H[R0], R3
000018D1 AC89                    		MOV.L 4CH[R0], R1
000018D3 FB42rrrrrrrr            		MOV.L #_usb_hmsc_CheckResult, R4
000018D9 6632                    		MOV.L #00000003H, R2
000018DB 05rrrrrr             A  		BSR _R_usb_hmsc_ClearStall
000018DF                         L511:	; bb175.split14
                                 ;    1392              usb_hmsc_CheckResult);
                                 ;    1393         usb_shmsc_StallErrSeq[ptr->ip]++;
                                 		.LINE  "C:\Workspace\e2studio\git\MT01_master\r_usb_hmsc\src\r_usb_hmsc_driver.c",1393
000018DF AC89                    		MOV.L 4CH[R0], R1
000018E1 B991                    		MOVU.W 0CH[R1], R1
000018E3 FBE2rrrrrrrr            		MOV.L #_usb_shmsc_StallErrSeq, R14
000018E9 FE51EF                  		MOV.W [R1,R14], R15
000018EC 621F                    		ADD #01H, R15
000018EE FE11EF                  		MOV.W R15, [R1,R14]
000018F1 6714                    		RTSD #50H
000018F3                         L512:	; bb187
                                 ;    1394         break;
                                 ;    1395     case USB_SEQ_3:
                                 ;    1396         usb_hmsc_ClearStallCheck(ptr, result);
                                 		.LINE  "C:\Workspace\e2studio\git\MT01_master\r_usb_hmsc\src\r_usb_hmsc_driver.c",1396
000018F3 B90A                    		MOVU.W 0AH[R0], R2
000018F5 AC89                    		MOV.L 4CH[R0], R1
000018F7 05rrrrrr             A  		BSR _usb_hmsc_ClearStallCheck
000018FB                         L513:	; bb187.split
                                 ;    1397         if( ptr->msginfo == USB_MSG_HMSC_CSW_PHASE_ERR )
                                 		.LINE  "C:\Workspace\e2studio\git\MT01_master\r_usb_hmsc\src\r_usb_hmsc_driver.c",1397
000018FB AC89                    		MOV.L 4CH[R0], R1
000018FD B891                    		MOVU.W 04H[R1], R1
000018FF 76010505                		CMP #0505H, R1
00001903 18                   S  		BNE L515
00001904                         L514:	; bb191
                                 ;    1398         {
                                 ;    1399             result = USB_HMSC_CSW_PHASE_ERR;
                                 		.LINE  "C:\Workspace\e2studio\git\MT01_master\r_usb_hmsc\src\r_usb_hmsc_driver.c",1399
00001904 F90905FAFF              		MOV.W #0FFFAH, 0AH[R0]
00001909 08                   S  		BRA L516
0000190A                         L515:	; bb192
                                 ;    1400         }
                                 ;    1401         else
                                 ;    1402         {
                                 ;    1403             result = USB_HMSC_CBW_ERR;
                                 		.LINE  "C:\Workspace\e2studio\git\MT01_master\r_usb_hmsc\src\r_usb_hmsc_driver.c",1403
0000190A F90905FEFF              		MOV.W #0FFFEH, 0AH[R0]
0000190F                         L516:	; bb200
                                 ;    1404         }
                                 ;    1405         usb_hmsc_CommandResult(ptr, result);
                                 		.LINE  "C:\Workspace\e2studio\git\MT01_master\r_usb_hmsc\src\r_usb_hmsc_driver.c",1405
0000190F B90A                    		MOVU.W 0AH[R0], R2
00001911 AC89                    		MOV.L 4CH[R0], R1
00001913 39rrrr               W  		BSR _usb_hmsc_CommandResult
00001916                         L517:	; bb200.split
                                 ;    1406         usb_shmsc_StallErrSeq[ptr->ip] = USB_SEQ_0;
                                 		.LINE  "C:\Workspace\e2studio\git\MT01_master\r_usb_hmsc\src\r_usb_hmsc_driver.c",1406
00001916 AC89                    		MOV.L 4CH[R0], R1
00001918 B991                    		MOVU.W 0CH[R1], R1
0000191A FBE2rrrrrrrr            		MOV.L #_usb_shmsc_StallErrSeq, R14
00001920 660F                    		MOV.L #00000000H, R15
00001922 FE11EF                  		MOV.W R15, [R1,R14]
00001925 6714                    		RTSD #50H
00001927                         L518:	; bb208
                                 ;    1407         break;
                                 ;    1408 
                                 ;    1409     case USB_SEQ_4:
                                 ;    1410         drvnum = (uint16_t)ptr->usr_data;                               /* Device no. set */
                                 		.LINE  "C:\Workspace\e2studio\git\MT01_master\r_usb_hmsc\src\r_usb_hmsc_driver.c",1410
00001927 AC89                    		MOV.L 4CH[R0], R1
00001929 AA91                    		MOV.L 28H[R1], R1
0000192B 9089                    		MOV.W R1, 06H[R0]
0000192D                         L519:	; bb208.split
                                 ;    1411         /* Device address set */
                                 ;    1412         usb_hmsc_SmpDrive2Addr( drvnum, &devadr );
                                 		.LINE  "C:\Workspace\e2studio\git\MT01_master\r_usb_hmsc\src\r_usb_hmsc_driver.c",1412
0000192D B889                    		MOVU.W 06H[R0], R1
0000192F 710220                  		ADD #20H, R0, R2
00001932 05rrrrrr             A  		BSR _usb_hmsc_SmpDrive2Addr
00001936                         L520:	; bb208.split15
                                 ;    1413 
                                 ;    1414         /* Get connected Hub address from Device address. */
                                 ;    1415         hub_addr = R_usb_hhub_get_hub_addr(ptr, devadr.keyword);
                                 		.LINE  "C:\Workspace\e2studio\git\MT01_master\r_usb_hmsc\src\r_usb_hmsc_driver.c",1415
00001936 BC8A                    		MOVU.W 26H[R0], R2
00001938 AC89                    		MOV.L 4CH[R0], R1
0000193A 05rrrrrr             A  		BSR _R_usb_hhub_get_hub_addr
0000193E 9181                    		MOV.W R1, 0CH[R0]
00001940                         L521:	; bb208.split16
                                 ;    1416 
                                 ;    1417         /* Check device connect status for after transfer complete GET_STATUS(Get Port Status) */
                                 ;    1418         if( R_usb_hhub_chk_connect_status(ptr, hub_addr) == USB_DEV_NO_CONNECT )
                                 		.LINE  "C:\Workspace\e2studio\git\MT01_master\r_usb_hmsc\src\r_usb_hmsc_driver.c",1418
00001940 B982                    		MOVU.W 0CH[R0], R2
00001942 AC89                    		MOV.L 4CH[R0], R1
00001944 05rrrrrr             A  		BSR _R_usb_hhub_chk_connect_status
00001948 6101                    		CMP #00H, R1
0000194A AC89                    		MOV.L 4CH[R0], R1
0000194C 21rr                    		BNE L527
0000194E                         L522:	; bb221
                                 ;    1419         {
                                 ;    1420             if( ptr->msginfo == USB_MSG_HMSC_CSW_PHASE_ERR )
                                 		.LINE  "C:\Workspace\e2studio\git\MT01_master\r_usb_hmsc\src\r_usb_hmsc_driver.c",1420
0000194E B891                    		MOVU.W 04H[R1], R1
00001950 76010505                		CMP #0505H, R1
00001954 18                   S  		BNE L524
00001955                         L523:	; bb222
                                 ;    1421             {
                                 ;    1422                 result = USB_HMSC_CSW_PHASE_ERR;
                                 		.LINE  "C:\Workspace\e2studio\git\MT01_master\r_usb_hmsc\src\r_usb_hmsc_driver.c",1422
00001955 F90905FAFF              		MOV.W #0FFFAH, 0AH[R0]
0000195A 08                   S  		BRA L525
0000195B                         L524:	; bb223
                                 ;    1423             }
                                 ;    1424             else
                                 ;    1425             {
                                 ;    1426                 result = USB_HMSC_CBW_ERR;
                                 		.LINE  "C:\Workspace\e2studio\git\MT01_master\r_usb_hmsc\src\r_usb_hmsc_driver.c",1426
0000195B F90905FEFF              		MOV.W #0FFFEH, 0AH[R0]
00001960                         L525:	; bb231
                                 ;    1427             }
                                 ;    1428             usb_hmsc_CommandResult(ptr, result);
                                 		.LINE  "C:\Workspace\e2studio\git\MT01_master\r_usb_hmsc\src\r_usb_hmsc_driver.c",1428
00001960 B90A                    		MOVU.W 0AH[R0], R2
00001962 AC89                    		MOV.L 4CH[R0], R1
00001964 39rrrr               W  		BSR _usb_hmsc_CommandResult
00001967                         L526:	; bb231.split
                                 ;    1429             usb_shmsc_StallErrSeq[ptr->ip] = USB_SEQ_0;
                                 		.LINE  "C:\Workspace\e2studio\git\MT01_master\r_usb_hmsc\src\r_usb_hmsc_driver.c",1429
00001967 AC89                    		MOV.L 4CH[R0], R1
00001969 B991                    		MOVU.W 0CH[R1], R1
0000196B FBE2rrrrrrrr            		MOV.L #_usb_shmsc_StallErrSeq, R14
00001971 660F                    		MOV.L #00000000H, R15
00001973 FE11EF                  		MOV.W R15, [R1,R14]
00001976 6714                    		RTSD #50H
00001978                         L527:	; bb239
                                 ;    1430         }
                                 ;    1431         else
                                 ;    1432         {
                                 ;    1433             usb_ghmsc_RootDrive[ptr->ip] = drvnum;
                                 		.LINE  "C:\Workspace\e2studio\git\MT01_master\r_usb_hmsc\src\r_usb_hmsc_driver.c",1433
00001978 B991                    		MOVU.W 0CH[R1], R1
0000197A FBE2rrrrrrrr            		MOV.L #_usb_ghmsc_RootDrive, R14
00001980 988A                    		MOV.W 06H[R0], R2
00001982 FE11E2                  		MOV.W R2, [R1,R14]
00001985                         L528:	; bb239.split
                                 ;    1434 
                                 ;    1435             err = R_usb_hmsc_MassStorageReset(ptr, drvnum, (USB_CB_t)usb_hmsc_CheckResult);
                                 		.LINE  "C:\Workspace\e2studio\git\MT01_master\r_usb_hmsc\src\r_usb_hmsc_driver.c",1435
00001985 B88A                    		MOVU.W 06H[R0], R2
00001987 AC89                    		MOV.L 4CH[R0], R1
00001989 FB32rrrrrrrr            		MOV.L #_usb_hmsc_CheckResult, R3
0000198F 05rrrrrr             A  		BSR _R_usb_hmsc_MassStorageReset
00001993 A101                    		MOV.L R1, 10H[R0]
00001995                         L529:	; bb239.split17
                                 ;    1436             /* Control Transfer overlaps */
                                 ;    1437             if( err == USB_E_QOVR )
                                 		.LINE  "C:\Workspace\e2studio\git\MT01_master\r_usb_hmsc\src\r_usb_hmsc_driver.c",1437
00001995 A901                    		MOV.L 10H[R0], R1
00001997 7501D5                  		CMP #0FFFFFFD5H, R1
0000199A 21rr                    		BNE L542
0000199C                         L530:	; bb250
0000199C 710218                  		ADD #18H, R0, R2
0000199F 6641                    		MOV.L #00000004H, R1
                                 ;    1438             {
                                 ;    1439                 /* Resend message */
                                 ;    1440                 err = R_USB_PGET_BLK(USB_HMSC_MPL, &p_blf);
                                 		.LINE  "C:\Workspace\e2studio\git\MT01_master\r_usb_hmsc\src\r_usb_hmsc_driver.c",1440
000019A1 05rrrrrr             A  		BSR _R_usb_cstd_PgetBlk
000019A5 A101                    		MOV.L R1, 10H[R0]
000019A7                         L531:	; bb250.split
                                 ;    1441                 if( err == USB_E_OK )
                                 		.LINE  "C:\Workspace\e2studio\git\MT01_master\r_usb_hmsc\src\r_usb_hmsc_driver.c",1441
000019A7 A901                    		MOV.L 10H[R0], R1
000019A9 6101                    		CMP #00H, R1
000019AB 3Brrrr               W  		BNE L548
000019AE                         L532:	; bb254
                                 ;    1442                 {
                                 ;    1443                     cp = (USB_UTR_t*)p_blf;
                                 		.LINE  "C:\Workspace\e2studio\git\MT01_master\r_usb_hmsc\src\r_usb_hmsc_driver.c",1443
000019AE E5000607                		MOV.L 18H[R0], 1CH[R0]
000019B2                         L533:	; bb254.split
                                 ;    1444                     cp->msginfo = ptr -> msginfo;
                                 		.LINE  "C:\Workspace\e2studio\git\MT01_master\r_usb_hmsc\src\r_usb_hmsc_driver.c",1444
000019B2 AC89                    		MOV.L 4CH[R0], R1
000019B4 A98A                    		MOV.L 1CH[R0], R2
000019B6 D5120202                		MOV.W 04H[R1], 04H[R2]
000019BA                         L534:	; bb254.split18
                                 ;    1445                     cp->keyword = ptr -> keyword;
                                 		.LINE  "C:\Workspace\e2studio\git\MT01_master\r_usb_hmsc\src\r_usb_hmsc_driver.c",1445
000019BA AC89                    		MOV.L 4CH[R0], R1
000019BC A98A                    		MOV.L 1CH[R0], R2
000019BE D5120303                		MOV.W 06H[R1], 06H[R2]
000019C2                         L535:	; bb254.split19
                                 ;    1446                     cp->status  = ptr -> status;
                                 		.LINE  "C:\Workspace\e2studio\git\MT01_master\r_usb_hmsc\src\r_usb_hmsc_driver.c",1446
000019C2 AC89                    		MOV.L 4CH[R0], R1
000019C4 A98A                    		MOV.L 1CH[R0], R2
000019C6 D5121010                		MOV.W 20H[R1], 20H[R2]
000019CA                         L536:	; bb254.split20
                                 ;    1447 
                                 ;    1448                     cp->ip      = ptr->ip;
                                 		.LINE  "C:\Workspace\e2studio\git\MT01_master\r_usb_hmsc\src\r_usb_hmsc_driver.c",1448
000019CA AC89                    		MOV.L 4CH[R0], R1
000019CC A98A                    		MOV.L 1CH[R0], R2
000019CE D5120606                		MOV.W 0CH[R1], 0CH[R2]
000019D2                         L537:	; bb254.split21
                                 ;    1449                     cp->ipp     = ptr->ipp;
                                 		.LINE  "C:\Workspace\e2studio\git\MT01_master\r_usb_hmsc\src\r_usb_hmsc_driver.c",1449
000019D2 AC89                    		MOV.L 4CH[R0], R1
000019D4 A98A                    		MOV.L 1CH[R0], R2
000019D6 E5120202                		MOV.L 08H[R1], 08H[R2]
000019DA                         L538:	; bb254.split22
                                 ;    1450 
                                 ;    1451                     /* Send message */
                                 ;    1452                     err = R_USB_SND_MSG(USB_HMSC_MBX, (USB_MSG_t*)p_blf);
                                 		.LINE  "C:\Workspace\e2studio\git\MT01_master\r_usb_hmsc\src\r_usb_hmsc_driver.c",1452
000019DA A982                    		MOV.L 18H[R0], R2
000019DC 6641                    		MOV.L #00000004H, R1
000019DE 05rrrrrr             A  		BSR _R_usb_cstd_SndMsg
000019E2 A101                    		MOV.L R1, 10H[R0]
000019E4                         L539:	; bb254.split23
                                 ;    1453                     if( err != USB_E_OK )
                                 		.LINE  "C:\Workspace\e2studio\git\MT01_master\r_usb_hmsc\src\r_usb_hmsc_driver.c",1453
000019E4 A901                    		MOV.L 10H[R0], R1
000019E6 6101                    		CMP #00H, R1
000019E8 20rr                    		BEQ L548
000019EA                         L540:	; bb288
                                 ;    1454                     {
                                 ;    1455                         USB_PRINTF1("### StallErr snd_msg error (%ld)\n", err);
                                 ;    1456                         err2 = R_USB_REL_BLK(USB_HMSC_MPL, (USB_MH_t)p_blf);
                                 		.LINE  "C:\Workspace\e2studio\git\MT01_master\r_usb_hmsc\src\r_usb_hmsc_driver.c",1456
000019EA A982                    		MOV.L 18H[R0], R2
000019EC 6641                    		MOV.L #00000004H, R1
000019EE 05rrrrrr             A  		BSR _R_usb_cstd_RelBlk
000019F2 A109                    		MOV.L R1, 14H[R0]
000019F4                         L541:	; bb288.split
                                 ;    1457                         if( err2 != USB_E_OK )
                                 		.LINE  "C:\Workspace\e2studio\git\MT01_master\r_usb_hmsc\src\r_usb_hmsc_driver.c",1457
000019F4 6714                    		RTSD #50H
000019F6                         L542:	; bb310
                                 ;    1458                         {
                                 ;    1459                             USB_PRINTF1("### StallErr rel_blk error (%ld)\n", err2);
                                 ;    1460                         }
                                 ;    1461                     }
                                 ;    1462                 }
                                 ;    1463                 else
                                 ;    1464                 {
                                 ;    1465                     USB_PRINTF1("### StallErr pget_blk error (%ld)\n", err);
                                 ;    1466                 }
                                 ;    1467             }
                                 ;    1468             else
                                 ;    1469             {
                                 ;    1470                 /* Control Transfer not overlaps */
                                 ;    1471                 usb_shmsc_StallErrSeq[ptr->ip] = USB_SEQ_1;
                                 		.LINE  "C:\Workspace\e2studio\git\MT01_master\r_usb_hmsc\src\r_usb_hmsc_driver.c",1471
000019F6 AC89                    		MOV.L 4CH[R0], R1
000019F8 B991                    		MOVU.W 0CH[R1], R1
000019FA FBE2rrrrrrrr            		MOV.L #_usb_shmsc_StallErrSeq, R14
00001A00 661F                    		MOV.L #00000001H, R15
00001A02 FE11EF                  		MOV.W R15, [R1,R14]
00001A05 6714                    		RTSD #50H
00001A07                         L543:	; bb330
                                 ;    1472             }
                                 ;    1473         }
                                 ;    1474         break;
                                 ;    1475 
                                 ;    1476     default:
                                 ;    1477         if( ptr->msginfo == USB_MSG_HMSC_CSW_PHASE_ERR )
                                 		.LINE  "C:\Workspace\e2studio\git\MT01_master\r_usb_hmsc\src\r_usb_hmsc_driver.c",1477
00001A07 AC89                    		MOV.L 4CH[R0], R1
00001A09 B891                    		MOVU.W 04H[R1], R1
00001A0B 76010505                		CMP #0505H, R1
00001A0F 18                   S  		BNE L545
00001A10                         L544:	; bb331
                                 ;    1478         {
                                 ;    1479             result = USB_HMSC_CSW_PHASE_ERR;
                                 		.LINE  "C:\Workspace\e2studio\git\MT01_master\r_usb_hmsc\src\r_usb_hmsc_driver.c",1479
00001A10 F90905FAFF              		MOV.W #0FFFAH, 0AH[R0]
00001A15 08                   S  		BRA L546
00001A16                         L545:	; bb332
                                 ;    1480         }
                                 ;    1481         else
                                 ;    1482         {
                                 ;    1483             result = USB_HMSC_CBW_ERR;
                                 		.LINE  "C:\Workspace\e2studio\git\MT01_master\r_usb_hmsc\src\r_usb_hmsc_driver.c",1483
00001A16 F90905FEFF              		MOV.W #0FFFEH, 0AH[R0]
00001A1B                         L546:	; bb340
                                 ;    1484         }
                                 ;    1485         usb_hmsc_CommandResult(ptr, result);
                                 		.LINE  "C:\Workspace\e2studio\git\MT01_master\r_usb_hmsc\src\r_usb_hmsc_driver.c",1485
00001A1B B90A                    		MOVU.W 0AH[R0], R2
00001A1D AC89                    		MOV.L 4CH[R0], R1
00001A1F 39rrrr               W  		BSR _usb_hmsc_CommandResult
00001A22                         L547:	; bb340.split
                                 ;    1486         usb_shmsc_StallErrSeq[ptr->ip] = USB_SEQ_0;
                                 		.LINE  "C:\Workspace\e2studio\git\MT01_master\r_usb_hmsc\src\r_usb_hmsc_driver.c",1486
00001A22 AC89                    		MOV.L 4CH[R0], R1
00001A24 B991                    		MOVU.W 0CH[R1], R1
00001A26 FBE2rrrrrrrr            		MOV.L #_usb_shmsc_StallErrSeq, R14
00001A2C 660F                    		MOV.L #00000000H, R15
00001A2E FE11EF                  		MOV.W R15, [R1,R14]
00001A31 6714                    		RTSD #50H
00001A33                         L548:	; return
                                 ;    1487         break;
                                 ;    1488     }
                                 ;    1489 }   /* eof usb_hmsc_StallErr() */
                                 		.LINE  "C:\Workspace\e2studio\git\MT01_master\r_usb_hmsc\src\r_usb_hmsc_driver.c",1489
00001A33 6714                    		RTSD #50H
00001A35                         _usb_hmsc_DataStall:
                                 		.STACK	_usb_hmsc_DataStall=24
                                 ;    1490 
                                 ;    1491 /******************************************************************************
                                 ;    1492 Function Name   : usb_hmsc_DataStall
                                 ;    1493 Description     : HMSC Data Stall
                                 ;    1494 Arguments       : USB_UTR_t *mess : 
                                 ;    1495 Return value    : none
                                 ;    1496 ******************************************************************************/
                                 ;    1497 void usb_hmsc_DataStall(USB_UTR_t *mess)
                                 		.LINE  "C:\Workspace\e2studio\git\MT01_master\r_usb_hmsc\src\r_usb_hmsc_driver.c",1497
00001A35 7100EC                  		ADD #0FFFFFFECH, R0
00001A38 A101                    		MOV.L R1, 10H[R0]
                                 ;    1498 {
                                 ;    1499     uint16_t result, status, drvnum, msgnum, hmsc_retval;
                                 ;    1500     USB_CLSINFO_t *ptr;
                                 ;    1501 
                                 ;    1502     drvnum = usb_ghmsc_RootDrive[mess->ip];
                                 		.LINE  "C:\Workspace\e2studio\git\MT01_master\r_usb_hmsc\src\r_usb_hmsc_driver.c",1502
00001A3A B991                    		MOVU.W 0CH[R1], R1
00001A3C FBE2rrrrrrrr            		MOV.L #_usb_ghmsc_RootDrive, R14
00001A42 FE51E1                  		MOV.W [R1,R14], R1
00001A45 9089                    		MOV.W R1, 06H[R0]
00001A47                         L550:	; entry.split
                                 ;    1503     ptr = (USB_CLSINFO_t*)mess;
                                 		.LINE  "C:\Workspace\e2studio\git\MT01_master\r_usb_hmsc\src\r_usb_hmsc_driver.c",1503
00001A47 E5000403                		MOV.L 10H[R0], 0CH[R0]
00001A4B                         L551:	; entry.split1
                                 ;    1504     result = ptr->result;
                                 		.LINE  "C:\Workspace\e2studio\git\MT01_master\r_usb_hmsc\src\r_usb_hmsc_driver.c",1504
00001A4B A889                    		MOV.L 0CH[R0], R1
00001A4D D5100701                		MOV.W 0EH[R1], 02H[R0]
00001A51                         L552:	; entry.split2
                                 ;    1505     status = mess->status;
                                 		.LINE  "C:\Workspace\e2studio\git\MT01_master\r_usb_hmsc\src\r_usb_hmsc_driver.c",1505
00001A51 A901                    		MOV.L 10H[R0], R1
00001A53 D5101002                		MOV.W 20H[R1], 04H[R0]
00001A57                         L553:	; entry.split3
                                 ;    1506 
                                 ;    1507     msgnum = usb_hmsc_SmpDrive2Msgnum(mess, drvnum);
                                 		.LINE  "C:\Workspace\e2studio\git\MT01_master\r_usb_hmsc\src\r_usb_hmsc_driver.c",1507
00001A57 B88A                    		MOVU.W 06H[R0], R2
00001A59 A901                    		MOV.L 10H[R0], R1
00001A5B 05rrrrrr             A  		BSR _usb_hmsc_SmpDrive2Msgnum
00001A5F 9101                    		MOV.W R1, 08H[R0]
00001A61                         L554:	; entry.split4
                                 ;    1508     if( USB_ERROR == msgnum )
                                 		.LINE  "C:\Workspace\e2studio\git\MT01_master\r_usb_hmsc\src\r_usb_hmsc_driver.c",1508
00001A61 B901                    		MOVU.W 08H[R0], R1
00001A63 7701FFFF00              		CMP #0FFFFH, R1
00001A68 3Arrrr               W  		BEQ L595
00001A6B                         L555:	; bb29
                                 ;    1509     {
                                 ;    1510         return;
                                 ;    1511     }
                                 ;    1512 
                                 ;    1513     switch( usb_shmsc_DataStallSeq[mess->ip] )
                                 		.LINE  "C:\Workspace\e2studio\git\MT01_master\r_usb_hmsc\src\r_usb_hmsc_driver.c",1513
00001A6B A901                    		MOV.L 10H[R0], R1
00001A6D B991                    		MOVU.W 0CH[R1], R1
00001A6F FBE2rrrrrrrr            		MOV.L #_usb_shmsc_DataStallSeq, R14
00001A75 FED1EE                  		MOVU.W [R1,R14], R14
00001A78 613E                    		CMP #03H, R14
00001A7A 3Arrrr               W  		BEQ L573
00001A7D                         L556:	; bb29
00001A7D 611E                    		CMP #01H, R14
00001A7F 20rr                    		BEQ L564
00001A81                         L557:	; bb29
00001A81 612E                    		CMP #02H, R14
00001A83 3Arrrr               W  		BEQ L570
00001A86                         L558:	; bb29
00001A86 610E                    		CMP #00H, R14
00001A88 3Brrrr               W  		BNE L593
00001A8B                         L559:	; bb37
                                 ;    1514     {
                                 ;    1515     case USB_SEQ_0:
                                 ;    1516         drvnum = mess->keyword;
                                 		.LINE  "C:\Workspace\e2studio\git\MT01_master\r_usb_hmsc\src\r_usb_hmsc_driver.c",1516
00001A8B A901                    		MOV.L 10H[R0], R1
00001A8D D5100303                		MOV.W 06H[R1], 06H[R0]
00001A91                         L560:	; bb37.split
                                 ;    1517         usb_ghmsc_RootDrive[mess->ip] = drvnum;
                                 		.LINE  "C:\Workspace\e2studio\git\MT01_master\r_usb_hmsc\src\r_usb_hmsc_driver.c",1517
00001A91 A901                    		MOV.L 10H[R0], R1
00001A93 B991                    		MOVU.W 0CH[R1], R1
00001A95 FBE2rrrrrrrr            		MOV.L #_usb_ghmsc_RootDrive, R14
00001A9B 988A                    		MOV.W 06H[R0], R2
00001A9D FE11E2                  		MOV.W R2, [R1,R14]
00001AA0                         L561:	; bb37.split5
                                 ;    1518 
                                 ;    1519         R_usb_hmsc_ClearStall(mess, (uint16_t)USB_DATA_OK, msgnum, usb_hmsc_CheckResult);
                                 		.LINE  "C:\Workspace\e2studio\git\MT01_master\r_usb_hmsc\src\r_usb_hmsc_driver.c",1519
00001AA0 B903                    		MOVU.W 08H[R0], R3
00001AA2 A901                    		MOV.L 10H[R0], R1
00001AA4 FB42rrrrrrrr            		MOV.L #_usb_hmsc_CheckResult, R4
00001AAA 6632                    		MOV.L #00000003H, R2
00001AAC 05rrrrrr             A  		BSR _R_usb_hmsc_ClearStall
00001AB0                         L562:	; bb37.split6
                                 ;    1520         usb_shmsc_Process[mess->ip] = USB_MSG_HMSC_DATA_STALL;
                                 		.LINE  "C:\Workspace\e2studio\git\MT01_master\r_usb_hmsc\src\r_usb_hmsc_driver.c",1520
00001AB0 A901                    		MOV.L 10H[R0], R1
00001AB2 B991                    		MOVU.W 0CH[R1], R1
00001AB4 FBE2rrrrrrrr            		MOV.L #_usb_shmsc_Process, R14
00001ABA FBFA0705                		MOV.L #00000507H, R15
00001ABE FE11EF                  		MOV.W R15, [R1,R14]
00001AC1                         L563:	; bb37.split7
                                 ;    1521         usb_shmsc_DataStallSeq[mess->ip]++;
                                 		.LINE  "C:\Workspace\e2studio\git\MT01_master\r_usb_hmsc\src\r_usb_hmsc_driver.c",1521
00001AC1 A901                    		MOV.L 10H[R0], R1
00001AC3 B991                    		MOVU.W 0CH[R1], R1
00001AC5 FBE2rrrrrrrr            		MOV.L #_usb_shmsc_DataStallSeq, R14
00001ACB FE51EF                  		MOV.W [R1,R14], R15
00001ACE 621F                    		ADD #01H, R15
00001AD0 FE11EF                  		MOV.W R15, [R1,R14]
00001AD3 6705                    		RTSD #14H
00001AD5                         L564:	; bb61
                                 ;    1522         break;
                                 ;    1523     case USB_SEQ_1:
                                 ;    1524         usb_hmsc_ClearStallCheck(mess, status);
                                 		.LINE  "C:\Workspace\e2studio\git\MT01_master\r_usb_hmsc\src\r_usb_hmsc_driver.c",1524
00001AD5 B882                    		MOVU.W 04H[R0], R2
00001AD7 A901                    		MOV.L 10H[R0], R1
00001AD9 05rrrrrr             A  		BSR _usb_hmsc_ClearStallCheck
00001ADD                         L565:	; bb61.split
                                 ;    1525         usb_hmsc_GetCsw(mess, drvnum);
                                 		.LINE  "C:\Workspace\e2studio\git\MT01_master\r_usb_hmsc\src\r_usb_hmsc_driver.c",1525
00001ADD B88A                    		MOVU.W 06H[R0], R2
00001ADF A901                    		MOV.L 10H[R0], R1
00001AE1 05rrrrrr             A  		BSR _usb_hmsc_GetCsw
00001AE5                         L566:	; bb61.split8
                                 ;    1526         usb_shmsc_Process[mess->ip] = USB_MSG_HMSC_DATA_STALL;
                                 		.LINE  "C:\Workspace\e2studio\git\MT01_master\r_usb_hmsc\src\r_usb_hmsc_driver.c",1526
00001AE5 A901                    		MOV.L 10H[R0], R1
00001AE7 B991                    		MOVU.W 0CH[R1], R1
00001AE9 FBE2rrrrrrrr            		MOV.L #_usb_shmsc_Process, R14
00001AEF FBFA0705                		MOV.L #00000507H, R15
00001AF3 FE11EF                  		MOV.W R15, [R1,R14]
00001AF6                         L567:	; bb61.split9
                                 ;    1527         mess->msginfo = usb_shmsc_Process[ptr->ip];
                                 		.LINE  "C:\Workspace\e2studio\git\MT01_master\r_usb_hmsc\src\r_usb_hmsc_driver.c",1527
00001AF6 A889                    		MOV.L 0CH[R0], R1
00001AF8 B991                    		MOVU.W 0CH[R1], R1
00001AFA FBE2rrrrrrrr            		MOV.L #_usb_shmsc_Process, R14
00001B00 FE51E1                  		MOV.W [R1,R14], R1
00001B03 A902                    		MOV.L 10H[R0], R2
00001B05 90A1                    		MOV.W R1, 04H[R2]
00001B07                         L568:	; bb61.split10
                                 ;    1528         usb_hmsc_SpecifiedPath((USB_CLSINFO_t *)mess);
                                 		.LINE  "C:\Workspace\e2studio\git\MT01_master\r_usb_hmsc\src\r_usb_hmsc_driver.c",1528
00001B07 A901                    		MOV.L 10H[R0], R1
00001B09 39rrrr               W  		BSR _usb_hmsc_SpecifiedPath
00001B0C                         L569:	; bb61.split11
                                 ;    1529         usb_shmsc_DataStallSeq[mess->ip]++;
                                 		.LINE  "C:\Workspace\e2studio\git\MT01_master\r_usb_hmsc\src\r_usb_hmsc_driver.c",1529
00001B0C A901                    		MOV.L 10H[R0], R1
00001B0E B991                    		MOVU.W 0CH[R1], R1
00001B10 FBE2rrrrrrrr            		MOV.L #_usb_shmsc_DataStallSeq, R14
00001B16 FE51EF                  		MOV.W [R1,R14], R15
00001B19 621F                    		ADD #01H, R15
00001B1B FE11EF                  		MOV.W R15, [R1,R14]
00001B1E 6705                    		RTSD #14H
00001B20                         L570:	; bb88
                                 ;    1530         break;
                                 ;    1531     case USB_SEQ_2:
                                 ;    1532         usb_hmsc_GetCswReq(mess, drvnum);
                                 		.LINE  "C:\Workspace\e2studio\git\MT01_master\r_usb_hmsc\src\r_usb_hmsc_driver.c",1532
00001B20 B88A                    		MOVU.W 06H[R0], R2
00001B22 A901                    		MOV.L 10H[R0], R1
00001B24 05rrrrrr             A  		BSR _usb_hmsc_GetCswReq
00001B28                         L571:	; bb88.split
                                 ;    1533         usb_shmsc_Process[mess->ip] = USB_MSG_HMSC_DATA_STALL;
                                 		.LINE  "C:\Workspace\e2studio\git\MT01_master\r_usb_hmsc\src\r_usb_hmsc_driver.c",1533
00001B28 A901                    		MOV.L 10H[R0], R1
00001B2A B991                    		MOVU.W 0CH[R1], R1
00001B2C FBE2rrrrrrrr            		MOV.L #_usb_shmsc_Process, R14
00001B32 FBFA0705                		MOV.L #00000507H, R15
00001B36 FE11EF                  		MOV.W R15, [R1,R14]
00001B39                         L572:	; bb88.split12
                                 ;    1534         usb_shmsc_DataStallSeq[mess->ip]++;
                                 		.LINE  "C:\Workspace\e2studio\git\MT01_master\r_usb_hmsc\src\r_usb_hmsc_driver.c",1534
00001B39 A901                    		MOV.L 10H[R0], R1
00001B3B B991                    		MOVU.W 0CH[R1], R1
00001B3D FBE2rrrrrrrr            		MOV.L #_usb_shmsc_DataStallSeq, R14
00001B43 FE51EF                  		MOV.W [R1,R14], R15
00001B46 621F                    		ADD #01H, R15
00001B48 FE11EF                  		MOV.W R15, [R1,R14]
00001B4B 6705                    		RTSD #14H
00001B4D                         L573:	; bb104
                                 ;    1535         break;
                                 ;    1536     case USB_SEQ_3:
                                 ;    1537         hmsc_retval = usb_hmsc_GetCswCheck(mess, drvnum,result);
                                 		.LINE  "C:\Workspace\e2studio\git\MT01_master\r_usb_hmsc\src\r_usb_hmsc_driver.c",1537
00001B4D B80B                    		MOVU.W 02H[R0], R3
00001B4F B88A                    		MOVU.W 06H[R0], R2
00001B51 A901                    		MOV.L 10H[R0], R1
00001B53 05rrrrrr             A  		BSR _usb_hmsc_GetCswCheck
00001B57 9109                    		MOV.W R1, 0AH[R0]
00001B59                         L574:	; bb104.split
                                 ;    1538         switch( hmsc_retval )
                                 		.LINE  "C:\Workspace\e2studio\git\MT01_master\r_usb_hmsc\src\r_usb_hmsc_driver.c",1538
00001B59 B909                    		MOVU.W 0AH[R0], R1
00001B5B 7701FBFF00              		CMP #0FFFBH, R1
00001B60 20rr                    		BEQ L581
00001B62                         L575:	; bb104.split
00001B62 76010705                		CMP #0507H, R1
00001B66 20rr                    		BEQ L584
00001B68                         L576:	; bb104.split
00001B68 6101                    		CMP #00H, R1
00001B6A 3Brrrr               W  		BNE L588
00001B6D                         L577:	; bb112
                                 ;    1539         {
                                 ;    1540         case USB_HMSC_OK:
                                 ;    1541             if( usb_ghmsc_CswErrRoop[mess->ip] == USB_ON )
                                 		.LINE  "C:\Workspace\e2studio\git\MT01_master\r_usb_hmsc\src\r_usb_hmsc_driver.c",1541
00001B6D A901                    		MOV.L 10H[R0], R1
00001B6F B991                    		MOVU.W 0CH[R1], R1
00001B71 FBE2rrrrrrrr            		MOV.L #_usb_ghmsc_CswErrRoop, R14
00001B77 FED1EE                  		MOVU.W [R1,R14], R14
00001B7A 611E                    		CMP #01H, R14
00001B7C 21rr                    		BNE L580
00001B7E                         L578:	; bb113
                                 ;    1542             {
                                 ;    1543                 usb_ghmsc_CswErrRoop[mess->ip] = USB_OFF;
                                 		.LINE  "C:\Workspace\e2studio\git\MT01_master\r_usb_hmsc\src\r_usb_hmsc_driver.c",1543
00001B7E A901                    		MOV.L 10H[R0], R1
00001B80 B991                    		MOVU.W 0CH[R1], R1
00001B82 FBE2rrrrrrrr            		MOV.L #_usb_ghmsc_CswErrRoop, R14
00001B88 660F                    		MOV.L #00000000H, R15
00001B8A FE11EF                  		MOV.W R15, [R1,R14]
00001B8D                         L579:	; bb113.split
                                 ;    1544                 hmsc_retval = USB_HMSC_CSW_ERR;
                                 		.LINE  "C:\Workspace\e2studio\git\MT01_master\r_usb_hmsc\src\r_usb_hmsc_driver.c",1544
00001B8D F90905FBFF              		MOV.W #0FFFBH, 0AH[R0]
00001B92                         L580:	; bb129
                                 ;    1545             }
                                 ;    1546             usb_hmsc_CommandResult(mess, hmsc_retval);
                                 		.LINE  "C:\Workspace\e2studio\git\MT01_master\r_usb_hmsc\src\r_usb_hmsc_driver.c",1546
00001B92 B90A                    		MOVU.W 0AH[R0], R2
00001B94 A901                    		MOV.L 10H[R0], R1
00001B96 39rrrr               W  		BSR _usb_hmsc_CommandResult
00001B99 38rrrr               W  		BRA L592
00001B9C                         L581:	; bb132
                                 ;    1547             break;
                                 ;    1548         case USB_HMSC_CSW_ERR:
                                 ;    1549             USB_PRINTF1("*** DataOUT : CSW-NG(drive:%d) \n", drvnum);
                                 ;    1550             usb_ghmsc_CswErrRoop[mess->ip] = USB_ON;
                                 		.LINE  "C:\Workspace\e2studio\git\MT01_master\r_usb_hmsc\src\r_usb_hmsc_driver.c",1550
00001B9C A901                    		MOV.L 10H[R0], R1
00001B9E B991                    		MOVU.W 0CH[R1], R1
00001BA0 FBE2rrrrrrrr            		MOV.L #_usb_ghmsc_CswErrRoop, R14
00001BA6 661F                    		MOV.L #00000001H, R15
00001BA8 FE11EF                  		MOV.W R15, [R1,R14]
00001BAB                         L582:	; bb132.split
                                 ;    1551             drvnum = usb_ghmsc_RootDrive[mess->ip];
                                 		.LINE  "C:\Workspace\e2studio\git\MT01_master\r_usb_hmsc\src\r_usb_hmsc_driver.c",1551
00001BAB A901                    		MOV.L 10H[R0], R1
00001BAD B991                    		MOVU.W 0CH[R1], R1
00001BAF FBE2rrrrrrrr            		MOV.L #_usb_ghmsc_RootDrive, R14
00001BB5 FE51E1                  		MOV.W [R1,R14], R1
00001BB8 9089                    		MOV.W R1, 06H[R0]
00001BBA                         L583:	; bb132.split13
                                 ;    1552             R_usb_hmsc_RequestSense(mess, drvnum, (uint8_t*)usb_ghmsc_Data[mess->ip]);
                                 		.LINE  "C:\Workspace\e2studio\git\MT01_master\r_usb_hmsc\src\r_usb_hmsc_driver.c",1552
00001BBA A901                    		MOV.L 10H[R0], R1
00001BBC B994                    		MOVU.W 0CH[R1], R4
00001BBE B88A                    		MOVU.W 06H[R0], R2
00001BC0 76140014                		MUL #1400H, R4
00001BC4 FB32rrrrrrrr            		MOV.L #_usb_ghmsc_Data, R3
00001BCA 4B43                    		ADD R4, R3
00001BCC 05rrrrrr             A  		BSR _R_usb_hmsc_RequestSense
00001BD0 2Err                 B  		BRA L592
00001BD2                         L584:	; bb153
                                 ;    1553             break;
                                 ;    1554         case USB_MSG_HMSC_DATA_STALL:
                                 ;    1555             usb_shmsc_Process[mess->ip] = USB_MSG_HMSC_CSW_PHASE_ERR;
                                 		.LINE  "C:\Workspace\e2studio\git\MT01_master\r_usb_hmsc\src\r_usb_hmsc_driver.c",1555
00001BD2 A901                    		MOV.L 10H[R0], R1
00001BD4 B991                    		MOVU.W 0CH[R1], R1
00001BD6 FBE2rrrrrrrr            		MOV.L #_usb_shmsc_Process, R14
00001BDC FBFA0505                		MOV.L #00000505H, R15
00001BE0 FE11EF                  		MOV.W R15, [R1,R14]
00001BE3                         L585:	; bb153.split
                                 ;    1556             mess->keyword = drvnum;
                                 		.LINE  "C:\Workspace\e2studio\git\MT01_master\r_usb_hmsc\src\r_usb_hmsc_driver.c",1556
00001BE3 9889                    		MOV.W 06H[R0], R1
00001BE5 A902                    		MOV.L 10H[R0], R2
00001BE7 90A9                    		MOV.W R1, 06H[R2]
00001BE9                         L586:	; bb153.split14
                                 ;    1557             mess->msginfo = usb_shmsc_Process[ptr->ip];
                                 		.LINE  "C:\Workspace\e2studio\git\MT01_master\r_usb_hmsc\src\r_usb_hmsc_driver.c",1557
00001BE9 A889                    		MOV.L 0CH[R0], R1
00001BEB B991                    		MOVU.W 0CH[R1], R1
00001BED FBE2rrrrrrrr            		MOV.L #_usb_shmsc_Process, R14
00001BF3 FE51E1                  		MOV.W [R1,R14], R1
00001BF6 A902                    		MOV.L 10H[R0], R2
00001BF8 90A1                    		MOV.W R1, 04H[R2]
00001BFA                         L587:	; bb153.split15
                                 ;    1558             usb_hmsc_SpecifiedPath((USB_CLSINFO_t *)mess);
                                 		.LINE  "C:\Workspace\e2studio\git\MT01_master\r_usb_hmsc\src\r_usb_hmsc_driver.c",1558
00001BFA A901                    		MOV.L 10H[R0], R1
00001BFC 39rrrr               W  		BSR _usb_hmsc_SpecifiedPath
00001BFF 2Err                 B  		BRA L592
00001C01                         L588:	; bb172
                                 ;    1559             USB_PRINTF1("*** DataOUT : Phase error(drive:%d) \n", drvnum);
                                 ;    1560             break;
                                 ;    1561         default:
                                 ;    1562             if( usb_ghmsc_CswErrRoop[mess->ip] == USB_ON )
                                 		.LINE  "C:\Workspace\e2studio\git\MT01_master\r_usb_hmsc\src\r_usb_hmsc_driver.c",1562
00001C01 A901                    		MOV.L 10H[R0], R1
00001C03 B991                    		MOVU.W 0CH[R1], R1
00001C05 FBE2rrrrrrrr            		MOV.L #_usb_ghmsc_CswErrRoop, R14
00001C0B FED1EE                  		MOVU.W [R1,R14], R14
00001C0E 611E                    		CMP #01H, R14
00001C10 21rr                    		BNE L591
00001C12                         L589:	; bb173
                                 ;    1563             {
                                 ;    1564                 usb_ghmsc_CswErrRoop[mess->ip] = USB_OFF;
                                 		.LINE  "C:\Workspace\e2studio\git\MT01_master\r_usb_hmsc\src\r_usb_hmsc_driver.c",1564
00001C12 A901                    		MOV.L 10H[R0], R1
00001C14 B991                    		MOVU.W 0CH[R1], R1
00001C16 FBE2rrrrrrrr            		MOV.L #_usb_ghmsc_CswErrRoop, R14
00001C1C 660F                    		MOV.L #00000000H, R15
00001C1E FE11EF                  		MOV.W R15, [R1,R14]
00001C21                         L590:	; bb173.split
                                 ;    1565                 hmsc_retval = USB_HMSC_CSW_ERR;
                                 		.LINE  "C:\Workspace\e2studio\git\MT01_master\r_usb_hmsc\src\r_usb_hmsc_driver.c",1565
00001C21 F90905FBFF              		MOV.W #0FFFBH, 0AH[R0]
00001C26                         L591:	; bb189
                                 ;    1566             }
                                 ;    1567             USB_PRINTF1("### DataOUT : GetCSW error(drive:%d) \n", drvnum);
                                 ;    1568             usb_hmsc_CommandResult(mess, hmsc_retval);
                                 		.LINE  "C:\Workspace\e2studio\git\MT01_master\r_usb_hmsc\src\r_usb_hmsc_driver.c",1568
00001C26 B90A                    		MOVU.W 0AH[R0], R2
00001C28 A901                    		MOV.L 10H[R0], R1
00001C2A 39rrrr               W  		BSR _usb_hmsc_CommandResult
00001C2D                         L592:	; bb192
                                 ;    1569             break;
                                 ;    1570         }
                                 ;    1571         usb_shmsc_DataStallSeq[mess->ip] = USB_SEQ_0;
                                 		.LINE  "C:\Workspace\e2studio\git\MT01_master\r_usb_hmsc\src\r_usb_hmsc_driver.c",1571
00001C2D A901                    		MOV.L 10H[R0], R1
00001C2F B991                    		MOVU.W 0CH[R1], R1
00001C31 FBE2rrrrrrrr            		MOV.L #_usb_shmsc_DataStallSeq, R14
00001C37 660F                    		MOV.L #00000000H, R15
00001C39 FE11EF                  		MOV.W R15, [R1,R14]
00001C3C 6705                    		RTSD #14H
00001C3E                         L593:	; bb198
                                 ;    1572         break;
                                 ;    1573     default:
                                 ;    1574         usb_hmsc_CommandResult(mess,USB_HMSC_CSW_ERR);
                                 		.LINE  "C:\Workspace\e2studio\git\MT01_master\r_usb_hmsc\src\r_usb_hmsc_driver.c",1574
00001C3E A901                    		MOV.L 10H[R0], R1
00001C40 FB2EFBFF00              		MOV.L #0000FFFBH, R2
00001C45 39rrrr               W  		BSR _usb_hmsc_CommandResult
00001C48                         L594:	; bb198.split
                                 ;    1575         usb_shmsc_DataStallSeq[mess->ip] = USB_SEQ_0;
                                 		.LINE  "C:\Workspace\e2studio\git\MT01_master\r_usb_hmsc\src\r_usb_hmsc_driver.c",1575
00001C48 A901                    		MOV.L 10H[R0], R1
00001C4A B991                    		MOVU.W 0CH[R1], R1
00001C4C FBE2rrrrrrrr            		MOV.L #_usb_shmsc_DataStallSeq, R14
00001C52 660F                    		MOV.L #00000000H, R15
00001C54 FE11EF                  		MOV.W R15, [R1,R14]
00001C57 6705                    		RTSD #14H
00001C59                         L595:	; return
                                 ;    1576         break;
                                 ;    1577     }
                                 ;    1578 }   /* eof usb_hmsc_DataStall() */
                                 		.LINE  "C:\Workspace\e2studio\git\MT01_master\r_usb_hmsc\src\r_usb_hmsc_driver.c",1578
00001C59 6705                    		RTSD #14H
00001C5B                         _usb_hmsc_CommandResult:
                                 		.STACK	_usb_hmsc_CommandResult=24
                                 ;    1579 
                                 ;    1580 /******************************************************************************
                                 ;    1581 Function Name   : usb_hmsc_CommandResult
                                 ;    1582 Description     : Hub class check result
                                 ;    1583 Arguments       : uint16_t result     : Result
                                 ;    1584 Return value    : none
                                 ;    1585 ******************************************************************************/
                                 ;    1586 void usb_hmsc_CommandResult(USB_UTR_t *ptr, uint16_t result)
                                 		.LINE  "C:\Workspace\e2studio\git\MT01_master\r_usb_hmsc\src\r_usb_hmsc_driver.c",1586
00001C5B 7100EC                  		ADD #0FFFFFFECH, R0
00001C5E A101                    		MOV.L R1, 10H[R0]
00001C60 918A                    		MOV.W R2, 0EH[R0]
00001C62 EF02                    		MOV.L R0, R2
00001C64 6651                    		MOV.L #00000005H, R1
                                 ;    1587 {
                                 ;    1588     USB_MH_t            p_blf;
                                 ;    1589     USB_ER_t            err;
                                 ;    1590     USB_CLSINFO_t       *cp;
                                 ;    1591     
                                 ;    1592     /* Get mem pool blk */
                                 ;    1593     if( R_USB_PGET_BLK(USB_HSTRG_MPL,&p_blf) == USB_E_OK )
                                 		.LINE  "C:\Workspace\e2studio\git\MT01_master\r_usb_hmsc\src\r_usb_hmsc_driver.c",1593
00001C66 05rrrrrr             A  		BSR _R_usb_cstd_PgetBlk
00001C6A 6101                    		CMP #00H, R1
00001C6C 21rr                    		BNE L605
00001C6E                         L597:	; bb6
                                 ;    1594     {
                                 ;    1595         cp = (USB_CLSINFO_t*)p_blf;
                                 		.LINE  "C:\Workspace\e2studio\git\MT01_master\r_usb_hmsc\src\r_usb_hmsc_driver.c",1595
00001C6E E40002                  		MOV.L [R0], 08H[R0]
00001C71                         L598:	; bb6.split
                                 ;    1596         cp->msginfo = usb_shmsc_StrgProcess[ptr->ip];
                                 		.LINE  "C:\Workspace\e2studio\git\MT01_master\r_usb_hmsc\src\r_usb_hmsc_driver.c",1596
00001C71 A901                    		MOV.L 10H[R0], R1
00001C73 B991                    		MOVU.W 0CH[R1], R1
00001C75 FBE2rrrrrrrr            		MOV.L #_usb_shmsc_StrgProcess, R14
00001C7B FE51E1                  		MOV.W [R1,R14], R1
00001C7E A882                    		MOV.L 08H[R0], R2
00001C80 90A1                    		MOV.W R1, 04H[R2]
00001C82                         L599:	; bb6.split1
                                 ;    1597         cp->result  = result;
                                 		.LINE  "C:\Workspace\e2studio\git\MT01_master\r_usb_hmsc\src\r_usb_hmsc_driver.c",1597
00001C82 9989                    		MOV.W 0EH[R0], R1
00001C84 A882                    		MOV.L 08H[R0], R2
00001C86 91A9                    		MOV.W R1, 0EH[R2]
00001C88                         L600:	; bb6.split2
                                 ;    1598 
                                 ;    1599         cp->ip      = ptr->ip;
                                 		.LINE  "C:\Workspace\e2studio\git\MT01_master\r_usb_hmsc\src\r_usb_hmsc_driver.c",1599
00001C88 A901                    		MOV.L 10H[R0], R1
00001C8A A882                    		MOV.L 08H[R0], R2
00001C8C D5120606                		MOV.W 0CH[R1], 0CH[R2]
00001C90                         L601:	; bb6.split3
                                 ;    1600         cp->ipp     = ptr->ipp;
                                 		.LINE  "C:\Workspace\e2studio\git\MT01_master\r_usb_hmsc\src\r_usb_hmsc_driver.c",1600
00001C90 A901                    		MOV.L 10H[R0], R1
00001C92 A882                    		MOV.L 08H[R0], R2
00001C94 E5120202                		MOV.L 08H[R1], 08H[R2]
00001C98                         L602:	; bb6.split4
                                 ;    1601 
                                 ;    1602         /* Send message */
                                 ;    1603         err = R_USB_SND_MSG( USB_HSTRG_MBX, (USB_MSG_t*)p_blf );
                                 		.LINE  "C:\Workspace\e2studio\git\MT01_master\r_usb_hmsc\src\r_usb_hmsc_driver.c",1603
00001C98 EC02                    		MOV.L [R0], R2
00001C9A 6651                    		MOV.L #00000005H, R1
00001C9C 05rrrrrr             A  		BSR _R_usb_cstd_SndMsg
00001CA0 A009                    		MOV.L R1, 04H[R0]
00001CA2                         L603:	; bb6.split5
                                 ;    1604         if( err != USB_E_OK )
                                 		.LINE  "C:\Workspace\e2studio\git\MT01_master\r_usb_hmsc\src\r_usb_hmsc_driver.c",1604
00001CA2 A809                    		MOV.L 04H[R0], R1
00001CA4 6101                    		CMP #00H, R1
00001CA6 20rr                    		BEQ L605
00001CA8                         L604:	; bb35
                                 ;    1605         {
                                 ;    1606             err = R_USB_REL_BLK(USB_HSTRG_MPL,(USB_MH_t)p_blf);
                                 		.LINE  "C:\Workspace\e2studio\git\MT01_master\r_usb_hmsc\src\r_usb_hmsc_driver.c",1606
00001CA8 EC02                    		MOV.L [R0], R2
00001CAA 6651                    		MOV.L #00000005H, R1
00001CAC 05rrrrrr             A  		BSR _R_usb_cstd_RelBlk
00001CB0 A009                    		MOV.L R1, 04H[R0]
00001CB2 6705                    		RTSD #14H
00001CB4                         L605:	; return
                                 ;    1607             USB_PRINTF0("### CheckResult function snd_msg error\n");
                                 ;    1608         }
                                 ;    1609     }
                                 ;    1610     else
                                 ;    1611     {
                                 ;    1612         USB_PRINTF0("### CheckResult function pget_blk error\n");
                                 ;    1613     }
                                 ;    1614 }   /* eof usb_hmsc_CommandResult() */
                                 		.LINE  "C:\Workspace\e2studio\git\MT01_master\r_usb_hmsc\src\r_usb_hmsc_driver.c",1614
00001CB4 6705                    		RTSD #14H
                                 ;    1615 
                                 ;    1616 /******************************************************************************
                                 ;    1617 End  Of File
                                 ;    1618 ******************************************************************************/
                                 		.SECTION	D_2,ROMDATA,ALIGN=2
00000000                         _usb_ghmsc_DefEpTbl:
00000000 0000                    		.word	0000H
00000002 0000                    		.word	0000H
00000004 0000                    		.word	0000H
00000006 0000                    		.word	0000H
00000008 0000                    		.word	0000H
0000000A 0000                    		.word	0000H
0000000C FFFF                    		.word	0FFFFH
0000000E 0000                    		.word	0000H
00000010 0000                    		.word	0000H
00000012 0000                    		.word	0000H
00000014 0000                    		.word	0000H
00000016 0000                    		.word	0000H
00000018 0000                    		.word	0000H
0000001A FFFF                    		.word	0FFFFH
0000001C                         _usb_shmsc_NoDataSeq:
0000001C 00                      		.byte	0
0000001D 00                      		.byte	0
0000001E 00                      		.byte	0
0000001F 00                      		.byte	0
00000020                         _usb_shmsc_DataInSeq:
00000020 00                      		.byte	0
00000021 00                      		.byte	0
00000022 00                      		.byte	0
00000023 00                      		.byte	0
00000024                         _usb_shmsc_DataOutSeq:
00000024 00                      		.byte	0
00000025 00                      		.byte	0
00000026 00                      		.byte	0
00000027 00                      		.byte	0
00000028                         _usb_shmsc_StallErrSeq:
00000028 00                      		.byte	0
00000029 00                      		.byte	0
0000002A 00                      		.byte	0
0000002B 00                      		.byte	0
0000002C                         _usb_shmsc_DataStallSeq:
0000002C 00                      		.byte	0
0000002D 00                      		.byte	0
0000002E 00                      		.byte	0
0000002F 00                      		.byte	0
00000030                         _usb_ghmsc_CswErrRoop:
00000030 00                      		.byte	0
00000031 00                      		.byte	0
00000032 00                      		.byte	0
00000033 00                      		.byte	0
00000034                         _usb_shmsc_InitSeq:
00000034 00                      		.byte	0
00000035 00                      		.byte	0
00000036 00                      		.byte	0
00000037 00                      		.byte	0
00000038                         _usb_shmsc_StrgProcess:
00000038 00                      		.byte	0
00000039 00                      		.byte	0
0000003A 00                      		.byte	0
0000003B 00                      		.byte	0
0000003C                         _usb_shmsc_StrgDriveSearchSeq:
0000003C 00                      		.byte	0
0000003D 00                      		.byte	0
0000003E 00                      		.byte	0
0000003F 00                      		.byte	0
00000040                         _usb_shmsc_StrgDriveSearchErrCount:
00000040 00                      		.byte	0
00000041 00                      		.byte	0
00000042 00                      		.byte	0
00000043 00                      		.byte	0
00000044                         _usb_shmsc_StrgDriveSearchCount:
00000044 00                      		.byte	0
00000045 00                      		.byte	0
00000046 00                      		.byte	0
00000047 00                      		.byte	0
00000048                         _usb_shmsc_DevReadSectorSizeSeq:
00000048 00                      		.byte	0
00000049 00                      		.byte	0
0000004A 00                      		.byte	0
0000004B 00                      		.byte	0
0000004C                         _usb_shmsc_DevReadSectorSizeErrCount:
0000004C 00                      		.byte	0
0000004D 00                      		.byte	0
0000004E 00                      		.byte	0
0000004F 00                      		.byte	0
00000050                         _usb_shmsc_DevReadPartitionSeq:
00000050 00                      		.byte	0
00000051 00                      		.byte	0
00000052 00                      		.byte	0
00000053 00                      		.byte	0
00000054                         _usb_shmsc_StrgDriveOpenSeq:
00000054 00                      		.byte	0
00000055 00                      		.byte	0
00000056 00                      		.byte	0
00000057 00                      		.byte	0
00000058                         _usb_shmsc_StrgDriveOpenCount:
00000058 00                      		.byte	0
00000059 00                      		.byte	0
0000005A 00                      		.byte	0
0000005B 00                      		.byte	0
0000005C                         _usb_shmsc_StrgDriveOpenParCount:
0000005C 00                      		.byte	0
0000005D 00                      		.byte	0
0000005E 00                      		.byte	0
0000005F 00                      		.byte	0
00000060                         _usb_shmsc_LoopCont:
00000060 00                      		.byte	0
00000061 00                      		.byte	0
00000062 00                      		.byte	0
00000063 00                      		.byte	0
                                 		.SECTION	B,DATA,ALIGN=4
00000000                         _usb_ghmsc_TransData:
00000000(000002C0H)              		.blkl	176
000002C0                         _usb_ghmsc_ReceiveData:
000002C0(000002C0H)              		.blkl	176
00000580                         _usb_ghmsc_ControlData:
00000580(00000058H)              		.blkl	22
000005D8                         _usb_ghmsc_Cbw:
000005D8(00000400H)              		.blkl	256
000009D8                         _usb_ghmsc_Csw:
000009D8(00000400H)              		.blkl	256
00000DD8                         _usb_ghmsc_CbwTagNo:
00000DD8(00000040H)              		.blkl	16
00000E18                         _usb_ghmsc_TransSize:
00000E18(00000008H)              		.blkl	2
00000E20                         _usb_ghmsc_Buff:
00000E20(00000008H)              		.blkl	2
00000E28                         _usb_ghmsc_DeviceTable:
00000E28(00000008H)              		.blkl	2
00000E30                         _usb_ghmsc_ConfigTable:
00000E30(00000008H)              		.blkl	2
00000E38                         _usb_ghmsc_InterfaceTable:
00000E38(00000008H)              		.blkl	2
00000E40                         _usb_ghmsc_PipeTable:
00000E40(00000008H)              		.blkl	2
00000E48                         _usb_shmsc_ClassControl:
00000E48(00000058H)              		.blkl	22
00000EA0                         _usb_shmsc_command_result:
00000EA0(00000008H)              		.blkl	2
00000EA8                         _usb_ghmsc_MaxLUN:
00000EA8(00000008H)              		.blkl	2
00000EB0                         _usb_shmsc_PartitionLba:
00000EB0(00000028H)              		.blkl	10
                                 		.SECTION	B_2,DATA,ALIGN=2
00000000                         _usb_ghmsc_OutPipe:
00000000(00000040H)              		.blkw	32
00000040                         _usb_ghmsc_InPipe:
00000040(00000040H)              		.blkw	32
00000080                         _usb_shmsc_MsgNum:
00000080(00000004H)              		.blkw	2
00000084                         _usb_ghmsc_AttSts:
00000084(00000010H)              		.blkw	8
00000094                         _usb_shmsc_Process:
00000094(00000004H)              		.blkw	2
00000098                         _usb_ghmsc_RootDrive:
00000098(00000004H)              		.blkw	2
0000009C                         _usb_ghmsc_drive_no:
0000009C(00000028H)              		.blkw	20
000000C4                         _usb_ghmsc_drv_no_tbl:
000000C4(0000003CH)              		.blkw	30
00000100                         _usb_ghmsc_Speed:
00000100(00000004H)              		.blkw	2
00000104                         _usb_ghmsc_Devaddr:
00000104(00000004H)              		.blkw	2
00000108                         _usb_ghmsc_DriveChk:
00000108(000000CCH)              		.blkw	102
000001D4                         _usb_shmsc_ClassRequest:
000001D4(00000014H)              		.blkw	10
000001E8                         _usb_ghmsc_StrgCount:
000001E8(00000002H)              		.blkw	1
000001EA                         _usb_ghmsc_MaxDrive:
000001EA(00000002H)              		.blkw	1
000001EC                         _usb_ghmsc_RootDevaddr:
000001EC(00000004H)              		.blkw	2
000001F0                         _usb_shmsc_NewDrive:
000001F0(00000004H)              		.blkw	2
000001F4                         _usb_shmsc_Unit:
000001F4(00000004H)              		.blkw	2
000001F8                         _usb_ghmsc_PartTransSize:
000001F8(00000004H)              		.blkw	2
                                 		.SECTION	B_1,DATA
00000000                         _usb_ghmsc_Data:
00000000(00002800H)              		.blkb	10240
00002800                         _usb_ghmsc_AtapiFlag:
00002800(00000010H)              		.blkb	16
00002810                         _usb_shmsc_DeviceReady:
00002810(00000004H)              		.blkb	4
00002814                         _usb_ghmsc_ClassData:
00002814(00000400H)              		.blkb	1024
00002C14                         _usb_shmsc_PartitionInfo:
00002C14(00000008H)              		.blkb	8
                                 		.END

Information List

TOTAL ERROR(S)    00000
TOTAL WARNING(S)  00000
TOTAL LINE(S)     05832   LINES

Section List

Attr         Size               Name
CODE     0000007350(00001CB6H)  P
ROMDATA  0000000100(00000064H)  D_2
DATA     0000003800(00000ED8H)  B
DATA     0000000508(000001FCH)  B_2
DATA     0000011292(00002C1CH)  B_1

Cpu Type

-ISA=RXV1 -FPU

Command Parameter

-subcommand=C:\Users\LAFONS~1\AppData\Local\Temp\$ccrx305E\$ccrx\r_usb_hmsc_driver.src.cmd
    -nologo
    -isa=rxv1
    -fpu
    -show=conditionals,definitions,expansions
    -define=__RXV1=1
    -fint_register=0
    -debug
    -endian=little
-listfile=C:\Workspace\e2studio\git\MT01_master\MT01_build\r_usb_hmsc_driver.lst
-output=C:\Workspace\e2studio\git\MT01_master\MT01_build\r_usb_hmsc\src\r_usb_hmsc_driver.obj
