* RX FAMILY ASSEMBLER V2.03.00.01 [24 Oct 2014] *  SOURCE LIST  Mon Mar 20 17:11:55 2017

LOC.     OBJ.              0XMDA SOURCE STATEMENT

                                 ;RX Family C/C++ Compiler (V2.03.00.03 [04 Dec 2014])  20-Mar-2017 17:11:55
                                 
                                 ;*** CPU TYPE ***
                                 
                                 ;-ISA=RXV1
                                 
                                 ;*** COMMAND PARAMETER ***
                                 
                                 ;-output=src=u8g_polygon.src
                                 ;-lang=c99
                                 ;-include=C:\PROGRA~2\Renesas\RX\2_3_0/include,C:\Workspace\e2studio\git\MT01_master\r_lvd_rx,C:\Workspace\e2studio\git\MT01_master\r_lvd_rx\src,C:/Workspace/e2studio/
                                 ;-debug
                                 ;-show=source,conditionals,definitions,expansions
                                 ;-listfile=u8g_polygon.lst
                                 ;-isa=rxv1
                                 ;-optimize=0
                                 ;-fpu
                                 ;-alias=noansi
                                 ;-nologo
                                 ;-nomessage
                                 ;-define=__RX,COMPACTAXP=0,EASYMAK=1,MOBILE=0,FREE_RTOS_PP
                                 ;u8g_polygon.c
                                 
                                 		.glb	_u8g_pg
                                 		.glb	_u8g_DrawHLine
                                 		.glb	_pg_ClearPolygonXY
                                 		.glb	_pg_AddPolygonXY
                                 		.glb	_pg_DrawPolygon
                                 		.glb	_u8g_ClearPolygonXY
                                 		.glb	_u8g_AddPolygonXY
                                 		.glb	_u8g_DrawPolygon
                                 		.glb	_u8g_DrawTriangle
                                 ;LineNo. C-SOURCE STATEMENT
                                 
                                 		.SECTION	P,CODE
00000000                         __$pge_Next:
                                 		.STACK	__$pge_Next=12
                                 ;       1 /*
                                 ;       2 
                                 ;       3   u8g_polygon.c
                                 ;       4 
                                 ;       5   Implementation of a polygon draw algorithm for "convex" polygons. 
                                 ;       6  
                                 ;       7   Universal 8bit Graphics Library
                                 ;       8   
                                 ;       9   Copyright (c) 2013, olikraus@gmail.com
                                 ;      10   All rights reserved.
                                 ;      11 
                                 ;      12   Redistribution and use in source and binary forms, with or without modification, 
                                 ;      13   are permitted provided that the following conditions are met:
                                 ;      14 
                                 ;      15   * Redistributions of source code must retain the above copyright notice, this list 
                                 ;      16     of conditions and the following disclaimer.
                                 ;      17     
                                 ;      18   * Redistributions in binary form must reproduce the above copyright notice, this 
                                 ;      19     list of conditions and the following disclaimer in the documentation and/or other 
                                 ;      20     materials provided with the distribution.
                                 ;      21 
                                 ;      22   THIS SOFTWARE IS PROVIDED BY THE COPYRIGHT HOLDERS AND 
                                 ;      23   CONTRIBUTORS "AS IS" AND ANY EXPRESS OR IMPLIED WARRANTIES, 
                                 ;      24   INCLUDING, BUT NOT LIMITED TO, THE IMPLIED WARRANTIES OF 
                                 ;      25   MERCHANTABILITY AND FITNESS FOR A PARTICULAR PURPOSE ARE 
                                 ;      26   DISCLAIMED. IN NO EVENT SHALL THE COPYRIGHT HOLDER OR 
                                 ;      27   CONTRIBUTORS BE LIABLE FOR ANY DIRECT, INDIRECT, INCIDENTAL, 
                                 ;      28   SPECIAL, EXEMPLARY, OR CONSEQUENTIAL DAMAGES (INCLUDING, BUT 
                                 ;      29   NOT LIMITED TO, PROCUREMENT OF SUBSTITUTE GOODS OR SERVICES; 
                                 ;      30   LOSS OF USE, DATA, OR PROFITS; OR BUSINESS INTERRUPTION) HOWEVER 
                                 ;      31   CAUSED AND ON ANY THEORY OF LIABILITY, WHETHER IN CONTRACT, 
                                 ;      32   STRICT LIABILITY, OR TORT (INCLUDING NEGLIGENCE OR OTHERWISE) 
                                 ;      33   ARISING IN ANY WAY OUT OF THE USE OF THIS SOFTWARE, EVEN IF 
                                 ;      34   ADVISED OF THE POSSIBILITY OF SUCH DAMAGE.  
                                 ;      35  
                                 ;      36   See also:
                                 ;      37   http://www.angelfire.com/linux/myp/ConvexPolRas/ConvexPolRas.html
                                 ;      38   Computer Graphics, Principles and Practice, Foley, van Dam, Feiner, Hughes (pp 92)
                                 ;      39   Michael Abrash's Graphics Programming Black Book, Special Edition (Chapter 38 and 39)
                                 ;      40 
                                 ;      41   Optimized for embedded systems
                                 ;      42   - static memory usage only
                                 ;      43   - consistent data types
                                 ;      44   - low flash ROM consumption
                                 ;      45   
                                 ;      46 */
                                 ;      47 
                                 ;      48 
                                 ;      49 #include "u8g.h"
                                 ;      50 
                                 ;      51 
                                 ;      52 
                                 ;      53 
                                 ;      54 /*===========================================*/
                                 ;      55 /* procedures, which should not be inlined (save as much flash ROM as possible */
                                 ;      56 
                                 ;      57 static uint8_t pge_Next(struct pg_edge_struct *pge) PG_NOINLINE;
                                 ;      58 static uint8_t pg_inc(pg_struct *pg, uint8_t i) PG_NOINLINE;
                                 ;      59 static uint8_t pg_dec(pg_struct *pg, uint8_t i) PG_NOINLINE;
                                 ;      60 static void pg_expand_min_y(pg_struct *pg, pg_word_t min_y, uint8_t pge_idx) PG_NOINLINE;
                                 ;      61 static void pg_line_init(pg_struct * const pg, uint8_t pge_index) PG_NOINLINE;
                                 ;      62 
                                 ;      63 /*===========================================*/
                                 ;      64 /* line draw algorithm */
                                 ;      65 
                                 ;      66 static uint8_t pge_Next(struct pg_edge_struct *pge)
                                 		.LINE  "C:\Workspace\e2studio\git\MT01_master\src\Display\u8g_polygon.c",66
00000000 6080                    		SUB #08H, R0
00000002 A009                    		MOV.L R1, 04H[R0]
                                 ;      67 {
                                 ;      68   if ( pge->current_y >= pge->max_y )
                                 		.LINE  "C:\Workspace\e2studio\git\MT01_master\src\Display\u8g_polygon.c",68
00000004 9912                    		MOV.W 08H[R1], R2
00000006 06451205                		CMP 0AH[R1].W, R2
0000000A 29rr                    		BLT L12
0000000C                         L11:	; bb2
                                 ;      69     return 0;
                                 		.LINE  "C:\Workspace\e2studio\git\MT01_master\src\Display\u8g_polygon.c",69
0000000C 3C0200                  		MOV.B #00H, 02H[R0]
0000000F 2Err                 B  		BRA L19
00000011                         L12:	; bb14
                                 ;      70   
                                 ;      71   pge->current_x += pge->current_x_offset;
                                 		.LINE  "C:\Workspace\e2studio\git\MT01_master\src\Display\u8g_polygon.c",71
00000011 A809                    		MOV.L 04H[R0], R1
00000013 9992                    		MOV.W 0CH[R1], R2
00000015 06491202                		ADD 04H[R1].W, R2
00000019 9192                    		MOV.W R2, 0CH[R1]
0000001B                         L13:	; bb14.split
                                 ;      72   pge->error += pge->error_offset;
                                 		.LINE  "C:\Workspace\e2studio\git\MT01_master\src\Display\u8g_polygon.c",72
0000001B A809                    		MOV.L 04H[R0], R1
0000001D 999A                    		MOV.W 0EH[R1], R2
0000001F 06491203                		ADD 06H[R1].W, R2
00000023 919A                    		MOV.W R2, 0EH[R1]
00000025                         L14:	; bb14.split1
                                 ;      73   if ( pge->error > 0 )
                                 		.LINE  "C:\Workspace\e2studio\git\MT01_master\src\Display\u8g_polygon.c",73
00000025 A809                    		MOV.L 04H[R0], R1
00000027 9999                    		MOV.W 0EH[R1], R1
00000029 6101                    		CMP #00H, R1
0000002B 2Brr                    		BLE L17
0000002D                         L15:	; bb36
                                 ;      74   {
                                 ;      75     pge->current_x += pge->x_direction;
                                 		.LINE  "C:\Workspace\e2studio\git\MT01_master\src\Display\u8g_polygon.c",75
0000002D A809                    		MOV.L 04H[R0], R1
0000002F DC12                    		MOV.W [R1], R2
00000031 06491206                		ADD 0CH[R1].W, R2
00000035 9192                    		MOV.W R2, 0CH[R1]
00000037                         L16:	; bb36.split
                                 ;      76     pge->error -= pge->height;
                                 		.LINE  "C:\Workspace\e2studio\git\MT01_master\src\Display\u8g_polygon.c",76
00000037 A809                    		MOV.L 04H[R0], R1
00000039 999A                    		MOV.W 0EH[R1], R2
0000003B 06411201                		SUB 02H[R1].W, R2
0000003F 919A                    		MOV.W R2, 0EH[R1]
00000041                         L17:	; bb64
                                 ;      77   }  
                                 ;      78   
                                 ;      79   pge->current_y++;
                                 		.LINE  "C:\Workspace\e2studio\git\MT01_master\src\Display\u8g_polygon.c",79
00000041 A809                    		MOV.L 04H[R0], R1
00000043 9912                    		MOV.W 08H[R1], R2
00000045 6212                    		ADD #01H, R2
00000047 9112                    		MOV.W R2, 08H[R1]
00000049                         L18:	; bb64.split
                                 ;      80   return 1;
                                 		.LINE  "C:\Workspace\e2studio\git\MT01_master\src\Display\u8g_polygon.c",80
00000049 3C0201                  		MOV.B #01H, 02H[R0]
0000004C                         L19:	; bb71
0000004C C5000203                		MOV.B 02H[R0], 03H[R0]
                                 ;      81 }
                                 		.LINE  "C:\Workspace\e2studio\git\MT01_master\src\Display\u8g_polygon.c",81
00000050 B089                    		MOVU.B 03H[R0], R1
00000052 6702                    		RTSD #08H
00000054                         __$pge_Init:
                                 		.STACK	__$pge_Init=20
                                 ;      82 
                                 ;      83 /* assumes y2 > y1 */
                                 ;      84 static void pge_Init(struct pg_edge_struct *pge, pg_word_t x1, pg_word_t y1, pg_word_t x2, pg_word_t y2)
                                 		.LINE  "C:\Workspace\e2studio\git\MT01_master\src\Display\u8g_polygon.c",84
00000054 7100F0                  		ADD #0FFFFFFF0H, R0
00000057 A089                    		MOV.L R1, 0CH[R0]
00000059 910A                    		MOV.W R2, 0AH[R0]
0000005B 9103                    		MOV.W R3, 08H[R0]
0000005D 908C                    		MOV.W R4, 06H[R0]
0000005F D5000A02                		MOV.W 14H[R0], 04H[R0]
                                 ;      85 {
                                 ;      86   pg_word_t dx = x2 - x1;
                                 		.LINE  "C:\Workspace\e2studio\git\MT01_master\src\Display\u8g_polygon.c",86
00000063 9889                    		MOV.W 06H[R0], R1
00000065 06410105                		SUB 0AH[R0].W, R1
00000069 D301                    		MOV.W R1, [R0]
0000006B                         L21:	; entry.split
                                 ;      87   pg_word_t width;
                                 ;      88 
                                 ;      89   pge->height = y2 - y1;
                                 		.LINE  "C:\Workspace\e2studio\git\MT01_master\src\Display\u8g_polygon.c",89
0000006B 9881                    		MOV.W 04H[R0], R1
0000006D 06410104                		SUB 08H[R0].W, R1
00000071 A88A                    		MOV.L 0CH[R0], R2
00000073 9029                    		MOV.W R1, 02H[R2]
00000075                         L22:	; entry.split1
                                 ;      90   pge->max_y = y2;
                                 		.LINE  "C:\Workspace\e2studio\git\MT01_master\src\Display\u8g_polygon.c",90
00000075 9881                    		MOV.W 04H[R0], R1
00000077 A88A                    		MOV.L 0CH[R0], R2
00000079 9129                    		MOV.W R1, 0AH[R2]
0000007B                         L23:	; entry.split2
                                 ;      91   pge->current_y = y1;
                                 		.LINE  "C:\Workspace\e2studio\git\MT01_master\src\Display\u8g_polygon.c",91
0000007B 9901                    		MOV.W 08H[R0], R1
0000007D A88A                    		MOV.L 0CH[R0], R2
0000007F 9121                    		MOV.W R1, 08H[R2]
00000081                         L24:	; entry.split3
                                 ;      92   pge->current_x = x1;
                                 		.LINE  "C:\Workspace\e2studio\git\MT01_master\src\Display\u8g_polygon.c",92
00000081 9909                    		MOV.W 0AH[R0], R1
00000083 A88A                    		MOV.L 0CH[R0], R2
00000085 91A1                    		MOV.W R1, 0CH[R2]
00000087                         L25:	; entry.split4
                                 ;      93 
                                 ;      94   if ( dx >= 0 )
                                 		.LINE  "C:\Workspace\e2studio\git\MT01_master\src\Display\u8g_polygon.c",94
00000087 DC01                    		MOV.W [R0], R1
00000089 6101                    		CMP #00H, R1
0000008B A889                    		MOV.L 0CH[R0], R1
0000008D 29rr                    		BLT L29
0000008F                         L26:	; bb30
                                 ;      95   {
                                 ;      96     pge->x_direction = 1;
                                 		.LINE  "C:\Workspace\e2studio\git\MT01_master\src\Display\u8g_polygon.c",96
0000008F F81501                  		MOV.W #0001H, [R1]
00000092                         L27:	; bb30.split
                                 ;      97     width = dx;
                                 		.LINE  "C:\Workspace\e2studio\git\MT01_master\src\Display\u8g_polygon.c",97
00000092 D40001                  		MOV.W [R0], 02H[R0]
00000095                         L28:	; bb30.split5
                                 ;      98     pge->error = 0;
                                 		.LINE  "C:\Workspace\e2studio\git\MT01_master\src\Display\u8g_polygon.c",98
00000095 A889                    		MOV.L 0CH[R0], R1
00000097 3D1700                  		MOV.W #0000H, 0EH[R1]
0000009A 2Err                 B  		BRA L32
0000009C                         L29:	; bb36
                                 ;      99   }
                                 ;     100   else
                                 ;     101   {
                                 ;     102     pge->x_direction = -1;
                                 		.LINE  "C:\Workspace\e2studio\git\MT01_master\src\Display\u8g_polygon.c",102
0000009C F819FFFF                		MOV.W #0FFFFH, [R1]
000000A0                         L30:	; bb36.split
000000A0 6601                    		MOV.L #00000000H, R1
                                 ;     103     width = -dx;
                                 		.LINE  "C:\Workspace\e2studio\git\MT01_master\src\Display\u8g_polygon.c",103
000000A2 064001                  		SUB [R0].W, R1
000000A5 9009                    		MOV.W R1, 02H[R0]
000000A7                         L31:	; bb36.split6
                                 ;     104     pge->error = 1 - pge->height;
                                 		.LINE  "C:\Workspace\e2studio\git\MT01_master\src\Display\u8g_polygon.c",104
000000A7 A889                    		MOV.L 0CH[R0], R1
000000A9 6612                    		MOV.L #00000001H, R2
000000AB 06411201                		SUB 02H[R1].W, R2
000000AF 919A                    		MOV.W R2, 0EH[R1]
000000B1                         L32:	; bb55
                                 ;     105   }
                                 ;     106   
                                 ;     107   pge->current_x_offset = dx / pge->height;
                                 		.LINE  "C:\Workspace\e2studio\git\MT01_master\src\Display\u8g_polygon.c",107
000000B1 A889                    		MOV.L 0CH[R0], R1
000000B3 DC02                    		MOV.W [R0], R2
000000B5 0661081201              		DIV 02H[R1].W, R2
000000BA 9092                    		MOV.W R2, 04H[R1]
000000BC                         L33:	; bb55.split
                                 ;     108   pge->error_offset = width % pge->height;
                                 		.LINE  "C:\Workspace\e2studio\git\MT01_master\src\Display\u8g_polygon.c",108
000000BC A889                    		MOV.L 0CH[R0], R1
000000BE 981A                    		MOV.W 02H[R1], R2
000000C0 980B                    		MOV.W 02H[R0], R3
000000C2 EF3E                    		MOV.L R3, R14
000000C4 FC232E                  		DIV R2, R14
000000C7 4F2E                    		MUL R2, R14
000000C9 43E3                    		SUB R14, R3
000000CB 909B                    		MOV.W R3, 06H[R1]
000000CD 6704                    		RTSD #10H
000000CF                         __$pg_inc:
                                 		.STACK	__$pg_inc=12
                                 ;     109 }
                                 ;     110 
                                 ;     111 /*===========================================*/
                                 ;     112 /* convex polygon algorithm */
                                 ;     113 
                                 ;     114 static uint8_t pg_inc(pg_struct *pg, uint8_t i)
                                 		.LINE  "C:\Workspace\e2studio\git\MT01_master\src\Display\u8g_polygon.c",114
000000CF 6080                    		SUB #08H, R0
000000D1 A009                    		MOV.L R1, 04H[R0]
000000D3 808A                    		MOV.B R2, 03H[R0]
                                 ;     115 {
                                 ;     116     i++;
                                 		.LINE  "C:\Workspace\e2studio\git\MT01_master\src\Display\u8g_polygon.c",116
000000D5 6212                    		ADD #01H, R2
000000D7 808A                    		MOV.B R2, 03H[R0]
000000D9                         L35:	; entry.split
                                 ;     117     if ( i >= pg->cnt )
                                 		.LINE  "C:\Workspace\e2studio\git\MT01_master\src\Display\u8g_polygon.c",117
000000D9 A809                    		MOV.L 04H[R0], R1
000000DB B08A                    		MOVU.B 03H[R0], R2
000000DD 451218                  		CMP 18H[R1].UB, R2
000000E0 29rr                    		BLT L37
000000E2                         L36:	; bb5
                                 ;     118       i = 0;
                                 		.LINE  "C:\Workspace\e2studio\git\MT01_master\src\Display\u8g_polygon.c",118
000000E2 3C0300                  		MOV.B #00H, 03H[R0]
000000E5                         L37:	; bb14
                                 ;     119     return i;
                                 		.LINE  "C:\Workspace\e2studio\git\MT01_master\src\Display\u8g_polygon.c",119
000000E5 C5000302                		MOV.B 03H[R0], 02H[R0]
000000E9 B081                    		MOVU.B 02H[R0], R1
000000EB                         L38:	; bb14.split
                                 ;     120 }
                                 		.LINE  "C:\Workspace\e2studio\git\MT01_master\src\Display\u8g_polygon.c",120
000000EB 5B11                    		MOVU.B R1, R1
000000ED 6702                    		RTSD #08H
000000EF                         __$pg_dec:
                                 		.STACK	__$pg_dec=12
                                 ;     121 
                                 ;     122 static uint8_t pg_dec(pg_struct *pg, uint8_t i)
                                 		.LINE  "C:\Workspace\e2studio\git\MT01_master\src\Display\u8g_polygon.c",122
000000EF 6080                    		SUB #08H, R0
000000F1 A009                    		MOV.L R1, 04H[R0]
000000F3 808A                    		MOV.B R2, 03H[R0]
                                 ;     123 {
                                 ;     124     i--;
                                 		.LINE  "C:\Workspace\e2studio\git\MT01_master\src\Display\u8g_polygon.c",124
000000F5 6012                    		SUB #01H, R2
000000F7 808A                    		MOV.B R2, 03H[R0]
000000F9                         L40:	; entry.split
                                 ;     125     if ( i >= pg->cnt )
                                 		.LINE  "C:\Workspace\e2studio\git\MT01_master\src\Display\u8g_polygon.c",125
000000F9 A809                    		MOV.L 04H[R0], R1
000000FB B08A                    		MOVU.B 03H[R0], R2
000000FD 451218                  		CMP 18H[R1].UB, R2
00000100 29rr                    		BLT L42
00000102                         L41:	; bb5
                                 ;     126       i = pg->cnt-1;
                                 		.LINE  "C:\Workspace\e2studio\git\MT01_master\src\Display\u8g_polygon.c",126
00000102 A809                    		MOV.L 04H[R0], R1
00000104 B611                    		MOVU.B 18H[R1], R1
00000106 6011                    		SUB #01H, R1
00000108 8089                    		MOV.B R1, 03H[R0]
0000010A                         L42:	; bb20
                                 ;     127     return i;
                                 		.LINE  "C:\Workspace\e2studio\git\MT01_master\src\Display\u8g_polygon.c",127
0000010A C5000302                		MOV.B 03H[R0], 02H[R0]
0000010E B081                    		MOVU.B 02H[R0], R1
00000110                         L43:	; bb20.split
                                 ;     128 }
                                 		.LINE  "C:\Workspace\e2studio\git\MT01_master\src\Display\u8g_polygon.c",128
00000110 5B11                    		MOVU.B R1, R1
00000112 6702                    		RTSD #08H
00000114                         __$pg_expand_min_y:
                                 		.STACK	__$pg_expand_min_y=12
                                 ;     129 
                                 ;     130 static void pg_expand_min_y(pg_struct *pg, pg_word_t min_y, uint8_t pge_idx)
                                 		.LINE  "C:\Workspace\e2studio\git\MT01_master\src\Display\u8g_polygon.c",130
00000114 6080                    		SUB #08H, R0
00000116 A009                    		MOV.L R1, 04H[R0]
00000118 900A                    		MOV.W R2, 02H[R0]
0000011A 800B                    		MOV.B R3, 01H[R0]
                                 ;     131 {
                                 ;     132   uint8_t i = pg->pge[pge_idx].curr_idx;
                                 		.LINE  "C:\Workspace\e2studio\git\MT01_master\src\Display\u8g_polygon.c",132
0000011C B009                    		MOVU.B 01H[R0], R1
0000011E 751118                  		MUL #18H, R1
00000121 06890101                		ADD 04H[R0].L, R1
00000125 C11030                  		MOV.B 30H[R1], [R0]
00000128 2Err                 B  		BRA L46
0000012A                         L45:	; bb39
                                 ;     133   for(;;)
                                 ;     134   {
                                 ;     135     i = pg->pge[pge_idx].next_idx_fn(pg, i);
                                 ;     136     if ( pg->list[i].y != min_y )
                                 ;     137       break;	
                                 ;     138     pg->pge[pge_idx].curr_idx = i;
                                 		.LINE  "C:\Workspace\e2studio\git\MT01_master\src\Display\u8g_polygon.c",138
0000012A B009                    		MOVU.B 01H[R0], R1
0000012C 751118                  		MUL #18H, R1
0000012F 06890101                		ADD 04H[R0].L, R1
00000133 C40130                  		MOV.B [R0], 30H[R1]
00000136                         L46:	; bb48.split
                                 		.LINE  "C:\Workspace\e2studio\git\MT01_master\src\Display\u8g_polygon.c",135
00000136 B00A                    		MOVU.B 01H[R0], R2
00000138 751218                  		MUL #18H, R2
0000013B A809                    		MOV.L 04H[R0], R1
0000013D 4B12                    		ADD R1, R2
0000013F AAAB                    		MOV.L 2CH[R2], R3
00000141 5802                    		MOVU.B [R0], R2
00000143 7F13                    		JSR R3
00000145 C301                    		MOV.B R1, [R0]
00000147                         L47:	; bb48.split1
                                 		.LINE  "C:\Workspace\e2studio\git\MT01_master\src\Display\u8g_polygon.c",136
00000147 5801                    		MOVU.B [R0], R1
00000149 6C21                    		SHLL #02H, R1
0000014B 06890101                		ADD 04H[R0].L, R1
0000014F 9819                    		MOV.W 02H[R1], R1
00000151 06450101                		CMP 02H[R0].W, R1
00000155 20rr                    		BEQ L45
00000157                         L48:	; return.split
                                 ;     139   }
                                 ;     140 }
                                 		.LINE  "C:\Workspace\e2studio\git\MT01_master\src\Display\u8g_polygon.c",140
00000157 6702                    		RTSD #08H
00000159                         __$pg_prepare:
                                 		.STACK	__$pg_prepare=16
                                 ;     141 
                                 ;     142 static uint8_t pg_prepare(pg_struct *pg)
                                 		.LINE  "C:\Workspace\e2studio\git\MT01_master\src\Display\u8g_polygon.c",142
00000159 60C0                    		SUB #0CH, R0
0000015B A081                    		MOV.L R1, 08H[R0]
                                 ;     143 {
                                 ;     144   pg_word_t max_y;
                                 ;     145   pg_word_t min_y;
                                 ;     146   uint8_t i;
                                 ;     147 
                                 ;     148   /* setup the next index procedures */
                                 ;     149   pg->pge[PG_RIGHT].next_idx_fn = pg_inc;
                                 		.LINE  "C:\Workspace\e2studio\git\MT01_master\src\Display\u8g_polygon.c",149
0000015D FB22rrrrrrrr            		MOV.L #__$pg_inc, R2
00000163 A41A                    		MOV.L R2, 44H[R1]
00000165                         L50:	; entry.split
                                 ;     150   pg->pge[PG_LEFT].next_idx_fn = pg_dec;
                                 		.LINE  "C:\Workspace\e2studio\git\MT01_master\src\Display\u8g_polygon.c",150
00000165 A881                    		MOV.L 08H[R0], R1
00000167 FB22rrrrrrrr            		MOV.L #__$pg_dec, R2
0000016D A29A                    		MOV.L R2, 2CH[R1]
0000016F                         L51:	; entry.split1
                                 ;     151   
                                 ;     152   /* search for highest and lowest point */
                                 ;     153   max_y = pg->list[0].y;
                                 		.LINE  "C:\Workspace\e2studio\git\MT01_master\src\Display\u8g_polygon.c",153
0000016F A881                    		MOV.L 08H[R0], R1
00000171 D5100101                		MOV.W 02H[R1], 02H[R0]
00000175                         L52:	; entry.split2
                                 ;     154   min_y = pg->list[0].y;
                                 		.LINE  "C:\Workspace\e2studio\git\MT01_master\src\Display\u8g_polygon.c",154
00000175 A881                    		MOV.L 08H[R0], R1
00000177 D5100102                		MOV.W 02H[R1], 04H[R0]
0000017B                         L53:	; entry.split3
                                 ;     155   pg->pge[PG_LEFT].curr_idx = 0;
                                 		.LINE  "C:\Workspace\e2studio\git\MT01_master\src\Display\u8g_polygon.c",155
0000017B A881                    		MOV.L 08H[R0], R1
0000017D F9143000                		MOV.B #00H, 30H[R1]
00000181                         L54:	; entry.split4
                                 ;     156   for( i = 1; i < pg->cnt; i++ )
                                 		.LINE  "C:\Workspace\e2studio\git\MT01_master\src\Display\u8g_polygon.c",156
00000181 3C0601                  		MOV.B #01H, 06H[R0]
00000184 2Err                 B  		BRA L61
00000186                         L55:	; bb32
                                 ;     157   {
                                 ;     158     if ( max_y < pg->list[i].y )
                                 		.LINE  "C:\Workspace\e2studio\git\MT01_master\src\Display\u8g_polygon.c",158
00000186 B181                    		MOVU.B 06H[R0], R1
00000188 6C21                    		SHLL #02H, R1
0000018A 06890102                		ADD 08H[R0].L, R1
0000018E 980A                    		MOV.W 02H[R0], R2
00000190 06451201                		CMP 02H[R1].W, R2
00000194 28rr                    		BGE L57
00000196                         L56:	; bb33
                                 ;     159     {
                                 ;     160       max_y = pg->list[i].y;
                                 		.LINE  "C:\Workspace\e2studio\git\MT01_master\src\Display\u8g_polygon.c",160
00000196 B181                    		MOVU.B 06H[R0], R1
00000198 6C21                    		SHLL #02H, R1
0000019A 06890102                		ADD 08H[R0].L, R1
0000019E D5100101                		MOV.W 02H[R1], 02H[R0]
000001A2                         L57:	; bb56
                                 ;     161     }
                                 ;     162     if ( min_y > pg->list[i].y )
                                 		.LINE  "C:\Workspace\e2studio\git\MT01_master\src\Display\u8g_polygon.c",162
000001A2 B181                    		MOVU.B 06H[R0], R1
000001A4 6C21                    		SHLL #02H, R1
000001A6 06890102                		ADD 08H[R0].L, R1
000001AA 9882                    		MOV.W 04H[R0], R2
000001AC 06451201                		CMP 02H[R1].W, R2
000001B0 2Brr                    		BLE L60
000001B2                         L58:	; bb57
                                 ;     163     {
                                 ;     164       pg->pge[PG_LEFT].curr_idx = i;
                                 		.LINE  "C:\Workspace\e2studio\git\MT01_master\src\Display\u8g_polygon.c",164
000001B2 B181                    		MOVU.B 06H[R0], R1
000001B4 A882                    		MOV.L 08H[R0], R2
000001B6 C72130                  		MOV.B R1, 30H[R2]
000001B9                         L59:	; bb57.split
                                 ;     165       min_y = pg->list[i].y;
                                 		.LINE  "C:\Workspace\e2studio\git\MT01_master\src\Display\u8g_polygon.c",165
000001B9 B181                    		MOVU.B 06H[R0], R1
000001BB 6C21                    		SHLL #02H, R1
000001BD 06890102                		ADD 08H[R0].L, R1
000001C1 D5100102                		MOV.W 02H[R1], 04H[R0]
000001C5                         L60:	; bb87
000001C5 B181                    		MOVU.B 06H[R0], R1
000001C7 6211                    		ADD #01H, R1
000001C9 8181                    		MOV.B R1, 06H[R0]
000001CB                         L61:	; bb90
                                 		.LINE  "C:\Workspace\e2studio\git\MT01_master\src\Display\u8g_polygon.c",156
000001CB A881                    		MOV.L 08H[R0], R1
000001CD B182                    		MOVU.B 06H[R0], R2
000001CF 451218                  		CMP 18H[R1].UB, R2
000001D2 29rr                    		BLT L55
000001D4                         L62:	; bb100
                                 ;     166     }
                                 ;     167   }
                                 ;     168 
                                 ;     169   /* calculate total number of scan lines */
                                 ;     170   pg->total_scan_line_cnt = max_y;
                                 		.LINE  "C:\Workspace\e2studio\git\MT01_master\src\Display\u8g_polygon.c",170
000001D4 9809                    		MOV.W 02H[R0], R1
000001D6 A882                    		MOV.L 08H[R0], R2
000001D8 9329                    		MOV.W R1, 1AH[R2]
000001DA                         L63:	; bb100.split
                                 ;     171   pg->total_scan_line_cnt -= min_y;
                                 		.LINE  "C:\Workspace\e2studio\git\MT01_master\src\Display\u8g_polygon.c",171
000001DA A881                    		MOV.L 08H[R0], R1
000001DC 9B1A                    		MOV.W 1AH[R1], R2
000001DE 06410202                		SUB 04H[R0].W, R2
000001E2 931A                    		MOV.W R2, 1AH[R1]
000001E4                         L64:	; bb100.split5
                                 ;     172   
                                 ;     173   /* exit if polygon height is zero */
                                 ;     174   if ( pg->total_scan_line_cnt == 0 )
                                 		.LINE  "C:\Workspace\e2studio\git\MT01_master\src\Display\u8g_polygon.c",174
000001E4 A881                    		MOV.L 08H[R0], R1
000001E6 9B19                    		MOV.W 1AH[R1], R1
000001E8 6101                    		CMP #00H, R1
000001EA 18                   S  		BNE L66
000001EB                         L65:	; bb113
                                 ;     175     return 0;
                                 		.LINE  "C:\Workspace\e2studio\git\MT01_master\src\Display\u8g_polygon.c",175
000001EB 3C0100                  		MOV.B #00H, 01H[R0]
000001EE 2Err                 B  		BRA L76
000001F0                         L66:	; bb122
                                 ;     176   
                                 ;     177   /* if the minimum y side is flat, try to find the lowest and highest x points */
                                 ;     178   pg->pge[PG_RIGHT].curr_idx = pg->pge[PG_LEFT].curr_idx;  
                                 		.LINE  "C:\Workspace\e2studio\git\MT01_master\src\Display\u8g_polygon.c",178
000001F0 A881                    		MOV.L 08H[R0], R1
000001F2 C5113048                		MOV.B 30H[R1], 48H[R1]
000001F6                         L67:	; bb122.split
                                 ;     179   pg_expand_min_y(pg, min_y, PG_RIGHT);
                                 		.LINE  "C:\Workspace\e2studio\git\MT01_master\src\Display\u8g_polygon.c",179
000001F6 9882                    		MOV.W 04H[R0], R2
000001F8 A881                    		MOV.L 08H[R0], R1
000001FA 6613                    		MOV.L #00000001H, R3
000001FC 39rrrr               W  		BSR __$pg_expand_min_y
000001FF                         L68:	; bb122.split6
                                 ;     180   pg_expand_min_y(pg, min_y, PG_LEFT);
                                 		.LINE  "C:\Workspace\e2studio\git\MT01_master\src\Display\u8g_polygon.c",180
000001FF 9882                    		MOV.W 04H[R0], R2
00000201 A881                    		MOV.L 08H[R0], R1
00000203 6603                    		MOV.L #00000000H, R3
00000205 39rrrr               W  		BSR __$pg_expand_min_y
00000208                         L69:	; bb122.split7
                                 ;     181   
                                 ;     182   /* check if the min side is really flat (depends on the x values) */
                                 ;     183   pg->is_min_y_not_flat = 1;
                                 		.LINE  "C:\Workspace\e2studio\git\MT01_master\src\Display\u8g_polygon.c",183
00000208 A881                    		MOV.L 08H[R0], R1
0000020A 3C9901                  		MOV.B #01H, 19H[R1]
0000020D                         L70:	; bb122.split8
                                 ;     184   if ( pg->list[pg->pge[PG_LEFT].curr_idx].x != pg->list[pg->pge[PG_RIGHT].curr_idx].x )
                                 		.LINE  "C:\Workspace\e2studio\git\MT01_master\src\Display\u8g_polygon.c",184
0000020D A881                    		MOV.L 08H[R0], R1
0000020F 591E48                  		MOVU.B 48H[R1], R14
00000212 591F30                  		MOVU.B 30H[R1], R15
00000215 6C2F                    		SHLL #02H, R15
00000217 4B1F                    		ADD R1, R15
00000219 DCFF                    		MOV.W [R15], R15
0000021B 6C2E                    		SHLL #02H, R14
0000021D 4B1E                    		ADD R1, R14
0000021F 0644EF                  		CMP [R14].W, R15
00000222 10                   S  		BEQ L72
00000223                         L71:	; bb141
                                 ;     185   {
                                 ;     186     pg->is_min_y_not_flat = 0;
                                 		.LINE  "C:\Workspace\e2studio\git\MT01_master\src\Display\u8g_polygon.c",186
00000223 3C9900                  		MOV.B #00H, 19H[R1]
00000226 2Err                 B  		BRA L75
00000228                         L72:	; bb144
                                 ;     187   }
                                 ;     188   else
                                 ;     189   {
                                 ;     190     pg->total_scan_line_cnt--;
                                 		.LINE  "C:\Workspace\e2studio\git\MT01_master\src\Display\u8g_polygon.c",190
00000228 9B1A                    		MOV.W 1AH[R1], R2
0000022A 6012                    		SUB #01H, R2
0000022C 931A                    		MOV.W R2, 1AH[R1]
0000022E                         L73:	; bb144.split
                                 ;     191     if ( pg->total_scan_line_cnt == 0 )
                                 		.LINE  "C:\Workspace\e2studio\git\MT01_master\src\Display\u8g_polygon.c",191
0000022E A881                    		MOV.L 08H[R0], R1
00000230 9B19                    		MOV.W 1AH[R1], R1
00000232 6101                    		CMP #00H, R1
00000234 18                   S  		BNE L75
00000235                         L74:	; bb150
                                 ;     192       return 0;
                                 		.LINE  "C:\Workspace\e2studio\git\MT01_master\src\Display\u8g_polygon.c",192
00000235 3C0100                  		MOV.B #00H, 01H[R0]
00000238 08                   S  		BRA L76
00000239                         L75:	; bb191
                                 ;     193   }
                                 ;     194 
                                 ;     195   return 1;
                                 		.LINE  "C:\Workspace\e2studio\git\MT01_master\src\Display\u8g_polygon.c",195
00000239 3C0101                  		MOV.B #01H, 01H[R0]
0000023C                         L76:	; bb193
0000023C C5000107                		MOV.B 01H[R0], 07H[R0]
                                 ;     196 }
                                 		.LINE  "C:\Workspace\e2studio\git\MT01_master\src\Display\u8g_polygon.c",196
00000240 B189                    		MOVU.B 07H[R0], R1
00000242 6703                    		RTSD #0CH
00000244                         __$pg_hline:
                                 		.STACK	__$pg_hline=20
                                 ;     197 
                                 ;     198 static void pg_hline(pg_struct *pg, u8g_t *u8g)
                                 		.LINE  "C:\Workspace\e2studio\git\MT01_master\src\Display\u8g_polygon.c",198
00000244 7100F0                  		ADD #0FFFFFFF0H, R0
00000247 A089                    		MOV.L R1, 0CH[R0]
00000249 A082                    		MOV.L R2, 08H[R0]
                                 ;     199 {
                                 ;     200   pg_word_t x1, x2, y;
                                 ;     201   x1 = pg->pge[PG_LEFT].current_x;
                                 		.LINE  "C:\Workspace\e2studio\git\MT01_master\src\Display\u8g_polygon.c",201
0000024B A889                    		MOV.L 0CH[R0], R1
0000024D D5101401                		MOV.W 28H[R1], 02H[R0]
00000251                         L78:	; entry.split
                                 ;     202   x2 = pg->pge[PG_RIGHT].current_x;
                                 		.LINE  "C:\Workspace\e2studio\git\MT01_master\src\Display\u8g_polygon.c",202
00000251 A889                    		MOV.L 0CH[R0], R1
00000253 D5102002                		MOV.W 40H[R1], 04H[R0]
00000257                         L79:	; entry.split1
                                 ;     203   y = pg->pge[PG_RIGHT].current_y;
                                 		.LINE  "C:\Workspace\e2studio\git\MT01_master\src\Display\u8g_polygon.c",203
00000257 A889                    		MOV.L 0CH[R0], R1
00000259 D5101E03                		MOV.W 3CH[R1], 06H[R0]
0000025D                         L80:	; entry.split2
                                 ;     204   
                                 ;     205   if ( y < 0 )
                                 		.LINE  "C:\Workspace\e2studio\git\MT01_master\src\Display\u8g_polygon.c",205
0000025D 9889                    		MOV.W 06H[R0], R1
0000025F 6101                    		CMP #00H, R1
00000261 28rr                  * 		BLT L97
         38rrrr                  
00000266                         L81:	; bb30
                                 ;     206     return;
                                 ;     207   if ( y >= u8g_GetHeight(u8g) )
                                 		.LINE  "C:\Workspace\e2studio\git\MT01_master\src\Display\u8g_polygon.c",207
00000266 A881                    		MOV.L 08H[R0], R1
00000268 988A                    		MOV.W 06H[R0], R2
0000026A 451201                  		CMP 01H[R1].UB, R2
0000026D 29rr                  * 		BGE L97
         38rrrr                  
00000272                         L82:	; bb43
                                 ;     208     return;
                                 ;     209   if ( x1 < x2 )
                                 		.LINE  "C:\Workspace\e2studio\git\MT01_master\src\Display\u8g_polygon.c",209
00000272 9809                    		MOV.W 02H[R0], R1
00000274 06450102                		CMP 04H[R0].W, R1
00000278 28rr                    		BGE L90
0000027A                         L83:	; bb45
                                 ;     210   {
                                 ;     211     if ( x2 < 0 )
                                 		.LINE  "C:\Workspace\e2studio\git\MT01_master\src\Display\u8g_polygon.c",211
0000027A 9881                    		MOV.W 04H[R0], R1
0000027C 6101                    		CMP #00H, R1
0000027E 29rr                    		BLT L97
00000280                         L84:	; bb54
                                 ;     212       return;
                                 ;     213     if ( x1 >= u8g_GetWidth(u8g) )
                                 		.LINE  "C:\Workspace\e2studio\git\MT01_master\src\Display\u8g_polygon.c",213
00000280 A881                    		MOV.L 08H[R0], R1
00000282 980A                    		MOV.W 02H[R0], R2
00000284 4412                    		CMP [R1].UB, R2
00000286 28rr                    		BGE L97
00000288                         L85:	; bb67
                                 ;     214       return;
                                 ;     215     if ( x1 < 0 )
                                 		.LINE  "C:\Workspace\e2studio\git\MT01_master\src\Display\u8g_polygon.c",215
00000288 9809                    		MOV.W 02H[R0], R1
0000028A 69F1                    		SHLR #1FH, R1
0000028C 6101                    		CMP #00H, R1
0000028E 10                   S  		BEQ L87
0000028F                         L86:	; bb68
                                 ;     216       x1 = 0;
                                 		.LINE  "C:\Workspace\e2studio\git\MT01_master\src\Display\u8g_polygon.c",216
0000028F 3D0100                  		MOV.W #0000H, 02H[R0]
00000292                         L87:	; bb75
                                 ;     217     if ( x2 >= u8g_GetWidth(u8g) )
                                 		.LINE  "C:\Workspace\e2studio\git\MT01_master\src\Display\u8g_polygon.c",217
00000292 A881                    		MOV.L 08H[R0], R1
00000294 9882                    		MOV.W 04H[R0], R2
00000296 4412                    		CMP [R1].UB, R2
00000298 29rr                    		BLT L89
0000029A                         L88:	; bb76
                                 ;     218       x2 = u8g_GetWidth(u8g);
                                 		.LINE  "C:\Workspace\e2studio\git\MT01_master\src\Display\u8g_polygon.c",218
0000029A A881                    		MOV.L 08H[R0], R1
0000029C 5811                    		MOVU.B [R1], R1
0000029E 9081                    		MOV.W R1, 04H[R0]
000002A0                         L89:	; bb90
                                 ;     219     u8g_DrawHLine(u8g, x1, y, x2 - x1);
                                 		.LINE  "C:\Workspace\e2studio\git\MT01_master\src\Display\u8g_polygon.c",219
000002A0 980A                    		MOV.W 02H[R0], R2
000002A2 9884                    		MOV.W 04H[R0], R4
000002A4 B183                    		MOVU.B 06H[R0], R3
000002A6 A881                    		MOV.L 08H[R0], R1
000002A8 4324                    		SUB R2, R4
000002AA 5B44                    		MOVU.B R4, R4
000002AC 5B22                    		MOVU.B R2, R2
000002AE 05rrrrrr             A  		BSR _u8g_DrawHLine
000002B2 6704                    		RTSD #10H
000002B4                         L90:	; bb103
                                 ;     220   }
                                 ;     221   else
                                 ;     222   {
                                 ;     223     if ( x1 < 0 )
                                 		.LINE  "C:\Workspace\e2studio\git\MT01_master\src\Display\u8g_polygon.c",223
000002B4 9809                    		MOV.W 02H[R0], R1
000002B6 6101                    		CMP #00H, R1
000002B8 29rr                    		BLT L97
000002BA                         L91:	; bb112
                                 ;     224       return;
                                 ;     225     if ( x2 >= u8g_GetWidth(u8g) )
                                 		.LINE  "C:\Workspace\e2studio\git\MT01_master\src\Display\u8g_polygon.c",225
000002BA A881                    		MOV.L 08H[R0], R1
000002BC 9882                    		MOV.W 04H[R0], R2
000002BE 4412                    		CMP [R1].UB, R2
000002C0 28rr                    		BGE L97
000002C2                         L92:	; bb125
                                 ;     226       return;
                                 ;     227     if ( x2 < 0 )
                                 		.LINE  "C:\Workspace\e2studio\git\MT01_master\src\Display\u8g_polygon.c",227
000002C2 9881                    		MOV.W 04H[R0], R1
000002C4 69F1                    		SHLR #1FH, R1
000002C6 6101                    		CMP #00H, R1
000002C8 10                   S  		BEQ L94
000002C9                         L93:	; bb126
                                 ;     228       x1 = 0;
                                 		.LINE  "C:\Workspace\e2studio\git\MT01_master\src\Display\u8g_polygon.c",228
000002C9 3D0100                  		MOV.W #0000H, 02H[R0]
000002CC                         L94:	; bb133
                                 ;     229     if ( x1 >= u8g_GetWidth(u8g) )
                                 		.LINE  "C:\Workspace\e2studio\git\MT01_master\src\Display\u8g_polygon.c",229
000002CC A881                    		MOV.L 08H[R0], R1
000002CE 980A                    		MOV.W 02H[R0], R2
000002D0 4412                    		CMP [R1].UB, R2
000002D2 29rr                    		BLT L96
000002D4                         L95:	; bb134
                                 ;     230       x1 = u8g_GetWidth(u8g);
                                 		.LINE  "C:\Workspace\e2studio\git\MT01_master\src\Display\u8g_polygon.c",230
000002D4 A881                    		MOV.L 08H[R0], R1
000002D6 5811                    		MOVU.B [R1], R1
000002D8 9009                    		MOV.W R1, 02H[R0]
000002DA                         L96:	; bb148
                                 ;     231     u8g_DrawHLine(u8g, x2, y, x1 - x2);
                                 		.LINE  "C:\Workspace\e2studio\git\MT01_master\src\Display\u8g_polygon.c",231
000002DA 9882                    		MOV.W 04H[R0], R2
000002DC 980C                    		MOV.W 02H[R0], R4
000002DE B183                    		MOVU.B 06H[R0], R3
000002E0 A881                    		MOV.L 08H[R0], R1
000002E2 4324                    		SUB R2, R4
000002E4 5B44                    		MOVU.B R4, R4
000002E6 5B22                    		MOVU.B R2, R2
000002E8 05rrrrrr             A  		BSR _u8g_DrawHLine
000002EC 6704                    		RTSD #10H
000002EE                         L97:	; return
                                 ;     232   }
                                 ;     233 }
                                 		.LINE  "C:\Workspace\e2studio\git\MT01_master\src\Display\u8g_polygon.c",233
000002EE 6704                    		RTSD #10H
000002F0                         __$pg_line_init:
                                 		.STACK	__$pg_line_init=28
                                 ;     234 
                                 ;     235 static void pg_line_init(pg_struct * pg, uint8_t pge_index)
                                 		.LINE  "C:\Workspace\e2studio\git\MT01_master\src\Display\u8g_polygon.c",235
000002F0 7100EC                  		ADD #0FFFFFFECH, R0
000002F3 A101                    		MOV.L R1, 10H[R0]
000002F5 838A                    		MOV.B R2, 0FH[R0]
                                 ;     236 {
                                 ;     237   struct pg_edge_struct  *pge = pg->pge+pge_index;
                                 		.LINE  "C:\Workspace\e2studio\git\MT01_master\src\Display\u8g_polygon.c",237
000002F7 B389                    		MOVU.B 0FH[R0], R1
000002F9 751118                  		MUL #18H, R1
000002FC 06890104                		ADD 10H[R0].L, R1
00000300 71111C                  		ADD #1CH, R1
00000303 E301                    		MOV.L R1, [R0]
00000305                         L99:	; entry.split
                                 ;     238   uint8_t idx;  
                                 ;     239   pg_word_t x1;
                                 ;     240   pg_word_t y1;
                                 ;     241   pg_word_t x2;
                                 ;     242   pg_word_t y2;
                                 ;     243 
                                 ;     244   idx = pge->curr_idx;  
                                 		.LINE  "C:\Workspace\e2studio\git\MT01_master\src\Display\u8g_polygon.c",244
00000305 EC01                    		MOV.L [R0], R1
00000307 C5101405                		MOV.B 14H[R1], 05H[R0]
0000030B                         L100:	; entry.split1
                                 ;     245   y1 = pg->list[idx].y;
                                 		.LINE  "C:\Workspace\e2studio\git\MT01_master\src\Display\u8g_polygon.c",245
0000030B B109                    		MOVU.B 05H[R0], R1
0000030D 6C21                    		SHLL #02H, R1
0000030F 06890104                		ADD 10H[R0].L, R1
00000313 D5100104                		MOV.W 02H[R1], 08H[R0]
00000317                         L101:	; entry.split2
                                 ;     246   x1 = pg->list[idx].x;
                                 		.LINE  "C:\Workspace\e2studio\git\MT01_master\src\Display\u8g_polygon.c",246
00000317 B109                    		MOVU.B 05H[R0], R1
00000319 6C21                    		SHLL #02H, R1
0000031B 06890104                		ADD 10H[R0].L, R1
0000031F D41003                  		MOV.W [R1], 06H[R0]
00000322                         L102:	; entry.split3
                                 ;     247   idx = pge->next_idx_fn(pg, idx);
                                 		.LINE  "C:\Workspace\e2studio\git\MT01_master\src\Display\u8g_polygon.c",247
00000322 EC01                    		MOV.L [R0], R1
00000324 A913                    		MOV.L 10H[R1], R3
00000326 B10A                    		MOVU.B 05H[R0], R2
00000328 A901                    		MOV.L 10H[R0], R1
0000032A 7F13                    		JSR R3
0000032C 8109                    		MOV.B R1, 05H[R0]
0000032E                         L103:	; entry.split4
                                 ;     248   y2 = pg->list[idx].y;
                                 		.LINE  "C:\Workspace\e2studio\git\MT01_master\src\Display\u8g_polygon.c",248
0000032E B109                    		MOVU.B 05H[R0], R1
00000330 6C21                    		SHLL #02H, R1
00000332 06890104                		ADD 10H[R0].L, R1
00000336 D5100106                		MOV.W 02H[R1], 0CH[R0]
0000033A                         L104:	; entry.split5
                                 ;     249   x2 = pg->list[idx].x; 
                                 		.LINE  "C:\Workspace\e2studio\git\MT01_master\src\Display\u8g_polygon.c",249
0000033A B109                    		MOVU.B 05H[R0], R1
0000033C 6C21                    		SHLL #02H, R1
0000033E 06890104                		ADD 10H[R0].L, R1
00000342 D41005                  		MOV.W [R1], 0AH[R0]
00000345                         L105:	; entry.split6
                                 ;     250   pge->curr_idx = idx;
                                 		.LINE  "C:\Workspace\e2studio\git\MT01_master\src\Display\u8g_polygon.c",250
00000345 B109                    		MOVU.B 05H[R0], R1
00000347 EC02                    		MOV.L [R0], R2
00000349 8521                    		MOV.B R1, 14H[R2]
0000034B                         L106:	; entry.split7
                                 ;     251   
                                 ;     252   pge_Init(pge, x1, y1, x2, y2);
                                 		.LINE  "C:\Workspace\e2studio\git\MT01_master\src\Display\u8g_polygon.c",252
0000034B 9985                    		MOV.W 0CH[R0], R5
0000034D 990C                    		MOV.W 0AH[R0], R4
0000034F 9903                    		MOV.W 08H[R0], R3
00000351 988A                    		MOV.W 06H[R0], R2
00000353 EC01                    		MOV.L [R0], R1
00000355 6040                    		SUB #04H, R0
00000357 D305                    		MOV.W R5, [R0]
00000359 39rrrr               W  		BSR __$pge_Init
0000035C 6240                    		ADD #04H, R0
0000035E 6705                    		RTSD #14H
00000360                         __$pg_exec:
                                 		.STACK	__$pg_exec=16
                                 ;     253 }
                                 ;     254 
                                 ;     255 static void pg_exec(pg_struct *pg, u8g_t *u8g)
                                 		.LINE  "C:\Workspace\e2studio\git\MT01_master\src\Display\u8g_polygon.c",255
00000360 60C0                    		SUB #0CH, R0
00000362 A081                    		MOV.L R1, 08H[R0]
00000364 A00A                    		MOV.L R2, 04H[R0]
                                 ;     256 {
                                 ;     257   pg_word_t i = pg->total_scan_line_cnt;
                                 		.LINE  "C:\Workspace\e2studio\git\MT01_master\src\Display\u8g_polygon.c",257
00000366 A881                    		MOV.L 08H[R0], R1
00000368 D5100D01                		MOV.W 1AH[R1], 02H[R0]
0000036C                         L108:	; entry.split
                                 ;     258 
                                 ;     259   /* first line is skipped if the min y line is not flat */
                                 ;     260   pg_line_init(pg, PG_LEFT);		
                                 		.LINE  "C:\Workspace\e2studio\git\MT01_master\src\Display\u8g_polygon.c",260
0000036C A881                    		MOV.L 08H[R0], R1
0000036E 6602                    		MOV.L #00000000H, R2
00000370 39rrrr               W  		BSR __$pg_line_init
00000373                         L109:	; entry.split1
                                 ;     261   pg_line_init(pg, PG_RIGHT);
                                 		.LINE  "C:\Workspace\e2studio\git\MT01_master\src\Display\u8g_polygon.c",261
00000373 A881                    		MOV.L 08H[R0], R1
00000375 6612                    		MOV.L #00000001H, R2
00000377 39rrrr               W  		BSR __$pg_line_init
0000037A                         L110:	; entry.split2
                                 ;     262   
                                 ;     263   if ( pg->is_min_y_not_flat != 0 )
                                 		.LINE  "C:\Workspace\e2studio\git\MT01_master\src\Display\u8g_polygon.c",263
0000037A A881                    		MOV.L 08H[R0], R1
0000037C B619                    		MOVU.B 19H[R1], R1
0000037E 6101                    		CMP #00H, R1
00000380 20rr                    		BEQ L113
00000382                         L111:	; bb8
                                 ;     264   {
                                 ;     265     pge_Next(&(pg->pge[PG_LEFT])); 
                                 		.LINE  "C:\Workspace\e2studio\git\MT01_master\src\Display\u8g_polygon.c",265
00000382 A881                    		MOV.L 08H[R0], R1
00000384 71111C                  		ADD #1CH, R1
00000387 39rrrr               W  		BSR __$pge_Next
0000038A                         L112:	; bb8.split
                                 ;     266     pge_Next(&(pg->pge[PG_RIGHT]));
                                 		.LINE  "C:\Workspace\e2studio\git\MT01_master\src\Display\u8g_polygon.c",266
0000038A A881                    		MOV.L 08H[R0], R1
0000038C 711134                  		ADD #34H, R1
0000038F 39rrrr               W  		BSR __$pge_Next
00000392                         L113:	; bb26
                                 ;     267   }
                                 ;     268 
                                 ;     269   do
                                 ;     270   {
                                 ;     271     pg_hline(pg, u8g);
                                 		.LINE  "C:\Workspace\e2studio\git\MT01_master\src\Display\u8g_polygon.c",271
00000392 A80A                    		MOV.L 04H[R0], R2
00000394 A881                    		MOV.L 08H[R0], R1
00000396 39rrrr               W  		BSR __$pg_hline
00000399 08                   S  		BRA L115
0000039A                         L114:	; bb29
                                 ;     272     while ( pge_Next(&(pg->pge[PG_LEFT])) == 0 )
                                 ;     273     {
                                 ;     274       pg_line_init(pg, PG_LEFT);
                                 		.LINE  "C:\Workspace\e2studio\git\MT01_master\src\Display\u8g_polygon.c",274
0000039A A881                    		MOV.L 08H[R0], R1
0000039C 6602                    		MOV.L #00000000H, R2
0000039E 39rrrr               W  		BSR __$pg_line_init
000003A1                         L115:	; bb31
                                 		.LINE  "C:\Workspace\e2studio\git\MT01_master\src\Display\u8g_polygon.c",272
000003A1 A881                    		MOV.L 08H[R0], R1
000003A3 71111C                  		ADD #1CH, R1
000003A6 39rrrr               W  		BSR __$pge_Next
000003A9 6101                    		CMP #00H, R1
000003AB 20rr                    		BEQ L114
000003AD 08                   S  		BRA L117
000003AE                         L116:	; bb42
                                 ;     275     }
                                 ;     276     while ( pge_Next(&(pg->pge[PG_RIGHT])) == 0 )
                                 ;     277     {
                                 ;     278       pg_line_init(pg, PG_RIGHT);
                                 		.LINE  "C:\Workspace\e2studio\git\MT01_master\src\Display\u8g_polygon.c",278
000003AE A881                    		MOV.L 08H[R0], R1
000003B0 6612                    		MOV.L #00000001H, R2
000003B2 39rrrr               W  		BSR __$pg_line_init
000003B5                         L117:	; bb44
                                 		.LINE  "C:\Workspace\e2studio\git\MT01_master\src\Display\u8g_polygon.c",276
000003B5 A881                    		MOV.L 08H[R0], R1
000003B7 711134                  		ADD #34H, R1
000003BA 39rrrr               W  		BSR __$pge_Next
000003BD 6101                    		CMP #00H, R1
000003BF 20rr                    		BEQ L116
000003C1                         L118:	; bb54
                                 ;     279     }
                                 ;     280     i--;
                                 		.LINE  "C:\Workspace\e2studio\git\MT01_master\src\Display\u8g_polygon.c",280
000003C1 9809                    		MOV.W 02H[R0], R1
000003C3 6011                    		SUB #01H, R1
000003C5 9009                    		MOV.W R1, 02H[R0]
000003C7                         L119:	; bb54.split
                                 		.LINE  "C:\Workspace\e2studio\git\MT01_master\src\Display\u8g_polygon.c",269
000003C7 9809                    		MOV.W 02H[R0], R1
000003C9 6101                    		CMP #00H, R1
000003CB 2Arr                    		BGT L113
000003CD                         L120:	; return
                                 ;     281   } while( i > 0 );
                                 ;     282 }
                                 		.LINE  "C:\Workspace\e2studio\git\MT01_master\src\Display\u8g_polygon.c",282
000003CD 6703                    		RTSD #0CH
000003CF                         _pg_ClearPolygonXY:
                                 		.STACK	_pg_ClearPolygonXY=8
                                 ;     283 
                                 ;     284 /*===========================================*/
                                 ;     285 /* API procedures */
                                 ;     286 
                                 ;     287 void pg_ClearPolygonXY(pg_struct *pg)
                                 		.LINE  "C:\Workspace\e2studio\git\MT01_master\src\Display\u8g_polygon.c",287
000003CF 6040                    		SUB #04H, R0
000003D1 E301                    		MOV.L R1, [R0]
                                 ;     288 {
                                 ;     289   pg->cnt = 0;
                                 		.LINE  "C:\Workspace\e2studio\git\MT01_master\src\Display\u8g_polygon.c",289
000003D3 3C9800                  		MOV.B #00H, 18H[R1]
000003D6 6701                    		RTSD #04H
000003D8                         _pg_AddPolygonXY:
                                 		.STACK	_pg_AddPolygonXY=16
                                 ;     290 }
                                 ;     291 
                                 ;     292 void pg_AddPolygonXY(pg_struct *pg, u8g_t *u8g, int16_t x, int16_t y)
                                 		.LINE  "C:\Workspace\e2studio\git\MT01_master\src\Display\u8g_polygon.c",292
000003D8 60C0                    		SUB #0CH, R0
000003DA A081                    		MOV.L R1, 08H[R0]
000003DC A00A                    		MOV.L R2, 04H[R0]
000003DE 900B                    		MOV.W R3, 02H[R0]
000003E0 D304                    		MOV.W R4, [R0]
                                 ;     293 {
                                 ;     294   if ( pg->cnt < PG_MAX_POINTS )
                                 		.LINE  "C:\Workspace\e2studio\git\MT01_master\src\Display\u8g_polygon.c",294
000003E2 A881                    		MOV.L 08H[R0], R1
000003E4 B611                    		MOVU.B 18H[R1], R1
000003E6 6151                    		CMP #05H, R1
000003E8 2Arr                    		BGT L126
000003EA                         L123:	; bb5
                                 ;     295   {
                                 ;     296     pg->list[pg->cnt].x = x;
                                 		.LINE  "C:\Workspace\e2studio\git\MT01_master\src\Display\u8g_polygon.c",296
000003EA A881                    		MOV.L 08H[R0], R1
000003EC B612                    		MOVU.B 18H[R1], R2
000003EE 6C22                    		SHLL #02H, R2
000003F0 4B21                    		ADD R2, R1
000003F2 D10101                  		MOV.W 02H[R0], [R1]
000003F5                         L124:	; bb5.split
                                 ;     297     pg->list[pg->cnt].y = y;
                                 		.LINE  "C:\Workspace\e2studio\git\MT01_master\src\Display\u8g_polygon.c",297
000003F5 A881                    		MOV.L 08H[R0], R1
000003F7 B612                    		MOVU.B 18H[R1], R2
000003F9 6C22                    		SHLL #02H, R2
000003FB 4B21                    		ADD R2, R1
000003FD D40101                  		MOV.W [R0], 02H[R1]
00000400                         L125:	; bb5.split1
                                 ;     298     pg->cnt++;
                                 		.LINE  "C:\Workspace\e2studio\git\MT01_master\src\Display\u8g_polygon.c",298
00000400 A881                    		MOV.L 08H[R0], R1
00000402 B612                    		MOVU.B 18H[R1], R2
00000404 6212                    		ADD #01H, R2
00000406 8612                    		MOV.B R2, 18H[R1]
00000408 6703                    		RTSD #0CH
0000040A                         L126:	; return
                                 ;     299   }
                                 ;     300 }
                                 		.LINE  "C:\Workspace\e2studio\git\MT01_master\src\Display\u8g_polygon.c",300
0000040A 6703                    		RTSD #0CH
0000040C                         _pg_DrawPolygon:
                                 		.STACK	_pg_DrawPolygon=12
                                 ;     301 
                                 ;     302 void pg_DrawPolygon(pg_struct *pg, u8g_t *u8g)
                                 		.LINE  "C:\Workspace\e2studio\git\MT01_master\src\Display\u8g_polygon.c",302
0000040C 6080                    		SUB #08H, R0
0000040E A009                    		MOV.L R1, 04H[R0]
00000410 E302                    		MOV.L R2, [R0]
                                 ;     303 {
                                 ;     304   if ( pg_prepare(pg) == 0 )
                                 		.LINE  "C:\Workspace\e2studio\git\MT01_master\src\Display\u8g_polygon.c",304
00000412 A809                    		MOV.L 04H[R0], R1
00000414 39rrrr               W  		BSR __$pg_prepare
00000417 6101                    		CMP #00H, R1
00000419 10                   S  		BEQ L129
0000041A                         L128:	; bb9
                                 ;     305     return;
                                 ;     306   pg_exec(pg, u8g);
                                 		.LINE  "C:\Workspace\e2studio\git\MT01_master\src\Display\u8g_polygon.c",306
0000041A EC02                    		MOV.L [R0], R2
0000041C A809                    		MOV.L 04H[R0], R1
0000041E 39rrrr               W  		BSR __$pg_exec
00000421 6702                    		RTSD #08H
00000423                         L129:	; return
                                 ;     307 }
                                 		.LINE  "C:\Workspace\e2studio\git\MT01_master\src\Display\u8g_polygon.c",307
00000423 6702                    		RTSD #08H
00000425                         _u8g_ClearPolygonXY:
                                 		.STACK	_u8g_ClearPolygonXY=4
                                 ;     308 
                                 ;     309 pg_struct u8g_pg;
                                 ;     310 
                                 ;     311 void u8g_ClearPolygonXY(void)
                                 ;     312 {
                                 ;     313   pg_ClearPolygonXY(&u8g_pg);
                                 		.LINE  "C:\Workspace\e2studio\git\MT01_master\src\Display\u8g_polygon.c",313
00000425 FB12rrrrrrrr            		MOV.L #_u8g_pg, R1
0000042B 39rrrr               W  		BSR _pg_ClearPolygonXY
0000042E 02                      		RTS
0000042F                         _u8g_AddPolygonXY:
                                 		.STACK	_u8g_AddPolygonXY=12
                                 ;     314 }
                                 ;     315 
                                 ;     316 void u8g_AddPolygonXY(u8g_t *u8g, int16_t x, int16_t y)
                                 		.LINE  "C:\Workspace\e2studio\git\MT01_master\src\Display\u8g_polygon.c",316
0000042F 6080                    		SUB #08H, R0
00000431 A009                    		MOV.L R1, 04H[R0]
00000433 900A                    		MOV.W R2, 02H[R0]
00000435 D303                    		MOV.W R3, [R0]
                                 ;     317 {
                                 ;     318   pg_AddPolygonXY(&u8g_pg, u8g, x, y);
                                 		.LINE  "C:\Workspace\e2studio\git\MT01_master\src\Display\u8g_polygon.c",318
00000437 DC04                    		MOV.W [R0], R4
00000439 980B                    		MOV.W 02H[R0], R3
0000043B A80A                    		MOV.L 04H[R0], R2
0000043D FB12rrrrrrrr            		MOV.L #_u8g_pg, R1
00000443 39rrrr               W  		BSR _pg_AddPolygonXY
00000446 6702                    		RTSD #08H
00000448                         _u8g_DrawPolygon:
                                 		.STACK	_u8g_DrawPolygon=8
                                 ;     319 }
                                 ;     320 
                                 ;     321 void u8g_DrawPolygon(u8g_t *u8g)
                                 		.LINE  "C:\Workspace\e2studio\git\MT01_master\src\Display\u8g_polygon.c",321
00000448 6040                    		SUB #04H, R0
0000044A EF12                    		MOV.L R1, R2
0000044C E302                    		MOV.L R2, [R0]
                                 ;     322 {
                                 ;     323   pg_DrawPolygon(&u8g_pg, u8g);
                                 		.LINE  "C:\Workspace\e2studio\git\MT01_master\src\Display\u8g_polygon.c",323
0000044E FB12rrrrrrrr            		MOV.L #_u8g_pg, R1
00000454 39rrrr               W  		BSR _pg_DrawPolygon
00000457 6701                    		RTSD #04H
00000459                         _u8g_DrawTriangle:
                                 		.STACK	_u8g_DrawTriangle=20
                                 ;     324 }
                                 ;     325 
                                 ;     326 void u8g_DrawTriangle(u8g_t *u8g, int16_t x0, int16_t y0, int16_t x1, int16_t y1, int16_t x2, int16_t y2)
                                 		.LINE  "C:\Workspace\e2studio\git\MT01_master\src\Display\u8g_polygon.c",326
00000459 7100F0                  		ADD #0FFFFFFF0H, R0
0000045C A089                    		MOV.L R1, 0CH[R0]
0000045E 910A                    		MOV.W R2, 0AH[R0]
00000460 9103                    		MOV.W R3, 08H[R0]
00000462 908C                    		MOV.W R4, 06H[R0]
00000464 D5000A02                		MOV.W 14H[R0], 04H[R0]
00000468 D5000B01                		MOV.W 16H[R0], 02H[R0]
0000046C D1000C                  		MOV.W 18H[R0], [R0]
                                 ;     327 {
                                 ;     328   u8g_ClearPolygonXY();
                                 		.LINE  "C:\Workspace\e2studio\git\MT01_master\src\Display\u8g_polygon.c",328
0000046F 39rrrr               W  		BSR _u8g_ClearPolygonXY
00000472                         L134:	; entry.split
                                 ;     329   u8g_AddPolygonXY(u8g, x0, y0);
                                 		.LINE  "C:\Workspace\e2studio\git\MT01_master\src\Display\u8g_polygon.c",329
00000472 9903                    		MOV.W 08H[R0], R3
00000474 990A                    		MOV.W 0AH[R0], R2
00000476 A889                    		MOV.L 0CH[R0], R1
00000478 39rrrr               W  		BSR _u8g_AddPolygonXY
0000047B                         L135:	; entry.split1
                                 ;     330   u8g_AddPolygonXY(u8g, x1, y1);
                                 		.LINE  "C:\Workspace\e2studio\git\MT01_master\src\Display\u8g_polygon.c",330
0000047B 9883                    		MOV.W 04H[R0], R3
0000047D 988A                    		MOV.W 06H[R0], R2
0000047F A889                    		MOV.L 0CH[R0], R1
00000481 39rrrr               W  		BSR _u8g_AddPolygonXY
00000484                         L136:	; entry.split2
                                 ;     331   u8g_AddPolygonXY(u8g, x2, y2);
                                 		.LINE  "C:\Workspace\e2studio\git\MT01_master\src\Display\u8g_polygon.c",331
00000484 DC03                    		MOV.W [R0], R3
00000486 980A                    		MOV.W 02H[R0], R2
00000488 A889                    		MOV.L 0CH[R0], R1
0000048A 39rrrr               W  		BSR _u8g_AddPolygonXY
0000048D                         L137:	; entry.split3
                                 ;     332   u8g_DrawPolygon(u8g);
                                 		.LINE  "C:\Workspace\e2studio\git\MT01_master\src\Display\u8g_polygon.c",332
0000048D A889                    		MOV.L 0CH[R0], R1
0000048F 39rrrr               W  		BSR _u8g_DrawPolygon
00000492 6704                    		RTSD #10H
                                 ;     333 }
                                 ;     334 
                                 		.SECTION	B,DATA,ALIGN=4
00000000                         _u8g_pg:
00000000(0000004CH)              		.blkl	19
                                 		.END

Information List

TOTAL ERROR(S)    00000
TOTAL WARNING(S)  00000
TOTAL LINE(S)     01154   LINES

Section List

Attr         Size               Name
CODE     0000001172(00000494H)  P
DATA     0000000076(0000004CH)  B

Cpu Type

-ISA=RXV1 -FPU

Command Parameter

-subcommand=C:\Users\LAFONS~1\AppData\Local\Temp\$ccrx124\$ccrx\u8g_polygon.src.cmd
    -nologo
    -isa=rxv1
    -fpu
    -show=conditionals,definitions,expansions
    -define=__RXV1=1
    -fint_register=0
    -debug
    -endian=little
-listfile=C:\Workspace\e2studio\git\MT01_master\MT01_build\u8g_polygon.lst
-output=C:\Workspace\e2studio\git\MT01_master\MT01_build\src\Display\u8g_polygon.obj
