* RX FAMILY ASSEMBLER V2.03.00.01 [24 Oct 2014] *  SOURCE LIST  Mon Mar 20 17:11:33 2017

LOC.     OBJ.              0XMDA SOURCE STATEMENT

                                 ;RX Family C/C++ Compiler (V2.03.00.03 [04 Dec 2014])  20-Mar-2017 17:11:33
                                 
                                 ;*** CPU TYPE ***
                                 
                                 ;-ISA=RXV1
                                 
                                 ;*** COMMAND PARAMETER ***
                                 
                                 ;-output=src=ut_state_move.src
                                 ;-lang=c99
                                 ;-include=C:\PROGRA~2\Renesas\RX\2_3_0/include,C:\Workspace\e2studio\git\MT01_master\r_lvd_rx,C:\Workspace\e2studio\git\MT01_master\r_lvd_rx\src,C:/Workspace/e2studio/
                                 ;-debug
                                 ;-show=source,conditionals,definitions,expansions
                                 ;-listfile=ut_state_move.lst
                                 ;-isa=rxv1
                                 ;-optimize=0
                                 ;-fpu
                                 ;-alias=noansi
                                 ;-nologo
                                 ;-nomessage
                                 ;-define=__RX,COMPACTAXP=0,EASYMAK=1,MOBILE=0,FREE_RTOS_PP
                                 ;ut_state_move.c
                                 
                                 		.glb	_cs
                                 		.glb	_configsVar
                                 		.glb	_configVarPl
                                 		.glb	_configFlags
                                 		.glb	_macro_func_ptr
                                 		.glb	_macro_buffer
                                 		.glb	_state
                                 		.glb	_velocidadeJog
                                 		.glb	_xMacroArcoOkSync
                                 		.glb	_isDwell
                                 		.glb	_swTimers
                                 		.glb	_qKeyboard
                                 		.glb	_cm
                                 		.glb	_iif_func_enter
                                 		.glb	_iif_func_esc
                                 		.glb	_iif_func_down
                                 		.glb	_iif_func_up
                                 		.glb	_iif_func_left
                                 		.glb	_iif_func_right
                                 		.glb	_iif_func_zdown
                                 		.glb	_iif_func_zup
                                 		.glb	_iif_func_released
                                 		.glb	_zmove
                                 		.glb	_JogkeyPressed
                                 		.glb	_mr
                                 		.glb	_currentLine
                                 		.glb	_xCncTaskHandle
                                 		.glb	_sim
                                 		.glb	_programEnd
                                 		.glb	_lstop
                                 		.glb	_simTorch
                                 		.glb	_textXStr
                                 		.glb	_textYStr
                                 		.glb	_textZStr
                                 		.glb	_gTitle
                                 		.glb	_intepreterRunning
                                 		.glb	_func_back
                                 		.glb	_zinhibitor
                                 		.glb	_sprintf
                                 		.glb	_THC_realGet
                                 		.glb	_cm_get_linenum
                                 		.glb	_cm_get_feed_rate
                                 		.glb	_mp_get_runtime_velocity
                                 		.glb	_arcoOkGet
                                 		.glb	_isCuttingGet
                                 		.glb	_st_get_dwell_elapsed_time
                                 		.glb	_mp_get_runtime_absolute_position
                                 		.glb	_xTimerGenericCommand
                                 		.glb	_ut_lcd_output_warning
                                 		.glb	_ut_lcd_output_manual_mode
                                 		.glb	_ut_lcd_output_mov_mode
                                 		.glb	_ut_lcd_output_plasma_mode
                                 		.glb	_ut_state_manual_mode
                                 		.glb	_restart_stepper
                                 		.glb	_iif_bind_jog
                                 		.glb	_xTimerCreate
                                 		.glb	_xTaskGetTickCount
                                 		.glb	_command_idle
                                 		.glb	_xTaskGenericNotify
                                 		.glb	_xQueueGenericReceive
                                 		.glb	_cm_request_feedhold
                                 		.glb	_cm_request_queue_flush
                                 		.glb	_ut_state_auto_mode
                                 		.glb	_eepromReadConfig
                                 		.glb	_stopDuringCut_Set
                                 		.glb	_tg_set_primary_source
                                 		.glb	_xio_close
                                 		.glb	__command_dispatch
                                 		.glb	_xio_open
                                 		.glb	_iif_bind_filerunning
                                 		.glb	_iif_bind_filerunning_stop
                                 		.glb	_st_command_dwell
                                 		.glb	_stopDuringCut_Get
                                 		.glb	_iif_bind_idle
                                 		.glb	_ut_state_config_var
                                 		.glb	_pl_arcook_start
                                 		.glb	_delay_thcStartStop
                                 		.glb	_isCuttingSet
                                 		.glb	_cm_queue_flush
                                 		.glb	_pl_arcook_stop
                                 		.glb	_ut_state_deslocaZero_mode
                                 		.glb	_warm_stop
                                 		.glb	_iif_bind_deslocar
                                 		.glb	_cm_request_cycle_start
                                 ;LineNo. C-SOURCE STATEMENT
                                 
                                 		.SECTION	P,CODE
00000000                         __$updatePosition:
                                 		.STACK	__$updatePosition=64
                                 ;       1 /*
                                 ;       2  * ut_state_manual.c
                                 ;       3  *
                                 ;       4  *  Created on: Dec 4, 2015
                                 ;       5  *      Author: Fernando
                                 ;       6  */
                                 ;       7 
                                 ;       8 #include "tinyg.h"		// #1
                                 ;       9 #include "hardware.h"
                                 ;      10 #include "controller.h"
                                 ;      11 #include "macros.h"
                                 ;      12 #include "stepper.h"
                                 ;      13 #include "spindle.h"
                                 ;      14 
                                 ;      15 #include "ut_context.h"
                                 ;      16 #include "ut_state.h"
                                 ;      17 #include "ut_state_config_var.h"
                                 ;      18 
                                 ;      19 #include "FreeRTOS.h"
                                 ;      20 #include "task.h"
                                 ;      21 #include "timers.h"
                                 ;      22 #include "config_SwTimers.h"
                                 ;      23 
                                 ;      24 #include "keyboard.h"
                                 ;      25 #include "interpreter_if.h"
                                 ;      26 
                                 ;      27 #include "lcd.h"
                                 ;      28 
                                 ;      29 #include "planner.h"
                                 ;      30 #include "plasma.h"
                                 ;      31 #include "eeprom.h"
                                 ;      32 
                                 ;      33 extern TaskHandle_t xCncTaskHandle;
                                 ;      34 bool sim = false;
                                 ;      35 bool programEnd = false;
                                 ;      36 bool lstop = false;
                                 ;      37 extern bool simTorch;
                                 ;      38 char textXStr[MAX_COLUMN];
                                 ;      39 char textYStr[MAX_COLUMN];
                                 ;      40 char textZStr[MAX_COLUMN];
                                 ;      41 uint8_t gTitle;
                                 ;      42 extern bool intepreterRunning;
                                 ;      43 extern uint8_t func_back;
                                 ;      44 
                                 ;      45 
                                 ;      46 #define DEFAULT_AUTO_TITLE		"MODO AUTOM햀ICO"
                                 ;      47 #define STOP_AUTO_TITLE		    "M핽UINA PAUSADA"
                                 ;      48 #define DEFAULT_LINHA1_AUTO	    ""
                                 ;      49 #define DEFAULT_AVISO_AUTO	    ""
                                 ;      50 #define STOP_AVISO_AUTO	        ""
                                 ;      51 
                                 ;      52 #define DEFAULT_MANUAL_TITLE	"MODO MANUAL"
                                 ;      53 #define DEFAULT_LINHA1_MANUAL	"VELOCIDADE:         "
                                 ;      54 #define DEFAULT_AVISO_MANUAL	"ENTER DISPARA/ESC VOLTA"
                                 ;      55 
                                 ;      56 #define DEFAULT_DESCOLA_TITLE	"DESLOCANDO"
                                 ;      57 #define DEFAULT_LINHA1_DESLOCA	""
                                 ;      58 #define DEFAULT_AVISO_DESLOCA	"ESC VOLTA"
                                 ;      59 
                                 ;      60 #define DEFAULT_SIM_TITLE		"MODO SIMULA플O"
                                 ;      61 #define STOP_SIM_TITLE		    "M핽UINA PAUSADA"
                                 ;      62 #define DEFAULT_LINHA1_SIM	    ""
                                 ;      63 #define DEFAULT_AVISO_SIM	    ""
                                 ;      64 #define STOP_AVISO_SIM	        ""
                                 ;      65 
                                 ;      66 
                                 ;      67 #define DEFAULT_UPDATE_TIMEOUT	portMAX_DELAY
                                 ;      68 
                                 ;      69 enum {
                                 ;      70 	MANUAL = 0,
                                 ;      71 	AUTO,
                                 ;      72 	DESLOCA,
                                 ;      73 	SIM
                                 ;      74 };
                                 ;      75 
                                 ;      76 static char gStrManual[6][24] =
                                 ;      77 {
                                 ;      78 	DEFAULT_MANUAL_TITLE,
                                 ;      79 	DEFAULT_AVISO_MANUAL,
                                 ;      80 	"",
                                 ;      81 	""
                                 ;      82 };
                                 ;      83 
                                 ;      84 static char gStrAuto[6][24] =
                                 ;      85 {
                                 ;      86 	DEFAULT_AUTO_TITLE,
                                 ;      87 	DEFAULT_AVISO_AUTO,
                                 ;      88 	"",
                                 ;      89 	"",
                                 ;      90 	""
                                 ;      91 };
                                 ;      92 
                                 ;      93 static char gStrSim[4][28] =
                                 ;      94 {
                                 ;      95 	DEFAULT_SIM_TITLE,
                                 ;      96 	DEFAULT_AVISO_SIM,
                                 ;      97 	"",
                                 ;      98 	""
                                 ;      99 };
                                 ;     100 
                                 ;     101 static char gStrDesloca[4][24] =
                                 ;     102 {
                                 ;     103 	DEFAULT_DESCOLA_TITLE,
                                 ;     104 	DEFAULT_AVISO_DESLOCA,
                                 ;     105 	"",
                                 ;     106 	""
                                 ;     107 };
                                 ;     108 
                                 ;     109 
                                 ;     110 
                                 ;     111 static void vTimerUpdateCallback( TimerHandle_t pxTimer );
                                 ;     112 void warm_stop(uint8_t flag);
                                 ;     113 static bool ltorchBuffer = false;
                                 ;     114 extern bool zinhibitor;
                                 ;     115 
                                 ;     116 /**
                                 ;     117  * Update machine position
                                 ;     118  * @param szTitle
                                 ;     119  */
                                 ;     120 static void updatePosition(uint8_t menu)
                                 		.LINE  "C:\Workspace\e2studio\git\MT01_master\src\states\ut_state_move.c",120
00000000 7100CC                  		ADD #0FFFFFFCCH, R0
00000003 C70133                  		MOV.B R1, 33H[R0]
                                 ;     121 {
                                 ;     122 	float x; float y; float z;
                                 ;     123 	float vel;
                                 ;     124 	char *lStr[7] = {"","","","","","",""};
                                 		.LINE  "C:\Workspace\e2studio\git\MT01_master\src\states\ut_state_move.c",124
00000006 FBE2rrrrrrrr            		MOV.L #_L11, R14
0000000C E4E005                  		MOV.L [R14], 14H[R0]
0000000F E5E00106                		MOV.L 04H[R14], 18H[R0]
00000013 E5E00207                		MOV.L 08H[R14], 1CH[R0]
00000017 E5E00308                		MOV.L 0CH[R14], 20H[R0]
0000001B E5E00409                		MOV.L 10H[R14], 24H[R0]
0000001F E5E0050A                		MOV.L 14H[R14], 28H[R0]
00000023 E5E0060B                		MOV.L 18H[R14], 2CH[R0]
00000027                         L34:	; entry.split
                                 ;     125 	/* Display is only cleared once to improve performance */
                                 ;     126 //	lStr[4] = "";
                                 ;     127 //	lStr[6] = "";
                                 ;     128 //	lStr[1] = "";
                                 ;     129 	switch(menu)
                                 		.LINE  "C:\Workspace\e2studio\git\MT01_master\src\states\ut_state_move.c",129
00000027 590133                  		MOVU.B 33H[R0], R1
0000002A 6131                    		CMP #03H, R1
0000002C 3Arrrr               W  		BEQ L80
0000002F                         L35:	; entry.split
0000002F 6111                    		CMP #01H, R1
00000031 3Arrrr               W  		BEQ L55
00000034                         L36:	; entry.split
00000034 6121                    		CMP #02H, R1
00000036 3Arrrr               W  		BEQ L89
00000039                         L37:	; entry.split
00000039 6101                    		CMP #00H, R1
0000003B 3Brrrr               W  		BNE L93
0000003E                         L38:	; bb
                                 ;     130 	{
                                 ;     131 		case MANUAL: lStr[0] = gStrManual[0];
                                 		.LINE  "C:\Workspace\e2studio\git\MT01_master\src\states\ut_state_move.c",131
0000003E FB12rrrrrrrr            		MOV.L #__$gStrManual, R1
00000044 A109                    		MOV.L R1, 14H[R0]
00000046                         L39:	; bb.split
                                 ;     132 					sprintf(gStrManual[2], "VEL.: %.0f mm/min",  *velocidadeJog);
                                 		.LINE  "C:\Workspace\e2studio\git\MT01_master\src\states\ut_state_move.c",132
00000046 FBE2rrrrrrrr            		MOV.L #_velocidadeJog, R14
0000004C ECEE                    		MOV.L [R14], R14
0000004E 6080                    		SUB #08H, R0
00000050 E4E001                  		MOV.L [R14], 04H[R0]
00000053 FBE2rrrrrrrr            		MOV.L #_L12, R14
00000059 E30E                    		MOV.L R14, [R0]
0000005B FB12rrrrrrrr            		MOV.L #__$gStrManual, R1
00000061 711130                  		ADD #30H, R1
00000064 05rrrrrr             A  		BSR _sprintf
00000068 6280                    		ADD #08H, R0
0000006A                         L40:	; bb.split1
                                 ;     133 					lStr[2] = gStrManual[2];
                                 		.LINE  "C:\Workspace\e2studio\git\MT01_master\src\states\ut_state_move.c",133
0000006A FB12rrrrrrrr            		MOV.L #__$gStrManual, R1
00000070 711130                  		ADD #30H, R1
00000073 A189                    		MOV.L R1, 1CH[R0]
00000075                         L41:	; bb.split2
                                 ;     134 
                                 ;     135 					 if (!ARCO_OK)
                                 		.LINE  "C:\Workspace\e2studio\git\MT01_master\src\states\ut_state_move.c",135
00000075 FBEE22C008              		MOV.L #0008C022H, R14
0000007A 59EE20                  		MOVU.B 20H[R14], R14
0000007D 681E                    		SHLR #01H, R14
0000007F 7C0E                    		BTST #00H, R14
00000081 21rr                    		BNE L44
00000083 2Err                 B  		BRA L45
00000085                         L42:	; bb30
                                 ;     136 						 lStr[3] = "AOK";
                                 		.LINE  "C:\Workspace\e2studio\git\MT01_master\src\states\ut_state_move.c",136
00000085 FB12rrrrrrrr            		MOV.L #_L13, R1
0000008B A201                    		MOV.L R1, 20H[R0]
0000008D 2Err                 B  		BRA L47
0000008F                         L43:	; bb33
                                 ;     137 					 else
                                 ;     138 						 lStr[3] = "";
                                 		.LINE  "C:\Workspace\e2studio\git\MT01_master\src\states\ut_state_move.c",138
0000008F FB12rrrrrrrr            		MOV.L #_L10, R1
00000095 A201                    		MOV.L R1, 20H[R0]
00000097 2Err                 B  		BRA L47
00000099                         L44:	; bb42
00000099 F80600                  		MOV.L #00000000H, [R0]
0000009C 08                   S  		BRA L46
0000009D                         L45:	; bb43
0000009D F80601                  		MOV.L #00000001H, [R0]
000000A0                         L46:	; bb44
000000A0 EC01                    		MOV.L [R0], R1
000000A2 6101                    		CMP #00H, R1
000000A4 21rr                    		BNE L42
000000A6 2Err                 B  		BRA L43
000000A8                         L47:	; bb48
000000A8 FBEE41C008              		MOV.L #0008C041H, R14
                                 ;     139 					 if (MATERIAL)
                                 		.LINE  "C:\Workspace\e2studio\git\MT01_master\src\states\ut_state_move.c",139
000000AD 58EE                    		MOVU.B [R14], R14
000000AF 682E                    		SHLR #02H, R14
000000B1 7C0E                    		BTST #00H, R14
000000B3 10                   S  		BEQ L49
000000B4                         L48:	; bb49
                                 ;     140 						 lStr[6] = "OH";
                                 		.LINE  "C:\Workspace\e2studio\git\MT01_master\src\states\ut_state_move.c",140
000000B4 FB12rrrrrrrr            		MOV.L #_L14, R1
000000BA A289                    		MOV.L R1, 2CH[R0]
000000BC 08                   S  		BRA L50
000000BD                         L49:	; bb52
                                 ;     141 					 else
                                 ;     142 						 lStr[6] = "";
                                 		.LINE  "C:\Workspace\e2studio\git\MT01_master\src\states\ut_state_move.c",142
000000BD FB12rrrrrrrr            		MOV.L #_L10, R1
000000C3 A289                    		MOV.L R1, 2CH[R0]
000000C5                         L50:	; bb63
                                 ;     143 					 if(configFlags[MODOMAQUINA] == MODO_PLASMA)
                                 		.LINE  "C:\Workspace\e2studio\git\MT01_master\src\states\ut_state_move.c",143
000000C5 FBE2rrrrrrrr            		MOV.L #_configFlags, R14
000000CB ECEE                    		MOV.L [R14], R14
000000CD 610E                    		CMP #00H, R14
000000CF 3Brrrr               W  		BNE L93
000000D2                         L51:	; bb64
                                 ;     144 					 {
                                 ;     145 						sprintf(gStrManual[4], "THC SET: %.0f V",  configVarPl[PL_CONFIG_TENSAO_THC]);
                                 		.LINE  "C:\Workspace\e2studio\git\MT01_master\src\states\ut_state_move.c",145
000000D2 FBE2rrrrrrrr            		MOV.L #_configVarPl, R14
000000D8 6080                    		SUB #08H, R0
000000DA E5E00401                		MOV.L 10H[R14], 04H[R0]
000000DE FBE2rrrrrrrr            		MOV.L #_L15, R14
000000E4 E30E                    		MOV.L R14, [R0]
000000E6 FB12rrrrrrrr            		MOV.L #__$gStrManual, R1
000000EC 711160                  		ADD #60H, R1
000000EF 05rrrrrr             A  		BSR _sprintf
000000F3 6280                    		ADD #08H, R0
000000F5                         L52:	; bb64.split
                                 ;     146 						lStr[4] = gStrManual[4];
                                 		.LINE  "C:\Workspace\e2studio\git\MT01_master\src\states\ut_state_move.c",146
000000F5 FB12rrrrrrrr            		MOV.L #__$gStrManual, R1
000000FB 711160                  		ADD #60H, R1
000000FE A209                    		MOV.L R1, 24H[R0]
00000100                         L53:	; bb64.split3
                                 ;     147 						sprintf(gStrManual[5], "THC REAL: %.0f V",  THC_realGet());
                                 		.LINE  "C:\Workspace\e2studio\git\MT01_master\src\states\ut_state_move.c",147
00000100 05rrrrrr             A  		BSR _THC_realGet
00000104 6080                    		SUB #08H, R0
00000106 FBE2rrrrrrrr            		MOV.L #_L16, R14
0000010C E30E                    		MOV.L R14, [R0]
0000010E A009                    		MOV.L R1, 04H[R0]
00000110 FB12rrrrrrrr            		MOV.L #__$gStrManual, R1
00000116 711178                  		ADD #78H, R1
00000119 05rrrrrr             A  		BSR _sprintf
0000011D 6280                    		ADD #08H, R0
0000011F                         L54:	; bb64.split4
                                 ;     148 						lStr[5] = gStrManual[5];
                                 		.LINE  "C:\Workspace\e2studio\git\MT01_master\src\states\ut_state_move.c",148
0000011F FB12rrrrrrrr            		MOV.L #__$gStrManual, R1
00000125 711178                  		ADD #78H, R1
00000128 A281                    		MOV.L R1, 28H[R0]
0000012A 38rrrr               W  		BRA L93
0000012D                         L55:	; bb78
                                 ;     149 					}
                                 ;     150 					break;
                                 ;     151 		case AUTO:   lStr[0] = gStrAuto[0];
                                 		.LINE  "C:\Workspace\e2studio\git\MT01_master\src\states\ut_state_move.c",151
0000012D FB12rrrrrrrr            		MOV.L #__$gStrAuto, R1
00000133 A109                    		MOV.L R1, 14H[R0]
00000135                         L56:	; bb78.split
                                 ;     152 					 currentLine = cm_get_linenum(RUNTIME);
                                 		.LINE  "C:\Workspace\e2studio\git\MT01_master\src\states\ut_state_move.c",152
00000135 FB12rrrrrrrr            		MOV.L #_mr, R1
0000013B 72114001                		ADD #0140H, R1
0000013F 05rrrrrr             A  		BSR _cm_get_linenum
00000143 FBE2rrrrrrrr            		MOV.L #_currentLine, R14
00000149 E3E1                    		MOV.L R1, [R14]
0000014B                         L57:	; bb78.split5
                                 ;     153  	 	 	 	 	 sprintf(gStrAuto[1], "LINHA: %d",  cm_get_linenum(RUNTIME));
                                 		.LINE  "C:\Workspace\e2studio\git\MT01_master\src\states\ut_state_move.c",153
0000014B FB12rrrrrrrr            		MOV.L #_mr, R1
00000151 72114001                		ADD #0140H, R1
00000155 05rrrrrr             A  		BSR _cm_get_linenum
00000159 6080                    		SUB #08H, R0
0000015B FBE2rrrrrrrr            		MOV.L #_L17, R14
00000161 E30E                    		MOV.L R14, [R0]
00000163 A009                    		MOV.L R1, 04H[R0]
00000165 FB12rrrrrrrr            		MOV.L #__$gStrAuto, R1
0000016B 711118                  		ADD #18H, R1
0000016E 05rrrrrr             A  		BSR _sprintf
00000172 6280                    		ADD #08H, R0
00000174                         L58:	; bb78.split6
                                 ;     154 		 	 	 	 lStr[1] = gStrAuto[1];
                                 		.LINE  "C:\Workspace\e2studio\git\MT01_master\src\states\ut_state_move.c",154
00000174 FB12rrrrrrrr            		MOV.L #__$gStrAuto, R1
0000017A 711118                  		ADD #18H, R1
0000017D A181                    		MOV.L R1, 18H[R0]
0000017F                         L59:	; bb78.split7
                                 ;     155 		 	 	 	 vel = cm_get_feed_rate(RUNTIME);
                                 		.LINE  "C:\Workspace\e2studio\git\MT01_master\src\states\ut_state_move.c",155
0000017F FB12rrrrrrrr            		MOV.L #_mr, R1
00000185 72114001                		ADD #0140H, R1
00000189 05rrrrrr             A  		BSR _cm_get_feed_rate
0000018D A101                    		MOV.L R1, 10H[R0]
0000018F                         L60:	; bb78.split8
                                 ;     156 		 	 	 	 if (vel == 0)
                                 		.LINE  "C:\Workspace\e2studio\git\MT01_master\src\states\ut_state_move.c",156
0000018F A901                    		MOV.L 10H[R0], R1
00000191 FD721100000000          		FCMP #00000000H, R1
00000198 18                   S  		BNE L62
00000199                         L61:	; bb88
                                 ;     157 		 	 	 	 {
                                 ;     158 		 	 	 		vel = mp_get_runtime_velocity();
                                 		.LINE  "C:\Workspace\e2studio\git\MT01_master\src\states\ut_state_move.c",158
00000199 05rrrrrr             A  		BSR _mp_get_runtime_velocity
0000019D A101                    		MOV.L R1, 10H[R0]
0000019F                         L62:	; bb94
                                 ;     159 		 	 	 	 }
                                 ;     160 
                                 ;     161 			         sprintf(gStrAuto[2], "VEL.: %.0f mm/min",  vel);
                                 		.LINE  "C:\Workspace\e2studio\git\MT01_master\src\states\ut_state_move.c",161
0000019F A901                    		MOV.L 10H[R0], R1
000001A1 6080                    		SUB #08H, R0
000001A3 A009                    		MOV.L R1, 04H[R0]
000001A5 FBE2rrrrrrrr            		MOV.L #_L12, R14
000001AB E30E                    		MOV.L R14, [R0]
000001AD FB12rrrrrrrr            		MOV.L #__$gStrAuto, R1
000001B3 711130                  		ADD #30H, R1
000001B6 05rrrrrr             A  		BSR _sprintf
000001BA 6280                    		ADD #08H, R0
000001BC                         L63:	; bb94.split
                                 ;     162                      lStr[2] = gStrAuto[2];
                                 		.LINE  "C:\Workspace\e2studio\git\MT01_master\src\states\ut_state_move.c",162
000001BC FB12rrrrrrrr            		MOV.L #__$gStrAuto, R1
000001C2 711130                  		ADD #30H, R1
000001C5 A189                    		MOV.L R1, 1CH[R0]
000001C7                         L64:	; bb94.split9
                                 ;     163 
                                 ;     164 						 if (arcoOkGet())
                                 		.LINE  "C:\Workspace\e2studio\git\MT01_master\src\states\ut_state_move.c",164
000001C7 05rrrrrr             A  		BSR _arcoOkGet
000001CB 6101                    		CMP #00H, R1
000001CD 10                   S  		BEQ L66
000001CE                         L65:	; bb100
                                 ;     165 							 lStr[3] = "AOK";
                                 		.LINE  "C:\Workspace\e2studio\git\MT01_master\src\states\ut_state_move.c",165
000001CE FB12rrrrrrrr            		MOV.L #_L13, R1
000001D4 A201                    		MOV.L R1, 20H[R0]
000001D6 08                   S  		BRA L67
000001D7                         L66:	; bb103
                                 ;     166 						 else
                                 ;     167 							 lStr[3] = "";
                                 		.LINE  "C:\Workspace\e2studio\git\MT01_master\src\states\ut_state_move.c",167
000001D7 FB12rrrrrrrr            		MOV.L #_L10, R1
000001DD A201                    		MOV.L R1, 20H[R0]
000001DF                         L67:	; bb112
                                 ;     168 					 if(configFlags[MODOMAQUINA] == MODO_PLASMA)
                                 		.LINE  "C:\Workspace\e2studio\git\MT01_master\src\states\ut_state_move.c",168
000001DF FBE2rrrrrrrr            		MOV.L #_configFlags, R14
000001E5 ECEE                    		MOV.L [R14], R14
000001E7 610E                    		CMP #00H, R14
000001E9 3Brrrr               W  		BNE L77
000001EC                         L68:	; bb113
                                 ;     169 					 {
                                 ;     170 						 sprintf(gStrAuto[4], "THC SET: %.0f V",  configVarPl[PL_CONFIG_TENSAO_THC]);
                                 		.LINE  "C:\Workspace\e2studio\git\MT01_master\src\states\ut_state_move.c",170
000001EC FBE2rrrrrrrr            		MOV.L #_configVarPl, R14
000001F2 6080                    		SUB #08H, R0
000001F4 E5E00401                		MOV.L 10H[R14], 04H[R0]
000001F8 FBE2rrrrrrrr            		MOV.L #_L15, R14
000001FE E30E                    		MOV.L R14, [R0]
00000200 FB12rrrrrrrr            		MOV.L #__$gStrAuto, R1
00000206 711160                  		ADD #60H, R1
00000209 05rrrrrr             A  		BSR _sprintf
0000020D 6280                    		ADD #08H, R0
0000020F                         L69:	; bb113.split
                                 ;     171 						 lStr[4] = gStrAuto[4];
                                 		.LINE  "C:\Workspace\e2studio\git\MT01_master\src\states\ut_state_move.c",171
0000020F FB12rrrrrrrr            		MOV.L #__$gStrAuto, R1
00000215 711160                  		ADD #60H, R1
00000218 A209                    		MOV.L R1, 24H[R0]
0000021A                         L70:	; bb113.split10
                                 ;     172 						 if(isCuttingGet()){
                                 		.LINE  "C:\Workspace\e2studio\git\MT01_master\src\states\ut_state_move.c",172
0000021A 05rrrrrr             A  		BSR _isCuttingGet
0000021E 6101                    		CMP #00H, R1
00000220 20rr                    		BEQ L73
00000222                         L71:	; bb119
                                 ;     173 							 sprintf(gStrAuto[5], "THC REAL: %.0f V",  THC_realGet());
                                 		.LINE  "C:\Workspace\e2studio\git\MT01_master\src\states\ut_state_move.c",173
00000222 05rrrrrr             A  		BSR _THC_realGet
00000226 6080                    		SUB #08H, R0
00000228 FBE2rrrrrrrr            		MOV.L #_L16, R14
0000022E E30E                    		MOV.L R14, [R0]
00000230 A009                    		MOV.L R1, 04H[R0]
00000232 FB12rrrrrrrr            		MOV.L #__$gStrAuto, R1
00000238 711178                  		ADD #78H, R1
0000023B 05rrrrrr             A  		BSR _sprintf
0000023F 6280                    		ADD #08H, R0
00000241                         L72:	; bb119.split
                                 ;     174 							 lStr[5] = gStrAuto[5];
                                 		.LINE  "C:\Workspace\e2studio\git\MT01_master\src\states\ut_state_move.c",174
00000241 FB12rrrrrrrr            		MOV.L #__$gStrAuto, R1
00000247 711178                  		ADD #78H, R1
0000024A A281                    		MOV.L R1, 28H[R0]
0000024C 08                   S  		BRA L74
0000024D                         L73:	; bb124
                                 ;     175 						 }
                                 ;     176 						 else
                                 ;     177 						 {
                                 ;     178 							 lStr[5] = "THC REAL: --- V";
                                 		.LINE  "C:\Workspace\e2studio\git\MT01_master\src\states\ut_state_move.c",178
0000024D FB12rrrrrrrr            		MOV.L #_L18, R1
00000253 A281                    		MOV.L R1, 28H[R0]
00000255                         L74:	; bb133
00000255 FBEE41C008              		MOV.L #0008C041H, R14
                                 ;     179 						 }
                                 ;     180 						 if (MATERIAL)
                                 		.LINE  "C:\Workspace\e2studio\git\MT01_master\src\states\ut_state_move.c",180
0000025A 58EE                    		MOVU.B [R14], R14
0000025C 682E                    		SHLR #02H, R14
0000025E 7C0E                    		BTST #00H, R14
00000260 20rr                    		BEQ L76
00000262                         L75:	; bb134
                                 ;     181 							 lStr[6] = "OH";
                                 		.LINE  "C:\Workspace\e2studio\git\MT01_master\src\states\ut_state_move.c",181
00000262 FB12rrrrrrrr            		MOV.L #_L14, R1
00000268 A289                    		MOV.L R1, 2CH[R0]
0000026A 38rrrr               W  		BRA L93
0000026D                         L76:	; bb137
                                 ;     182 						 else
                                 ;     183 							 lStr[6] = "";
                                 		.LINE  "C:\Workspace\e2studio\git\MT01_master\src\states\ut_state_move.c",183
0000026D FB12rrrrrrrr            		MOV.L #_L10, R1
00000273 A289                    		MOV.L R1, 2CH[R0]
00000275 38rrrr               W  		BRA L93
00000278                         L77:	; bb149
                                 ;     184                      }
                                 ;     185                      else
                                 ;     186                      {
                                 ;     187                     	 if(isDwell){
                                 		.LINE  "C:\Workspace\e2studio\git\MT01_master\src\states\ut_state_move.c",187
00000278 FBE2rrrrrrrr            		MOV.L #_isDwell, R14
0000027E 58EE                    		MOVU.B [R14], R14
00000280 610E                    		CMP #00H, R14
00000282 3Arrrr               W  		BEQ L93
00000285                         L78:	; bb150
                                 ;     188         			         sprintf(gStrAuto[4], "T: %.0f s",  st_get_dwell_elapsed_time());
                                 		.LINE  "C:\Workspace\e2studio\git\MT01_master\src\states\ut_state_move.c",188
00000285 05rrrrrr             A  		BSR _st_get_dwell_elapsed_time
00000289 6080                    		SUB #08H, R0
0000028B FBE2rrrrrrrr            		MOV.L #_L19, R14
00000291 E30E                    		MOV.L R14, [R0]
00000293 A009                    		MOV.L R1, 04H[R0]
00000295 FB12rrrrrrrr            		MOV.L #__$gStrAuto, R1
0000029B 711160                  		ADD #60H, R1
0000029E 05rrrrrr             A  		BSR _sprintf
000002A2 6280                    		ADD #08H, R0
000002A4                         L79:	; bb150.split
                                 ;     189                     		 lStr[4] = gStrAuto[4];
                                 		.LINE  "C:\Workspace\e2studio\git\MT01_master\src\states\ut_state_move.c",189
000002A4 FB12rrrrrrrr            		MOV.L #__$gStrAuto, R1
000002AA 711160                  		ADD #60H, R1
000002AD A209                    		MOV.L R1, 24H[R0]
000002AF 38rrrr               W  		BRA L93
000002B2                         L80:	; bb166
                                 ;     190                     	 }
                                 ;     191                      }
                                 ;     192                      break;
                                 ;     193 		case SIM:    lStr[0] = gStrSim[0];
                                 		.LINE  "C:\Workspace\e2studio\git\MT01_master\src\states\ut_state_move.c",193
000002B2 FB12rrrrrrrr            		MOV.L #__$gStrSim, R1
000002B8 A109                    		MOV.L R1, 14H[R0]
000002BA                         L81:	; bb166.split
                                 ;     194 		 	 	 	 currentLine = cm_get_linenum(RUNTIME);
                                 		.LINE  "C:\Workspace\e2studio\git\MT01_master\src\states\ut_state_move.c",194
000002BA FB12rrrrrrrr            		MOV.L #_mr, R1
000002C0 72114001                		ADD #0140H, R1
000002C4 05rrrrrr             A  		BSR _cm_get_linenum
000002C8 FBE2rrrrrrrr            		MOV.L #_currentLine, R14
000002CE E3E1                    		MOV.L R1, [R14]
000002D0                         L82:	; bb166.split11
                                 ;     195 	 	 	 	 	 sprintf(gStrSim[1], "LINHA: %d",  cm_get_linenum(RUNTIME));
                                 		.LINE  "C:\Workspace\e2studio\git\MT01_master\src\states\ut_state_move.c",195
000002D0 FB12rrrrrrrr            		MOV.L #_mr, R1
000002D6 72114001                		ADD #0140H, R1
000002DA 05rrrrrr             A  		BSR _cm_get_linenum
000002DE 6080                    		SUB #08H, R0
000002E0 FBE2rrrrrrrr            		MOV.L #_L17, R14
000002E6 E30E                    		MOV.L R14, [R0]
000002E8 A009                    		MOV.L R1, 04H[R0]
000002EA FB12rrrrrrrr            		MOV.L #__$gStrSim, R1
000002F0 71111C                  		ADD #1CH, R1
000002F3 05rrrrrr             A  		BSR _sprintf
000002F7 6280                    		ADD #08H, R0
000002F9                         L83:	; bb166.split12
                                 ;     196 		 	 	 	 lStr[1] = gStrSim[1];
                                 		.LINE  "C:\Workspace\e2studio\git\MT01_master\src\states\ut_state_move.c",196
000002F9 FB12rrrrrrrr            		MOV.L #__$gStrSim, R1
000002FF 71111C                  		ADD #1CH, R1
00000302 A181                    		MOV.L R1, 18H[R0]
00000304                         L84:	; bb166.split13
                                 ;     197 		 	 	 	 vel = cm_get_feed_rate(ACTIVE_MODEL);
                                 		.LINE  "C:\Workspace\e2studio\git\MT01_master\src\states\ut_state_move.c",197
00000304 FBE2rrrrrrrr            		MOV.L #_cm, R14
0000030A EDE194                  		MOV.L 0250H[R14], R1
0000030D 05rrrrrr             A  		BSR _cm_get_feed_rate
00000311 A101                    		MOV.L R1, 10H[R0]
00000313                         L85:	; bb166.split14
                                 ;     198 		 	 	 	 if (vel == 0)
                                 		.LINE  "C:\Workspace\e2studio\git\MT01_master\src\states\ut_state_move.c",198
00000313 A901                    		MOV.L 10H[R0], R1
00000315 FD721100000000          		FCMP #00000000H, R1
0000031C 18                   S  		BNE L87
0000031D                         L86:	; bb177
                                 ;     199 		 	 	 	 {
                                 ;     200 		 	 	 		vel = mp_get_runtime_velocity();
                                 		.LINE  "C:\Workspace\e2studio\git\MT01_master\src\states\ut_state_move.c",200
0000031D 05rrrrrr             A  		BSR _mp_get_runtime_velocity
00000321 A101                    		MOV.L R1, 10H[R0]
00000323                         L87:	; bb183
                                 ;     201 		 	 	 	 }
                                 ;     202 			         sprintf(gStrSim[2], "VEL.: %.0f mm/min",  vel);
                                 		.LINE  "C:\Workspace\e2studio\git\MT01_master\src\states\ut_state_move.c",202
00000323 A901                    		MOV.L 10H[R0], R1
00000325 6080                    		SUB #08H, R0
00000327 A009                    		MOV.L R1, 04H[R0]
00000329 FBE2rrrrrrrr            		MOV.L #_L12, R14
0000032F E30E                    		MOV.L R14, [R0]
00000331 FB12rrrrrrrr            		MOV.L #__$gStrSim, R1
00000337 711138                  		ADD #38H, R1
0000033A 05rrrrrr             A  		BSR _sprintf
0000033E 6280                    		ADD #08H, R0
00000340                         L88:	; bb183.split
                                 ;     203                      lStr[2] = gStrSim[2];
                                 		.LINE  "C:\Workspace\e2studio\git\MT01_master\src\states\ut_state_move.c",203
00000340 FB12rrrrrrrr            		MOV.L #__$gStrSim, R1
00000346 711138                  		ADD #38H, R1
00000349 A189                    		MOV.L R1, 1CH[R0]
0000034B 2Err                 B  		BRA L93
0000034D                         L89:	; bb188
                                 ;     204                      break;
                                 ;     205 		case DESLOCA: lStr[0] = gStrDesloca[0];
                                 		.LINE  "C:\Workspace\e2studio\git\MT01_master\src\states\ut_state_move.c",205
0000034D FB12rrrrrrrr            		MOV.L #__$gStrDesloca, R1
00000353 A109                    		MOV.L R1, 14H[R0]
00000355                         L90:	; bb188.split
                                 ;     206 					  lStr[1] = gStrDesloca[1];
                                 		.LINE  "C:\Workspace\e2studio\git\MT01_master\src\states\ut_state_move.c",206
00000355 FB12rrrrrrrr            		MOV.L #__$gStrDesloca, R1
0000035B 711118                  		ADD #18H, R1
0000035E A181                    		MOV.L R1, 18H[R0]
00000360                         L91:	; bb188.split15
                                 ;     207 				      sprintf(gStrDesloca[2], "VEL.: %.0f mm/min",  mp_get_runtime_velocity());
                                 		.LINE  "C:\Workspace\e2studio\git\MT01_master\src\states\ut_state_move.c",207
00000360 05rrrrrr             A  		BSR _mp_get_runtime_velocity
00000364 6080                    		SUB #08H, R0
00000366 FBE2rrrrrrrr            		MOV.L #_L12, R14
0000036C E30E                    		MOV.L R14, [R0]
0000036E A009                    		MOV.L R1, 04H[R0]
00000370 FB12rrrrrrrr            		MOV.L #__$gStrDesloca, R1
00000376 711130                  		ADD #30H, R1
00000379 05rrrrrr             A  		BSR _sprintf
0000037D 6280                    		ADD #08H, R0
0000037F                         L92:	; bb188.split16
                                 ;     208 					  lStr[2] = gStrDesloca[2];
                                 		.LINE  "C:\Workspace\e2studio\git\MT01_master\src\states\ut_state_move.c",208
0000037F FB12rrrrrrrr            		MOV.L #__$gStrDesloca, R1
00000385 711130                  		ADD #30H, R1
00000388 A189                    		MOV.L R1, 1CH[R0]
0000038A                         L93:	; bb197
0000038A 6601                    		MOV.L #00000000H, R1
                                 ;     209 					  break;
                                 ;     210 	}
                                 ;     211 	/* TODO: get position from machine */
                                 ;     212 	x = mp_get_runtime_absolute_position(0);
                                 		.LINE  "C:\Workspace\e2studio\git\MT01_master\src\states\ut_state_move.c",212
0000038C 05rrrrrr             A  		BSR _mp_get_runtime_absolute_position
00000390 A009                    		MOV.L R1, 04H[R0]
00000392                         L94:	; bb197.split
00000392 6611                    		MOV.L #00000001H, R1
                                 ;     213 	y = mp_get_runtime_absolute_position(1);
                                 		.LINE  "C:\Workspace\e2studio\git\MT01_master\src\states\ut_state_move.c",213
00000394 05rrrrrr             A  		BSR _mp_get_runtime_absolute_position
00000398 A081                    		MOV.L R1, 08H[R0]
0000039A                         L95:	; bb197.split17
0000039A 6621                    		MOV.L #00000002H, R1
                                 ;     214 	z = mp_get_runtime_absolute_position(2);
                                 		.LINE  "C:\Workspace\e2studio\git\MT01_master\src\states\ut_state_move.c",214
0000039C 05rrrrrr             A  		BSR _mp_get_runtime_absolute_position
000003A0 A089                    		MOV.L R1, 0CH[R0]
000003A2                         L96:	; bb197.split18
                                 ;     215 
                                 ;     216 	sprintf(textXStr, "%4.2f mm", x);
                                 		.LINE  "C:\Workspace\e2studio\git\MT01_master\src\states\ut_state_move.c",216
000003A2 A809                    		MOV.L 04H[R0], R1
000003A4 6080                    		SUB #08H, R0
000003A6 A009                    		MOV.L R1, 04H[R0]
000003A8 FBE2rrrrrrrr            		MOV.L #_L20, R14
000003AE E30E                    		MOV.L R14, [R0]
000003B0 FB12rrrrrrrr            		MOV.L #_textXStr, R1
000003B6 05rrrrrr             A  		BSR _sprintf
000003BA 6280                    		ADD #08H, R0
000003BC                         L97:	; bb197.split19
                                 ;     217 	sprintf(textYStr, "%4.2f mm", y);
                                 		.LINE  "C:\Workspace\e2studio\git\MT01_master\src\states\ut_state_move.c",217
000003BC A881                    		MOV.L 08H[R0], R1
000003BE 6080                    		SUB #08H, R0
000003C0 A009                    		MOV.L R1, 04H[R0]
000003C2 FBE2rrrrrrrr            		MOV.L #_L20, R14
000003C8 E30E                    		MOV.L R14, [R0]
000003CA FB12rrrrrrrr            		MOV.L #_textYStr, R1
000003D0 05rrrrrr             A  		BSR _sprintf
000003D4 6280                    		ADD #08H, R0
000003D6                         L98:	; bb197.split20
                                 ;     218 	sprintf(textZStr, "%4.2f mm", z);
                                 		.LINE  "C:\Workspace\e2studio\git\MT01_master\src\states\ut_state_move.c",218
000003D6 A889                    		MOV.L 0CH[R0], R1
000003D8 6080                    		SUB #08H, R0
000003DA A009                    		MOV.L R1, 04H[R0]
000003DC FBE2rrrrrrrr            		MOV.L #_L20, R14
000003E2 E30E                    		MOV.L R14, [R0]
000003E4 FB12rrrrrrrr            		MOV.L #_textZStr, R1
000003EA 05rrrrrr             A  		BSR _sprintf
000003EE 6280                    		ADD #08H, R0
000003F0                         L99:	; bb197.split21
                                 ;     219 
                                 ;     220 	if(cm.machine_state == MACHINE_PROGRAM_END && !programEnd && (menu == AUTO || menu == SIM))
                                 		.LINE  "C:\Workspace\e2studio\git\MT01_master\src\states\ut_state_move.c",220
000003F0 FBE2rrrrrrrr            		MOV.L #_cm, R14
000003F6 5AEE1D02                		MOVU.B 021DH[R14], R14
000003FA 614E                    		CMP #04H, R14
000003FC 3Arrrr               W  		BEQ L118
000003FF 38rrrr               W  		BRA L123
00000402                         L100:	; bb208
                                 ;     221 	{
                                 ;     222 		xTimerStop( swTimers[AUTO_MENU_TIMER], 0 );
                                 		.LINE  "C:\Workspace\e2studio\git\MT01_master\src\states\ut_state_move.c",222
00000402 FB12rrrrrrrr            		MOV.L #_swTimers, R1
00000408 AA11                    		MOV.L 20H[R1], R1
0000040A 6040                    		SUB #04H, R0
0000040C F80600                  		MOV.L #00000000H, [R0]
0000040F 6603                    		MOV.L #00000000H, R3
00000411 6632                    		MOV.L #00000003H, R2
00000413 EF34                    		MOV.L R3, R4
00000415 05rrrrrr             A  		BSR _xTimerGenericCommand
00000419 6240                    		ADD #04H, R0
0000041B                         L101:	; bb208.split
                                 ;     223 		ut_lcd_output_warning("CORTE AUTOM햀ICO\nFINALIZADO\nPRESSIONE ESC\n");
                                 		.LINE  "C:\Workspace\e2studio\git\MT01_master\src\states\ut_state_move.c",223
0000041B FB12rrrrrrrr            		MOV.L #_L21, R1
00000421 05rrrrrr             A  		BSR _ut_lcd_output_warning
00000425                         L102:	; bb208.split22
                                 ;     224 		/* Delay */
                                 ;     225 	//	vTaskDelay(2000 / portTICK_PERIOD_MS);
                                 ;     226 		currentLine = 0;
                                 		.LINE  "C:\Workspace\e2studio\git\MT01_master\src\states\ut_state_move.c",226
00000425 FBE2rrrrrrrr            		MOV.L #_currentLine, R14
0000042B F8E600                  		MOV.L #00000000H, [R14]
0000042E                         L103:	; bb208.split23
                                 ;     227 		intepreterRunning = false;
                                 		.LINE  "C:\Workspace\e2studio\git\MT01_master\src\states\ut_state_move.c",227
0000042E FBE2rrrrrrrr            		MOV.L #_intepreterRunning, R14
00000434 F8E400                  		MOV.B #00H, [R14]
00000437                         L104:	; bb208.split24
                                 ;     228 		programEnd = true;
                                 		.LINE  "C:\Workspace\e2studio\git\MT01_master\src\states\ut_state_move.c",228
00000437 FBE2rrrrrrrr            		MOV.L #_programEnd, R14
0000043D F8E401                  		MOV.B #01H, [R14]
00000440 670D                    		RTSD #34H
00000442                         L105:	; bb212
                                 ;     229 	}
                                 ;     230 	else
                                 ;     231 	{
                                 ;     232 		if(menu == MANUAL)
                                 		.LINE  "C:\Workspace\e2studio\git\MT01_master\src\states\ut_state_move.c",232
00000442 590133                  		MOVU.B 33H[R0], R1
00000445 6101                    		CMP #00H, R1
00000447 21rr                    		BNE L107
00000449                         L106:	; bb213
                                 ;     233 		{
                                 ;     234 			ut_lcd_output_manual_mode(TORCH,
                                 		.LINE  "C:\Workspace\e2studio\git\MT01_master\src\states\ut_state_move.c",234
00000449 FBEE22C008              		MOV.L #0008C022H, R14
0000044E 58EE                    		MOVU.B [R14], R14
00000450 6040                    		SUB #04H, R0
00000452 FBF2rrrrrrrr            		MOV.L #_textZStr, R15
00000458 E30F                    		MOV.L R15, [R0]
0000045A 683E                    		SHLR #03H, R14
0000045C 7C0E                    		BTST #00H, R14
0000045E FCDB11                  		SCNE.L R1
00000461 FB42rrrrrrrr            		MOV.L #_textYStr, R4
00000467 FB32rrrrrrrr            		MOV.L #_textXStr, R3
0000046D 710218                  		ADD #18H, R0, R2
00000470 05rrrrrr             A  		BSR _ut_lcd_output_manual_mode
00000474 6240                    		ADD #04H, R0
00000476 670D                    		RTSD #34H
00000478                         L107:	; bb223
                                 ;     235 					lStr,
                                 ;     236 					(const char *)textXStr,
                                 ;     237 					(const char *)textYStr,
                                 ;     238 					(const char *)textZStr);
                                 ;     239 		}
                                 ;     240 		else
                                 ;     241 		{
                                 ;     242 			if((configFlags[MODOMAQUINA] == MODO_OXICORTE) || sim || menu == DESLOCA){
                                 		.LINE  "C:\Workspace\e2studio\git\MT01_master\src\states\ut_state_move.c",242
00000478 FBE2rrrrrrrr            		MOV.L #_configFlags, R14
0000047E ECEE                    		MOV.L [R14], R14
00000480 611E                    		CMP #01H, R14
00000482 20rr                    		BEQ L111
00000484 2Err                 B  		BRA L110
00000486                         L108:	; bb224
                                 ;     243 				ut_lcd_output_mov_mode(TORCH,
                                 		.LINE  "C:\Workspace\e2studio\git\MT01_master\src\states\ut_state_move.c",243
00000486 FBEE22C008              		MOV.L #0008C022H, R14
0000048B 58EE                    		MOVU.B [R14], R14
0000048D 6040                    		SUB #04H, R0
0000048F FBF2rrrrrrrr            		MOV.L #_textZStr, R15
00000495 E30F                    		MOV.L R15, [R0]
00000497 683E                    		SHLR #03H, R14
00000499 7C0E                    		BTST #00H, R14
0000049B FCDB11                  		SCNE.L R1
0000049E FB42rrrrrrrr            		MOV.L #_textYStr, R4
000004A4 FB32rrrrrrrr            		MOV.L #_textXStr, R3
000004AA 710218                  		ADD #18H, R0, R2
000004AD 05rrrrrr             A  		BSR _ut_lcd_output_mov_mode
000004B1 6240                    		ADD #04H, R0
000004B3 670D                    		RTSD #34H
000004B5                         L109:	; bb233
                                 ;     244 						lStr,
                                 ;     245 						(const char *)textXStr,
                                 ;     246 						(const char *)textYStr,
                                 ;     247 						(const char *)textZStr);
                                 ;     248 			}
                                 ;     249 			else{
                                 ;     250 				ut_lcd_output_plasma_mode(TORCH,
                                 		.LINE  "C:\Workspace\e2studio\git\MT01_master\src\states\ut_state_move.c",250
000004B5 FBEE22C008              		MOV.L #0008C022H, R14
000004BA 58EE                    		MOVU.B [R14], R14
000004BC 6040                    		SUB #04H, R0
000004BE FBF2rrrrrrrr            		MOV.L #_textZStr, R15
000004C4 E30F                    		MOV.L R15, [R0]
000004C6 683E                    		SHLR #03H, R14
000004C8 7C0E                    		BTST #00H, R14
000004CA FCDB11                  		SCNE.L R1
000004CD FB42rrrrrrrr            		MOV.L #_textYStr, R4
000004D3 FB32rrrrrrrr            		MOV.L #_textXStr, R3
000004D9 710218                  		ADD #18H, R0, R2
000004DC 05rrrrrr             A  		BSR _ut_lcd_output_plasma_mode
000004E0 6240                    		ADD #04H, R0
000004E2 670D                    		RTSD #34H
000004E4                         L110:	; bb245
000004E4 FBE2rrrrrrrr            		MOV.L #_sim, R14
000004EA 58EE                    		MOVU.B [R14], R14
000004EC 610E                    		CMP #00H, R14
000004EE 10                   S  		BEQ L112
000004EF                         L111:	; bb250
000004EF F80601                  		MOV.L #00000001H, [R0]
000004F2 08                   S  		BRA L113
000004F3                         L112:	; bb251
000004F3 F80600                  		MOV.L #00000000H, [R0]
000004F6                         L113:	; bb252
000004F6 EC01                    		MOV.L [R0], R1
000004F8 6101                    		CMP #00H, R1
000004FA 18                   S  		BNE L115
000004FB                         L114:	; bb256
000004FB 590133                  		MOVU.B 33H[R0], R1
000004FE 6121                    		CMP #02H, R1
00000500 18                   S  		BNE L116
00000501                         L115:	; bb261
00000501 F80601                  		MOV.L #00000001H, [R0]
00000504 08                   S  		BRA L117
00000505                         L116:	; bb262
00000505 F80600                  		MOV.L #00000000H, [R0]
00000508                         L117:	; bb263
00000508 EC01                    		MOV.L [R0], R1
0000050A 6101                    		CMP #00H, R1
0000050C 3Brrrr               W  		BNE L108
0000050F 2Err                 B  		BRA L109
00000511                         L118:	; bb279
00000511 FBE2rrrrrrrr            		MOV.L #_programEnd, R14
00000517 58EE                    		MOVU.B [R14], R14
00000519 610E                    		CMP #00H, R14
0000051B 10                   S  		BEQ L120
0000051C                         L119:	; bb284
0000051C F80600                  		MOV.L #00000000H, [R0]
0000051F 08                   S  		BRA L121
00000520                         L120:	; bb285
00000520 F80601                  		MOV.L #00000001H, [R0]
00000523                         L121:	; bb286
00000523 EC01                    		MOV.L [R0], R1
00000525 6101                    		CMP #00H, R1
00000527 10                   S  		BEQ L123
00000528                         L122:	; bb289
00000528 F80601                  		MOV.L #00000001H, [R0]
0000052B 08                   S  		BRA L124
0000052C                         L123:	; bb290
0000052C F80600                  		MOV.L #00000000H, [R0]
0000052F                         L124:	; bb291
0000052F EC01                    		MOV.L [R0], R1
00000531 6101                    		CMP #00H, R1
00000533 20rr                    		BEQ L131
00000535                         L125:	; bb295
00000535 590133                  		MOVU.B 33H[R0], R1
00000538 6111                    		CMP #01H, R1
0000053A 10                   S  		BEQ L127
0000053B                         L126:	; bb300
0000053B 590133                  		MOVU.B 33H[R0], R1
0000053E 6131                    		CMP #03H, R1
00000540 18                   S  		BNE L128
00000541                         L127:	; bb305
00000541 F80601                  		MOV.L #00000001H, [R0]
00000544 08                   S  		BRA L129
00000545                         L128:	; bb306
00000545 F80600                  		MOV.L #00000000H, [R0]
00000548                         L129:	; bb307
00000548 EC01                    		MOV.L [R0], R1
0000054A 6101                    		CMP #00H, R1
0000054C 10                   S  		BEQ L131
0000054D                         L130:	; bb311
0000054D F80601                  		MOV.L #00000001H, [R0]
00000550 08                   S  		BRA L132
00000551                         L131:	; bb312
00000551 F80600                  		MOV.L #00000000H, [R0]
00000554                         L132:	; bb313
00000554 EC01                    		MOV.L [R0], R1
00000556 6101                    		CMP #00H, R1
00000558 3Brrrr               W  		BNE L100
0000055B 38rrrr               W  		BRA L105
0000055E                         _ut_state_manual_mode:
                                 		.STACK	_ut_state_manual_mode=32
                                 ;     251 						lStr,
                                 ;     252 						(const char *)textXStr,
                                 ;     253 						(const char *)textYStr,
                                 ;     254 						(const char *)textZStr);
                                 ;     255 			}
                                 ;     256 		}
                                 ;     257 	}
                                 ;     258 }
                                 ;     259 
                                 ;     260 /**
                                 ;     261  * Put machine into manual mode state.
                                 ;     262  *
                                 ;     263  *
                                 ;     264  * @param pContext Context object
                                 ;     265  * @return Main menu state
                                 ;     266  */
                                 ;     267 ut_state ut_state_manual_mode(ut_context* pContext)
                                 		.LINE  "C:\Workspace\e2studio\git\MT01_master\src\states\ut_state_move.c",267
0000055E 7EA6                    		PUSH.L R6
00000560 7100EC                  		ADD #0FFFFFFECH, R0
00000563 A101                    		MOV.L R1, 10H[R0]
                                 ;     268 {
                                 ;     269 	static uint32_t keyEntry_buffer;
                                 ;     270 	uint32_t keyEntry;
                                 ;     271 	restart_stepper();
                                 		.LINE  "C:\Workspace\e2studio\git\MT01_master\src\states\ut_state_move.c",271
00000565 05rrrrrr             A  		BSR _restart_stepper
00000569                         L134:	; entry.split
00000569 6601                    		MOV.L #00000000H, R1
                                 ;     272 	/* Clear display */
                                 ;     273 	updatePosition(MANUAL);
                                 		.LINE  "C:\Workspace\e2studio\git\MT01_master\src\states\ut_state_move.c",273
0000056B 39rrrr               W  		BSR __$updatePosition
0000056E                         L135:	; entry.split1
                                 ;     274 	gTitle = MANUAL;
                                 		.LINE  "C:\Workspace\e2studio\git\MT01_master\src\states\ut_state_move.c",274
0000056E FBE2rrrrrrrr            		MOV.L #_gTitle, R14
00000574 F8E400                  		MOV.B #00H, [R14]
00000577                         L136:	; entry.split2
                                 ;     275 //	tg_set_primary_source(XIO_DEV_COMMAND);
                                 ;     276 	iif_bind_jog();
                                 		.LINE  "C:\Workspace\e2studio\git\MT01_master\src\states\ut_state_move.c",276
00000577 05rrrrrr             A  		BSR _iif_bind_jog
0000057B                         L137:	; entry.split3
                                 ;     277 	if(swTimers[AUTO_MENU_TIMER] == NULL)
                                 		.LINE  "C:\Workspace\e2studio\git\MT01_master\src\states\ut_state_move.c",277
0000057B FB12rrrrrrrr            		MOV.L #_swTimers, R1
00000581 AA11                    		MOV.L 20H[R1], R1
00000583 6101                    		CMP #00H, R1
00000585 21rr                    		BNE L139
00000587                         L138:	; bb3
00000587 6040                    		SUB #04H, R0
                                 ;     278 	{
                                 ;     279 	swTimers[AUTO_MENU_TIMER] = xTimerCreate
                                 		.LINE  "C:\Workspace\e2studio\git\MT01_master\src\states\ut_state_move.c",279
00000589 FBE2rrrrrrrr            		MOV.L #__$vTimerUpdateCallback, R14
0000058F E30E                    		MOV.L R14, [R0]
00000591 6684                    		MOV.L #00000008H, R4
00000593 6613                    		MOV.L #00000001H, R3
00000595 7542C8                  		MOV.L #000000C8H, R2
00000598 FB12rrrrrrrr            		MOV.L #_L22, R1
0000059E 05rrrrrr             A  		BSR _xTimerCreate
000005A2 6240                    		ADD #04H, R0
000005A4 FB22rrrrrrrr            		MOV.L #_swTimers, R2
000005AA A221                    		MOV.L R1, 20H[R2]
000005AC                         L139:	; bb8
                                 ;     280 				   (  /* Just a text name, not used by the RTOS kernel. */
                                 ;     281 					 "Timer Update",
                                 ;     282 					 /* The timer period in ticks, must be greater than 0. */
                                 ;     283 					 ( 200 ),
                                 ;     284 					 /* The timers will auto-reload themselves when they
                                 ;     285 					 expire. */
                                 ;     286 					 pdTRUE,
                                 ;     287 					 /* Assign each timer a unique id equal to its array
                                 ;     288 					 index. */
                                 ;     289 					 ( void * ) AUTO_MENU_TIMER,
                                 ;     290 					 /* Each timer calls the same callback when it expires. */
                                 ;     291 					 vTimerUpdateCallback
                                 ;     292 				   );
                                 ;     293 	}
                                 ;     294 	xTimerStart( swTimers[AUTO_MENU_TIMER], 0 );
                                 		.LINE  "C:\Workspace\e2studio\git\MT01_master\src\states\ut_state_move.c",294
000005AC FB12rrrrrrrr            		MOV.L #_swTimers, R1
000005B2 AA16                    		MOV.L 20H[R1], R6
000005B4 05rrrrrr             A  		BSR _xTaskGetTickCount
000005B8 EF13                    		MOV.L R1, R3
000005BA 6040                    		SUB #04H, R0
000005BC F80600                  		MOV.L #00000000H, [R0]
000005BF 6604                    		MOV.L #00000000H, R4
000005C1 6612                    		MOV.L #00000001H, R2
000005C3 EF61                    		MOV.L R6, R1
000005C5 05rrrrrr             A  		BSR _xTimerGenericCommand
000005C9 6240                    		ADD #04H, R0
000005CB                         L140:	; bb8.split
                                 ;     295 	macro_func_ptr = command_idle;
                                 		.LINE  "C:\Workspace\e2studio\git\MT01_master\src\states\ut_state_move.c",295
000005CB FBE2rrrrrrrr            		MOV.L #_macro_func_ptr, R14
000005D1 FBF2rrrrrrrr            		MOV.L #_command_idle, R15
000005D7 E3EF                    		MOV.L R15, [R14]
000005D9                         L141:	; bb8.split4
                                 ;     296 	xTaskNotifyGive(xCncTaskHandle);
                                 		.LINE  "C:\Workspace\e2studio\git\MT01_master\src\states\ut_state_move.c",296
000005D9 FBE2rrrrrrrr            		MOV.L #_xCncTaskHandle, R14
000005DF ECE1                    		MOV.L [R14], R1
000005E1 6623                    		MOV.L #00000002H, R3
000005E3 6602                    		MOV.L #00000000H, R2
000005E5 EF24                    		MOV.L R2, R4
000005E7 05rrrrrr             A  		BSR _xTaskGenericNotify
000005EB                         L142:	; bb8.split5
                                 ;     297 	intepreterRunning = true;
                                 		.LINE  "C:\Workspace\e2studio\git\MT01_master\src\states\ut_state_move.c",297
000005EB FBE2rrrrrrrr            		MOV.L #_intepreterRunning, R14
000005F1 F8E401                  		MOV.B #01H, [R14]
000005F4 38rrrr               W  		BRA L182
000005F7                         L143:	; bb20
                                 ;     298 
                                 ;     299 	while(true)
                                 ;     300 	{
                                 ;     301 		/* Wait for user interaction */
                                 ;     302 		keyEntry = 0;
                                 ;     303 		xQueueReceive( qKeyboard, &keyEntry, DEFAULT_UPDATE_TIMEOUT);
                                 ;     304 		JogkeyPressed = keyEntry;
                                 ;     305 		if ((keyEntry & KEY_DOWN) == KEY_DOWN)
                                 ;     306 		{
                                 ;     307 			iif_func_down();
                                 		.LINE  "C:\Workspace\e2studio\git\MT01_master\src\states\ut_state_move.c",307
000005F7 FBE2rrrrrrrr            		MOV.L #_iif_func_down, R14
000005FD ECEE                    		MOV.L [R14], R14
000005FF 7F1E                    		JSR R14
00000601                         L144:	; bb28
                                 ;     308 		}
                                 ;     309 		if ((keyEntry & KEY_UP) == KEY_UP)
                                 		.LINE  "C:\Workspace\e2studio\git\MT01_master\src\states\ut_state_move.c",309
00000601 A881                    		MOV.L 08H[R0], R1
00000603 76210001                		AND #0100H, R1
00000607 76010001                		CMP #0100H, R1
0000060B 21rr                    		BNE L146
0000060D                         L145:	; bb29
                                 ;     310 		{
                                 ;     311 			iif_func_up();
                                 		.LINE  "C:\Workspace\e2studio\git\MT01_master\src\states\ut_state_move.c",311
0000060D FBE2rrrrrrrr            		MOV.L #_iif_func_up, R14
00000613 ECEE                    		MOV.L [R14], R14
00000615 7F1E                    		JSR R14
00000617                         L146:	; bb37
                                 ;     312 		}
                                 ;     313 		if ((keyEntry & KEY_RIGHT) == KEY_RIGHT)
                                 		.LINE  "C:\Workspace\e2studio\git\MT01_master\src\states\ut_state_move.c",313
00000617 A881                    		MOV.L 08H[R0], R1
00000619 76210002                		AND #0200H, R1
0000061D 76010002                		CMP #0200H, R1
00000621 21rr                    		BNE L148
00000623                         L147:	; bb38
                                 ;     314 		{
                                 ;     315 			iif_func_right();
                                 		.LINE  "C:\Workspace\e2studio\git\MT01_master\src\states\ut_state_move.c",315
00000623 FBE2rrrrrrrr            		MOV.L #_iif_func_right, R14
00000629 ECEE                    		MOV.L [R14], R14
0000062B 7F1E                    		JSR R14
0000062D                         L148:	; bb46
                                 ;     316 		}
                                 ;     317 		if ((keyEntry & KEY_LEFT) == KEY_LEFT)
                                 		.LINE  "C:\Workspace\e2studio\git\MT01_master\src\states\ut_state_move.c",317
0000062D A881                    		MOV.L 08H[R0], R1
0000062F 752120                  		AND #20H, R1
00000632 755120                  		CMP #20H, R1
00000635 21rr                    		BNE L150
00000637                         L149:	; bb47
                                 ;     318 		{
                                 ;     319 			iif_func_left();
                                 		.LINE  "C:\Workspace\e2studio\git\MT01_master\src\states\ut_state_move.c",319
00000637 FBE2rrrrrrrr            		MOV.L #_iif_func_left, R14
0000063D ECEE                    		MOV.L [R14], R14
0000063F 7F1E                    		JSR R14
00000641                         L150:	; bb55
                                 ;     320 		}
                                 ;     321 		if ((keyEntry & KEY_Z_UP) == KEY_Z_UP)
                                 		.LINE  "C:\Workspace\e2studio\git\MT01_master\src\states\ut_state_move.c",321
00000641 A881                    		MOV.L 08H[R0], R1
00000643 752110                  		AND #10H, R1
00000646 755110                  		CMP #10H, R1
00000649 21rr                    		BNE L152
0000064B                         L151:	; bb56
                                 ;     322 		{
                                 ;     323 			iif_func_zup();
                                 		.LINE  "C:\Workspace\e2studio\git\MT01_master\src\states\ut_state_move.c",323
0000064B FBE2rrrrrrrr            		MOV.L #_iif_func_zup, R14
00000651 ECEE                    		MOV.L [R14], R14
00000653 7F1E                    		JSR R14
00000655                         L152:	; bb64
                                 ;     324 		}
                                 ;     325 		if ((keyEntry & KEY_Z_DOWN) == KEY_Z_DOWN)
                                 		.LINE  "C:\Workspace\e2studio\git\MT01_master\src\states\ut_state_move.c",325
00000655 A881                    		MOV.L 08H[R0], R1
00000657 752140                  		AND #40H, R1
0000065A 755140                  		CMP #40H, R1
0000065D 21rr                    		BNE L154
0000065F                         L153:	; bb65
                                 ;     326 		{
                                 ;     327 			iif_func_zdown();
                                 		.LINE  "C:\Workspace\e2studio\git\MT01_master\src\states\ut_state_move.c",327
0000065F FBE2rrrrrrrr            		MOV.L #_iif_func_zdown, R14
00000665 ECEE                    		MOV.L [R14], R14
00000667 7F1E                    		JSR R14
00000669                         L154:	; bb73
                                 ;     328 		}
                                 ;     329 		if ((keyEntry_buffer & KEY_Z_UP) == KEY_Z_UP && (keyEntry & KEY_Z_UP) != KEY_Z_UP)
                                 		.LINE  "C:\Workspace\e2studio\git\MT01_master\src\states\ut_state_move.c",329
00000669 FBE2rrrrrrrr            		MOV.L #__$keyEntry_buffer$1, R14
0000066F ECEE                    		MOV.L [R14], R14
00000671 752E10                  		AND #10H, R14
00000674 755E10                  		CMP #10H, R14
00000677 20rr                    		BEQ L156
00000679 2Err                 B  		BRA L158
0000067B                         L155:	; bb74
                                 ;     330 		{
                                 ;     331 			zmove = 0;
                                 		.LINE  "C:\Workspace\e2studio\git\MT01_master\src\states\ut_state_move.c",331
0000067B FBE2rrrrrrrr            		MOV.L #_zmove, R14
00000681 F8E600                  		MOV.L #00000000H, [R14]
00000684 2Err                 B  		BRA L160
00000686                         L156:	; bb79
00000686 A881                    		MOV.L 08H[R0], R1
00000688 752110                  		AND #10H, R1
0000068B 755110                  		CMP #10H, R1
0000068E 10                   S  		BEQ L158
0000068F                         L157:	; bb84
0000068F F80601                  		MOV.L #00000001H, [R0]
00000692 08                   S  		BRA L159
00000693                         L158:	; bb85
00000693 F80600                  		MOV.L #00000000H, [R0]
00000696                         L159:	; bb86
00000696 EC01                    		MOV.L [R0], R1
00000698 6101                    		CMP #00H, R1
0000069A 21rr                    		BNE L155
0000069C                         L160:	; bb92
                                 ;     332 		}
                                 ;     333 
                                 ;     334 		if ((keyEntry_buffer & KEY_Z_DOWN) == KEY_Z_DOWN && (keyEntry & KEY_Z_DOWN) != KEY_Z_DOWN)
                                 		.LINE  "C:\Workspace\e2studio\git\MT01_master\src\states\ut_state_move.c",334
0000069C FBE2rrrrrrrr            		MOV.L #__$keyEntry_buffer$1, R14
000006A2 ECEE                    		MOV.L [R14], R14
000006A4 752E40                  		AND #40H, R14
000006A7 755E40                  		CMP #40H, R14
000006AA 20rr                    		BEQ L162
000006AC 2Err                 B  		BRA L164
000006AE                         L161:	; bb93
                                 ;     335 		{
                                 ;     336 			zmove = 0;
                                 		.LINE  "C:\Workspace\e2studio\git\MT01_master\src\states\ut_state_move.c",336
000006AE FBE2rrrrrrrr            		MOV.L #_zmove, R14
000006B4 F8E600                  		MOV.L #00000000H, [R14]
000006B7 2Err                 B  		BRA L166
000006B9                         L162:	; bb98
000006B9 A881                    		MOV.L 08H[R0], R1
000006BB 752140                  		AND #40H, R1
000006BE 755140                  		CMP #40H, R1
000006C1 10                   S  		BEQ L164
000006C2                         L163:	; bb103
000006C2 F80601                  		MOV.L #00000001H, [R0]
000006C5 08                   S  		BRA L165
000006C6                         L164:	; bb104
000006C6 F80600                  		MOV.L #00000000H, [R0]
000006C9                         L165:	; bb105
000006C9 EC01                    		MOV.L [R0], R1
000006CB 6101                    		CMP #00H, R1
000006CD 21rr                    		BNE L161
000006CF                         L166:	; bb110
                                 ;     337 		}
                                 ;     338 
                                 ;     339 
                                 ;     340 		keyEntry_buffer = keyEntry;
                                 		.LINE  "C:\Workspace\e2studio\git\MT01_master\src\states\ut_state_move.c",340
000006CF FBE2rrrrrrrr            		MOV.L #__$keyEntry_buffer$1, R14
000006D5 E10E02                  		MOV.L 08H[R0], [R14]
000006D8                         L167:	; bb110.split
                                 ;     341 		/* Check which key */
                                 ;     342 		switch (keyEntry)
                                 		.LINE  "C:\Workspace\e2studio\git\MT01_master\src\states\ut_state_move.c",342
000006D8 A881                    		MOV.L 08H[R0], R1
000006DA 74010000AAAA            		CMP #0AAAA0000H, R1
000006E0 20rr                    		BEQ L178
000006E2                         L168:	; bb110.split
000006E2 6101                    		CMP #00H, R1
000006E4 20rr                    		BEQ L177
000006E6                         L169:	; bb110.split
000006E6 6141                    		CMP #04H, R1
000006E8 20rr                    		BEQ L176
000006EA                         L170:	; bb110.split
000006EA 6111                    		CMP #01H, R1
000006EC 3Brrrr               W  		BNE L182
000006EF                         L171:	; bb113
                                 ;     343 		{
                                 ;     344 		case KEY_ESC:
                                 ;     345 			xTimerStop( swTimers[AUTO_MENU_TIMER], 0 );
                                 		.LINE  "C:\Workspace\e2studio\git\MT01_master\src\states\ut_state_move.c",345
000006EF FB12rrrrrrrr            		MOV.L #_swTimers, R1
000006F5 AA11                    		MOV.L 20H[R1], R1
000006F7 6040                    		SUB #04H, R0
000006F9 F80600                  		MOV.L #00000000H, [R0]
000006FC 6603                    		MOV.L #00000000H, R3
000006FE 6632                    		MOV.L #00000003H, R2
00000700 EF34                    		MOV.L R3, R4
00000702 05rrrrrr             A  		BSR _xTimerGenericCommand
00000706 6240                    		ADD #04H, R0
00000708                         L172:	; bb113.split
                                 ;     346 			iif_func_esc();
                                 		.LINE  "C:\Workspace\e2studio\git\MT01_master\src\states\ut_state_move.c",346
00000708 FBE2rrrrrrrr            		MOV.L #_iif_func_esc, R14
0000070E ECEE                    		MOV.L [R14], R14
00000710 7F1E                    		JSR R14
00000712                         L173:	; bb113.split6
                                 ;     347 			intepreterRunning = false;
                                 		.LINE  "C:\Workspace\e2studio\git\MT01_master\src\states\ut_state_move.c",347
00000712 FBE2rrrrrrrr            		MOV.L #_intepreterRunning, R14
00000718 F8E400                  		MOV.B #00H, [R14]
0000071B                         L174:	; bb113.split7
                                 ;     348 			return STATE_CONFIG_MANUAL_MODE;
                                 		.LINE  "C:\Workspace\e2studio\git\MT01_master\src\states\ut_state_move.c",348
0000071B 3E0106                  		MOV.L #00000006H, 04H[R0]
0000071E 3E0306                  		MOV.L #00000006H, 0CH[R0]
00000721 6661                    		MOV.L #00000006H, R1
00000723                         L175:	; bb113.split8
                                 ;     349 
                                 ;     350 		case KEY_ENTER:
                                 ;     351 			iif_func_enter();
                                 ;     352 			break;
                                 ;     353 
                                 ;     354 		case KEY_RELEASED:
                                 ;     355 			iif_func_released();
                                 ;     356 			break;
                                 ;     357 
                                 ;     358 		case EMERGENCIA_SIGNAL:
                                 ;     359 			cm_request_feedhold();
                                 ;     360 			cm_request_queue_flush();
                                 ;     361 			while(cm.queue_flush_requested == true)
                                 ;     362 			{
                                 ;     363 
                                 ;     364 			}
                                 ;     365 			xTimerStart( swTimers[AUTO_MENU_TIMER], 0 );
                                 ;     366 			break;
                                 ;     367 
                                 ;     368 		/* TODO: operate machine - with other keys */
                                 ;     369 		default:
                                 ;     370 
                                 ;     371 			break;
                                 ;     372 		}
                                 ;     373 	}
                                 ;     374 
                                 ;     375 	return STATE_MAIN_MENU;
                                 ;     376 }
                                 		.LINE  "C:\Workspace\e2studio\git\MT01_master\src\states\ut_state_move.c",376
00000723 3F6606                  		RTSD #18H, R6-R6
00000726                         L176:	; bb118
                                 		.LINE  "C:\Workspace\e2studio\git\MT01_master\src\states\ut_state_move.c",351
00000726 FBE2rrrrrrrr            		MOV.L #_iif_func_enter, R14
0000072C ECEE                    		MOV.L [R14], R14
0000072E 7F1E                    		JSR R14
00000730 2Err                 B  		BRA L182
00000732                         L177:	; bb120
                                 		.LINE  "C:\Workspace\e2studio\git\MT01_master\src\states\ut_state_move.c",355
00000732 FBE2rrrrrrrr            		MOV.L #_iif_func_released, R14
00000738 ECEE                    		MOV.L [R14], R14
0000073A 7F1E                    		JSR R14
0000073C 2Err                 B  		BRA L182
0000073E                         L178:	; bb122
                                 		.LINE  "C:\Workspace\e2studio\git\MT01_master\src\states\ut_state_move.c",359
0000073E 05rrrrrr             A  		BSR _cm_request_feedhold
00000742                         L179:	; bb122.split
                                 		.LINE  "C:\Workspace\e2studio\git\MT01_master\src\states\ut_state_move.c",360
00000742 05rrrrrr             A  		BSR _cm_request_queue_flush
00000746                         L180:	; bb124
                                 		.LINE  "C:\Workspace\e2studio\git\MT01_master\src\states\ut_state_move.c",361
00000746 FBE2rrrrrrrr            		MOV.L #_cm, R14
0000074C 5AEE4802                		MOVU.B 0248H[R14], R14
00000750 611E                    		CMP #01H, R14
00000752 20rr                    		BEQ L180
00000754                         L181:	; bb130
                                 		.LINE  "C:\Workspace\e2studio\git\MT01_master\src\states\ut_state_move.c",365
00000754 FB12rrrrrrrr            		MOV.L #_swTimers, R1
0000075A AA16                    		MOV.L 20H[R1], R6
0000075C 05rrrrrr             A  		BSR _xTaskGetTickCount
00000760 EF13                    		MOV.L R1, R3
00000762 6040                    		SUB #04H, R0
00000764 F80600                  		MOV.L #00000000H, [R0]
00000767 6604                    		MOV.L #00000000H, R4
00000769 6612                    		MOV.L #00000001H, R2
0000076B EF61                    		MOV.L R6, R1
0000076D 05rrrrrr             A  		BSR _xTimerGenericCommand
00000771 6240                    		ADD #04H, R0
00000773                         L182:	; bb136.split
                                 		.LINE  "C:\Workspace\e2studio\git\MT01_master\src\states\ut_state_move.c",302
00000773 3E0200                  		MOV.L #00000000H, 08H[R0]
00000776                         L183:	; bb136.split9
                                 		.LINE  "C:\Workspace\e2studio\git\MT01_master\src\states\ut_state_move.c",303
00000776 FBE2rrrrrrrr            		MOV.L #_qKeyboard, R14
0000077C ECE1                    		MOV.L [R14], R1
0000077E 6604                    		MOV.L #00000000H, R4
00000780 FB36FF                  		MOV.L #0FFFFFFFFH, R3
00000783 710208                  		ADD #08H, R0, R2
00000786 05rrrrrr             A  		BSR _xQueueGenericReceive
0000078A                         L184:	; bb136.split10
                                 		.LINE  "C:\Workspace\e2studio\git\MT01_master\src\states\ut_state_move.c",304
0000078A FBE2rrrrrrrr            		MOV.L #_JogkeyPressed, R14
00000790 E10E02                  		MOV.L 08H[R0], [R14]
00000793                         L185:	; bb136.split11
                                 		.LINE  "C:\Workspace\e2studio\git\MT01_master\src\states\ut_state_move.c",305
00000793 A881                    		MOV.L 08H[R0], R1
00000795 76210004                		AND #0400H, R1
00000799 76010004                		CMP #0400H, R1
0000079D 3Arrrr               W  		BEQ L143
000007A0 38rrrr               W  		BRA L144
000007A3                         _ut_state_auto_mode:
                                 		.STACK	_ut_state_auto_mode=48
                                 ;     377 
                                 ;     378 /**
                                 ;     379  * Put machine into automatic mode.
                                 ;     380  *
                                 ;     381  * @param pContext Context object.
                                 ;     382  * @return Main menu state
                                 ;     383  */
                                 ;     384 ut_state ut_state_auto_mode(ut_context* pContext)
                                 		.LINE  "C:\Workspace\e2studio\git\MT01_master\src\states\ut_state_move.c",384
000007A3 7EA6                    		PUSH.L R6
000007A5 7100DC                  		ADD #0FFFFFFDCH, R0
000007A8 A201                    		MOV.L R1, 20H[R0]
                                 ;     385 {
                                 ;     386 	uint32_t keyEntry;
                                 ;     387 	uint32_t statePrevious = 0;
                                 		.LINE  "C:\Workspace\e2studio\git\MT01_master\src\states\ut_state_move.c",387
000007AA 3E0300                  		MOV.L #00000000H, 0CH[R0]
000007AD                         L187:	; entry.split
                                 ;     388 	ltorchBuffer = false;
                                 		.LINE  "C:\Workspace\e2studio\git\MT01_master\src\states\ut_state_move.c",388
000007AD FBE2rrrrrrrr            		MOV.L #__$ltorchBuffer, R14
000007B3 F8E400                  		MOV.B #00H, [R14]
000007B6                         L188:	; entry.split1
                                 ;     389 	uint32_t arco = 0;
                                 		.LINE  "C:\Workspace\e2studio\git\MT01_master\src\states\ut_state_move.c",389
000007B6 3E0400                  		MOV.L #00000000H, 10H[R0]
000007B9                         L189:	; entry.split2
                                 ;     390 //	stepper_init();
                                 ;     391 	restart_stepper();
                                 		.LINE  "C:\Workspace\e2studio\git\MT01_master\src\states\ut_state_move.c",391
000007B9 05rrrrrr             A  		BSR _restart_stepper
000007BD                         L190:	; entry.split3
000007BD 6651                    		MOV.L #00000005H, R1
                                 ;     392 	eepromReadConfig(CONFIGVAR_MAQ);
                                 		.LINE  "C:\Workspace\e2studio\git\MT01_master\src\states\ut_state_move.c",392
000007BF 05rrrrrr             A  		BSR _eepromReadConfig
000007C3                         L191:	; entry.split4
                                 ;     393 	if (configFlags[MODOMAQUINA] == MODO_PLASMA)
                                 		.LINE  "C:\Workspace\e2studio\git\MT01_master\src\states\ut_state_move.c",393
000007C3 FBE2rrrrrrrr            		MOV.L #_configFlags, R14
000007C9 ECEE                    		MOV.L [R14], R14
000007CB 610E                    		CMP #00H, R14
000007CD 18                   S  		BNE L193
000007CE                         L192:	; bb8
000007CE 6611                    		MOV.L #00000001H, R1
                                 ;     394 		eepromReadConfig(CONFIGVAR_PL);
                                 		.LINE  "C:\Workspace\e2studio\git\MT01_master\src\states\ut_state_move.c",394
000007D0 05rrrrrr             A  		BSR _eepromReadConfig
000007D4 08                   S  		BRA L194
000007D5                         L193:	; bb9
000007D5 6601                    		MOV.L #00000000H, R1
                                 ;     395 	else
                                 ;     396 		eepromReadConfig(CONFIGVAR_OX);
                                 		.LINE  "C:\Workspace\e2studio\git\MT01_master\src\states\ut_state_move.c",396
000007D7 05rrrrrr             A  		BSR _eepromReadConfig
000007DB                         L194:	; bb13
                                 ;     397 	lstop = false;
                                 		.LINE  "C:\Workspace\e2studio\git\MT01_master\src\states\ut_state_move.c",397
000007DB FBE2rrrrrrrr            		MOV.L #_lstop, R14
000007E1 F8E400                  		MOV.B #00H, [R14]
000007E4                         L195:	; bb13.split
                                 ;     398 	cm.gmx.feed_rate_override_enable = true;
                                 		.LINE  "C:\Workspace\e2studio\git\MT01_master\src\states\ut_state_move.c",398
000007E4 FBE2rrrrrrrr            		MOV.L #_cm, R14
000007EA FAE41C0301              		MOV.B #01H, 031CH[R14]
000007EF                         L196:	; bb13.split5
                                 ;     399 	cm.gmx.feed_rate_override_factor = 1;
                                 		.LINE  "C:\Workspace\e2studio\git\MT01_master\src\states\ut_state_move.c",399
000007EF FBE2rrrrrrrr            		MOV.L #_cm, R14
000007F5 F9E2C50000803F          		MOV.L #3F800000H, 0314H[R14]
000007FC                         L197:	; bb13.split6
                                 ;     400 	func_back = 0;
                                 		.LINE  "C:\Workspace\e2studio\git\MT01_master\src\states\ut_state_move.c",400
000007FC FBE2rrrrrrrr            		MOV.L #_func_back, R14
00000802 F8E400                  		MOV.B #00H, [R14]
00000805                         L198:	; bb13.split7
                                 ;     401 	programEnd = false;
                                 		.LINE  "C:\Workspace\e2studio\git\MT01_master\src\states\ut_state_move.c",401
00000805 FBE2rrrrrrrr            		MOV.L #_programEnd, R14
0000080B F8E400                  		MOV.B #00H, [R14]
0000080E                         L199:	; bb13.split8
0000080E 6601                    		MOV.L #00000000H, R1
                                 ;     402 	stopDuringCut_Set(false);
                                 		.LINE  "C:\Workspace\e2studio\git\MT01_master\src\states\ut_state_move.c",402
00000810 05rrrrrr             A  		BSR _stopDuringCut_Set
00000814                         L200:	; bb13.split9
                                 ;     403 	cm.machine_state = MACHINE_READY;
                                 		.LINE  "C:\Workspace\e2studio\git\MT01_master\src\states\ut_state_move.c",403
00000814 FBE2rrrrrrrr            		MOV.L #_cm, R14
0000081A FAE41D0201              		MOV.B #01H, 021DH[R14]
0000081F                         L201:	; bb13.split10
                                 ;     404 	/* Clear display */
                                 ;     405 	if(!sim){
                                 		.LINE  "C:\Workspace\e2studio\git\MT01_master\src\states\ut_state_move.c",405
0000081F FBE2rrrrrrrr            		MOV.L #_sim, R14
00000825 58EE                    		MOVU.B [R14], R14
00000827 610E                    		CMP #00H, R14
00000829 21rr                    		BNE L206
0000082B 2Err                 B  		BRA L207
0000082D                         L202:	; bb15
0000082D 6611                    		MOV.L #00000001H, R1
                                 ;     406 		updatePosition(AUTO);
                                 		.LINE  "C:\Workspace\e2studio\git\MT01_master\src\states\ut_state_move.c",406
0000082F 39rrrr               W  		BSR __$updatePosition
00000832                         L203:	; bb15.split
                                 ;     407 		gTitle = AUTO;
                                 		.LINE  "C:\Workspace\e2studio\git\MT01_master\src\states\ut_state_move.c",407
00000832 FBE2rrrrrrrr            		MOV.L #_gTitle, R14
00000838 F8E401                  		MOV.B #01H, [R14]
0000083B 2Err                 B  		BRA L209
0000083D                         L204:	; bb16
0000083D 6631                    		MOV.L #00000003H, R1
                                 ;     408 	}
                                 ;     409 	else{
                                 ;     410 		updatePosition(SIM);
                                 		.LINE  "C:\Workspace\e2studio\git\MT01_master\src\states\ut_state_move.c",410
0000083F 39rrrr               W  		BSR __$updatePosition
00000842                         L205:	; bb16.split
                                 ;     411 		gTitle = SIM;
                                 		.LINE  "C:\Workspace\e2studio\git\MT01_master\src\states\ut_state_move.c",411
00000842 FBE2rrrrrrrr            		MOV.L #_gTitle, R14
00000848 F8E403                  		MOV.B #03H, [R14]
0000084B 2Err                 B  		BRA L209
0000084D                         L206:	; bb21
0000084D F80600                  		MOV.L #00000000H, [R0]
00000850 08                   S  		BRA L208
00000851                         L207:	; bb22
00000851 F80601                  		MOV.L #00000001H, [R0]
00000854                         L208:	; bb23
00000854 EC01                    		MOV.L [R0], R1
00000856 6101                    		CMP #00H, R1
00000858 21rr                    		BNE L202
0000085A 2Err                 B  		BRA L204
0000085C                         L209:	; bb28
                                 ;     412 	}
                                 ;     413 
                                 ;     414 	if (swTimers[AUTO_MENU_TIMER] == NULL)
                                 		.LINE  "C:\Workspace\e2studio\git\MT01_master\src\states\ut_state_move.c",414
0000085C FB12rrrrrrrr            		MOV.L #_swTimers, R1
00000862 AA11                    		MOV.L 20H[R1], R1
00000864 6101                    		CMP #00H, R1
00000866 21rr                    		BNE L211
00000868                         L210:	; bb29
00000868 6040                    		SUB #04H, R0
                                 ;     415 	{
                                 ;     416 	swTimers[AUTO_MENU_TIMER] = xTimerCreate
                                 		.LINE  "C:\Workspace\e2studio\git\MT01_master\src\states\ut_state_move.c",416
0000086A FBE2rrrrrrrr            		MOV.L #__$vTimerUpdateCallback, R14
00000870 E30E                    		MOV.L R14, [R0]
00000872 6684                    		MOV.L #00000008H, R4
00000874 6613                    		MOV.L #00000001H, R3
00000876 7542C8                  		MOV.L #000000C8H, R2
00000879 FB12rrrrrrrr            		MOV.L #_L22, R1
0000087F 05rrrrrr             A  		BSR _xTimerCreate
00000883 6240                    		ADD #04H, R0
00000885 FB22rrrrrrrr            		MOV.L #_swTimers, R2
0000088B A221                    		MOV.L R1, 20H[R2]
0000088D                         L211:	; bb35
                                 ;     417 				   (  /* Just a text name, not used by the RTOS kernel. */
                                 ;     418 					 "Timer Update",
                                 ;     419 					 /* The timer period in ticks, must be greater than 0. */
                                 ;     420 					 ( 200 ),
                                 ;     421 					 /* The timers will auto-reload themselves when they
                                 ;     422 					 expire. */
                                 ;     423 					 pdTRUE,
                                 ;     424 					 /* Assign each timer a unique id equal to its array
                                 ;     425 					 index. */
                                 ;     426 					 ( void * ) AUTO_MENU_TIMER,
                                 ;     427 					 /* Each timer calls the same callback when it expires. */
                                 ;     428 					 vTimerUpdateCallback
                                 ;     429 				   );
                                 ;     430 	}
                                 ;     431 	xTimerStart( swTimers[AUTO_MENU_TIMER], 0 );
                                 		.LINE  "C:\Workspace\e2studio\git\MT01_master\src\states\ut_state_move.c",431
0000088D FB12rrrrrrrr            		MOV.L #_swTimers, R1
00000893 AA16                    		MOV.L 20H[R1], R6
00000895 05rrrrrr             A  		BSR _xTaskGetTickCount
00000899 EF13                    		MOV.L R1, R3
0000089B 6040                    		SUB #04H, R0
0000089D F80600                  		MOV.L #00000000H, [R0]
000008A0 6604                    		MOV.L #00000000H, R4
000008A2 6612                    		MOV.L #00000001H, R2
000008A4 EF61                    		MOV.L R6, R1
000008A6 05rrrrrr             A  		BSR _xTimerGenericCommand
000008AA 6240                    		ADD #04H, R0
000008AC                         L212:	; bb35.split
000008AC 6621                    		MOV.L #00000002H, R1
                                 ;     432 	tg_set_primary_source(CNC_MEDIA);
                                 		.LINE  "C:\Workspace\e2studio\git\MT01_master\src\states\ut_state_move.c",432
000008AE 05rrrrrr             A  		BSR _tg_set_primary_source
000008B2                         L213:	; bb35.split11
                                 ;     433 	xio_close(cs.primary_src);
                                 		.LINE  "C:\Workspace\e2studio\git\MT01_master\src\states\ut_state_move.c",433
000008B2 FB12rrrrrrrr            		MOV.L #_cs, R1
000008B8 B611                    		MOVU.B 18H[R1], R1
000008BA 05rrrrrr             A  		BSR _xio_close
000008BE                         L214:	; bb35.split12
                                 ;     434 	macro_func_ptr = _command_dispatch;
                                 		.LINE  "C:\Workspace\e2studio\git\MT01_master\src\states\ut_state_move.c",434
000008BE FBE2rrrrrrrr            		MOV.L #_macro_func_ptr, R14
000008C4 FBF2rrrrrrrr            		MOV.L #__command_dispatch, R15
000008CA E3EF                    		MOV.L R15, [R14]
000008CC                         L215:	; bb35.split13
                                 ;     435 	xio_open(cs.primary_src,0,1);
                                 		.LINE  "C:\Workspace\e2studio\git\MT01_master\src\states\ut_state_move.c",435
000008CC FB12rrrrrrrr            		MOV.L #_cs, R1
000008D2 B611                    		MOVU.B 18H[R1], R1
000008D4 6613                    		MOV.L #00000001H, R3
000008D6 6602                    		MOV.L #00000000H, R2
000008D8 05rrrrrr             A  		BSR _xio_open
000008DC                         L216:	; bb35.split14
                                 ;     436 	xTaskNotifyGive(xCncTaskHandle);
                                 		.LINE  "C:\Workspace\e2studio\git\MT01_master\src\states\ut_state_move.c",436
000008DC FBE2rrrrrrrr            		MOV.L #_xCncTaskHandle, R14
000008E2 ECE1                    		MOV.L [R14], R1
000008E4 6623                    		MOV.L #00000002H, R3
000008E6 6602                    		MOV.L #00000000H, R2
000008E8 EF24                    		MOV.L R2, R4
000008EA 05rrrrrr             A  		BSR _xTaskGenericNotify
000008EE                         L217:	; bb35.split15
                                 ;     437 	iif_bind_filerunning();
                                 		.LINE  "C:\Workspace\e2studio\git\MT01_master\src\states\ut_state_move.c",437
000008EE 05rrrrrr             A  		BSR _iif_bind_filerunning
000008F2 38rrrr               W  		BRA L431
000008F5                         L218:	; bb49
                                 ;     438 	while(true)
                                 ;     439 	{
                                 ;     440 		/* Wait for user interaction */
                                 ;     441 		keyEntry = 0;
                                 ;     442 		xQueueReceive( qKeyboard, &keyEntry, DEFAULT_UPDATE_TIMEOUT);
                                 ;     443 
                                 ;     444 		/* Check which key */
                                 ;     445 		switch (keyEntry)
                                 ;     446 		{
                                 ;     447 		case KEY_DOWN:
                                 ;     448 			iif_func_down();
                                 		.LINE  "C:\Workspace\e2studio\git\MT01_master\src\states\ut_state_move.c",448
000008F5 FBE2rrrrrrrr            		MOV.L #_iif_func_down, R14
000008FB ECEE                    		MOV.L [R14], R14
000008FD 7F1E                    		JSR R14
000008FF 38rrrr               W  		BRA L431
00000902                         L219:	; bb51
                                 ;     449 			break;
                                 ;     450 
                                 ;     451 		case KEY_UP:
                                 ;     452 			iif_func_up();
                                 		.LINE  "C:\Workspace\e2studio\git\MT01_master\src\states\ut_state_move.c",452
00000902 FBE2rrrrrrrr            		MOV.L #_iif_func_up, R14
00000908 ECEE                    		MOV.L [R14], R14
0000090A 7F1E                    		JSR R14
0000090C 38rrrr               W  		BRA L431
0000090F                         L220:	; bb53
                                 ;     453 			break;
                                 ;     454 
                                 ;     455 		case KEY_RIGHT:
                                 ;     456 			iif_func_right();
                                 		.LINE  "C:\Workspace\e2studio\git\MT01_master\src\states\ut_state_move.c",456
0000090F FBE2rrrrrrrr            		MOV.L #_iif_func_right, R14
00000915 ECEE                    		MOV.L [R14], R14
00000917 7F1E                    		JSR R14
00000919 38rrrr               W  		BRA L431
0000091C                         L221:	; bb55
                                 ;     457 			break;
                                 ;     458 
                                 ;     459 		case KEY_LEFT:
                                 ;     460 			iif_func_left();
                                 		.LINE  "C:\Workspace\e2studio\git\MT01_master\src\states\ut_state_move.c",460
0000091C FBE2rrrrrrrr            		MOV.L #_iif_func_left, R14
00000922 ECEE                    		MOV.L [R14], R14
00000924 7F1E                    		JSR R14
00000926 38rrrr               W  		BRA L431
00000929                         L222:	; bb57
                                 ;     461 			break;
                                 ;     462 
                                 ;     463 		case KEY_Z_UP:
                                 ;     464 			iif_func_zup();
                                 		.LINE  "C:\Workspace\e2studio\git\MT01_master\src\states\ut_state_move.c",464
00000929 FBE2rrrrrrrr            		MOV.L #_iif_func_zup, R14
0000092F ECEE                    		MOV.L [R14], R14
00000931 7F1E                    		JSR R14
00000933 38rrrr               W  		BRA L431
00000936                         L223:	; bb59
                                 ;     465 			break;
                                 ;     466 
                                 ;     467 		case KEY_Z_DOWN:
                                 ;     468 			iif_func_zdown();
                                 		.LINE  "C:\Workspace\e2studio\git\MT01_master\src\states\ut_state_move.c",468
00000936 FBE2rrrrrrrr            		MOV.L #_iif_func_zdown, R14
0000093C ECEE                    		MOV.L [R14], R14
0000093E 7F1E                    		JSR R14
00000940 38rrrr               W  		BRA L431
00000943                         L224:	; bb62
                                 ;     469 			break;
                                 ;     470 
                                 ;     471 		case KEY_ENTER:
                                 ;     472 			if (statePrevious == MATERIAL_FAILED)
                                 		.LINE  "C:\Workspace\e2studio\git\MT01_master\src\states\ut_state_move.c",472
00000943 A889                    		MOV.L 0CH[R0], R1
00000945 77010000FD              		CMP #0FFFD0000H, R1
0000094A 3Arrrr               W  		BEQ L431
0000094D                         L225:	; bb70
                                 ;     473 				break;
                                 ;     474 			if(lstop)
                                 		.LINE  "C:\Workspace\e2studio\git\MT01_master\src\states\ut_state_move.c",474
0000094D FBE2rrrrrrrr            		MOV.L #_lstop, R14
00000953 58EE                    		MOVU.B [R14], R14
00000955 610E                    		CMP #00H, R14
00000957 3Arrrr               W  		BEQ L294
0000095A                         L226:	; bb72
                                 ;     475 			{
                                 ;     476 
                                 ;     477 	//			if (arco == ARCO_OK_OFF || (statePrevious == EMERGENCIA_SIGNAL && ltorchBuffer == TRUE))
                                 ;     478 				if (configFlags[MODOMAQUINA] ==  MODO_PLASMA)
                                 		.LINE  "C:\Workspace\e2studio\git\MT01_master\src\states\ut_state_move.c",478
0000095A FBE2rrrrrrrr            		MOV.L #_configFlags, R14
00000960 ECEE                    		MOV.L [R14], R14
00000962 610E                    		CMP #00H, R14
00000964 3Brrrr               W  		BNE L255
00000967                         L227:	; bb73
                                 ;     479 				{
                                 ;     480 					lstop = false;
                                 		.LINE  "C:\Workspace\e2studio\git\MT01_master\src\states\ut_state_move.c",480
00000967 FBE2rrrrrrrr            		MOV.L #_lstop, R14
0000096D F8E400                  		MOV.B #00H, [R14]
00000970                         L228:	; bb73.split
                                 ;     481 					iif_bind_filerunning_stop(lstop);
                                 		.LINE  "C:\Workspace\e2studio\git\MT01_master\src\states\ut_state_move.c",481
00000970 FBE2rrrrrrrr            		MOV.L #_lstop, R14
00000976 58E1                    		MOVU.B [R14], R1
00000978 05rrrrrr             A  		BSR _iif_bind_filerunning_stop
0000097C                         L229:	; bb73.split16
                                 ;     482 					if(gTitle == AUTO){
                                 		.LINE  "C:\Workspace\e2studio\git\MT01_master\src\states\ut_state_move.c",482
0000097C FBE2rrrrrrrr            		MOV.L #_gTitle, R14
00000982 58EE                    		MOVU.B [R14], R14
00000984 611E                    		CMP #01H, R14
00000986 21rr                    		BNE L232
00000988                         L230:	; bb76
00000988 754310                  		MOV.L #00000010H, R3
                                 ;     483 						strcpy(gStrAuto[0],DEFAULT_AUTO_TITLE);
                                 		.LINE  "C:\Workspace\e2studio\git\MT01_master\src\states\ut_state_move.c",483
0000098B FB22rrrrrrrr            		MOV.L #_L23, R2
00000991 FB12rrrrrrrr            		MOV.L #__$gStrAuto, R1
00000997 7F87                    		SMOVU
00000999                         L231:	; bb76.split
                                 ;     484 						strcpy(gStrAuto[1],DEFAULT_AVISO_AUTO);
                                 		.LINE  "C:\Workspace\e2studio\git\MT01_master\src\states\ut_state_move.c",484
00000999 FBE2rrrrrrrr            		MOV.L #__$gStrAuto, R14
0000099F FBF2rrrrrrrr            		MOV.L #_L10, R15
000009A5 C4FE18                  		MOV.B [R15], 18H[R14]
000009A8 2Err                 B  		BRA L235
000009AA                         L232:	; bb78
                                 ;     485 					}else if(gTitle == SIM){
                                 		.LINE  "C:\Workspace\e2studio\git\MT01_master\src\states\ut_state_move.c",485
000009AA FBE2rrrrrrrr            		MOV.L #_gTitle, R14
000009B0 58EE                    		MOVU.B [R14], R14
000009B2 613E                    		CMP #03H, R14
000009B4 21rr                    		BNE L235
000009B6                         L233:	; bb79
000009B6 66F3                    		MOV.L #0000000FH, R3
                                 ;     486 						strcpy(gStrSim[0],DEFAULT_SIM_TITLE);
                                 		.LINE  "C:\Workspace\e2studio\git\MT01_master\src\states\ut_state_move.c",486
000009B8 FB22rrrrrrrr            		MOV.L #_L24, R2
000009BE FB12rrrrrrrr            		MOV.L #__$gStrSim, R1
000009C4 7F87                    		SMOVU
000009C6                         L234:	; bb79.split
                                 ;     487 						strcpy(gStrSim[1],DEFAULT_AVISO_SIM);
                                 		.LINE  "C:\Workspace\e2studio\git\MT01_master\src\states\ut_state_move.c",487
000009C6 FBE2rrrrrrrr            		MOV.L #__$gStrSim, R14
000009CC FBF2rrrrrrrr            		MOV.L #_L10, R15
000009D2 C4FE1C                  		MOV.B [R15], 1CH[R14]
000009D5                         L235:	; bb92
                                 ;     488 					}
                                 ;     489 					if(isDwell == true)
                                 		.LINE  "C:\Workspace\e2studio\git\MT01_master\src\states\ut_state_move.c",489
000009D5 FBE2rrrrrrrr            		MOV.L #_isDwell, R14
000009DB 58EE                    		MOVU.B [R14], R14
000009DD 611E                    		CMP #01H, R14
000009DF 18                   S  		BNE L237
000009E0                         L236:	; bb93
000009E0 6621                    		MOV.L #00000002H, R1
                                 ;     490 					{
                                 ;     491 						st_command_dwell(DWELL_RESTART);
                                 		.LINE  "C:\Workspace\e2studio\git\MT01_master\src\states\ut_state_move.c",491
000009E2 05rrrrrr             A  		BSR _st_command_dwell
000009E6                         L237:	; bb100
                                 ;     492 					}
                                 ;     493 					if (arco == ARCO_OK_OFF || ltorchBuffer == TRUE)
                                 		.LINE  "C:\Workspace\e2studio\git\MT01_master\src\states\ut_state_move.c",493
000009E6 A901                    		MOV.L 10H[R0], R1
000009E8 77010000FE              		CMP #0FFFE0000H, R1
000009ED 3Arrrr               W  		BEQ L252
000009F0 38rrrr               W  		BRA L251
000009F3                         L238:	; bb101
                                 ;     494 					//if (ltorchBuffer == TRUE)
                                 ;     495 					{
                                 ;     496 						arco = 0;
                                 		.LINE  "C:\Workspace\e2studio\git\MT01_master\src\states\ut_state_move.c",496
000009F3 3E0400                  		MOV.L #00000000H, 10H[R0]
000009F6                         L239:	; bb101.split
                                 ;     497 						if(stopDuringCut_Get())
                                 		.LINE  "C:\Workspace\e2studio\git\MT01_master\src\states\ut_state_move.c",497
000009F6 05rrrrrr             A  		BSR _stopDuringCut_Get
000009FA 6101                    		CMP #00H, R1
000009FC 20rr                    		BEQ L245
000009FE                         L240:	; bb103
000009FE 6601                    		MOV.L #00000000H, R1
                                 ;     498 						{
                                 ;     499 							stopDuringCut_Set(false);
                                 		.LINE  "C:\Workspace\e2studio\git\MT01_master\src\states\ut_state_move.c",499
00000A00 05rrrrrr             A  		BSR _stopDuringCut_Set
00000A04                         L241:	; bb103.split
                                 ;     500 							if (cm.probe_state == PROBE_WAITING)
                                 		.LINE  "C:\Workspace\e2studio\git\MT01_master\src\states\ut_state_move.c",500
00000A04 FBE2rrrrrrrr            		MOV.L #_cm, R14
00000A0A 5AEE2802                		MOVU.B 0228H[R14], R14
00000A0E 612E                    		CMP #02H, R14
00000A10 21rr                    		BNE L244
00000A12                         L242:	; bb105
                                 ;     501 							{
                                 ;     502 								simTorch = false;
                                 		.LINE  "C:\Workspace\e2studio\git\MT01_master\src\states\ut_state_move.c",502
00000A12 FBE2rrrrrrrr            		MOV.L #_simTorch, R14
00000A18 F8E400                  		MOV.B #00H, [R14]
00000A1B                         L243:	; bb105.split
                                 ;     503 								macro_func_ptr = macro_buffer;
                                 		.LINE  "C:\Workspace\e2studio\git\MT01_master\src\states\ut_state_move.c",503
00000A1B FBE2rrrrrrrr            		MOV.L #_macro_func_ptr, R14
00000A21 FBF2rrrrrrrr            		MOV.L #_macro_buffer, R15
00000A27 E0FE                    		MOV.L [R15], [R14]
00000A29                         L244:	; bb112
                                 ;     504 							}
                                 ;     505 							xMacroArcoOkSync = true;
                                 		.LINE  "C:\Workspace\e2studio\git\MT01_master\src\states\ut_state_move.c",505
00000A29 FBE2rrrrrrrr            		MOV.L #_xMacroArcoOkSync, R14
00000A2F F8E401                  		MOV.B #01H, [R14]
00000A32 2Err                 B  		BRA L248
00000A34                         L245:	; bb113
                                 ;     506 						}
                                 ;     507 						else
                                 ;     508 						{
                                 ;     509 							simTorch = false;
                                 		.LINE  "C:\Workspace\e2studio\git\MT01_master\src\states\ut_state_move.c",509
00000A34 FBE2rrrrrrrr            		MOV.L #_simTorch, R14
00000A3A F8E400                  		MOV.B #00H, [R14]
00000A3D                         L246:	; bb113.split
                                 ;     510 							macro_func_ptr = macro_buffer;
                                 		.LINE  "C:\Workspace\e2studio\git\MT01_master\src\states\ut_state_move.c",510
00000A3D FBE2rrrrrrrr            		MOV.L #_macro_func_ptr, R14
00000A43 FBF2rrrrrrrr            		MOV.L #_macro_buffer, R15
00000A49 E0FE                    		MOV.L [R15], [R14]
00000A4B                         L247:	; bb113.split17
                                 ;     511 							iif_func_enter();
                                 		.LINE  "C:\Workspace\e2studio\git\MT01_master\src\states\ut_state_move.c",511
00000A4B FBE2rrrrrrrr            		MOV.L #_iif_func_enter, R14
00000A51 ECEE                    		MOV.L [R14], R14
00000A53 7F1E                    		JSR R14
00000A55                         L248:	; bb121
                                 ;     512 						}
                                 ;     513 						TORCH = ltorchBuffer;
                                 		.LINE  "C:\Workspace\e2studio\git\MT01_master\src\states\ut_state_move.c",513
00000A55 FBE2rrrrrrrr            		MOV.L #__$ltorchBuffer, R14
00000A5B 58EE                    		MOVU.B [R14], R14
00000A5D FBFE22C008              		MOV.L #0008C022H, R15
00000A62 7545F7                  		MOV.L #000000F7H, R5
00000A65 50F5                    		AND [R15].UB, R5
00000A67 6C3E                    		SHLL #03H, R14
00000A69 648E                    		AND #08H, R14
00000A6B 57E5                    		OR R14, R5
00000A6D C3F5                    		MOV.B R5, [R15]
00000A6F 38rrrr               W  		BRA L431
00000A72                         L249:	; bb128
                                 ;     514 					}
                                 ;     515 					else{
                                 ;     516 						iif_func_enter();
                                 		.LINE  "C:\Workspace\e2studio\git\MT01_master\src\states\ut_state_move.c",516
00000A72 FBE2rrrrrrrr            		MOV.L #_iif_func_enter, R14
00000A78 ECEE                    		MOV.L [R14], R14
00000A7A 7F1E                    		JSR R14
00000A7C                         L250:	; bb128.split
                                 ;     517 						TORCH = ltorchBuffer;
                                 		.LINE  "C:\Workspace\e2studio\git\MT01_master\src\states\ut_state_move.c",517
00000A7C FBE2rrrrrrrr            		MOV.L #__$ltorchBuffer, R14
00000A82 58EE                    		MOVU.B [R14], R14
00000A84 FBFE22C008              		MOV.L #0008C022H, R15
00000A89 7545F7                  		MOV.L #000000F7H, R5
00000A8C 50F5                    		AND [R15].UB, R5
00000A8E 6C3E                    		SHLL #03H, R14
00000A90 648E                    		AND #08H, R14
00000A92 57E5                    		OR R14, R5
00000A94 C3F5                    		MOV.B R5, [R15]
00000A96 38rrrr               W  		BRA L431
00000A99                         L251:	; bb139
00000A99 FBE2rrrrrrrr            		MOV.L #__$ltorchBuffer, R14
00000A9F 58EE                    		MOVU.B [R14], R14
00000AA1 610E                    		CMP #00H, R14
00000AA3 18                   S  		BNE L253
00000AA4                         L252:	; bb144
00000AA4 F80601                  		MOV.L #00000001H, [R0]
00000AA7 08                   S  		BRA L254
00000AA8                         L253:	; bb145
00000AA8 F80600                  		MOV.L #00000000H, [R0]
00000AAB                         L254:	; bb146
00000AAB EC01                    		MOV.L [R0], R1
00000AAD 6101                    		CMP #00H, R1
00000AAF 3Brrrr               W  		BNE L238
00000AB2 2Err                 B  		BRA L249
00000AB4                         L255:	; bb153
                                 ;     518 					}
                                 ;     519 				}
                                 ;     520 				else /* configFlags[MODOMAQUINA] ==  MODO_PLASMA */
                                 ;     521 				{
                                 ;     522 					/* se estiver simulando*/
                                 ;     523 					if (sim == true)
                                 		.LINE  "C:\Workspace\e2studio\git\MT01_master\src\states\ut_state_move.c",523
00000AB4 FBE2rrrrrrrr            		MOV.L #_sim, R14
00000ABA 58EE                    		MOVU.B [R14], R14
00000ABC 611E                    		CMP #01H, R14
00000ABE 3Brrrr               W  		BNE L283
00000AC1                         L256:	; bb154
                                 ;     524 					{
                                 ;     525 						uint32_t *value = configsVar->value;
                                 		.LINE  "C:\Workspace\e2studio\git\MT01_master\src\states\ut_state_move.c",525
00000AC1 FBE2rrrrrrrr            		MOV.L #_configsVar, R14
00000AC7 ECE1                    		MOV.L [R14], R1
00000AC9 E5100105                		MOV.L 04H[R1], 14H[R0]
00000ACD                         L257:	; bb154.split
                                 ;     526 						xTimerStop( swTimers[AUTO_MENU_TIMER], 0 );
                                 		.LINE  "C:\Workspace\e2studio\git\MT01_master\src\states\ut_state_move.c",526
00000ACD FB12rrrrrrrr            		MOV.L #_swTimers, R1
00000AD3 AA11                    		MOV.L 20H[R1], R1
00000AD5 6040                    		SUB #04H, R0
00000AD7 F80600                  		MOV.L #00000000H, [R0]
00000ADA 6603                    		MOV.L #00000000H, R3
00000ADC 6632                    		MOV.L #00000003H, R2
00000ADE EF34                    		MOV.L R3, R4
00000AE0 05rrrrrr             A  		BSR _xTimerGenericCommand
00000AE4 6240                    		ADD #04H, R0
00000AE6                         L258:	; bb154.split18
                                 ;     527 						iif_bind_idle();
                                 		.LINE  "C:\Workspace\e2studio\git\MT01_master\src\states\ut_state_move.c",527
00000AE6 05rrrrrr             A  		BSR _iif_bind_idle
00000AEA                         L259:	; bb154.split19
                                 ;     528 						configsVar->currentItem = CONFIG_AUTO_MODO_SIM_RUN;
                                 		.LINE  "C:\Workspace\e2studio\git\MT01_master\src\states\ut_state_move.c",528
00000AEA FBE2rrrrrrrr            		MOV.L #_configsVar, R14
00000AF0 ECEE                    		MOV.L [R14], R14
00000AF2 F9E42406                		MOV.B #06H, 24H[R14]
00000AF6                         L260:	; bb154.split20
                                 ;     529 						configsVar->type = UT_CONFIG_BOOL;
                                 		.LINE  "C:\Workspace\e2studio\git\MT01_master\src\states\ut_state_move.c",529
00000AF6 FBE2rrrrrrrr            		MOV.L #_configsVar, R14
00000AFC ECEE                    		MOV.L [R14], R14
00000AFE F8E601                  		MOV.L #00000001H, [R14]
00000B01                         L261:	; bb154.split21
                                 ;     530 						configsVar->name = "CONTINUAR COMO?";
                                 		.LINE  "C:\Workspace\e2studio\git\MT01_master\src\states\ut_state_move.c",530
00000B01 FBE2rrrrrrrr            		MOV.L #_configsVar, R14
00000B07 ECE1                    		MOV.L [R14], R1
00000B09 FB22rrrrrrrr            		MOV.L #_L25, R2
00000B0F A19A                    		MOV.L R2, 1CH[R1]
00000B11                         L262:	; bb154.split22
                                 ;     531 						ut_state_config_var(pContext);
                                 		.LINE  "C:\Workspace\e2studio\git\MT01_master\src\states\ut_state_move.c",531
00000B11 AA01                    		MOV.L 20H[R0], R1
00000B13 05rrrrrr             A  		BSR _ut_state_config_var
00000B17                         L263:	; bb154.split23
                                 ;     532 						iif_bind_filerunning();
                                 		.LINE  "C:\Workspace\e2studio\git\MT01_master\src\states\ut_state_move.c",532
00000B17 05rrrrrr             A  		BSR _iif_bind_filerunning
00000B1B                         L264:	; bb154.split24
                                 ;     533 						xTimerStart( swTimers[AUTO_MENU_TIMER], 0 );
                                 		.LINE  "C:\Workspace\e2studio\git\MT01_master\src\states\ut_state_move.c",533
00000B1B FB12rrrrrrrr            		MOV.L #_swTimers, R1
00000B21 AA16                    		MOV.L 20H[R1], R6
00000B23 05rrrrrr             A  		BSR _xTaskGetTickCount
00000B27 EF13                    		MOV.L R1, R3
00000B29 6040                    		SUB #04H, R0
00000B2B F80600                  		MOV.L #00000000H, [R0]
00000B2E 6604                    		MOV.L #00000000H, R4
00000B30 6612                    		MOV.L #00000001H, R2
00000B32 EF61                    		MOV.L R6, R1
00000B34 05rrrrrr             A  		BSR _xTimerGenericCommand
00000B38 6240                    		ADD #04H, R0
00000B3A                         L265:	; bb154.split25
                                 ;     534 						if(func_back != 0xFF){
                                 		.LINE  "C:\Workspace\e2studio\git\MT01_master\src\states\ut_state_move.c",534
00000B3A FBE2rrrrrrrr            		MOV.L #_func_back, R14
00000B40 58EE                    		MOVU.B [R14], R14
00000B42 755EFF                  		CMP #0FFH, R14
00000B45 3Arrrr               W  		BEQ L282
00000B48                         L266:	; bb173
                                 ;     535 							lstop = false;
                                 		.LINE  "C:\Workspace\e2studio\git\MT01_master\src\states\ut_state_move.c",535
00000B48 FBE2rrrrrrrr            		MOV.L #_lstop, R14
00000B4E F8E400                  		MOV.B #00H, [R14]
00000B51                         L267:	; bb173.split
                                 ;     536 							iif_bind_filerunning_stop(lstop);
                                 		.LINE  "C:\Workspace\e2studio\git\MT01_master\src\states\ut_state_move.c",536
00000B51 FBE2rrrrrrrr            		MOV.L #_lstop, R14
00000B57 58E1                    		MOVU.B [R14], R1
00000B59 05rrrrrr             A  		BSR _iif_bind_filerunning_stop
00000B5D                         L268:	; bb173.split26
                                 ;     537 							if(gTitle == AUTO){
                                 		.LINE  "C:\Workspace\e2studio\git\MT01_master\src\states\ut_state_move.c",537
00000B5D FBE2rrrrrrrr            		MOV.L #_gTitle, R14
00000B63 58EE                    		MOVU.B [R14], R14
00000B65 611E                    		CMP #01H, R14
00000B67 21rr                    		BNE L271
00000B69                         L269:	; bb176
00000B69 754310                  		MOV.L #00000010H, R3
                                 ;     538 								strcpy(gStrAuto[0],DEFAULT_AUTO_TITLE);
                                 		.LINE  "C:\Workspace\e2studio\git\MT01_master\src\states\ut_state_move.c",538
00000B6C FB22rrrrrrrr            		MOV.L #_L23, R2
00000B72 FB12rrrrrrrr            		MOV.L #__$gStrAuto, R1
00000B78 7F87                    		SMOVU
00000B7A                         L270:	; bb176.split
                                 ;     539 								strcpy(gStrAuto[1],DEFAULT_AVISO_AUTO);
                                 		.LINE  "C:\Workspace\e2studio\git\MT01_master\src\states\ut_state_move.c",539
00000B7A FBE2rrrrrrrr            		MOV.L #__$gStrAuto, R14
00000B80 FBF2rrrrrrrr            		MOV.L #_L10, R15
00000B86 C4FE18                  		MOV.B [R15], 18H[R14]
00000B89 2Err                 B  		BRA L274
00000B8B                         L271:	; bb178
                                 ;     540 							}else if(gTitle == SIM){
                                 		.LINE  "C:\Workspace\e2studio\git\MT01_master\src\states\ut_state_move.c",540
00000B8B FBE2rrrrrrrr            		MOV.L #_gTitle, R14
00000B91 58EE                    		MOVU.B [R14], R14
00000B93 613E                    		CMP #03H, R14
00000B95 21rr                    		BNE L274
00000B97                         L272:	; bb179
00000B97 66F3                    		MOV.L #0000000FH, R3
                                 ;     541 								strcpy(gStrSim[0],DEFAULT_SIM_TITLE);
                                 		.LINE  "C:\Workspace\e2studio\git\MT01_master\src\states\ut_state_move.c",541
00000B99 FB22rrrrrrrr            		MOV.L #_L24, R2
00000B9F FB12rrrrrrrr            		MOV.L #__$gStrSim, R1
00000BA5 7F87                    		SMOVU
00000BA7                         L273:	; bb179.split
                                 ;     542 								strcpy(gStrSim[1],DEFAULT_AVISO_SIM);
                                 		.LINE  "C:\Workspace\e2studio\git\MT01_master\src\states\ut_state_move.c",542
00000BA7 FBE2rrrrrrrr            		MOV.L #__$gStrSim, R14
00000BAD FBF2rrrrrrrr            		MOV.L #_L10, R15
00000BB3 C4FE1C                  		MOV.B [R15], 1CH[R14]
00000BB6                         L274:	; bb192
                                 ;     543 							}
                                 ;     544 							if(isDwell == true)
                                 		.LINE  "C:\Workspace\e2studio\git\MT01_master\src\states\ut_state_move.c",544
00000BB6 FBE2rrrrrrrr            		MOV.L #_isDwell, R14
00000BBC 58EE                    		MOVU.B [R14], R14
00000BBE 611E                    		CMP #01H, R14
00000BC0 18                   S  		BNE L276
00000BC1                         L275:	; bb193
00000BC1 6621                    		MOV.L #00000002H, R1
                                 ;     545 							{
                                 ;     546 								st_command_dwell(DWELL_RESTART);
                                 		.LINE  "C:\Workspace\e2studio\git\MT01_master\src\states\ut_state_move.c",546
00000BC3 05rrrrrr             A  		BSR _st_command_dwell
00000BC7                         L276:	; bb199
                                 ;     547 							}
                                 ;     548 							iif_func_enter();
                                 		.LINE  "C:\Workspace\e2studio\git\MT01_master\src\states\ut_state_move.c",548
00000BC7 FBE2rrrrrrrr            		MOV.L #_iif_func_enter, R14
00000BCD ECEE                    		MOV.L [R14], R14
00000BCF 7F1E                    		JSR R14
00000BD1                         L277:	; bb199.split
                                 ;     549 							if(*value == true)
                                 		.LINE  "C:\Workspace\e2studio\git\MT01_master\src\states\ut_state_move.c",549
00000BD1 A909                    		MOV.L 14H[R0], R1
00000BD3 EC1E                    		MOV.L [R1], R14
00000BD5 611E                    		CMP #01H, R14
00000BD7 21rr                    		BNE L282
00000BD9                         L278:	; bb202
                                 ;     550 							{
                                 ;     551 								gTitle = AUTO;
                                 		.LINE  "C:\Workspace\e2studio\git\MT01_master\src\states\ut_state_move.c",551
00000BD9 FBE2rrrrrrrr            		MOV.L #_gTitle, R14
00000BDF F8E401                  		MOV.B #01H, [R14]
00000BE2                         L279:	; bb202.split
                                 ;     552 								sim = false;
                                 		.LINE  "C:\Workspace\e2studio\git\MT01_master\src\states\ut_state_move.c",552
00000BE2 FBE2rrrrrrrr            		MOV.L #_sim, R14
00000BE8 F8E400                  		MOV.B #00H, [R14]
00000BEB                         L280:	; bb202.split27
                                 ;     553 								if (simTorch)
                                 		.LINE  "C:\Workspace\e2studio\git\MT01_master\src\states\ut_state_move.c",553
00000BEB FBE2rrrrrrrr            		MOV.L #_simTorch, R14
00000BF1 58EE                    		MOVU.B [R14], R14
00000BF3 610E                    		CMP #00H, R14
00000BF5 10                   S  		BEQ L282
00000BF6                         L281:	; bb204
00000BF6 FBEE22C008              		MOV.L #0008C022H, R14
                                 ;     554 								{
                                 ;     555 									TORCH = TRUE;
                                 		.LINE  "C:\Workspace\e2studio\git\MT01_master\src\states\ut_state_move.c",555
00000BFB F0EB                    		BCLR #03H, [R14].B
00000BFD                         L282:	; bb225
                                 ;     556 								}
                                 ;     557 							}
                                 ;     558 						}
                                 ;     559 						func_back = 0;
                                 		.LINE  "C:\Workspace\e2studio\git\MT01_master\src\states\ut_state_move.c",559
00000BFD FBE2rrrrrrrr            		MOV.L #_func_back, R14
00000C03 F8E400                  		MOV.B #00H, [R14]
00000C06 38rrrr               W  		BRA L431
00000C09                         L283:	; bb227
                                 ;     560 					}
                                 ;     561 					else
                                 ;     562 					{
                                 ;     563 						if(gTitle == AUTO){
                                 		.LINE  "C:\Workspace\e2studio\git\MT01_master\src\states\ut_state_move.c",563
00000C09 FBE2rrrrrrrr            		MOV.L #_gTitle, R14
00000C0F 58EE                    		MOVU.B [R14], R14
00000C11 611E                    		CMP #01H, R14
00000C13 21rr                    		BNE L286
00000C15                         L284:	; bb228
00000C15 754310                  		MOV.L #00000010H, R3
                                 ;     564 							strcpy(gStrAuto[0],DEFAULT_AUTO_TITLE);
                                 		.LINE  "C:\Workspace\e2studio\git\MT01_master\src\states\ut_state_move.c",564
00000C18 FB22rrrrrrrr            		MOV.L #_L23, R2
00000C1E FB12rrrrrrrr            		MOV.L #__$gStrAuto, R1
00000C24 7F87                    		SMOVU
00000C26                         L285:	; bb228.split
                                 ;     565 							strcpy(gStrAuto[1],DEFAULT_AVISO_AUTO);
                                 		.LINE  "C:\Workspace\e2studio\git\MT01_master\src\states\ut_state_move.c",565
00000C26 FBE2rrrrrrrr            		MOV.L #__$gStrAuto, R14
00000C2C FBF2rrrrrrrr            		MOV.L #_L10, R15
00000C32 C4FE18                  		MOV.B [R15], 18H[R14]
00000C35 2Err                 B  		BRA L289
00000C37                         L286:	; bb230
                                 ;     566 						}else if(gTitle == SIM){
                                 		.LINE  "C:\Workspace\e2studio\git\MT01_master\src\states\ut_state_move.c",566
00000C37 FBE2rrrrrrrr            		MOV.L #_gTitle, R14
00000C3D 58EE                    		MOVU.B [R14], R14
00000C3F 613E                    		CMP #03H, R14
00000C41 21rr                    		BNE L289
00000C43                         L287:	; bb231
00000C43 66F3                    		MOV.L #0000000FH, R3
                                 ;     567 							strcpy(gStrSim[0],DEFAULT_SIM_TITLE);
                                 		.LINE  "C:\Workspace\e2studio\git\MT01_master\src\states\ut_state_move.c",567
00000C45 FB22rrrrrrrr            		MOV.L #_L24, R2
00000C4B FB12rrrrrrrr            		MOV.L #__$gStrSim, R1
00000C51 7F87                    		SMOVU
00000C53                         L288:	; bb231.split
                                 ;     568 							strcpy(gStrSim[1],DEFAULT_AVISO_SIM);
                                 		.LINE  "C:\Workspace\e2studio\git\MT01_master\src\states\ut_state_move.c",568
00000C53 FBE2rrrrrrrr            		MOV.L #__$gStrSim, R14
00000C59 FBF2rrrrrrrr            		MOV.L #_L10, R15
00000C5F C4FE1C                  		MOV.B [R15], 1CH[R14]
00000C62                         L289:	; bb244
                                 ;     569 						}
                                 ;     570 						if(isDwell == true)
                                 		.LINE  "C:\Workspace\e2studio\git\MT01_master\src\states\ut_state_move.c",570
00000C62 FBE2rrrrrrrr            		MOV.L #_isDwell, R14
00000C68 58EE                    		MOVU.B [R14], R14
00000C6A 611E                    		CMP #01H, R14
00000C6C 18                   S  		BNE L291
00000C6D                         L290:	; bb245
00000C6D 6621                    		MOV.L #00000002H, R1
                                 ;     571 						{
                                 ;     572 							st_command_dwell(DWELL_RESTART);
                                 		.LINE  "C:\Workspace\e2studio\git\MT01_master\src\states\ut_state_move.c",572
00000C6F 05rrrrrr             A  		BSR _st_command_dwell
00000C73                         L291:	; bb251
                                 ;     573 						}
                                 ;     574 						lstop = false;
                                 		.LINE  "C:\Workspace\e2studio\git\MT01_master\src\states\ut_state_move.c",574
00000C73 FBE2rrrrrrrr            		MOV.L #_lstop, R14
00000C79 F8E400                  		MOV.B #00H, [R14]
00000C7C                         L292:	; bb251.split
                                 ;     575 						iif_func_enter();
                                 		.LINE  "C:\Workspace\e2studio\git\MT01_master\src\states\ut_state_move.c",575
00000C7C FBE2rrrrrrrr            		MOV.L #_iif_func_enter, R14
00000C82 ECEE                    		MOV.L [R14], R14
00000C84 7F1E                    		JSR R14
00000C86                         L293:	; bb251.split28
                                 ;     576 						TORCH = ltorchBuffer;
                                 		.LINE  "C:\Workspace\e2studio\git\MT01_master\src\states\ut_state_move.c",576
00000C86 FBE2rrrrrrrr            		MOV.L #__$ltorchBuffer, R14
00000C8C 58EE                    		MOVU.B [R14], R14
00000C8E FBFE22C008              		MOV.L #0008C022H, R15
00000C93 7545F7                  		MOV.L #000000F7H, R5
00000C96 50F5                    		AND [R15].UB, R5
00000C98 6C3E                    		SHLL #03H, R14
00000C9A 648E                    		AND #08H, R14
00000C9C 57E5                    		OR R14, R5
00000C9E C3F5                    		MOV.B R5, [R15]
00000CA0 38rrrr               W  		BRA L431
00000CA3                         L294:	; bb271
                                 ;     577 					}
                                 ;     578 				}
                                 ;     579 			//
                                 ;     580 //				if(sim && configFlags[MODOMAQUINA] == MODO_OXICORTE){
                                 ;     581 //					gTitle = AUTO;
                                 ;     582 //				//	sim = false;
                                 ;     583 //					if (simTorch)
                                 ;     584 //					{
                                 ;     585 //						TORCH = TRUE;
                                 ;     586 //					}
                                 ;     587 //				}
                                 ;     588 			}
                                 ;     589 			else
                                 ;     590 			{
                                 ;     591 				if(isDwell == true)
                                 		.LINE  "C:\Workspace\e2studio\git\MT01_master\src\states\ut_state_move.c",591
00000CA3 FBE2rrrrrrrr            		MOV.L #_isDwell, R14
00000CA9 58EE                    		MOVU.B [R14], R14
00000CAB 611E                    		CMP #01H, R14
00000CAD 18                   S  		BNE L296
00000CAE                         L295:	; bb272
00000CAE 6631                    		MOV.L #00000003H, R1
                                 ;     592 				{
                                 ;     593 					st_command_dwell(DWELL_EXIT);
                                 		.LINE  "C:\Workspace\e2studio\git\MT01_master\src\states\ut_state_move.c",593
00000CB0 05rrrrrr             A  		BSR _st_command_dwell
00000CB4                         L296:	; bb279
                                 ;     594 				}
                                 ;     595 				if(sim){
                                 		.LINE  "C:\Workspace\e2studio\git\MT01_master\src\states\ut_state_move.c",595
00000CB4 FBE2rrrrrrrr            		MOV.L #_sim, R14
00000CBA 58EE                    		MOVU.B [R14], R14
00000CBC 610E                    		CMP #00H, R14
00000CBE 3Arrrr               W  		BEQ L431
00000CC1                         L297:	; bb280
                                 ;     596 					gTitle = AUTO;
                                 		.LINE  "C:\Workspace\e2studio\git\MT01_master\src\states\ut_state_move.c",596
00000CC1 FBE2rrrrrrrr            		MOV.L #_gTitle, R14
00000CC7 F8E401                  		MOV.B #01H, [R14]
00000CCA                         L298:	; bb280.split
                                 ;     597 					sim = false;
                                 		.LINE  "C:\Workspace\e2studio\git\MT01_master\src\states\ut_state_move.c",597
00000CCA FBE2rrrrrrrr            		MOV.L #_sim, R14
00000CD0 F8E400                  		MOV.B #00H, [R14]
00000CD3                         L299:	; bb280.split29
                                 ;     598 					if (simTorch)
                                 		.LINE  "C:\Workspace\e2studio\git\MT01_master\src\states\ut_state_move.c",598
00000CD3 FBE2rrrrrrrr            		MOV.L #_simTorch, R14
00000CD9 58EE                    		MOVU.B [R14], R14
00000CDB 610E                    		CMP #00H, R14
00000CDD 3Arrrr               W  		BEQ L431
00000CE0                         L300:	; bb282
00000CE0 FBEE22C008              		MOV.L #0008C022H, R14
                                 ;     599 					{
                                 ;     600 						TORCH = TRUE;
                                 		.LINE  "C:\Workspace\e2studio\git\MT01_master\src\states\ut_state_move.c",600
00000CE5 F0EB                    		BCLR #03H, [R14].B
00000CE7                         L301:	; bb282.split
                                 ;     601 						simTorch = false;
                                 		.LINE  "C:\Workspace\e2studio\git\MT01_master\src\states\ut_state_move.c",601
00000CE7 FBE2rrrrrrrr            		MOV.L #_simTorch, R14
00000CED F8E400                  		MOV.B #00H, [R14]
00000CF0                         L302:	; bb282.split30
                                 ;     602 						if(configFlags[MODOMAQUINA] == MODO_PLASMA){
                                 		.LINE  "C:\Workspace\e2studio\git\MT01_master\src\states\ut_state_move.c",602
00000CF0 FBE2rrrrrrrr            		MOV.L #_configFlags, R14
00000CF6 ECEE                    		MOV.L [R14], R14
00000CF8 610E                    		CMP #00H, R14
00000CFA 3Brrrr               W  		BNE L431
00000CFD                         L303:	; bb287
                                 ;     603 							pl_arcook_start();
                                 		.LINE  "C:\Workspace\e2studio\git\MT01_master\src\states\ut_state_move.c",603
00000CFD 05rrrrrr             A  		BSR _pl_arcook_start
00000D01                         L304:	; bb287.split
00000D01 6611                    		MOV.L #00000001H, R1
                                 ;     604 							/* Necessario para ligar o THC */
                                 ;     605 							delay_thcStartStop(true);
                                 		.LINE  "C:\Workspace\e2studio\git\MT01_master\src\states\ut_state_move.c",605
00000D03 05rrrrrr             A  		BSR _delay_thcStartStop
00000D07                         L305:	; bb287.split31
00000D07 6611                    		MOV.L #00000001H, R1
                                 ;     606 							isCuttingSet(true);
                                 		.LINE  "C:\Workspace\e2studio\git\MT01_master\src\states\ut_state_move.c",606
00000D09 05rrrrrr             A  		BSR _isCuttingSet
00000D0D 38rrrr               W  		BRA L431
00000D10                         L306:	; bb311
                                 ;     607 						}
                                 ;     608 					}
                                 ;     609 				}
                                 ;     610 			}
                                 ;     611 			break;
                                 ;     612 
                                 ;     613 		case KEY_ESC:
                                 ;     614 			statePrevious = 0;
                                 		.LINE  "C:\Workspace\e2studio\git\MT01_master\src\states\ut_state_move.c",614
00000D10 3E0300                  		MOV.L #00000000H, 0CH[R0]
00000D13                         L307:	; bb311.split
                                 ;     615 			if (programEnd || lstop){
                                 		.LINE  "C:\Workspace\e2studio\git\MT01_master\src\states\ut_state_move.c",615
00000D13 FBE2rrrrrrrr            		MOV.L #_programEnd, R14
00000D19 58EE                    		MOVU.B [R14], R14
00000D1B 610E                    		CMP #00H, R14
00000D1D 3Brrrr               W  		BNE L367
00000D20 38rrrr               W  		BRA L366
00000D23                         L308:	; bb313
                                 ;     616 				uint32_t *value = configsVar->value;
                                 		.LINE  "C:\Workspace\e2studio\git\MT01_master\src\states\ut_state_move.c",616
00000D23 FBE2rrrrrrrr            		MOV.L #_configsVar, R14
00000D29 ECE1                    		MOV.L [R14], R1
00000D2B E5100106                		MOV.L 04H[R1], 18H[R0]
00000D2F                         L309:	; bb313.split
                                 ;     617 				if(!programEnd){
                                 		.LINE  "C:\Workspace\e2studio\git\MT01_master\src\states\ut_state_move.c",617
00000D2F FBE2rrrrrrrr            		MOV.L #_programEnd, R14
00000D35 58EE                    		MOVU.B [R14], R14
00000D37 610E                    		CMP #00H, R14
00000D39 21rr                    		BNE L318
00000D3B 2Err                 B  		BRA L319
00000D3D                         L310:	; bb319
                                 ;     618 				//	cm_request_feedhold();
                                 ;     619 						xTimerStop( swTimers[AUTO_MENU_TIMER], 0 );
                                 		.LINE  "C:\Workspace\e2studio\git\MT01_master\src\states\ut_state_move.c",619
00000D3D FB12rrrrrrrr            		MOV.L #_swTimers, R1
00000D43 AA11                    		MOV.L 20H[R1], R1
00000D45 6040                    		SUB #04H, R0
00000D47 F80600                  		MOV.L #00000000H, [R0]
00000D4A 6603                    		MOV.L #00000000H, R3
00000D4C 6632                    		MOV.L #00000003H, R2
00000D4E EF34                    		MOV.L R3, R4
00000D50 05rrrrrr             A  		BSR _xTimerGenericCommand
00000D54 6240                    		ADD #04H, R0
00000D56                         L311:	; bb319.split
                                 ;     620 						iif_bind_idle();
                                 		.LINE  "C:\Workspace\e2studio\git\MT01_master\src\states\ut_state_move.c",620
00000D56 05rrrrrr             A  		BSR _iif_bind_idle
00000D5A                         L312:	; bb319.split32
                                 ;     621 						configsVar->currentState = STATE_AUTO_MODE;
                                 		.LINE  "C:\Workspace\e2studio\git\MT01_master\src\states\ut_state_move.c",621
00000D5A FBE2rrrrrrrr            		MOV.L #_configsVar, R14
00000D60 ECE1                    		MOV.L [R14], R1
00000D62 3E180F                  		MOV.L #0000000FH, 20H[R1]
00000D65                         L313:	; bb319.split33
                                 ;     622 						configsVar->currentItem = CONFIG_AUTO_RODAR_PROG;
                                 		.LINE  "C:\Workspace\e2studio\git\MT01_master\src\states\ut_state_move.c",622
00000D65 FBE2rrrrrrrr            		MOV.L #_configsVar, R14
00000D6B ECEE                    		MOV.L [R14], R14
00000D6D F9E42400                		MOV.B #00H, 24H[R14]
00000D71                         L314:	; bb319.split34
                                 ;     623 						configsVar->type = UT_CONFIG_BOOL;
                                 		.LINE  "C:\Workspace\e2studio\git\MT01_master\src\states\ut_state_move.c",623
00000D71 FBE2rrrrrrrr            		MOV.L #_configsVar, R14
00000D77 ECEE                    		MOV.L [R14], R14
00000D79 F8E601                  		MOV.L #00000001H, [R14]
00000D7C                         L315:	; bb319.split35
                                 ;     624 						configsVar->name = "DESEJA SAIR?";
                                 		.LINE  "C:\Workspace\e2studio\git\MT01_master\src\states\ut_state_move.c",624
00000D7C FBE2rrrrrrrr            		MOV.L #_configsVar, R14
00000D82 ECE1                    		MOV.L [R14], R1
00000D84 FB22rrrrrrrr            		MOV.L #_L26, R2
00000D8A A19A                    		MOV.L R2, 1CH[R1]
00000D8C                         L316:	; bb319.split36
                                 ;     625 						ut_state_config_var(pContext);
                                 		.LINE  "C:\Workspace\e2studio\git\MT01_master\src\states\ut_state_move.c",625
00000D8C AA01                    		MOV.L 20H[R0], R1
00000D8E 05rrrrrr             A  		BSR _ut_state_config_var
00000D92                         L317:	; bb319.split37
                                 ;     626 						iif_bind_filerunning();
                                 		.LINE  "C:\Workspace\e2studio\git\MT01_master\src\states\ut_state_move.c",626
00000D92 05rrrrrr             A  		BSR _iif_bind_filerunning
00000D96 2Err                 B  		BRA L321
00000D98                         L318:	; bb336
00000D98 F80600                  		MOV.L #00000000H, [R0]
00000D9B 08                   S  		BRA L320
00000D9C                         L319:	; bb337
00000D9C F80601                  		MOV.L #00000001H, [R0]
00000D9F                         L320:	; bb338
00000D9F EC01                    		MOV.L [R0], R1
00000DA1 6101                    		CMP #00H, R1
00000DA3 21rr                    		BNE L310
00000DA5                         L321:	; bb343
                                 ;     627 				}
                                 ;     628 				if(*value || programEnd){
                                 		.LINE  "C:\Workspace\e2studio\git\MT01_master\src\states\ut_state_move.c",628
00000DA5 A981                    		MOV.L 18H[R0], R1
00000DA7 EC1E                    		MOV.L [R1], R14
00000DA9 610E                    		CMP #00H, R14
00000DAB 3Brrrr               W  		BNE L363
00000DAE 38rrrr               W  		BRA L362
00000DB1                         L322:	; bb345
                                 ;     629 //					xTimerStop( swTimers[AUTO_MENU_TIMER], 0 );
                                 ;     630 					if(gTitle == AUTO){
                                 		.LINE  "C:\Workspace\e2studio\git\MT01_master\src\states\ut_state_move.c",630
00000DB1 FBE2rrrrrrrr            		MOV.L #_gTitle, R14
00000DB7 58EE                    		MOVU.B [R14], R14
00000DB9 611E                    		CMP #01H, R14
00000DBB 21rr                    		BNE L325
00000DBD                         L323:	; bb346
00000DBD 754310                  		MOV.L #00000010H, R3
                                 ;     631 						strcpy(gStrAuto[0],DEFAULT_AUTO_TITLE);
                                 		.LINE  "C:\Workspace\e2studio\git\MT01_master\src\states\ut_state_move.c",631
00000DC0 FB22rrrrrrrr            		MOV.L #_L23, R2
00000DC6 FB12rrrrrrrr            		MOV.L #__$gStrAuto, R1
00000DCC 7F87                    		SMOVU
00000DCE                         L324:	; bb346.split
                                 ;     632 						strcpy(gStrAuto[1],DEFAULT_AVISO_AUTO);
                                 		.LINE  "C:\Workspace\e2studio\git\MT01_master\src\states\ut_state_move.c",632
00000DCE FBE2rrrrrrrr            		MOV.L #__$gStrAuto, R14
00000DD4 FBF2rrrrrrrr            		MOV.L #_L10, R15
00000DDA C4FE18                  		MOV.B [R15], 18H[R14]
00000DDD 2Err                 B  		BRA L328
00000DDF                         L325:	; bb348
                                 ;     633 					}else if(gTitle == SIM){
                                 		.LINE  "C:\Workspace\e2studio\git\MT01_master\src\states\ut_state_move.c",633
00000DDF FBE2rrrrrrrr            		MOV.L #_gTitle, R14
00000DE5 58EE                    		MOVU.B [R14], R14
00000DE7 613E                    		CMP #03H, R14
00000DE9 21rr                    		BNE L328
00000DEB                         L326:	; bb349
00000DEB 66F3                    		MOV.L #0000000FH, R3
                                 ;     634 						strcpy(gStrSim[0],DEFAULT_SIM_TITLE);
                                 		.LINE  "C:\Workspace\e2studio\git\MT01_master\src\states\ut_state_move.c",634
00000DED FB22rrrrrrrr            		MOV.L #_L24, R2
00000DF3 FB12rrrrrrrr            		MOV.L #__$gStrSim, R1
00000DF9 7F87                    		SMOVU
00000DFB                         L327:	; bb349.split
                                 ;     635 						strcpy(gStrSim[1],DEFAULT_AVISO_SIM);
                                 		.LINE  "C:\Workspace\e2studio\git\MT01_master\src\states\ut_state_move.c",635
00000DFB FBE2rrrrrrrr            		MOV.L #__$gStrSim, R14
00000E01 FBF2rrrrrrrr            		MOV.L #_L10, R15
00000E07 C4FE1C                  		MOV.B [R15], 1CH[R14]
00000E0A                         L328:	; bb361
                                 ;     636 					}
                                 ;     637 					cm_request_feedhold();
                                 		.LINE  "C:\Workspace\e2studio\git\MT01_master\src\states\ut_state_move.c",637
00000E0A 05rrrrrr             A  		BSR _cm_request_feedhold
00000E0E                         L329:	; bb361.split
                                 ;     638 					cm_request_queue_flush();
                                 		.LINE  "C:\Workspace\e2studio\git\MT01_master\src\states\ut_state_move.c",638
00000E0E 05rrrrrr             A  		BSR _cm_request_queue_flush
00000E12                         L330:	; bb361.split38
                                 ;     639 					xio_close(cs.primary_src);
                                 		.LINE  "C:\Workspace\e2studio\git\MT01_master\src\states\ut_state_move.c",639
00000E12 FB12rrrrrrrr            		MOV.L #_cs, R1
00000E18 B611                    		MOVU.B 18H[R1], R1
00000E1A 05rrrrrr             A  		BSR _xio_close
00000E1E                         L331:	; bb361.split39
                                 ;     640 					if(isDwell == true)
                                 		.LINE  "C:\Workspace\e2studio\git\MT01_master\src\states\ut_state_move.c",640
00000E1E FBE2rrrrrrrr            		MOV.L #_isDwell, R14
00000E24 58EE                    		MOVU.B [R14], R14
00000E26 611E                    		CMP #01H, R14
00000E28 21rr                    		BNE L337
00000E2A                         L332:	; bb364
00000E2A 6641                    		MOV.L #00000004H, R1
                                 ;     641 					{
                                 ;     642 //						st_command_dwell(DWELL_EXIT);
                                 ;     643 //						st_command_dwell(DWELL_RESTART);
                                 ;     644 						st_command_dwell(DWELL_ZERO);
                                 		.LINE  "C:\Workspace\e2studio\git\MT01_master\src\states\ut_state_move.c",644
00000E2C 05rrrrrr             A  		BSR _st_command_dwell
00000E30                         L333:	; bb364.split
                                 ;     645 						mr.move_state = MOVE_OFF;
                                 		.LINE  "C:\Workspace\e2studio\git\MT01_master\src\states\ut_state_move.c",645
00000E30 FB12rrrrrrrr            		MOV.L #_mr, R1
00000E36 3C1200                  		MOV.B #00H, 02H[R1]
00000E39                         L334:	; bb364.split40
                                 ;     646 //						while(!st_runtime_isbusy());
                                 ;     647 						cm.queue_flush_requested = false;
                                 		.LINE  "C:\Workspace\e2studio\git\MT01_master\src\states\ut_state_move.c",647
00000E39 FBE2rrrrrrrr            		MOV.L #_cm, R14
00000E3F FAE4480200              		MOV.B #00H, 0248H[R14]
00000E44                         L335:	; bb364.split41
                                 ;     648 						cm_queue_flush();
                                 		.LINE  "C:\Workspace\e2studio\git\MT01_master\src\states\ut_state_move.c",648
00000E44 05rrrrrr             A  		BSR _cm_queue_flush
00000E48                         L336:	; bb364.split42
                                 ;     649 						cm.motion_state = MOTION_STOP;
                                 		.LINE  "C:\Workspace\e2studio\git\MT01_master\src\states\ut_state_move.c",649
00000E48 FBE2rrrrrrrr            		MOV.L #_cm, R14
00000E4E FAE41F0200              		MOV.B #00H, 021FH[R14]
00000E53                         L337:	; bb371
                                 ;     650 					}
                                 ;     651 					state = 0;
                                 		.LINE  "C:\Workspace\e2studio\git\MT01_master\src\states\ut_state_move.c",651
00000E53 FBE2rrrrrrrr            		MOV.L #_state, R14
00000E59 F8E400                  		MOV.B #00H, [R14]
00000E5C                         L338:	; bb371.split
                                 ;     652 					cm.cycle_state = CYCLE_OFF;
                                 		.LINE  "C:\Workspace\e2studio\git\MT01_master\src\states\ut_state_move.c",652
00000E5C FBE2rrrrrrrr            		MOV.L #_cm, R14
00000E62 FAE41E0200              		MOV.B #00H, 021EH[R14]
00000E67                         L339:	; bb371.split43
                                 ;     653 					pl_arcook_stop();
                                 		.LINE  "C:\Workspace\e2studio\git\MT01_master\src\states\ut_state_move.c",653
00000E67 05rrrrrr             A  		BSR _pl_arcook_stop
00000E6B                         L340:	; bb371.split44
                                 ;     654 			//		isCuttingSet(false);
                                 ;     655 					iif_bind_idle();
                                 		.LINE  "C:\Workspace\e2studio\git\MT01_master\src\states\ut_state_move.c",655
00000E6B 05rrrrrr             A  		BSR _iif_bind_idle
00000E6F                         L341:	; bb371.split45
                                 ;     656 					cm.gmx.feed_rate_override_enable = true;
                                 		.LINE  "C:\Workspace\e2studio\git\MT01_master\src\states\ut_state_move.c",656
00000E6F FBE2rrrrrrrr            		MOV.L #_cm, R14
00000E75 FAE41C0301              		MOV.B #01H, 031CH[R14]
00000E7A                         L342:	; bb371.split46
                                 ;     657 					cm.gmx.feed_rate_override_factor = 1;
                                 		.LINE  "C:\Workspace\e2studio\git\MT01_master\src\states\ut_state_move.c",657
00000E7A FBE2rrrrrrrr            		MOV.L #_cm, R14
00000E80 F9E2C50000803F          		MOV.L #3F800000H, 0314H[R14]
00000E87                         L343:	; bb373
                                 ;     658 					while(cm.queue_flush_requested == true && !programEnd)
                                 		.LINE  "C:\Workspace\e2studio\git\MT01_master\src\states\ut_state_move.c",658
00000E87 FBE2rrrrrrrr            		MOV.L #_cm, R14
00000E8D 5AEE4802                		MOVU.B 0248H[R14], R14
00000E91 611E                    		CMP #01H, R14
00000E93 21rr                    		BNE L349
00000E95                         L344:	; bb378
00000E95 FBE2rrrrrrrr            		MOV.L #_programEnd, R14
00000E9B 58EE                    		MOVU.B [R14], R14
00000E9D 610E                    		CMP #00H, R14
00000E9F 10                   S  		BEQ L346
00000EA0                         L345:	; bb383
00000EA0 F80600                  		MOV.L #00000000H, [R0]
00000EA3 08                   S  		BRA L347
00000EA4                         L346:	; bb384
00000EA4 F80601                  		MOV.L #00000001H, [R0]
00000EA7                         L347:	; bb385
00000EA7 EC01                    		MOV.L [R0], R1
00000EA9 6101                    		CMP #00H, R1
00000EAB 10                   S  		BEQ L349
00000EAC                         L348:	; bb388
00000EAC F80601                  		MOV.L #00000001H, [R0]
00000EAF 08                   S  		BRA L350
00000EB0                         L349:	; bb389
00000EB0 F80600                  		MOV.L #00000000H, [R0]
00000EB3                         L350:	; bb390
00000EB3 EC01                    		MOV.L [R0], R1
00000EB5 6101                    		CMP #00H, R1
00000EB7 21rr                    		BNE L343
00000EB9                         L351:	; bb395
                                 ;     659 					{
                                 ;     660 
                                 ;     661 					}
                                 ;     662 					cm.probe_state = PROBE_FAILED;
                                 		.LINE  "C:\Workspace\e2studio\git\MT01_master\src\states\ut_state_move.c",662
00000EB9 FBE2rrrrrrrr            		MOV.L #_cm, R14
00000EBF FAE4280200              		MOV.B #00H, 0228H[R14]
00000EC4                         L352:	; bb395.split
00000EC4 FBEE22C008              		MOV.L #0008C022H, R14
                                 ;     663 					TORCH = FALSE;
                                 		.LINE  "C:\Workspace\e2studio\git\MT01_master\src\states\ut_state_move.c",663
00000EC9 F0E3                    		BSET #03H, [R14].B
00000ECB                         L353:	; bb395.split47
                                 ;     664 					macro_func_ptr = command_idle;
                                 		.LINE  "C:\Workspace\e2studio\git\MT01_master\src\states\ut_state_move.c",664
00000ECB FBE2rrrrrrrr            		MOV.L #_macro_func_ptr, R14
00000ED1 FBF2rrrrrrrr            		MOV.L #_command_idle, R15
00000ED7 E3EF                    		MOV.L R15, [R14]
00000ED9                         L354:	; bb395.split48
                                 ;     665 					intepreterRunning = false;
                                 		.LINE  "C:\Workspace\e2studio\git\MT01_master\src\states\ut_state_move.c",665
00000ED9 FBE2rrrrrrrr            		MOV.L #_intepreterRunning, R14
00000EDF F8E400                  		MOV.B #00H, [R14]
00000EE2                         L355:	; bb395.split49
                                 ;     666 					sim = false;
                                 		.LINE  "C:\Workspace\e2studio\git\MT01_master\src\states\ut_state_move.c",666
00000EE2 FBE2rrrrrrrr            		MOV.L #_sim, R14
00000EE8 F8E400                  		MOV.B #00H, [R14]
00000EEB                         L356:	; bb395.split50
                                 ;     667 					currentLine = 0;
                                 		.LINE  "C:\Workspace\e2studio\git\MT01_master\src\states\ut_state_move.c",667
00000EEB FBE2rrrrrrrr            		MOV.L #_currentLine, R14
00000EF1 F8E600                  		MOV.L #00000000H, [R14]
00000EF4                         L357:	; bb395.split51
                                 ;     668 					zinhibitor = false;
                                 		.LINE  "C:\Workspace\e2studio\git\MT01_master\src\states\ut_state_move.c",668
00000EF4 FBE2rrrrrrrr            		MOV.L #_zinhibitor, R14
00000EFA F8E400                  		MOV.B #00H, [R14]
00000EFD                         L358:	; bb395.split52
                                 ;     669 					if (programEnd)
                                 		.LINE  "C:\Workspace\e2studio\git\MT01_master\src\states\ut_state_move.c",669
00000EFD FBE2rrrrrrrr            		MOV.L #_programEnd, R14
00000F03 58EE                    		MOVU.B [R14], R14
00000F05 610E                    		CMP #00H, R14
00000F07 10                   S  		BEQ L360
00000F08                         L359:	; bb400
                                 ;     670 					{
                                 ;     671 						return STATE_MANUAL_MODE;
                                 		.LINE  "C:\Workspace\e2studio\git\MT01_master\src\states\ut_state_move.c",671
00000F08 3E010D                  		MOV.L #0000000DH, 04H[R0]
00000F0B 38rrrr               W  		BRA L446
00000F0E                         L360:	; bb407
                                 ;     672 					}
                                 ;     673 
                                 ;     674 					return STATE_CONFIG_AUTO_MODE;
                                 		.LINE  "C:\Workspace\e2studio\git\MT01_master\src\states\ut_state_move.c",674
00000F0E 3E0108                  		MOV.L #00000008H, 04H[R0]
00000F11 38rrrr               W  		BRA L446
00000F14                         L361:	; bb409
                                 ;     675 				}
                                 ;     676 				else
                                 ;     677 				{
                                 ;     678 					xTimerStart( swTimers[AUTO_MENU_TIMER], 0 );
                                 		.LINE  "C:\Workspace\e2studio\git\MT01_master\src\states\ut_state_move.c",678
00000F14 FB12rrrrrrrr            		MOV.L #_swTimers, R1
00000F1A AA16                    		MOV.L 20H[R1], R6
00000F1C 05rrrrrr             A  		BSR _xTaskGetTickCount
00000F20 EF13                    		MOV.L R1, R3
00000F22 6040                    		SUB #04H, R0
00000F24 F80600                  		MOV.L #00000000H, [R0]
00000F27 6604                    		MOV.L #00000000H, R4
00000F29 6612                    		MOV.L #00000001H, R2
00000F2B EF61                    		MOV.L R6, R1
00000F2D 05rrrrrr             A  		BSR _xTimerGenericCommand
00000F31 6240                    		ADD #04H, R0
00000F33 2Err                 B  		BRA L370
00000F35                         L362:	; bb417
00000F35 FBE2rrrrrrrr            		MOV.L #_programEnd, R14
00000F3B 58EE                    		MOVU.B [R14], R14
00000F3D 610E                    		CMP #00H, R14
00000F3F 10                   S  		BEQ L364
00000F40                         L363:	; bb422
00000F40 F80601                  		MOV.L #00000001H, [R0]
00000F43 08                   S  		BRA L365
00000F44                         L364:	; bb423
00000F44 F80600                  		MOV.L #00000000H, [R0]
00000F47                         L365:	; bb424
00000F47 EC01                    		MOV.L [R0], R1
00000F49 6101                    		CMP #00H, R1
00000F4B 3Brrrr               W  		BNE L322
00000F4E 2Err                 B  		BRA L361
00000F50                         L366:	; bb434
00000F50 FBE2rrrrrrrr            		MOV.L #_lstop, R14
00000F56 58EE                    		MOVU.B [R14], R14
00000F58 610E                    		CMP #00H, R14
00000F5A 10                   S  		BEQ L368
00000F5B                         L367:	; bb439
00000F5B F80601                  		MOV.L #00000001H, [R0]
00000F5E 08                   S  		BRA L369
00000F5F                         L368:	; bb440
00000F5F F80600                  		MOV.L #00000000H, [R0]
00000F62                         L369:	; bb441
00000F62 EC01                    		MOV.L [R0], R1
00000F64 6101                    		CMP #00H, R1
00000F66 3Brrrr               W  		BNE L308
00000F69                         L370:	; bb447
                                 ;     679 		//			warm_stop(1);
                                 ;     680 				}
                                 ;     681 
                                 ;     682 			}
                                 ;     683 			if(!lstop){
                                 		.LINE  "C:\Workspace\e2studio\git\MT01_master\src\states\ut_state_move.c",683
00000F69 FBE2rrrrrrrr            		MOV.L #_lstop, R14
00000F6F 58EE                    		MOVU.B [R14], R14
00000F71 610E                    		CMP #00H, R14
00000F73 21rr                    		BNE L379
00000F75 2Err                 B  		BRA L380
00000F77                         L371:	; bb449
                                 ;     684 				if(arco == ARCO_OK_FAILED)
                                 		.LINE  "C:\Workspace\e2studio\git\MT01_master\src\states\ut_state_move.c",684
00000F77 A901                    		MOV.L 10H[R0], R1
00000F79 77010000FF              		CMP #0FFFF0000H, R1
00000F7E 21rr                    		BNE L375
00000F80                         L372:	; bb450
                                 ;     685 				{
                                 ;     686 					arco = ARCO_OK_OFF;
                                 		.LINE  "C:\Workspace\e2studio\git\MT01_master\src\states\ut_state_move.c",686
00000F80 F90E040000FE            		MOV.L #0FFFE0000H, 10H[R0]
00000F86                         L373:	; bb450.split
                                 ;     687 					lstop = true;
                                 		.LINE  "C:\Workspace\e2studio\git\MT01_master\src\states\ut_state_move.c",687
00000F86 FBE2rrrrrrrr            		MOV.L #_lstop, R14
00000F8C F8E401                  		MOV.B #01H, [R14]
00000F8F                         L374:	; bb450.split53
                                 ;     688 					xTimerStart( swTimers[AUTO_MENU_TIMER], 0 );
                                 		.LINE  "C:\Workspace\e2studio\git\MT01_master\src\states\ut_state_move.c",688
00000F8F FB12rrrrrrrr            		MOV.L #_swTimers, R1
00000F95 AA16                    		MOV.L 20H[R1], R6
00000F97 05rrrrrr             A  		BSR _xTaskGetTickCount
00000F9B EF13                    		MOV.L R1, R3
00000F9D 6040                    		SUB #04H, R0
00000F9F F80600                  		MOV.L #00000000H, [R0]
00000FA2 6604                    		MOV.L #00000000H, R4
00000FA4 6612                    		MOV.L #00000001H, R2
00000FA6 EF61                    		MOV.L R6, R1
00000FA8 05rrrrrr             A  		BSR _xTimerGenericCommand
00000FAC 6240                    		ADD #04H, R0
00000FAE 38rrrr               W  		BRA L431
00000FB1                         L375:	; bb455
                                 ;     689 				}
                                 ;     690 				else
                                 ;     691 				{
                                 ;     692 					if (isCuttingGet() == true)
                                 		.LINE  "C:\Workspace\e2studio\git\MT01_master\src\states\ut_state_move.c",692
00000FB1 05rrrrrr             A  		BSR _isCuttingGet
00000FB5 6111                    		CMP #01H, R1
00000FB7 18                   S  		BNE L377
00000FB8                         L376:	; bb456
00000FB8 6611                    		MOV.L #00000001H, R1
                                 ;     693 						stopDuringCut_Set(true);
                                 		.LINE  "C:\Workspace\e2studio\git\MT01_master\src\states\ut_state_move.c",693
00000FBA 05rrrrrr             A  		BSR _stopDuringCut_Set
00000FBE                         L377:	; bb462
                                 ;     694 					lstop = true;
                                 		.LINE  "C:\Workspace\e2studio\git\MT01_master\src\states\ut_state_move.c",694
00000FBE FBE2rrrrrrrr            		MOV.L #_lstop, R14
00000FC4 F8E401                  		MOV.B #01H, [R14]
00000FC7                         L378:	; bb462.split
00000FC7 6601                    		MOV.L #00000000H, R1
                                 ;     695 					warm_stop(0);
                                 		.LINE  "C:\Workspace\e2studio\git\MT01_master\src\states\ut_state_move.c",695
00000FC9 39rrrr               W  		BSR _warm_stop
00000FCC 38rrrr               W  		BRA L431
00000FCF                         L379:	; bb472
00000FCF F80600                  		MOV.L #00000000H, [R0]
00000FD2 08                   S  		BRA L381
00000FD3                         L380:	; bb473
00000FD3 F80601                  		MOV.L #00000001H, [R0]
00000FD6                         L381:	; bb474
00000FD6 EC01                    		MOV.L [R0], R1
00000FD8 6101                    		CMP #00H, R1
00000FDA 21rr                    		BNE L371
00000FDC 38rrrr               W  		BRA L431
00000FDF                         L382:	; bb479
                                 ;     696 				}
                                 ;     697 			}
                                 ;     698 
                                 ;     699 			break;
                                 ;     700 
                                 ;     701 		case KEY_RELEASED:
                                 ;     702 			iif_func_released();
                                 		.LINE  "C:\Workspace\e2studio\git\MT01_master\src\states\ut_state_move.c",702
00000FDF FBE2rrrrrrrr            		MOV.L #_iif_func_released, R14
00000FE5 ECEE                    		MOV.L [R14], R14
00000FE7 7F1E                    		JSR R14
00000FE9 38rrrr               W  		BRA L431
00000FEC                         L383:	; bb482
                                 ;     703 			break;
                                 ;     704 		/* TODO: operate machine - with other keys */
                                 ;     705 		case MATERIAL_FAILED:
                                 ;     706 			if(!arco)
                                 		.LINE  "C:\Workspace\e2studio\git\MT01_master\src\states\ut_state_move.c",706
00000FEC A901                    		MOV.L 10H[R0], R1
00000FEE 6101                    		CMP #00H, R1
00000FF0 21rr                    		BNE L392
00000FF2 2Err                 B  		BRA L393
00000FF4                         L384:	; bb483
                                 ;     707 			{
                                 ;     708 				xTimerStop( swTimers[AUTO_MENU_TIMER], 0 );
                                 		.LINE  "C:\Workspace\e2studio\git\MT01_master\src\states\ut_state_move.c",708
00000FF4 FB12rrrrrrrr            		MOV.L #_swTimers, R1
00000FFA AA11                    		MOV.L 20H[R1], R1
00000FFC 6040                    		SUB #04H, R0
00000FFE F80600                  		MOV.L #00000000H, [R0]
00001001 6603                    		MOV.L #00000000H, R3
00001003 6632                    		MOV.L #00000003H, R2
00001005 EF34                    		MOV.L R3, R4
00001007 05rrrrrr             A  		BSR _xTimerGenericCommand
0000100B 6240                    		ADD #04H, R0
0000100D                         L385:	; bb483.split
                                 ;     709 				ut_lcd_output_warning("CHECAR SENSOR\nOHMICO\n");
                                 		.LINE  "C:\Workspace\e2studio\git\MT01_master\src\states\ut_state_move.c",709
0000100D FB12rrrrrrrr            		MOV.L #_L27, R1
00001013 05rrrrrr             A  		BSR _ut_lcd_output_warning
00001017                         L386:	; bb483.split54
00001017 FBEE22C008              		MOV.L #0008C022H, R14
                                 ;     710 				TORCH = FALSE;
                                 		.LINE  "C:\Workspace\e2studio\git\MT01_master\src\states\ut_state_move.c",710
0000101C F0E3                    		BSET #03H, [R14].B
0000101E                         L387:	; bb483.split55
                                 ;     711 			//	isCuttingSet(false);
                                 ;     712 				statePrevious = MATERIAL_FAILED;
                                 		.LINE  "C:\Workspace\e2studio\git\MT01_master\src\states\ut_state_move.c",712
0000101E F90E030000FD            		MOV.L #0FFFD0000H, 0CH[R0]
00001024                         L388:	; bb483.split56
                                 ;     713 				arco = ARCO_OK_FAILED;
                                 		.LINE  "C:\Workspace\e2studio\git\MT01_master\src\states\ut_state_move.c",713
00001024 F90E040000FF            		MOV.L #0FFFF0000H, 10H[R0]
0000102A                         L389:	; bb483.split57
                                 ;     714 				lstop = false;
                                 		.LINE  "C:\Workspace\e2studio\git\MT01_master\src\states\ut_state_move.c",714
0000102A FBE2rrrrrrrr            		MOV.L #_lstop, R14
00001030 F8E400                  		MOV.B #00H, [R14]
00001033                         L390:	; bb483.split58
00001033 6601                    		MOV.L #00000000H, R1
                                 ;     715 				warm_stop(0);
                                 		.LINE  "C:\Workspace\e2studio\git\MT01_master\src\states\ut_state_move.c",715
00001035 39rrrr               W  		BSR _warm_stop
00001038                         L391:	; bb483.split59
                                 ;     716 				state = 0;
                                 		.LINE  "C:\Workspace\e2studio\git\MT01_master\src\states\ut_state_move.c",716
00001038 FBE2rrrrrrrr            		MOV.L #_state, R14
0000103E F8E400                  		MOV.B #00H, [R14]
00001041 38rrrr               W  		BRA L431
00001044                         L392:	; bb492
00001044 F80600                  		MOV.L #00000000H, [R0]
00001047 08                   S  		BRA L394
00001048                         L393:	; bb493
00001048 F80601                  		MOV.L #00000001H, [R0]
0000104B                         L394:	; bb494
0000104B EC01                    		MOV.L [R0], R1
0000104D 6101                    		CMP #00H, R1
0000104F 21rr                    		BNE L384
00001051 38rrrr               W  		BRA L431
00001054                         L395:	; bb500
                                 ;     717 			}
                                 ;     718 			break;
                                 ;     719 		case ARCO_OK_FAILED:
                                 ;     720 			if(!sim){
                                 		.LINE  "C:\Workspace\e2studio\git\MT01_master\src\states\ut_state_move.c",720
00001054 FBE2rrrrrrrr            		MOV.L #_sim, R14
0000105A 58EE                    		MOVU.B [R14], R14
0000105C 610E                    		CMP #00H, R14
0000105E 21rr                    		BNE L400
00001060 2Err                 B  		BRA L401
00001062                         L396:	; bb501
00001062 6611                    		MOV.L #00000001H, R1
                                 ;     721 				updatePosition(AUTO);
                                 		.LINE  "C:\Workspace\e2studio\git\MT01_master\src\states\ut_state_move.c",721
00001064 39rrrr               W  		BSR __$updatePosition
00001067                         L397:	; bb501.split
                                 ;     722 				gTitle = AUTO;
                                 		.LINE  "C:\Workspace\e2studio\git\MT01_master\src\states\ut_state_move.c",722
00001067 FBE2rrrrrrrr            		MOV.L #_gTitle, R14
0000106D F8E401                  		MOV.B #01H, [R14]
00001070 2Err                 B  		BRA L403
00001072                         L398:	; bb502
00001072 6631                    		MOV.L #00000003H, R1
                                 ;     723 			}
                                 ;     724 			else{
                                 ;     725 				updatePosition(SIM);
                                 		.LINE  "C:\Workspace\e2studio\git\MT01_master\src\states\ut_state_move.c",725
00001074 39rrrr               W  		BSR __$updatePosition
00001077                         L399:	; bb502.split
                                 ;     726 				gTitle = SIM;
                                 		.LINE  "C:\Workspace\e2studio\git\MT01_master\src\states\ut_state_move.c",726
00001077 FBE2rrrrrrrr            		MOV.L #_gTitle, R14
0000107D F8E403                  		MOV.B #03H, [R14]
00001080 2Err                 B  		BRA L403
00001082                         L400:	; bb507
00001082 F80600                  		MOV.L #00000000H, [R0]
00001085 08                   S  		BRA L402
00001086                         L401:	; bb508
00001086 F80601                  		MOV.L #00000001H, [R0]
00001089                         L402:	; bb509
00001089 EC01                    		MOV.L [R0], R1
0000108B 6101                    		CMP #00H, R1
0000108D 21rr                    		BNE L396
0000108F 2Err                 B  		BRA L398
00001091                         L403:	; bb513
                                 ;     727 			}
                                 ;     728 			xTimerStart( swTimers[AUTO_MENU_TIMER], 0 );
                                 		.LINE  "C:\Workspace\e2studio\git\MT01_master\src\states\ut_state_move.c",728
00001091 FB12rrrrrrrr            		MOV.L #_swTimers, R1
00001097 AA16                    		MOV.L 20H[R1], R6
00001099 05rrrrrr             A  		BSR _xTaskGetTickCount
0000109D EF13                    		MOV.L R1, R3
0000109F 6040                    		SUB #04H, R0
000010A1 F80600                  		MOV.L #00000000H, [R0]
000010A4 6604                    		MOV.L #00000000H, R4
000010A6 6612                    		MOV.L #00000001H, R2
000010A8 EF61                    		MOV.L R6, R1
000010AA 05rrrrrr             A  		BSR _xTimerGenericCommand
000010AE 6240                    		ADD #04H, R0
000010B0 38rrrr               W  		BRA L431
000010B3                         L404:	; bb518
                                 ;     729 			break;
                                 ;     730 		case ARCO_OK_INIT_FAILED:
                                 ;     731 			if(!arco)
                                 		.LINE  "C:\Workspace\e2studio\git\MT01_master\src\states\ut_state_move.c",731
000010B3 A901                    		MOV.L 10H[R0], R1
000010B5 6101                    		CMP #00H, R1
000010B7 21rr                    		BNE L413
000010B9 2Err                 B  		BRA L414
000010BB                         L405:	; bb519
                                 ;     732 			{
                                 ;     733 				xTimerStop( swTimers[AUTO_MENU_TIMER], 0 );
                                 		.LINE  "C:\Workspace\e2studio\git\MT01_master\src\states\ut_state_move.c",733
000010BB FB12rrrrrrrr            		MOV.L #_swTimers, R1
000010C1 AA11                    		MOV.L 20H[R1], R1
000010C3 6040                    		SUB #04H, R0
000010C5 F80600                  		MOV.L #00000000H, [R0]
000010C8 6603                    		MOV.L #00000000H, R3
000010CA 6632                    		MOV.L #00000003H, R2
000010CC EF34                    		MOV.L R3, R4
000010CE 05rrrrrr             A  		BSR _xTimerGenericCommand
000010D2 6240                    		ADD #04H, R0
000010D4                         L406:	; bb519.split
                                 ;     734 				ut_lcd_output_warning("PLASMA N홒\nTRANSFERIDO\n");
                                 		.LINE  "C:\Workspace\e2studio\git\MT01_master\src\states\ut_state_move.c",734
000010D4 FB12rrrrrrrr            		MOV.L #_L28, R1
000010DA 05rrrrrr             A  		BSR _ut_lcd_output_warning
000010DE                         L407:	; bb519.split60
000010DE FBEE22C008              		MOV.L #0008C022H, R14
                                 ;     735 				TORCH = FALSE;
                                 		.LINE  "C:\Workspace\e2studio\git\MT01_master\src\states\ut_state_move.c",735
000010E3 F0E3                    		BSET #03H, [R14].B
000010E5                         L408:	; bb519.split61
                                 ;     736 				pl_arcook_stop();
                                 		.LINE  "C:\Workspace\e2studio\git\MT01_master\src\states\ut_state_move.c",736
000010E5 05rrrrrr             A  		BSR _pl_arcook_stop
000010E9                         L409:	; bb519.split62
                                 ;     737 			//	isCuttingSet(false);
                                 ;     738 				arco = ARCO_OK_FAILED;
                                 		.LINE  "C:\Workspace\e2studio\git\MT01_master\src\states\ut_state_move.c",738
000010E9 F90E040000FF            		MOV.L #0FFFF0000H, 10H[R0]
000010EF                         L410:	; bb519.split63
                                 ;     739 				lstop = false;
                                 		.LINE  "C:\Workspace\e2studio\git\MT01_master\src\states\ut_state_move.c",739
000010EF FBE2rrrrrrrr            		MOV.L #_lstop, R14
000010F5 F8E400                  		MOV.B #00H, [R14]
000010F8                         L411:	; bb519.split64
000010F8 6601                    		MOV.L #00000000H, R1
                                 ;     740 				warm_stop(0);
                                 		.LINE  "C:\Workspace\e2studio\git\MT01_master\src\states\ut_state_move.c",740
000010FA 39rrrr               W  		BSR _warm_stop
000010FD                         L412:	; bb519.split65
                                 ;     741 				ltorchBuffer = TRUE;
                                 		.LINE  "C:\Workspace\e2studio\git\MT01_master\src\states\ut_state_move.c",741
000010FD FBE2rrrrrrrr            		MOV.L #__$ltorchBuffer, R14
00001103 F8E400                  		MOV.B #00H, [R14]
00001106 38rrrr               W  		BRA L431
00001109                         L413:	; bb528
00001109 F80600                  		MOV.L #00000000H, [R0]
0000110C 08                   S  		BRA L415
0000110D                         L414:	; bb529
0000110D F80601                  		MOV.L #00000001H, [R0]
00001110                         L415:	; bb530
00001110 EC01                    		MOV.L [R0], R1
00001112 6101                    		CMP #00H, R1
00001114 21rr                    		BNE L405
00001116 38rrrr               W  		BRA L431
00001119                         L416:	; bb536
                                 ;     742 			}
                                 ;     743 			break;
                                 ;     744 
                                 ;     745 		case EMERGENCIA_SIGNAL:
                                 ;     746 			if (!programEnd)
                                 		.LINE  "C:\Workspace\e2studio\git\MT01_master\src\states\ut_state_move.c",746
00001119 FBE2rrrrrrrr            		MOV.L #_programEnd, R14
0000111F 58EE                    		MOVU.B [R14], R14
00001121 610E                    		CMP #00H, R14
00001123 21rr                    		BNE L428
00001125 2Err                 B  		BRA L429
00001127                         L417:	; bb537
                                 ;     747 			{
                                 ;     748 				statePrevious = EMERGENCIA_SIGNAL;
                                 		.LINE  "C:\Workspace\e2studio\git\MT01_master\src\states\ut_state_move.c",748
00001127 F902030000AAAA          		MOV.L #0AAAA0000H, 0CH[R0]
0000112E                         L418:	; bb537.split
                                 ;     749 			//	warm_stop(0);
                                 ;     750 				if(!sim){
                                 		.LINE  "C:\Workspace\e2studio\git\MT01_master\src\states\ut_state_move.c",750
0000112E FBE2rrrrrrrr            		MOV.L #_sim, R14
00001134 58EE                    		MOVU.B [R14], R14
00001136 610E                    		CMP #00H, R14
00001138 21rr                    		BNE L423
0000113A 2Err                 B  		BRA L424
0000113C                         L419:	; bb539
0000113C 6611                    		MOV.L #00000001H, R1
                                 ;     751 					updatePosition(AUTO);
                                 		.LINE  "C:\Workspace\e2studio\git\MT01_master\src\states\ut_state_move.c",751
0000113E 39rrrr               W  		BSR __$updatePosition
00001141                         L420:	; bb539.split
                                 ;     752 					gTitle = AUTO;
                                 		.LINE  "C:\Workspace\e2studio\git\MT01_master\src\states\ut_state_move.c",752
00001141 FBE2rrrrrrrr            		MOV.L #_gTitle, R14
00001147 F8E401                  		MOV.B #01H, [R14]
0000114A 2Err                 B  		BRA L426
0000114C                         L421:	; bb540
0000114C 6631                    		MOV.L #00000003H, R1
                                 ;     753 				}
                                 ;     754 				else{
                                 ;     755 					updatePosition(SIM);
                                 		.LINE  "C:\Workspace\e2studio\git\MT01_master\src\states\ut_state_move.c",755
0000114E 39rrrr               W  		BSR __$updatePosition
00001151                         L422:	; bb540.split
                                 ;     756 					gTitle = SIM;
                                 		.LINE  "C:\Workspace\e2studio\git\MT01_master\src\states\ut_state_move.c",756
00001151 FBE2rrrrrrrr            		MOV.L #_gTitle, R14
00001157 F8E403                  		MOV.B #03H, [R14]
0000115A 2Err                 B  		BRA L426
0000115C                         L423:	; bb545
0000115C F80600                  		MOV.L #00000000H, [R0]
0000115F 08                   S  		BRA L425
00001160                         L424:	; bb546
00001160 F80601                  		MOV.L #00000001H, [R0]
00001163                         L425:	; bb547
00001163 EC01                    		MOV.L [R0], R1
00001165 6101                    		CMP #00H, R1
00001167 21rr                    		BNE L419
00001169 2Err                 B  		BRA L421
0000116B                         L426:	; bb551
                                 ;     757 				}
                                 ;     758 				xTimerStart( swTimers[AUTO_MENU_TIMER], 0 );
                                 		.LINE  "C:\Workspace\e2studio\git\MT01_master\src\states\ut_state_move.c",758
0000116B FB12rrrrrrrr            		MOV.L #_swTimers, R1
00001171 AA16                    		MOV.L 20H[R1], R6
00001173 05rrrrrr             A  		BSR _xTaskGetTickCount
00001177 EF13                    		MOV.L R1, R3
00001179 6040                    		SUB #04H, R0
0000117B F80600                  		MOV.L #00000000H, [R0]
0000117E 6604                    		MOV.L #00000000H, R4
00001180 6612                    		MOV.L #00000001H, R2
00001182 EF61                    		MOV.L R6, R1
00001184 05rrrrrr             A  		BSR _xTimerGenericCommand
00001188 6240                    		ADD #04H, R0
0000118A 2Err                 B  		BRA L431
0000118C                         L427:	; bb555
                                 ;     759 			}
                                 ;     760 			else
                                 ;     761 			{
                                 ;     762 				ut_lcd_output_warning("CORTE AUTOM햀ICO\nFINALIZADO\nPRESSIONE ESC\n");
                                 		.LINE  "C:\Workspace\e2studio\git\MT01_master\src\states\ut_state_move.c",762
0000118C FB12rrrrrrrr            		MOV.L #_L21, R1
00001192 05rrrrrr             A  		BSR _ut_lcd_output_warning
00001196 2Err                 B  		BRA L431
00001198                         L428:	; bb560
00001198 F80600                  		MOV.L #00000000H, [R0]
0000119B 08                   S  		BRA L430
0000119C                         L429:	; bb561
0000119C F80601                  		MOV.L #00000001H, [R0]
0000119F                         L430:	; bb562
0000119F EC01                    		MOV.L [R0], R1
000011A1 6101                    		CMP #00H, R1
000011A3 21rr                    		BNE L417
000011A5 2Err                 B  		BRA L427
000011A7                         L431:	; bb570.split
                                 		.LINE  "C:\Workspace\e2studio\git\MT01_master\src\states\ut_state_move.c",441
000011A7 3E0200                  		MOV.L #00000000H, 08H[R0]
000011AA                         L432:	; bb570.split66
                                 		.LINE  "C:\Workspace\e2studio\git\MT01_master\src\states\ut_state_move.c",442
000011AA FBE2rrrrrrrr            		MOV.L #_qKeyboard, R14
000011B0 ECE1                    		MOV.L [R14], R1
000011B2 6604                    		MOV.L #00000000H, R4
000011B4 FB36FF                  		MOV.L #0FFFFFFFFH, R3
000011B7 710208                  		ADD #08H, R0, R2
000011BA 05rrrrrr             A  		BSR _xQueueGenericReceive
000011BE                         L433:	; bb570.split67
                                 		.LINE  "C:\Workspace\e2studio\git\MT01_master\src\states\ut_state_move.c",445
000011BE A881                    		MOV.L 08H[R0], R1
000011C0 74010000AAAA            		CMP #0AAAA0000H, R1
000011C6 3Arrrr               W  		BEQ L416
000011C9                         L434:	; bb570.split67
000011C9 77010000FC              		CMP #0FFFC0000H, R1
000011CE 3Arrrr               W  		BEQ L404
000011D1                         L435:	; bb570.split67
000011D1 77010000FD              		CMP #0FFFD0000H, R1
000011D6 3Arrrr               W  		BEQ L383
000011D9                         L436:	; bb570.split67
000011D9 77010000FF              		CMP #0FFFF0000H, R1
000011DE 3Arrrr               W  		BEQ L395
000011E1                         L437:	; bb570.split67
000011E1 6101                    		CMP #00H, R1
000011E3 3Arrrr               W  		BEQ L382
000011E6                         L438:	; bb570.split67
000011E6 6111                    		CMP #01H, R1
000011E8 3Arrrr               W  		BEQ L306
000011EB                         L439:	; bb570.split67
000011EB 6141                    		CMP #04H, R1
000011ED 3Arrrr               W  		BEQ L224
000011F0                         L440:	; bb570.split67
000011F0 755110                  		CMP #10H, R1
000011F3 3Arrrr               W  		BEQ L222
000011F6                         L441:	; bb570.split67
000011F6 755120                  		CMP #20H, R1
000011F9 3Arrrr               W  		BEQ L221
000011FC                         L442:	; bb570.split67
000011FC 755140                  		CMP #40H, R1
000011FF 3Arrrr               W  		BEQ L223
00001202                         L443:	; bb570.split67
00001202 76010001                		CMP #0100H, R1
00001206 3Arrrr               W  		BEQ L219
00001209                         L444:	; bb570.split67
00001209 76010002                		CMP #0200H, R1
0000120D 3Arrrr               W  		BEQ L220
00001210                         L445:	; bb570.split67
00001210 76010004                		CMP #0400H, R1
00001214 3Arrrr               W  		BEQ L218
00001217 2Err                 B  		BRA L431
00001219                         L446:	; bb573
00001219 A809                    		MOV.L 04H[R0], R1
0000121B A189                    		MOV.L R1, 1CH[R0]
                                 ;     763 			}
                                 ;     764 			break;
                                 ;     765 
                                 ;     766 		default: break;
                                 ;     767 		}
                                 ;     768 
                                 ;     769 
                                 ;     770 
                                 ;     771 		/* Update position */
                                 ;     772 	//	updatePosition(NULL);
                                 ;     773 	}
                                 ;     774 
                                 ;     775 	return STATE_MAIN_MENU;
                                 ;     776 }
                                 		.LINE  "C:\Workspace\e2studio\git\MT01_master\src\states\ut_state_move.c",776
0000121D 3F660A                  		RTSD #28H, R6-R6
00001220                         _ut_state_deslocaZero_mode:
                                 		.STACK	_ut_state_deslocaZero_mode=36
                                 ;     777 
                                 ;     778 ut_state ut_state_deslocaZero_mode(ut_context* pContext)
                                 		.LINE  "C:\Workspace\e2studio\git\MT01_master\src\states\ut_state_move.c",778
00001220 7EA6                    		PUSH.L R6
00001222 7100E8                  		ADD #0FFFFFFE8H, R0
00001225 A109                    		MOV.L R1, 14H[R0]
                                 ;     779 {
                                 ;     780 	uint32_t keyEntry;
                                 ;     781 //	stepper_init();
                                 ;     782 	restart_stepper();
                                 		.LINE  "C:\Workspace\e2studio\git\MT01_master\src\states\ut_state_move.c",782
00001227 05rrrrrr             A  		BSR _restart_stepper
0000122B                         L448:	; entry.split
                                 ;     783 	cm_request_queue_flush();
                                 		.LINE  "C:\Workspace\e2studio\git\MT01_master\src\states\ut_state_move.c",783
0000122B 05rrrrrr             A  		BSR _cm_request_queue_flush
0000122F                         L449:	; entry.split1
0000122F 6621                    		MOV.L #00000002H, R1
                                 ;     784 	/* Clear display */
                                 ;     785 	updatePosition(DESLOCA);
                                 		.LINE  "C:\Workspace\e2studio\git\MT01_master\src\states\ut_state_move.c",785
00001231 39rrrr               W  		BSR __$updatePosition
00001234                         L450:	; entry.split2
                                 ;     786 	gTitle = DESLOCA;
                                 		.LINE  "C:\Workspace\e2studio\git\MT01_master\src\states\ut_state_move.c",786
00001234 FBE2rrrrrrrr            		MOV.L #_gTitle, R14
0000123A F8E402                  		MOV.B #02H, [R14]
0000123D                         L451:	; entry.split3
0000123D 66B3                    		MOV.L #0000000BH, R3
                                 ;     787 	strcpy(gStrDesloca[0],DEFAULT_DESCOLA_TITLE);
                                 		.LINE  "C:\Workspace\e2studio\git\MT01_master\src\states\ut_state_move.c",787
0000123F FB22rrrrrrrr            		MOV.L #_L29, R2
00001245 FB12rrrrrrrr            		MOV.L #__$gStrDesloca, R1
0000124B 7F87                    		SMOVU
0000124D                         L452:	; entry.split4
                                 ;     788 	strcpy(gStrDesloca[1],DEFAULT_AVISO_DESLOCA);
                                 		.LINE  "C:\Workspace\e2studio\git\MT01_master\src\states\ut_state_move.c",788
0000124D FB12rrrrrrrr            		MOV.L #__$gStrDesloca, R1
00001253 711118                  		ADD #18H, R1
00001256 66A3                    		MOV.L #0000000AH, R3
00001258 FB22rrrrrrrr            		MOV.L #_L30, R2
0000125E 7F87                    		SMOVU
00001260                         L453:	; entry.split5
                                 ;     789 	iif_bind_deslocar();
                                 		.LINE  "C:\Workspace\e2studio\git\MT01_master\src\states\ut_state_move.c",789
00001260 05rrrrrr             A  		BSR _iif_bind_deslocar
00001264                         L454:	; entry.split6
                                 ;     790 	if(swTimers[AUTO_MENU_TIMER] == NULL)
                                 		.LINE  "C:\Workspace\e2studio\git\MT01_master\src\states\ut_state_move.c",790
00001264 FB12rrrrrrrr            		MOV.L #_swTimers, R1
0000126A AA11                    		MOV.L 20H[R1], R1
0000126C 6101                    		CMP #00H, R1
0000126E 21rr                    		BNE L456
00001270                         L455:	; bb4
00001270 6040                    		SUB #04H, R0
                                 ;     791 	{
                                 ;     792 	swTimers[AUTO_MENU_TIMER] = xTimerCreate
                                 		.LINE  "C:\Workspace\e2studio\git\MT01_master\src\states\ut_state_move.c",792
00001272 FBE2rrrrrrrr            		MOV.L #__$vTimerUpdateCallback, R14
00001278 E30E                    		MOV.L R14, [R0]
0000127A 6684                    		MOV.L #00000008H, R4
0000127C 6613                    		MOV.L #00000001H, R3
0000127E 7542C8                  		MOV.L #000000C8H, R2
00001281 FB12rrrrrrrr            		MOV.L #_L22, R1
00001287 05rrrrrr             A  		BSR _xTimerCreate
0000128B 6240                    		ADD #04H, R0
0000128D FB22rrrrrrrr            		MOV.L #_swTimers, R2
00001293 A221                    		MOV.L R1, 20H[R2]
00001295                         L456:	; bb9
                                 ;     793 				   (  /* Just a text name, not used by the RTOS kernel. */
                                 ;     794 					 "Timer Update",
                                 ;     795 					 /* The timer period in ticks, must be greater than 0. */
                                 ;     796 					 ( 200 ),
                                 ;     797 					 /* The timers will auto-reload themselves when they
                                 ;     798 					 expire. */
                                 ;     799 					 pdTRUE,
                                 ;     800 					 /* Assign each timer a unique id equal to its array
                                 ;     801 					 index. */
                                 ;     802 					 ( void * ) AUTO_MENU_TIMER,
                                 ;     803 					 /* Each timer calls the same callback when it expires. */
                                 ;     804 					 vTimerUpdateCallback
                                 ;     805 				   );
                                 ;     806 	}
                                 ;     807 	xTimerStart( swTimers[AUTO_MENU_TIMER], 0 );
                                 		.LINE  "C:\Workspace\e2studio\git\MT01_master\src\states\ut_state_move.c",807
00001295 FB12rrrrrrrr            		MOV.L #_swTimers, R1
0000129B AA16                    		MOV.L 20H[R1], R6
0000129D 05rrrrrr             A  		BSR _xTaskGetTickCount
000012A1 EF13                    		MOV.L R1, R3
000012A3 6040                    		SUB #04H, R0
000012A5 F80600                  		MOV.L #00000000H, [R0]
000012A8 6604                    		MOV.L #00000000H, R4
000012AA 6612                    		MOV.L #00000001H, R2
000012AC EF61                    		MOV.L R6, R1
000012AE 05rrrrrr             A  		BSR _xTimerGenericCommand
000012B2 6240                    		ADD #04H, R0
000012B4                         L457:	; bb9.split
                                 ;     808 	xTaskNotifyGive(xCncTaskHandle);
                                 		.LINE  "C:\Workspace\e2studio\git\MT01_master\src\states\ut_state_move.c",808
000012B4 FBE2rrrrrrrr            		MOV.L #_xCncTaskHandle, R14
000012BA ECE1                    		MOV.L [R14], R1
000012BC 6623                    		MOV.L #00000002H, R3
000012BE 6602                    		MOV.L #00000000H, R2
000012C0 EF24                    		MOV.L R2, R4
000012C2 05rrrrrr             A  		BSR _xTaskGenericNotify
000012C6                         L458:	; bb9.split7
                                 ;     809 	lstop = false;
                                 		.LINE  "C:\Workspace\e2studio\git\MT01_master\src\states\ut_state_move.c",809
000012C6 FBE2rrrrrrrr            		MOV.L #_lstop, R14
000012CC F8E400                  		MOV.B #00H, [R14]
000012CF 38rrrr               W  		BRA L512
000012D2                         L459:	; bb20
                                 ;     810 	while(true)
                                 ;     811 	{
                                 ;     812 		/* Wait for user interaction */
                                 ;     813 		keyEntry = 0;
                                 ;     814 		xQueueReceive( qKeyboard, &keyEntry, DEFAULT_UPDATE_TIMEOUT);
                                 ;     815 
                                 ;     816 		/* Check which key */
                                 ;     817 		switch (keyEntry)
                                 ;     818 		{
                                 ;     819 		case KEY_DOWN:
                                 ;     820 			iif_func_down();
                                 		.LINE  "C:\Workspace\e2studio\git\MT01_master\src\states\ut_state_move.c",820
000012D2 FBE2rrrrrrrr            		MOV.L #_iif_func_down, R14
000012D8 ECEE                    		MOV.L [R14], R14
000012DA 7F1E                    		JSR R14
000012DC 38rrrr               W  		BRA L512
000012DF                         L460:	; bb22
                                 ;     821 			break;
                                 ;     822 
                                 ;     823 		case KEY_UP:
                                 ;     824 			iif_func_up();
                                 		.LINE  "C:\Workspace\e2studio\git\MT01_master\src\states\ut_state_move.c",824
000012DF FBE2rrrrrrrr            		MOV.L #_iif_func_up, R14
000012E5 ECEE                    		MOV.L [R14], R14
000012E7 7F1E                    		JSR R14
000012E9 38rrrr               W  		BRA L512
000012EC                         L461:	; bb24
                                 ;     825 			break;
                                 ;     826 
                                 ;     827 		case KEY_RIGHT:
                                 ;     828 			iif_func_right();
                                 		.LINE  "C:\Workspace\e2studio\git\MT01_master\src\states\ut_state_move.c",828
000012EC FBE2rrrrrrrr            		MOV.L #_iif_func_right, R14
000012F2 ECEE                    		MOV.L [R14], R14
000012F4 7F1E                    		JSR R14
000012F6 38rrrr               W  		BRA L512
000012F9                         L462:	; bb26
                                 ;     829 			break;
                                 ;     830 
                                 ;     831 		case KEY_LEFT:
                                 ;     832 			iif_func_left();
                                 		.LINE  "C:\Workspace\e2studio\git\MT01_master\src\states\ut_state_move.c",832
000012F9 FBE2rrrrrrrr            		MOV.L #_iif_func_left, R14
000012FF ECEE                    		MOV.L [R14], R14
00001301 7F1E                    		JSR R14
00001303 38rrrr               W  		BRA L512
00001306                         L463:	; bb28
                                 ;     833 			break;
                                 ;     834 
                                 ;     835 		case KEY_Z_UP:
                                 ;     836 			iif_func_zup();
                                 		.LINE  "C:\Workspace\e2studio\git\MT01_master\src\states\ut_state_move.c",836
00001306 FBE2rrrrrrrr            		MOV.L #_iif_func_zup, R14
0000130C ECEE                    		MOV.L [R14], R14
0000130E 7F1E                    		JSR R14
00001310 38rrrr               W  		BRA L512
00001313                         L464:	; bb30
                                 ;     837 			break;
                                 ;     838 
                                 ;     839 
                                 ;     840 		case KEY_Z_DOWN:
                                 ;     841 			iif_func_zdown();
                                 		.LINE  "C:\Workspace\e2studio\git\MT01_master\src\states\ut_state_move.c",841
00001313 FBE2rrrrrrrr            		MOV.L #_iif_func_zdown, R14
00001319 ECEE                    		MOV.L [R14], R14
0000131B 7F1E                    		JSR R14
0000131D 38rrrr               W  		BRA L512
00001320                         L465:	; bb33
                                 ;     842 			break;
                                 ;     843 		case KEY_ENTER:
                                 ;     844 				if(lstop)
                                 		.LINE  "C:\Workspace\e2studio\git\MT01_master\src\states\ut_state_move.c",844
00001320 FBE2rrrrrrrr            		MOV.L #_lstop, R14
00001326 58EE                    		MOVU.B [R14], R14
00001328 610E                    		CMP #00H, R14
0000132A 3Arrrr               W  		BEQ L512
0000132D                         L466:	; bb34
                                 ;     845 				{
                                 ;     846 					lstop = false;
                                 		.LINE  "C:\Workspace\e2studio\git\MT01_master\src\states\ut_state_move.c",846
0000132D FBE2rrrrrrrr            		MOV.L #_lstop, R14
00001333 F8E400                  		MOV.B #00H, [R14]
00001336                         L467:	; bb34.split
                                 ;     847 					iif_bind_filerunning_stop(lstop);
                                 		.LINE  "C:\Workspace\e2studio\git\MT01_master\src\states\ut_state_move.c",847
00001336 FBE2rrrrrrrr            		MOV.L #_lstop, R14
0000133C 58E1                    		MOVU.B [R14], R1
0000133E 05rrrrrr             A  		BSR _iif_bind_filerunning_stop
00001342                         L468:	; bb34.split8
00001342 66B3                    		MOV.L #0000000BH, R3
                                 ;     848 					strcpy(gStrDesloca[0],DEFAULT_DESCOLA_TITLE);
                                 		.LINE  "C:\Workspace\e2studio\git\MT01_master\src\states\ut_state_move.c",848
00001344 FB22rrrrrrrr            		MOV.L #_L29, R2
0000134A FB12rrrrrrrr            		MOV.L #__$gStrDesloca, R1
00001350 7F87                    		SMOVU
00001352                         L469:	; bb34.split9
                                 ;     849 					strcpy(gStrDesloca[1],DEFAULT_AVISO_DESLOCA);
                                 		.LINE  "C:\Workspace\e2studio\git\MT01_master\src\states\ut_state_move.c",849
00001352 FB12rrrrrrrr            		MOV.L #__$gStrDesloca, R1
00001358 711118                  		ADD #18H, R1
0000135B 66A3                    		MOV.L #0000000AH, R3
0000135D FB22rrrrrrrr            		MOV.L #_L30, R2
00001363 7F87                    		SMOVU
00001365                         L470:	; bb34.split10
                                 ;     850 //					if(isDwell == true)
                                 ;     851 //					{
                                 ;     852 //						st_command_dwell(DWELL_RESTART);
                                 ;     853 //					}
                                 ;     854 					cm_request_cycle_start();
                                 		.LINE  "C:\Workspace\e2studio\git\MT01_master\src\states\ut_state_move.c",854
00001365 05rrrrrr             A  		BSR _cm_request_cycle_start
00001369 38rrrr               W  		BRA L512
0000136C                         L471:	; bb43
                                 ;     855 				}
                                 ;     856 				break;
                                 ;     857 		case KEY_ESC:
                                 ;     858 //			xTimerStop( swTimers[AUTO_MENU_TIMER], 0 );
                                 ;     859 //			iif_bind_idle();
                                 ;     860 //			intepreterRunning = false;
                                 ;     861 //			return (ut_state)pContext->value[0];
                                 ;     862 			if (cm.machine_state == MACHINE_PROGRAM_END || lstop){
                                 		.LINE  "C:\Workspace\e2studio\git\MT01_master\src\states\ut_state_move.c",862
0000136C FBE2rrrrrrrr            		MOV.L #_cm, R14
00001372 5AEE1D02                		MOVU.B 021DH[R14], R14
00001376 614E                    		CMP #04H, R14
00001378 3Arrrr               W  		BEQ L499
0000137B 38rrrr               W  		BRA L498
0000137E                         L472:	; bb44
                                 ;     863 				uint32_t *value = configsVar->value;
                                 		.LINE  "C:\Workspace\e2studio\git\MT01_master\src\states\ut_state_move.c",863
0000137E FBE2rrrrrrrr            		MOV.L #_configsVar, R14
00001384 ECE1                    		MOV.L [R14], R1
00001386 E5100103                		MOV.L 04H[R1], 0CH[R0]
0000138A                         L473:	; bb44.split
                                 ;     864 				xTimerStop( swTimers[AUTO_MENU_TIMER], 0 );
                                 		.LINE  "C:\Workspace\e2studio\git\MT01_master\src\states\ut_state_move.c",864
0000138A FB12rrrrrrrr            		MOV.L #_swTimers, R1
00001390 AA11                    		MOV.L 20H[R1], R1
00001392 6040                    		SUB #04H, R0
00001394 F80600                  		MOV.L #00000000H, [R0]
00001397 6603                    		MOV.L #00000000H, R3
00001399 6632                    		MOV.L #00000003H, R2
0000139B EF34                    		MOV.L R3, R4
0000139D 05rrrrrr             A  		BSR _xTimerGenericCommand
000013A1 6240                    		ADD #04H, R0
000013A3                         L474:	; bb44.split11
                                 ;     865 				if(cm.machine_state != MACHINE_PROGRAM_END){
                                 		.LINE  "C:\Workspace\e2studio\git\MT01_master\src\states\ut_state_move.c",865
000013A3 FBE2rrrrrrrr            		MOV.L #_cm, R14
000013A9 5AEE1D02                		MOVU.B 021DH[R14], R14
000013AD 614E                    		CMP #04H, R14
000013AF 20rr                    		BEQ L485
000013B1                         L475:	; bb52
                                 ;     866 					configsVar->type = UT_CONFIG_BOOL;
                                 		.LINE  "C:\Workspace\e2studio\git\MT01_master\src\states\ut_state_move.c",866
000013B1 FBE2rrrrrrrr            		MOV.L #_configsVar, R14
000013B7 ECEE                    		MOV.L [R14], R14
000013B9 F8E601                  		MOV.L #00000001H, [R14]
000013BC                         L476:	; bb52.split
                                 ;     867 					configsVar->name = "DESEJA SAIR?";
                                 		.LINE  "C:\Workspace\e2studio\git\MT01_master\src\states\ut_state_move.c",867
000013BC FBE2rrrrrrrr            		MOV.L #_configsVar, R14
000013C2 ECE1                    		MOV.L [R14], R1
000013C4 FB22rrrrrrrr            		MOV.L #_L26, R2
000013CA A19A                    		MOV.L R2, 1CH[R1]
000013CC                         L477:	; bb52.split12
                                 ;     868 					ut_state_config_var(pContext);
                                 		.LINE  "C:\Workspace\e2studio\git\MT01_master\src\states\ut_state_move.c",868
000013CC A909                    		MOV.L 14H[R0], R1
000013CE 05rrrrrr             A  		BSR _ut_state_config_var
000013D2                         L478:	; bb52.split13
                                 ;     869 					if (*value)
                                 		.LINE  "C:\Workspace\e2studio\git\MT01_master\src\states\ut_state_move.c",869
000013D2 A889                    		MOV.L 0CH[R0], R1
000013D4 EC1E                    		MOV.L [R1], R14
000013D6 610E                    		CMP #00H, R14
000013D8 20rr                    		BEQ L484
000013DA                         L479:	; bb60
                                 ;     870 					{
                                 ;     871 //						if(isDwell == true)
                                 ;     872 //						{
                                 ;     873 //							st_command_dwell(DWELL_EXIT);
                                 ;     874 //						}
                                 ;     875 						cm_request_feedhold();
                                 		.LINE  "C:\Workspace\e2studio\git\MT01_master\src\states\ut_state_move.c",875
000013DA 05rrrrrr             A  		BSR _cm_request_feedhold
000013DE                         L480:	; bb60.split
                                 ;     876 						cm_request_queue_flush();
                                 		.LINE  "C:\Workspace\e2studio\git\MT01_master\src\states\ut_state_move.c",876
000013DE 05rrrrrr             A  		BSR _cm_request_queue_flush
000013E2                         L481:	; bb60.split14
                                 ;     877 						macro_func_ptr = command_idle;
                                 		.LINE  "C:\Workspace\e2studio\git\MT01_master\src\states\ut_state_move.c",877
000013E2 FBE2rrrrrrrr            		MOV.L #_macro_func_ptr, R14
000013E8 FBF2rrrrrrrr            		MOV.L #_command_idle, R15
000013EE E3EF                    		MOV.L R15, [R14]
000013F0                         L482:	; bb60.split15
                                 ;     878 						intepreterRunning = false;
                                 		.LINE  "C:\Workspace\e2studio\git\MT01_master\src\states\ut_state_move.c",878
000013F0 FBE2rrrrrrrr            		MOV.L #_intepreterRunning, R14
000013F6 F8E400                  		MOV.B #00H, [R14]
000013F9                         L483:	; bb60.split16
                                 ;     879 						return (ut_state)pContext->value[0];
                                 		.LINE  "C:\Workspace\e2studio\git\MT01_master\src\states\ut_state_move.c",879
000013F9 A909                    		MOV.L 14H[R0], R1
000013FB B091                    		MOVU.B 02H[R1], R1
000013FD A009                    		MOV.L R1, 04H[R0]
000013FF 38rrrr               W  		BRA L524
00001402                         L484:	; bb68
                                 ;     880 					}
                                 ;     881 					else
                                 ;     882 					{
                                 ;     883 						xTimerStart( swTimers[AUTO_MENU_TIMER], 0 );
                                 		.LINE  "C:\Workspace\e2studio\git\MT01_master\src\states\ut_state_move.c",883
00001402 FB12rrrrrrrr            		MOV.L #_swTimers, R1
00001408 AA16                    		MOV.L 20H[R1], R6
0000140A 05rrrrrr             A  		BSR _xTaskGetTickCount
0000140E EF13                    		MOV.L R1, R3
00001410 6040                    		SUB #04H, R0
00001412 F80600                  		MOV.L #00000000H, [R0]
00001415 6604                    		MOV.L #00000000H, R4
00001417 6612                    		MOV.L #00000001H, R2
00001419 EF61                    		MOV.L R6, R1
0000141B 05rrrrrr             A  		BSR _xTimerGenericCommand
0000141F 6240                    		ADD #04H, R0
00001421                         L485:	; bb84
                                 ;     884 					}
                                 ;     885 				}
                                 ;     886 				if(cm.machine_state == MACHINE_PROGRAM_END){
                                 		.LINE  "C:\Workspace\e2studio\git\MT01_master\src\states\ut_state_move.c",886
00001421 FBE2rrrrrrrr            		MOV.L #_cm, R14
00001427 5AEE1D02                		MOVU.B 021DH[R14], R14
0000142B 614E                    		CMP #04H, R14
0000142D 21rr                    		BNE L502
0000142F                         L486:	; bb85
                                 ;     887 					iif_bind_idle();
                                 		.LINE  "C:\Workspace\e2studio\git\MT01_master\src\states\ut_state_move.c",887
0000142F 05rrrrrr             A  		BSR _iif_bind_idle
00001433                         L487:	; bb85.split
                                 ;     888 					ut_lcd_output_warning("COMANDO\nFINALIZADO\n");
                                 		.LINE  "C:\Workspace\e2studio\git\MT01_master\src\states\ut_state_move.c",888
00001433 FB12rrrrrrrr            		MOV.L #_L31, R1
00001439 05rrrrrr             A  		BSR _ut_lcd_output_warning
0000143D                         L488:	; bb85.split17
                                 ;     889 					keyEntry = 0;
                                 		.LINE  "C:\Workspace\e2studio\git\MT01_master\src\states\ut_state_move.c",889
0000143D 3E0200                  		MOV.L #00000000H, 08H[R0]
00001440 2Err                 B  		BRA L490
00001442                         L489:	; bb86
                                 ;     890 					while(keyEntry != KEY_ENTER && keyEntry != KEY_ESC){
                                 ;     891 						xQueueReceive( qKeyboard, &keyEntry, portMAX_DELAY );
                                 		.LINE  "C:\Workspace\e2studio\git\MT01_master\src\states\ut_state_move.c",891
00001442 FBE2rrrrrrrr            		MOV.L #_qKeyboard, R14
00001448 ECE1                    		MOV.L [R14], R1
0000144A 6604                    		MOV.L #00000000H, R4
0000144C FB36FF                  		MOV.L #0FFFFFFFFH, R3
0000144F 710208                  		ADD #08H, R0, R2
00001452 05rrrrrr             A  		BSR _xQueueGenericReceive
00001456                         L490:	; bb90
                                 		.LINE  "C:\Workspace\e2studio\git\MT01_master\src\states\ut_state_move.c",890
00001456 A881                    		MOV.L 08H[R0], R1
00001458 6141                    		CMP #04H, R1
0000145A 10                   S  		BEQ L493
0000145B                         L491:	; bb94
0000145B A881                    		MOV.L 08H[R0], R1
0000145D 6111                    		CMP #01H, R1
0000145F 10                   S  		BEQ L493
00001460                         L492:	; bb98
00001460 F80601                  		MOV.L #00000001H, [R0]
00001463 08                   S  		BRA L494
00001464                         L493:	; bb99
00001464 F80600                  		MOV.L #00000000H, [R0]
00001467                         L494:	; bb100
00001467 EC01                    		MOV.L [R0], R1
00001469 6101                    		CMP #00H, R1
0000146B 21rr                    		BNE L489
0000146D                         L495:	; bb105
                                 ;     892 					}
                                 ;     893 					macro_func_ptr = command_idle;
                                 		.LINE  "C:\Workspace\e2studio\git\MT01_master\src\states\ut_state_move.c",893
0000146D FBE2rrrrrrrr            		MOV.L #_macro_func_ptr, R14
00001473 FBF2rrrrrrrr            		MOV.L #_command_idle, R15
00001479 E3EF                    		MOV.L R15, [R14]
0000147B                         L496:	; bb105.split
                                 ;     894 					intepreterRunning = false;
                                 		.LINE  "C:\Workspace\e2studio\git\MT01_master\src\states\ut_state_move.c",894
0000147B FBE2rrrrrrrr            		MOV.L #_intepreterRunning, R14
00001481 F8E400                  		MOV.B #00H, [R14]
00001484                         L497:	; bb105.split18
                                 ;     895 					return (ut_state)pContext->value[0];
                                 		.LINE  "C:\Workspace\e2studio\git\MT01_master\src\states\ut_state_move.c",895
00001484 A909                    		MOV.L 14H[R0], R1
00001486 B091                    		MOVU.B 02H[R1], R1
00001488 A009                    		MOV.L R1, 04H[R0]
0000148A 38rrrr               W  		BRA L524
0000148D                         L498:	; bb123
0000148D FBE2rrrrrrrr            		MOV.L #_lstop, R14
00001493 58EE                    		MOVU.B [R14], R14
00001495 610E                    		CMP #00H, R14
00001497 10                   S  		BEQ L500
00001498                         L499:	; bb128
00001498 F80601                  		MOV.L #00000001H, [R0]
0000149B 08                   S  		BRA L501
0000149C                         L500:	; bb129
0000149C F80600                  		MOV.L #00000000H, [R0]
0000149F                         L501:	; bb130
0000149F EC01                    		MOV.L [R0], R1
000014A1 6101                    		CMP #00H, R1
000014A3 3Brrrr               W  		BNE L472
000014A6                         L502:	; bb136
                                 ;     896 				}
                                 ;     897 			}
                                 ;     898 			if(!lstop){
                                 		.LINE  "C:\Workspace\e2studio\git\MT01_master\src\states\ut_state_move.c",898
000014A6 FBE2rrrrrrrr            		MOV.L #_lstop, R14
000014AC 58EE                    		MOVU.B [R14], R14
000014AE 610E                    		CMP #00H, R14
000014B0 21rr                    		BNE L507
000014B2 2Err                 B  		BRA L508
000014B4                         L503:	; bb137
                                 ;     899 				lstop = true;
                                 		.LINE  "C:\Workspace\e2studio\git\MT01_master\src\states\ut_state_move.c",899
000014B4 FBE2rrrrrrrr            		MOV.L #_lstop, R14
000014BA F8E401                  		MOV.B #01H, [R14]
000014BD                         L504:	; bb137.split
000014BD 754310                  		MOV.L #00000010H, R3
                                 ;     900 				strcpy(gStrDesloca[0],STOP_AUTO_TITLE);
                                 		.LINE  "C:\Workspace\e2studio\git\MT01_master\src\states\ut_state_move.c",900
000014C0 FB22rrrrrrrr            		MOV.L #_L32, R2
000014C6 FB12rrrrrrrr            		MOV.L #__$gStrDesloca, R1
000014CC 7F87                    		SMOVU
000014CE                         L505:	; bb137.split19
                                 ;     901 				strcpy(gStrDesloca[1],DEFAULT_AVISO_DESLOCA);
                                 		.LINE  "C:\Workspace\e2studio\git\MT01_master\src\states\ut_state_move.c",901
000014CE FB12rrrrrrrr            		MOV.L #__$gStrDesloca, R1
000014D4 711118                  		ADD #18H, R1
000014D7 66A3                    		MOV.L #0000000AH, R3
000014D9 FB22rrrrrrrr            		MOV.L #_L30, R2
000014DF 7F87                    		SMOVU
000014E1                         L506:	; bb137.split20
000014E1 6601                    		MOV.L #00000000H, R1
                                 ;     902 				warm_stop(0);
                                 		.LINE  "C:\Workspace\e2studio\git\MT01_master\src\states\ut_state_move.c",902
000014E3 39rrrr               W  		BSR _warm_stop
000014E6 2Err                 B  		BRA L512
000014E8                         L507:	; bb142
000014E8 F80600                  		MOV.L #00000000H, [R0]
000014EB 08                   S  		BRA L509
000014EC                         L508:	; bb143
000014EC F80601                  		MOV.L #00000001H, [R0]
000014EF                         L509:	; bb144
000014EF EC01                    		MOV.L [R0], R1
000014F1 6101                    		CMP #00H, R1
000014F3 21rr                    		BNE L503
000014F5 2Err                 B  		BRA L512
000014F7                         L510:	; bb149
                                 ;     903 			}
                                 ;     904 			break;
                                 ;     905 
                                 ;     906 		case KEY_RELEASED:
                                 ;     907 			iif_func_released();
                                 		.LINE  "C:\Workspace\e2studio\git\MT01_master\src\states\ut_state_move.c",907
000014F7 FBE2rrrrrrrr            		MOV.L #_iif_func_released, R14
000014FD ECEE                    		MOV.L [R14], R14
000014FF 7F1E                    		JSR R14
00001501 2Err                 B  		BRA L512
00001503                         L511:	; bb151
                                 ;     908 			break;
                                 ;     909 
                                 ;     910 		case EMERGENCIA_SIGNAL:
                                 ;     911 			xTimerStart( swTimers[AUTO_MENU_TIMER], 0 );
                                 		.LINE  "C:\Workspace\e2studio\git\MT01_master\src\states\ut_state_move.c",911
00001503 FB12rrrrrrrr            		MOV.L #_swTimers, R1
00001509 AA16                    		MOV.L 20H[R1], R6
0000150B 05rrrrrr             A  		BSR _xTaskGetTickCount
0000150F EF13                    		MOV.L R1, R3
00001511 6040                    		SUB #04H, R0
00001513 F80600                  		MOV.L #00000000H, [R0]
00001516 6604                    		MOV.L #00000000H, R4
00001518 6612                    		MOV.L #00000001H, R2
0000151A EF61                    		MOV.L R6, R1
0000151C 05rrrrrr             A  		BSR _xTimerGenericCommand
00001520 6240                    		ADD #04H, R0
00001522                         L512:	; bb157.split
                                 		.LINE  "C:\Workspace\e2studio\git\MT01_master\src\states\ut_state_move.c",813
00001522 3E0200                  		MOV.L #00000000H, 08H[R0]
00001525                         L513:	; bb157.split21
                                 		.LINE  "C:\Workspace\e2studio\git\MT01_master\src\states\ut_state_move.c",814
00001525 FBE2rrrrrrrr            		MOV.L #_qKeyboard, R14
0000152B ECE1                    		MOV.L [R14], R1
0000152D 6604                    		MOV.L #00000000H, R4
0000152F FB36FF                  		MOV.L #0FFFFFFFFH, R3
00001532 710208                  		ADD #08H, R0, R2
00001535 05rrrrrr             A  		BSR _xQueueGenericReceive
00001539                         L514:	; bb157.split22
                                 		.LINE  "C:\Workspace\e2studio\git\MT01_master\src\states\ut_state_move.c",817
00001539 A881                    		MOV.L 08H[R0], R1
0000153B 74010000AAAA            		CMP #0AAAA0000H, R1
00001541 20rr                    		BEQ L511
00001543                         L515:	; bb157.split22
00001543 6101                    		CMP #00H, R1
00001545 20rr                    		BEQ L510
00001547                         L516:	; bb157.split22
00001547 6111                    		CMP #01H, R1
00001549 3Arrrr               W  		BEQ L471
0000154C                         L517:	; bb157.split22
0000154C 6141                    		CMP #04H, R1
0000154E 3Arrrr               W  		BEQ L465
00001551                         L518:	; bb157.split22
00001551 755110                  		CMP #10H, R1
00001554 3Arrrr               W  		BEQ L463
00001557                         L519:	; bb157.split22
00001557 755120                  		CMP #20H, R1
0000155A 3Arrrr               W  		BEQ L462
0000155D                         L520:	; bb157.split22
0000155D 755140                  		CMP #40H, R1
00001560 3Arrrr               W  		BEQ L464
00001563                         L521:	; bb157.split22
00001563 76010001                		CMP #0100H, R1
00001567 3Arrrr               W  		BEQ L460
0000156A                         L522:	; bb157.split22
0000156A 76010002                		CMP #0200H, R1
0000156E 3Arrrr               W  		BEQ L461
00001571                         L523:	; bb157.split22
00001571 76010004                		CMP #0400H, R1
00001575 3Arrrr               W  		BEQ L459
00001578 2Err                 B  		BRA L512
0000157A                         L524:	; bb160
0000157A A809                    		MOV.L 04H[R0], R1
0000157C A101                    		MOV.L R1, 10H[R0]
                                 ;     912 			break;
                                 ;     913 
                                 ;     914 		default:
                                 ;     915 			break;
                                 ;     916 		}
                                 ;     917 
                                 ;     918 		/* Update position */
                                 ;     919 	//	updatePosition(NULL);
                                 ;     920 	}
                                 ;     921 
                                 ;     922 	return STATE_MAIN_MENU;
                                 ;     923 }
                                 		.LINE  "C:\Workspace\e2studio\git\MT01_master\src\states\ut_state_move.c",923
0000157E 3F6607                  		RTSD #1CH, R6-R6
00001581                         __$vTimerUpdateCallback:
                                 		.STACK	__$vTimerUpdateCallback=12
                                 ;     924 
                                 ;     925 static void vTimerUpdateCallback( TimerHandle_t pxTimer )
                                 		.LINE  "C:\Workspace\e2studio\git\MT01_master\src\states\ut_state_move.c",925
00001581 6080                    		SUB #08H, R0
00001583 A009                    		MOV.L R1, 04H[R0]
                                 ;     926 {
                                 ;     927 	if(gTitle == AUTO || gTitle == SIM){
                                 		.LINE  "C:\Workspace\e2studio\git\MT01_master\src\states\ut_state_move.c",927
00001585 FBE2rrrrrrrr            		MOV.L #_gTitle, R14
0000158B 58EE                    		MOVU.B [R14], R14
0000158D 611E                    		CMP #01H, R14
0000158F 20rr                    		BEQ L528
00001591 2Err                 B  		BRA L527
00001593                         L526:	; bb2
                                 ;     928 		iif_func_esc();
                                 		.LINE  "C:\Workspace\e2studio\git\MT01_master\src\states\ut_state_move.c",928
00001593 FBE2rrrrrrrr            		MOV.L #_iif_func_esc, R14
00001599 ECEE                    		MOV.L [R14], R14
0000159B 7F1E                    		JSR R14
0000159D 2Err                 B  		BRA L531
0000159F                         L527:	; bb7
0000159F FBE2rrrrrrrr            		MOV.L #_gTitle, R14
000015A5 58EE                    		MOVU.B [R14], R14
000015A7 613E                    		CMP #03H, R14
000015A9 18                   S  		BNE L529
000015AA                         L528:	; bb12
000015AA F80601                  		MOV.L #00000001H, [R0]
000015AD 08                   S  		BRA L530
000015AE                         L529:	; bb13
000015AE F80600                  		MOV.L #00000000H, [R0]
000015B1                         L530:	; bb14
000015B1 EC01                    		MOV.L [R0], R1
000015B3 6101                    		CMP #00H, R1
000015B5 21rr                    		BNE L526
000015B7                         L531:	; bb18
                                 ;     929 	}
                                 ;     930 	updatePosition(gTitle);
                                 		.LINE  "C:\Workspace\e2studio\git\MT01_master\src\states\ut_state_move.c",930
000015B7 FBE2rrrrrrrr            		MOV.L #_gTitle, R14
000015BD 58E1                    		MOVU.B [R14], R1
000015BF 39rrrr               W  		BSR __$updatePosition
000015C2 6702                    		RTSD #08H
000015C4                         _warm_stop:
                                 		.STACK	_warm_stop=8
                                 ;     931 }
                                 ;     932 
                                 ;     933 void warm_stop(uint8_t flag)
                                 		.LINE  "C:\Workspace\e2studio\git\MT01_master\src\states\ut_state_move.c",933
000015C4 6040                    		SUB #04H, R0
000015C6 8089                    		MOV.B R1, 03H[R0]
                                 ;     934 {
                                 ;     935 
                                 ;     936 	//iif_bind_filerunning_stop(lstop);
                                 ;     937 	cm_request_feedhold();
                                 		.LINE  "C:\Workspace\e2studio\git\MT01_master\src\states\ut_state_move.c",937
000015C8 05rrrrrr             A  		BSR _cm_request_feedhold
000015CC                         L533:	; entry.split
                                 ;     938 	if(gTitle == AUTO){
                                 		.LINE  "C:\Workspace\e2studio\git\MT01_master\src\states\ut_state_move.c",938
000015CC FBE2rrrrrrrr            		MOV.L #_gTitle, R14
000015D2 58EE                    		MOVU.B [R14], R14
000015D4 611E                    		CMP #01H, R14
000015D6 21rr                    		BNE L536
000015D8                         L534:	; bb2
000015D8 754310                  		MOV.L #00000010H, R3
                                 ;     939 		strcpy(gStrAuto[0],STOP_AUTO_TITLE);
                                 		.LINE  "C:\Workspace\e2studio\git\MT01_master\src\states\ut_state_move.c",939
000015DB FB22rrrrrrrr            		MOV.L #_L32, R2
000015E1 FB12rrrrrrrr            		MOV.L #__$gStrAuto, R1
000015E7 7F87                    		SMOVU
000015E9                         L535:	; bb2.split
                                 ;     940 		strcpy(gStrAuto[1],STOP_AVISO_AUTO);
                                 		.LINE  "C:\Workspace\e2studio\git\MT01_master\src\states\ut_state_move.c",940
000015E9 FBE2rrrrrrrr            		MOV.L #__$gStrAuto, R14
000015EF FBF2rrrrrrrr            		MOV.L #_L10, R15
000015F5 C4FE18                  		MOV.B [R15], 18H[R14]
000015F8 2Err                 B  		BRA L539
000015FA                         L536:	; bb4
                                 ;     941 	}else if(gTitle == SIM){
                                 		.LINE  "C:\Workspace\e2studio\git\MT01_master\src\states\ut_state_move.c",941
000015FA FBE2rrrrrrrr            		MOV.L #_gTitle, R14
00001600 58EE                    		MOVU.B [R14], R14
00001602 613E                    		CMP #03H, R14
00001604 21rr                    		BNE L539
00001606                         L537:	; bb5
00001606 754310                  		MOV.L #00000010H, R3
                                 ;     942 		strcpy(gStrSim[0],STOP_SIM_TITLE);
                                 		.LINE  "C:\Workspace\e2studio\git\MT01_master\src\states\ut_state_move.c",942
00001609 FB22rrrrrrrr            		MOV.L #_L32, R2
0000160F FB12rrrrrrrr            		MOV.L #__$gStrSim, R1
00001615 7F87                    		SMOVU
00001617                         L538:	; bb5.split
                                 ;     943 		strcpy(gStrSim[1],STOP_AVISO_SIM);
                                 		.LINE  "C:\Workspace\e2studio\git\MT01_master\src\states\ut_state_move.c",943
00001617 FBE2rrrrrrrr            		MOV.L #__$gStrSim, R14
0000161D FBF2rrrrrrrr            		MOV.L #_L10, R15
00001623 C4FE1C                  		MOV.B [R15], 1CH[R14]
00001626                         L539:	; bb15
                                 ;     944 	}
                                 ;     945 	pl_arcook_stop();
                                 		.LINE  "C:\Workspace\e2studio\git\MT01_master\src\states\ut_state_move.c",945
00001626 05rrrrrr             A  		BSR _pl_arcook_stop
0000162A                         L540:	; bb15.split
                                 ;     946 	if(isDwell == true)
                                 		.LINE  "C:\Workspace\e2studio\git\MT01_master\src\states\ut_state_move.c",946
0000162A FBE2rrrrrrrr            		MOV.L #_isDwell, R14
00001630 58EE                    		MOVU.B [R14], R14
00001632 611E                    		CMP #01H, R14
00001634 18                   S  		BNE L542
00001635                         L541:	; bb17
00001635 6611                    		MOV.L #00000001H, R1
                                 ;     947 	{
                                 ;     948 		st_command_dwell(DWELL_PAUSE);
                                 		.LINE  "C:\Workspace\e2studio\git\MT01_master\src\states\ut_state_move.c",948
00001637 05rrrrrr             A  		BSR _st_command_dwell
0000163B                         L542:	; bb24
                                 ;     949 	}
                                 ;     950 	if (flag != 2)
                                 		.LINE  "C:\Workspace\e2studio\git\MT01_master\src\states\ut_state_move.c",950
0000163B B089                    		MOVU.B 03H[R0], R1
0000163D 6121                    		CMP #02H, R1
0000163F 21rr                    		BNE L545
00001641 2Err                 B  		BRA L546
00001643                         L543:	; bb26
00001643 FBEE308008              		MOV.L #00088030H, R14
                                 ;     951 	{
                                 ;     952 		while(cm.feedhold_requested == true)
                                 ;     953 		{
                                 ;     954 			WDT_FEED
                                 		.LINE  "C:\Workspace\e2studio\git\MT01_master\src\states\ut_state_move.c",954
00001648 F8E400                  		MOV.B #00H, [R14]
0000164B                         L544:	; bb26.split
0000164B FBEE308008              		MOV.L #00088030H, R14
00001650 F8E4FF                  		MOV.B #0FFH, [R14]
00001653                         L545:	; bb27
                                 		.LINE  "C:\Workspace\e2studio\git\MT01_master\src\states\ut_state_move.c",952
00001653 FBE2rrrrrrrr            		MOV.L #_cm, R14
00001659 5AEE4702                		MOVU.B 0247H[R14], R14
0000165D 611E                    		CMP #01H, R14
0000165F 20rr                    		BEQ L543
00001661                         L546:	; bb40
                                 ;     955 		}
                                 ;     956 	}
                                 ;     957 	if (flag != 1)
                                 		.LINE  "C:\Workspace\e2studio\git\MT01_master\src\states\ut_state_move.c",957
00001661 B089                    		MOVU.B 03H[R0], R1
00001663 6111                    		CMP #01H, R1
00001665 20rr                    		BEQ L549
00001667                         L547:	; bb41
00001667 FBEE22C008              		MOV.L #0008C022H, R14
                                 ;     958 	{
                                 ;     959 		ltorchBuffer = TORCH;
                                 		.LINE  "C:\Workspace\e2studio\git\MT01_master\src\states\ut_state_move.c",959
0000166C 58EE                    		MOVU.B [R14], R14
0000166E 683E                    		SHLR #03H, R14
00001670 7C0E                    		BTST #00H, R14
00001672 FBE2rrrrrrrr            		MOV.L #__$ltorchBuffer, R14
00001678 FCD0E1                  		SCNE.B [R14]
0000167B                         L548:	; bb41.split
0000167B FBEE22C008              		MOV.L #0008C022H, R14
                                 ;     960 		TORCH = FALSE;
                                 		.LINE  "C:\Workspace\e2studio\git\MT01_master\src\states\ut_state_move.c",960
00001680 F0E3                    		BSET #03H, [R14].B
00001682 6701                    		RTSD #04H
00001684                         L549:	; return
                                 ;     961 	}
                                 ;     962 }
                                 		.LINE  "C:\Workspace\e2studio\git\MT01_master\src\states\ut_state_move.c",962
00001684 6701                    		RTSD #04H
                                 		.SECTION	L,ROMDATA,ALIGN=4
00000000                         _L10:
00000000 00                      		.byte	0
00000001 00                      		.byte	00H
00000002 0000                    		.word	0000H
00000004                         _L11:
00000004 rrrrrrrr                		.lword	_L10
00000008 rrrrrrrr                		.lword	_L10
0000000C rrrrrrrr                		.lword	_L10
00000010 rrrrrrrr                		.lword	_L10
00000014 rrrrrrrr                		.lword	_L10
00000018 rrrrrrrr                		.lword	_L10
0000001C rrrrrrrr                		.lword	_L10
00000020                         _L12:
00000020 56454C2E                		.byte	"VEL.: %.0f mm/min"
         3A20252E                
         3066206D                
         6D2F6D69                
         6E                      
00000031 00                      		.byte	00H
00000032                         _L13:
00000032 414F4B                  		.byte	"AOK"
00000035 00                      		.byte	00H
00000036                         _L14:
00000036 4F48                    		.byte	"OH"
00000038 00                      		.byte	00H
00000039                         _L15:
00000039 54484320                		.byte	"THC SET: %.0f V"
         5345543A                
         20252E30                
         662056                  
00000048 00                      		.byte	00H
00000049                         _L16:
00000049 54484320                		.byte	"THC REAL: %.0f V"
         5245414C                
         3A20252E                
         30662056                
00000059 00                      		.byte	00H
0000005A                         _L17:
0000005A 4C494E48                		.byte	"LINHA: %d"
         413A2025                
         64                      
00000063 00                      		.byte	00H
00000064                         _L18:
00000064 54484320                		.byte	"THC REAL: --- V"
         5245414C                
         3A202D2D                
         2D2056                  
00000073 00                      		.byte	00H
00000074                         _L19:
00000074 543A2025                		.byte	"T: %.0f s"
         2E306620                
         73                      
0000007D 00                      		.byte	00H
0000007E                         _L20:
0000007E 25342E32                		.byte	"%4.2f mm"
         66206D6D                
00000086 00                      		.byte	00H
00000087                         _L21:
00000087 434F5254                		.byte	"CORTE AUTOM"
         45204155                
         544F4D                  
00000092 C1                      		.byte	0C1H
00000093 5449434F                		.byte	"TICO"
00000097 0A                      		.byte	0AH
00000098 46494E41                		.byte	"FINALIZADO"
         4C495A41                
         444F                    
000000A2 0A                      		.byte	0AH
000000A3 50524553                		.byte	"PRESSIONE ESC"
         53494F4E                
         45204553                
         43                      
000000B0 0A00                    		.byte	0AH,00H
000000B2                         _L22:
000000B2 54696D65                		.byte	"Timer Update"
         72205570                
         64617465                
000000BE 00                      		.byte	00H
000000BF                         _L23:
000000BF 4D4F444F                		.byte	"MODO AUTOM"
         20415554                
         4F4D                    
000000C9 C1                      		.byte	0C1H
000000CA 5449434F                		.byte	"TICO"
000000CE 00                      		.byte	00H
000000CF                         _L24:
000000CF 4D4F444F                		.byte	"MODO SIMULA"
         2053494D                
         554C41                  
000000DA C7C3                    		.byte	0C7H,0C3H
000000DC 4F                      		.byte	"O"
000000DD 00                      		.byte	00H
000000DE                         _L25:
000000DE 434F4E54                		.byte	"CONTINUAR COMO?"
         494E5541                
         5220434F                
         4D4F3F                  
000000ED 00                      		.byte	00H
000000EE                         _L26:
000000EE 44455345                		.byte	"DESEJA SAIR?"
         4A412053                
         4149523F                
000000FA 00                      		.byte	00H
000000FB                         _L27:
000000FB 43484543                		.byte	"CHECAR SENSOR"
         41522053                
         454E534F                
         52                      
00000108 0A                      		.byte	0AH
00000109 4F484D49                		.byte	"OHMICO"
         434F                    
0000010F 0A00                    		.byte	0AH,00H
00000111                         _L28:
00000111 504C4153                		.byte	"PLASMA N"
         4D41204E                
00000119 C3                      		.byte	0C3H
0000011A 4F                      		.byte	"O"
0000011B 0A                      		.byte	0AH
0000011C 5452414E                		.byte	"TRANSFERIDO"
         53464552                
         49444F                  
00000127 0A00                    		.byte	0AH,00H
00000129                         _L29:
00000129 4445534C                		.byte	"DESLOCANDO"
         4F43414E                
         444F                    
00000133 00                      		.byte	00H
00000134                         _L30:
00000134 45534320                		.byte	"ESC VOLTA"
         564F4C54                
         41                      
0000013D 00                      		.byte	00H
0000013E                         _L31:
0000013E 434F4D41                		.byte	"COMANDO"
         4E444F                  
00000145 0A                      		.byte	0AH
00000146 46494E41                		.byte	"FINALIZADO"
         4C495A41                
         444F                    
00000150 0A00                    		.byte	0AH,00H
00000152                         _L32:
00000152 4D                      		.byte	"M"
00000153 C1                      		.byte	0C1H
00000154 5155494E                		.byte	"QUINA PAUSADA"
         41205041                
         55534144                
         41                      
00000161 00                      		.byte	00H
                                 		.SECTION	D_1,ROMDATA
00000000                         _sim:
00000000 00                      		.byte	00H
00000001                         _programEnd:
00000001 00                      		.byte	00H
00000002                         _lstop:
00000002 00                      		.byte	00H
00000003                         __$gStrManual:
00000003 4D4F444F                		.byte	"MODO MANUAL"
         204D414E                
         55414C                  
0000000E 00000000                		.byte	00H,00H,00H,00H,00H,00H,00H,00H,00H,00H,00H,00H,00H
         00000000                
         00000000                
         00                      
0000001B 454E5445                		.byte	"ENTER DISPARA/ESC VOLTA"
         52204449                
         53504152                
         412F4553                
         4320564F                
         4C5441                  
00000032 00                      		.byte	00H
00000033 00                      		.byte	0
00000034 00                      		.byte	0
00000035 00                      		.byte	0
00000036 00                      		.byte	0
00000037 00                      		.byte	0
00000038 00                      		.byte	0
00000039 00                      		.byte	0
0000003A 00                      		.byte	0
0000003B 00                      		.byte	0
0000003C 00                      		.byte	0
0000003D 00                      		.byte	0
0000003E 00                      		.byte	0
0000003F 00                      		.byte	0
00000040 00                      		.byte	0
00000041 00                      		.byte	0
00000042 00                      		.byte	0
00000043 00                      		.byte	0
00000044 00                      		.byte	0
00000045 00                      		.byte	0
00000046 00                      		.byte	0
00000047 00                      		.byte	0
00000048 00                      		.byte	0
00000049 00                      		.byte	0
0000004A 00                      		.byte	0
0000004B 00                      		.byte	0
0000004C 00                      		.byte	0
0000004D 00                      		.byte	0
0000004E 00                      		.byte	0
0000004F 00                      		.byte	0
00000050 00                      		.byte	0
00000051 00                      		.byte	0
00000052 00                      		.byte	0
00000053 00                      		.byte	0
00000054 00                      		.byte	0
00000055 00                      		.byte	0
00000056 00                      		.byte	0
00000057 00                      		.byte	0
00000058 00                      		.byte	0
00000059 00                      		.byte	0
0000005A 00                      		.byte	0
0000005B 00                      		.byte	0
0000005C 00                      		.byte	0
0000005D 00                      		.byte	0
0000005E 00                      		.byte	0
0000005F 00                      		.byte	0
00000060 00                      		.byte	0
00000061 00                      		.byte	0
00000062 00                      		.byte	0
00000063 00                      		.byte	0
00000064 00                      		.byte	0
00000065 00                      		.byte	0
00000066 00                      		.byte	0
00000067 00                      		.byte	0
00000068 00                      		.byte	0
00000069 00                      		.byte	0
0000006A 00                      		.byte	0
0000006B 00                      		.byte	0
0000006C 00                      		.byte	0
0000006D 00                      		.byte	0
0000006E 00                      		.byte	0
0000006F 00                      		.byte	0
00000070 00                      		.byte	0
00000071 00                      		.byte	0
00000072 00                      		.byte	0
00000073 00                      		.byte	0
00000074 00                      		.byte	0
00000075 00                      		.byte	0
00000076 00                      		.byte	0
00000077 00                      		.byte	0
00000078 00                      		.byte	0
00000079 00                      		.byte	0
0000007A 00                      		.byte	0
0000007B 00                      		.byte	0
0000007C 00                      		.byte	0
0000007D 00                      		.byte	0
0000007E 00                      		.byte	0
0000007F 00                      		.byte	0
00000080 00                      		.byte	0
00000081 00                      		.byte	0
00000082 00                      		.byte	0
00000083 00                      		.byte	0
00000084 00                      		.byte	0
00000085 00                      		.byte	0
00000086 00                      		.byte	0
00000087 00                      		.byte	0
00000088 00                      		.byte	0
00000089 00                      		.byte	0
0000008A 00                      		.byte	0
0000008B 00                      		.byte	0
0000008C 00                      		.byte	0
0000008D 00                      		.byte	0
0000008E 00                      		.byte	0
0000008F 00                      		.byte	0
00000090 00                      		.byte	0
00000091 00                      		.byte	0
00000092 00                      		.byte	0
00000093                         __$gStrAuto:
00000093 4D4F444F                		.byte	"MODO AUTOM"
         20415554                
         4F4D                    
0000009D C1                      		.byte	0C1H
0000009E 5449434F                		.byte	"TICO"
000000A2 00000000                		.byte	00H,00H,00H,00H,00H,00H,00H,00H,00H
         00000000                
         00                      
000000AB 00                      		.byte	0
000000AC 00                      		.byte	0
000000AD 00                      		.byte	0
000000AE 00                      		.byte	0
000000AF 00                      		.byte	0
000000B0 00                      		.byte	0
000000B1 00                      		.byte	0
000000B2 00                      		.byte	0
000000B3 00                      		.byte	0
000000B4 00                      		.byte	0
000000B5 00                      		.byte	0
000000B6 00                      		.byte	0
000000B7 00                      		.byte	0
000000B8 00                      		.byte	0
000000B9 00                      		.byte	0
000000BA 00                      		.byte	0
000000BB 00                      		.byte	0
000000BC 00                      		.byte	0
000000BD 00                      		.byte	0
000000BE 00                      		.byte	0
000000BF 00                      		.byte	0
000000C0 00                      		.byte	0
000000C1 00                      		.byte	0
000000C2 00                      		.byte	0
000000C3 00                      		.byte	0
000000C4 00                      		.byte	0
000000C5 00                      		.byte	0
000000C6 00                      		.byte	0
000000C7 00                      		.byte	0
000000C8 00                      		.byte	0
000000C9 00                      		.byte	0
000000CA 00                      		.byte	0
000000CB 00                      		.byte	0
000000CC 00                      		.byte	0
000000CD 00                      		.byte	0
000000CE 00                      		.byte	0
000000CF 00                      		.byte	0
000000D0 00                      		.byte	0
000000D1 00                      		.byte	0
000000D2 00                      		.byte	0
000000D3 00                      		.byte	0
000000D4 00                      		.byte	0
000000D5 00                      		.byte	0
000000D6 00                      		.byte	0
000000D7 00                      		.byte	0
000000D8 00                      		.byte	0
000000D9 00                      		.byte	0
000000DA 00                      		.byte	0
000000DB 00                      		.byte	0
000000DC 00                      		.byte	0
000000DD 00                      		.byte	0
000000DE 00                      		.byte	0
000000DF 00                      		.byte	0
000000E0 00                      		.byte	0
000000E1 00                      		.byte	0
000000E2 00                      		.byte	0
000000E3 00                      		.byte	0
000000E4 00                      		.byte	0
000000E5 00                      		.byte	0
000000E6 00                      		.byte	0
000000E7 00                      		.byte	0
000000E8 00                      		.byte	0
000000E9 00                      		.byte	0
000000EA 00                      		.byte	0
000000EB 00                      		.byte	0
000000EC 00                      		.byte	0
000000ED 00                      		.byte	0
000000EE 00                      		.byte	0
000000EF 00                      		.byte	0
000000F0 00                      		.byte	0
000000F1 00                      		.byte	0
000000F2 00                      		.byte	0
000000F3 00                      		.byte	0
000000F4 00                      		.byte	0
000000F5 00                      		.byte	0
000000F6 00                      		.byte	0
000000F7 00                      		.byte	0
000000F8 00                      		.byte	0
000000F9 00                      		.byte	0
000000FA 00                      		.byte	0
000000FB 00                      		.byte	0
000000FC 00                      		.byte	0
000000FD 00                      		.byte	0
000000FE 00                      		.byte	0
000000FF 00                      		.byte	0
00000100 00                      		.byte	0
00000101 00                      		.byte	0
00000102 00                      		.byte	0
00000103 00                      		.byte	0
00000104 00                      		.byte	0
00000105 00                      		.byte	0
00000106 00                      		.byte	0
00000107 00                      		.byte	0
00000108 00                      		.byte	0
00000109 00                      		.byte	0
0000010A 00                      		.byte	0
0000010B 00                      		.byte	0
0000010C 00                      		.byte	0
0000010D 00                      		.byte	0
0000010E 00                      		.byte	0
0000010F 00                      		.byte	0
00000110 00                      		.byte	0
00000111 00                      		.byte	0
00000112 00                      		.byte	0
00000113 00                      		.byte	0
00000114 00                      		.byte	0
00000115 00                      		.byte	0
00000116 00                      		.byte	0
00000117 00                      		.byte	0
00000118 00                      		.byte	0
00000119 00                      		.byte	0
0000011A 00                      		.byte	0
0000011B 00                      		.byte	0
0000011C 00                      		.byte	0
0000011D 00                      		.byte	0
0000011E 00                      		.byte	0
0000011F 00                      		.byte	0
00000120 00                      		.byte	0
00000121 00                      		.byte	0
00000122 00                      		.byte	0
00000123                         __$gStrSim:
00000123 4D4F444F                		.byte	"MODO SIMULA"
         2053494D                
         554C41                  
0000012E C7C3                    		.byte	0C7H,0C3H
00000130 4F                      		.byte	"O"
00000131 00000000                		.byte	00H,00H,00H,00H,00H,00H,00H,00H,00H,00H,00H,00H,00H,00H
         00000000                
         00000000                
         0000                    
0000013F 00                      		.byte	0
00000140 00                      		.byte	0
00000141 00                      		.byte	0
00000142 00                      		.byte	0
00000143 00                      		.byte	0
00000144 00                      		.byte	0
00000145 00                      		.byte	0
00000146 00                      		.byte	0
00000147 00                      		.byte	0
00000148 00                      		.byte	0
00000149 00                      		.byte	0
0000014A 00                      		.byte	0
0000014B 00                      		.byte	0
0000014C 00                      		.byte	0
0000014D 00                      		.byte	0
0000014E 00                      		.byte	0
0000014F 00                      		.byte	0
00000150 00                      		.byte	0
00000151 00                      		.byte	0
00000152 00                      		.byte	0
00000153 00                      		.byte	0
00000154 00                      		.byte	0
00000155 00                      		.byte	0
00000156 00                      		.byte	0
00000157 00                      		.byte	0
00000158 00                      		.byte	0
00000159 00                      		.byte	0
0000015A 00                      		.byte	0
0000015B 00                      		.byte	0
0000015C 00                      		.byte	0
0000015D 00                      		.byte	0
0000015E 00                      		.byte	0
0000015F 00                      		.byte	0
00000160 00                      		.byte	0
00000161 00                      		.byte	0
00000162 00                      		.byte	0
00000163 00                      		.byte	0
00000164 00                      		.byte	0
00000165 00                      		.byte	0
00000166 00                      		.byte	0
00000167 00                      		.byte	0
00000168 00                      		.byte	0
00000169 00                      		.byte	0
0000016A 00                      		.byte	0
0000016B 00                      		.byte	0
0000016C 00                      		.byte	0
0000016D 00                      		.byte	0
0000016E 00                      		.byte	0
0000016F 00                      		.byte	0
00000170 00                      		.byte	0
00000171 00                      		.byte	0
00000172 00                      		.byte	0
00000173 00                      		.byte	0
00000174 00                      		.byte	0
00000175 00                      		.byte	0
00000176 00                      		.byte	0
00000177 00                      		.byte	0
00000178 00                      		.byte	0
00000179 00                      		.byte	0
0000017A 00                      		.byte	0
0000017B 00                      		.byte	0
0000017C 00                      		.byte	0
0000017D 00                      		.byte	0
0000017E 00                      		.byte	0
0000017F 00                      		.byte	0
00000180 00                      		.byte	0
00000181 00                      		.byte	0
00000182 00                      		.byte	0
00000183 00                      		.byte	0
00000184 00                      		.byte	0
00000185 00                      		.byte	0
00000186 00                      		.byte	0
00000187 00                      		.byte	0
00000188 00                      		.byte	0
00000189 00                      		.byte	0
0000018A 00                      		.byte	0
0000018B 00                      		.byte	0
0000018C 00                      		.byte	0
0000018D 00                      		.byte	0
0000018E 00                      		.byte	0
0000018F 00                      		.byte	0
00000190 00                      		.byte	0
00000191 00                      		.byte	0
00000192 00                      		.byte	0
00000193                         __$gStrDesloca:
00000193 4445534C                		.byte	"DESLOCANDO"
         4F43414E                
         444F                    
0000019D 00000000                		.byte	00H,00H,00H,00H,00H,00H,00H,00H,00H,00H,00H,00H,00H,00H
         00000000                
         00000000                
         0000                    
000001AB 45534320                		.byte	"ESC VOLTA"
         564F4C54                
         41                      
000001B4 00000000                		.byte	00H,00H,00H,00H,00H,00H,00H,00H,00H,00H,00H,00H,00H,00H,00H
         00000000                
         00000000                
         000000                  
000001C3 00                      		.byte	0
000001C4 00                      		.byte	0
000001C5 00                      		.byte	0
000001C6 00                      		.byte	0
000001C7 00                      		.byte	0
000001C8 00                      		.byte	0
000001C9 00                      		.byte	0
000001CA 00                      		.byte	0
000001CB 00                      		.byte	0
000001CC 00                      		.byte	0
000001CD 00                      		.byte	0
000001CE 00                      		.byte	0
000001CF 00                      		.byte	0
000001D0 00                      		.byte	0
000001D1 00                      		.byte	0
000001D2 00                      		.byte	0
000001D3 00                      		.byte	0
000001D4 00                      		.byte	0
000001D5 00                      		.byte	0
000001D6 00                      		.byte	0
000001D7 00                      		.byte	0
000001D8 00                      		.byte	0
000001D9 00                      		.byte	0
000001DA 00                      		.byte	0
000001DB 00                      		.byte	0
000001DC 00                      		.byte	0
000001DD 00                      		.byte	0
000001DE 00                      		.byte	0
000001DF 00                      		.byte	0
000001E0 00                      		.byte	0
000001E1 00                      		.byte	0
000001E2 00                      		.byte	0
000001E3 00                      		.byte	0
000001E4 00                      		.byte	0
000001E5 00                      		.byte	0
000001E6 00                      		.byte	0
000001E7 00                      		.byte	0
000001E8 00                      		.byte	0
000001E9 00                      		.byte	0
000001EA 00                      		.byte	0
000001EB 00                      		.byte	0
000001EC 00                      		.byte	0
000001ED 00                      		.byte	0
000001EE 00                      		.byte	0
000001EF 00                      		.byte	0
000001F0 00                      		.byte	0
000001F1 00                      		.byte	0
000001F2 00                      		.byte	0
000001F3                         __$ltorchBuffer:
000001F3 00                      		.byte	00H
                                 		.SECTION	B,DATA,ALIGN=4
00000000                         __$keyEntry_buffer$1:
00000000(00000004H)              		.blkl	1
                                 		.SECTION	B_1,DATA
00000000                         _textXStr:
00000000(00000014H)              		.blkb	20
00000014                         _textYStr:
00000014(00000014H)              		.blkb	20
00000028                         _textZStr:
00000028(00000014H)              		.blkb	20
0000003C                         _gTitle:
0000003C(00000001H)              		.blkb	1
                                 		.END

Information List

TOTAL ERROR(S)    00000
TOTAL WARNING(S)  00000
TOTAL LINE(S)     04277   LINES

Section List

Attr         Size               Name
CODE     0000005766(00001686H)  P
ROMDATA  0000000354(00000162H)  L
ROMDATA  0000000500(000001F4H)  D_1
DATA     0000000004(00000004H)  B
DATA     0000000061(0000003DH)  B_1

Cpu Type

-ISA=RXV1 -FPU

Command Parameter

-subcommand=C:\Users\LAFONS~1\AppData\Local\Temp\$ccrx124\$ccrx\ut_state_move.src.cmd
    -nologo
    -isa=rxv1
    -fpu
    -show=conditionals,definitions,expansions
    -define=__RXV1=1
    -fint_register=0
    -debug
    -endian=little
-listfile=C:\Workspace\e2studio\git\MT01_master\MT01_build\ut_state_move.lst
-output=C:\Workspace\e2studio\git\MT01_master\MT01_build\src\states\ut_state_move.obj
