* RX FAMILY ASSEMBLER V2.03.00.01 [24 Oct 2014] *  SOURCE LIST  Sun Feb 19 10:48:35 2017

LOC.     OBJ.              0XMDA SOURCE STATEMENT

                                 ;RX Family C/C++ Compiler (V2.03.00.03 [04 Dec 2014])  19-Feb-2017 10:48:35
                                 
                                 ;*** CPU TYPE ***
                                 
                                 ;-ISA=RXV1
                                 
                                 ;*** COMMAND PARAMETER ***
                                 
                                 ;-output=src=ut_state_move.src
                                 ;-lang=c99
                                 ;-include=C:\PROGRA~2\Renesas\RX\2_3_0/include,C:\Workspace\e2studio\git\MT01\r_lvd_rx,C:\Workspace\e2studio\git\MT01\r_lvd_rx\src,C:/Workspace/e2studio/git/MT01/r_tfa
                                 ;-debug
                                 ;-show=source,conditionals,definitions,expansions
                                 ;-listfile=ut_state_move.lst
                                 ;-isa=rxv1
                                 ;-optimize=0
                                 ;-fpu
                                 ;-alias=noansi
                                 ;-nologo
                                 ;-nomessage
                                 ;-define=__RX,COMPACTAXP=0,EASYMAK=1,MOBILE=0,FREE_RTOS_PP
                                 ;ut_state_move.c
                                 
                                 		.glb	_cs
                                 		.glb	_configsVar
                                 		.glb	_configVarPl
                                 		.glb	_configFlags
                                 		.glb	_macro_func_ptr
                                 		.glb	_macro_buffer
                                 		.glb	_state
                                 		.glb	_velocidadeJog
                                 		.glb	_xMacroArcoOkSync
                                 		.glb	_isDwell
                                 		.glb	_swTimers
                                 		.glb	_qKeyboard
                                 		.glb	_cm
                                 		.glb	_iif_func_enter
                                 		.glb	_iif_func_esc
                                 		.glb	_iif_func_down
                                 		.glb	_iif_func_up
                                 		.glb	_iif_func_left
                                 		.glb	_iif_func_right
                                 		.glb	_iif_func_zdown
                                 		.glb	_iif_func_zup
                                 		.glb	_iif_func_released
                                 		.glb	_zmove
                                 		.glb	_JogkeyPressed
                                 		.glb	_mr
                                 		.glb	_currentLine
                                 		.glb	_xCncTaskHandle
                                 		.glb	_sim
                                 		.glb	_programEnd
                                 		.glb	_lstop
                                 		.glb	_simTorch
                                 		.glb	_textXStr
                                 		.glb	_textYStr
                                 		.glb	_textZStr
                                 		.glb	_gTitle
                                 		.glb	_intepreterRunning
                                 		.glb	_func_back
                                 		.glb	_zinhibitor
                                 		.glb	_sprintf
                                 		.glb	_THC_realGet
                                 		.glb	_cm_get_linenum
                                 		.glb	_cm_get_feed_rate
                                 		.glb	_mp_get_runtime_velocity
                                 		.glb	_arcoOkGet
                                 		.glb	_isCuttingGet
                                 		.glb	_st_get_dwell_elapsed_time
                                 		.glb	_mp_get_runtime_absolute_position
                                 		.glb	_xTimerGenericCommand
                                 		.glb	_ut_lcd_output_warning
                                 		.glb	_ut_lcd_output_manual_mode
                                 		.glb	_ut_lcd_output_mov_mode
                                 		.glb	_ut_lcd_output_plasma_mode
                                 		.glb	_ut_state_manual_mode
                                 		.glb	_restart_stepper
                                 		.glb	_iif_bind_jog
                                 		.glb	_xTimerCreate
                                 		.glb	_xTaskGetTickCount
                                 		.glb	_command_idle
                                 		.glb	_xTaskGenericNotify
                                 		.glb	_xQueueGenericReceive
                                 		.glb	_cm_request_feedhold
                                 		.glb	_cm_request_queue_flush
                                 		.glb	_ut_state_auto_mode
                                 		.glb	_eepromReadConfig
                                 		.glb	_stopDuringCut_Set
                                 		.glb	_tg_set_primary_source
                                 		.glb	_xio_close
                                 		.glb	__command_dispatch
                                 		.glb	_xio_open
                                 		.glb	_iif_bind_filerunning
                                 		.glb	_iif_bind_filerunning_stop
                                 		.glb	_st_command_dwell
                                 		.glb	_stopDuringCut_Get
                                 		.glb	_iif_bind_idle
                                 		.glb	_ut_state_config_var
                                 		.glb	_pl_arcook_start
                                 		.glb	_delay_thcStartStop
                                 		.glb	_isCuttingSet
                                 		.glb	_cm_queue_flush
                                 		.glb	_pl_arcook_stop
                                 		.glb	_ut_state_deslocaZero_mode
                                 		.glb	_warm_stop
                                 		.glb	_iif_bind_deslocar
                                 		.glb	_cm_request_cycle_start
                                 ;LineNo. C-SOURCE STATEMENT
                                 
                                 		.SECTION	P,CODE
00000000                         __$updatePosition:
                                 		.STACK	__$updatePosition=64
                                 ;       1 /*
                                 ;       2  * ut_state_manual.c
                                 ;       3  *
                                 ;       4  *  Created on: Dec 4, 2015
                                 ;       5  *      Author: Fernando
                                 ;       6  */
                                 ;       7 
                                 ;       8 #include "tinyg.h"		// #1
                                 ;       9 #include "hardware.h"
                                 ;      10 #include "controller.h"
                                 ;      11 #include "macros.h"
                                 ;      12 #include "stepper.h"
                                 ;      13 #include "spindle.h"
                                 ;      14 
                                 ;      15 #include "ut_context.h"
                                 ;      16 #include "ut_state.h"
                                 ;      17 #include "ut_state_config_var.h"
                                 ;      18 
                                 ;      19 #include "FreeRTOS.h"
                                 ;      20 #include "task.h"
                                 ;      21 #include "timers.h"
                                 ;      22 #include "config_SwTimers.h"
                                 ;      23 
                                 ;      24 #include "keyboard.h"
                                 ;      25 #include "interpreter_if.h"
                                 ;      26 
                                 ;      27 #include "lcd.h"
                                 ;      28 
                                 ;      29 #include "planner.h"
                                 ;      30 #include "plasma.h"
                                 ;      31 #include "eeprom.h"
                                 ;      32 
                                 ;      33 extern TaskHandle_t xCncTaskHandle;
                                 ;      34 bool sim = false;
                                 ;      35 bool programEnd = false;
                                 ;      36 bool lstop = false;
                                 ;      37 extern bool simTorch;
                                 ;      38 char textXStr[MAX_COLUMN];
                                 ;      39 char textYStr[MAX_COLUMN];
                                 ;      40 char textZStr[MAX_COLUMN];
                                 ;      41 uint8_t gTitle;
                                 ;      42 extern bool intepreterRunning;
                                 ;      43 extern uint8_t func_back;
                                 ;      44 
                                 ;      45 
                                 ;      46 #define DEFAULT_AUTO_TITLE		"MODO AUTOM햀ICO"
                                 ;      47 #define STOP_AUTO_TITLE		    "M핽UINA PAUSADA"
                                 ;      48 #define DEFAULT_LINHA1_AUTO	    ""
                                 ;      49 #define DEFAULT_AVISO_AUTO	    ""
                                 ;      50 #define STOP_AVISO_AUTO	        ""
                                 ;      51 
                                 ;      52 #define DEFAULT_MANUAL_TITLE	"MODO MANUAL"
                                 ;      53 #define DEFAULT_LINHA1_MANUAL	"VELOCIDADE:         "
                                 ;      54 #define DEFAULT_AVISO_MANUAL	"ENTER DISPARA/ESC VOLTA"
                                 ;      55 
                                 ;      56 #define DEFAULT_DESCOLA_TITLE	"DESLOCANDO"
                                 ;      57 #define DEFAULT_LINHA1_DESLOCA	""
                                 ;      58 #define DEFAULT_AVISO_DESLOCA	"ESC VOLTA"
                                 ;      59 
                                 ;      60 #define DEFAULT_SIM_TITLE		"MODO SIMULA플O"
                                 ;      61 #define STOP_SIM_TITLE		    "M핽UINA PAUSADA"
                                 ;      62 #define DEFAULT_LINHA1_SIM	    ""
                                 ;      63 #define DEFAULT_AVISO_SIM	    ""
                                 ;      64 #define STOP_AVISO_SIM	        ""
                                 ;      65 
                                 ;      66 
                                 ;      67 #define DEFAULT_UPDATE_TIMEOUT	portMAX_DELAY
                                 ;      68 
                                 ;      69 enum {
                                 ;      70 	MANUAL = 0,
                                 ;      71 	AUTO,
                                 ;      72 	DESLOCA,
                                 ;      73 	SIM
                                 ;      74 };
                                 ;      75 
                                 ;      76 static char gStrManual[6][24] =
                                 ;      77 {
                                 ;      78 	DEFAULT_MANUAL_TITLE,
                                 ;      79 	DEFAULT_AVISO_MANUAL,
                                 ;      80 	"",
                                 ;      81 	""
                                 ;      82 };
                                 ;      83 
                                 ;      84 static char gStrAuto[6][24] =
                                 ;      85 {
                                 ;      86 	DEFAULT_AUTO_TITLE,
                                 ;      87 	DEFAULT_AVISO_AUTO,
                                 ;      88 	"",
                                 ;      89 	"",
                                 ;      90 	""
                                 ;      91 };
                                 ;      92 
                                 ;      93 static char gStrSim[4][28] =
                                 ;      94 {
                                 ;      95 	DEFAULT_SIM_TITLE,
                                 ;      96 	DEFAULT_AVISO_SIM,
                                 ;      97 	"",
                                 ;      98 	""
                                 ;      99 };
                                 ;     100 
                                 ;     101 static char gStrDesloca[4][24] =
                                 ;     102 {
                                 ;     103 	DEFAULT_DESCOLA_TITLE,
                                 ;     104 	DEFAULT_AVISO_DESLOCA,
                                 ;     105 	"",
                                 ;     106 	""
                                 ;     107 };
                                 ;     108 
                                 ;     109 
                                 ;     110 
                                 ;     111 static void vTimerUpdateCallback( TimerHandle_t pxTimer );
                                 ;     112 void warm_stop(uint8_t flag);
                                 ;     113 static bool ltorchBuffer = false;
                                 ;     114 extern bool zinhibitor;
                                 ;     115 
                                 ;     116 /**
                                 ;     117  * Update machine position
                                 ;     118  * @param szTitle
                                 ;     119  */
                                 ;     120 static void updatePosition(uint8_t menu)
                                 		.LINE  "C:\Workspace\e2studio\git\MT01\src\states\ut_state_move.c",120
00000000 7100CC                  		ADD #0FFFFFFCCH, R0
00000003 C70133                  		MOV.B R1, 33H[R0]
                                 ;     121 {
                                 ;     122 	float x; float y; float z;
                                 ;     123 	float vel;
                                 ;     124 	char *lStr[7];
                                 ;     125 	/* Display is only cleared once to improve performance */
                                 ;     126 	lStr[4] = "";
                                 		.LINE  "C:\Workspace\e2studio\git\MT01\src\states\ut_state_move.c",126
00000006 FB12rrrrrrrr            		MOV.L #_L10, R1
0000000C A209                    		MOV.L R1, 24H[R0]
0000000E                         L33:	; entry.split
                                 ;     127 	lStr[6] = "";
                                 		.LINE  "C:\Workspace\e2studio\git\MT01\src\states\ut_state_move.c",127
0000000E FB12rrrrrrrr            		MOV.L #_L10, R1
00000014 A289                    		MOV.L R1, 2CH[R0]
00000016                         L34:	; entry.split1
                                 ;     128 	lStr[1] = "";
                                 		.LINE  "C:\Workspace\e2studio\git\MT01\src\states\ut_state_move.c",128
00000016 FB12rrrrrrrr            		MOV.L #_L10, R1
0000001C A181                    		MOV.L R1, 18H[R0]
0000001E                         L35:	; entry.split2
                                 ;     129 	switch(menu)
                                 		.LINE  "C:\Workspace\e2studio\git\MT01\src\states\ut_state_move.c",129
0000001E 590133                  		MOVU.B 33H[R0], R1
00000021 6131                    		CMP #03H, R1
00000023 3Arrrr               W  		BEQ L81
00000026                         L36:	; entry.split2
00000026 6111                    		CMP #01H, R1
00000028 3Arrrr               W  		BEQ L56
0000002B                         L37:	; entry.split2
0000002B 6121                    		CMP #02H, R1
0000002D 3Arrrr               W  		BEQ L90
00000030                         L38:	; entry.split2
00000030 6101                    		CMP #00H, R1
00000032 3Brrrr               W  		BNE L94
00000035                         L39:	; bb
                                 ;     130 	{
                                 ;     131 		case MANUAL: lStr[0] = gStrManual[0];
                                 		.LINE  "C:\Workspace\e2studio\git\MT01\src\states\ut_state_move.c",131
00000035 FB12rrrrrrrr            		MOV.L #__$gStrManual, R1
0000003B A109                    		MOV.L R1, 14H[R0]
0000003D                         L40:	; bb.split
                                 ;     132 					sprintf(gStrManual[2], "VEL.: %.0f mm/min",  *velocidadeJog);
                                 		.LINE  "C:\Workspace\e2studio\git\MT01\src\states\ut_state_move.c",132
0000003D FBE2rrrrrrrr            		MOV.L #_velocidadeJog, R14
00000043 ECEE                    		MOV.L [R14], R14
00000045 6080                    		SUB #08H, R0
00000047 E4E001                  		MOV.L [R14], 04H[R0]
0000004A FBE2rrrrrrrr            		MOV.L #_L11, R14
00000050 E30E                    		MOV.L R14, [R0]
00000052 FB12rrrrrrrr            		MOV.L #__$gStrManual, R1
00000058 711130                  		ADD #30H, R1
0000005B 05rrrrrr             A  		BSR _sprintf
0000005F 6280                    		ADD #08H, R0
00000061                         L41:	; bb.split3
                                 ;     133 					lStr[2] = gStrManual[2];
                                 		.LINE  "C:\Workspace\e2studio\git\MT01\src\states\ut_state_move.c",133
00000061 FB12rrrrrrrr            		MOV.L #__$gStrManual, R1
00000067 711130                  		ADD #30H, R1
0000006A A189                    		MOV.L R1, 1CH[R0]
0000006C                         L42:	; bb.split4
                                 ;     134 
                                 ;     135 					 if (!ARCO_OK)
                                 		.LINE  "C:\Workspace\e2studio\git\MT01\src\states\ut_state_move.c",135
0000006C FBEE22C008              		MOV.L #0008C022H, R14
00000071 59EE20                  		MOVU.B 20H[R14], R14
00000074 681E                    		SHLR #01H, R14
00000076 7C0E                    		BTST #00H, R14
00000078 21rr                    		BNE L45
0000007A 2Err                 B  		BRA L46
0000007C                         L43:	; bb22
                                 ;     136 						 lStr[3] = "AOK";
                                 		.LINE  "C:\Workspace\e2studio\git\MT01\src\states\ut_state_move.c",136
0000007C FB12rrrrrrrr            		MOV.L #_L12, R1
00000082 A201                    		MOV.L R1, 20H[R0]
00000084 2Err                 B  		BRA L48
00000086                         L44:	; bb25
                                 ;     137 					 else
                                 ;     138 						 lStr[3] = "";
                                 		.LINE  "C:\Workspace\e2studio\git\MT01\src\states\ut_state_move.c",138
00000086 FB12rrrrrrrr            		MOV.L #_L10, R1
0000008C A201                    		MOV.L R1, 20H[R0]
0000008E 2Err                 B  		BRA L48
00000090                         L45:	; bb34
00000090 F80600                  		MOV.L #00000000H, [R0]
00000093 08                   S  		BRA L47
00000094                         L46:	; bb35
00000094 F80601                  		MOV.L #00000001H, [R0]
00000097                         L47:	; bb36
00000097 EC01                    		MOV.L [R0], R1
00000099 6101                    		CMP #00H, R1
0000009B 21rr                    		BNE L43
0000009D 2Err                 B  		BRA L44
0000009F                         L48:	; bb40
0000009F FBEE41C008              		MOV.L #0008C041H, R14
                                 ;     139 					 if (MATERIAL)
                                 		.LINE  "C:\Workspace\e2studio\git\MT01\src\states\ut_state_move.c",139
000000A4 58EE                    		MOVU.B [R14], R14
000000A6 682E                    		SHLR #02H, R14
000000A8 7C0E                    		BTST #00H, R14
000000AA 10                   S  		BEQ L50
000000AB                         L49:	; bb41
                                 ;     140 						 lStr[6] = "OH";
                                 		.LINE  "C:\Workspace\e2studio\git\MT01\src\states\ut_state_move.c",140
000000AB FB12rrrrrrrr            		MOV.L #_L13, R1
000000B1 A289                    		MOV.L R1, 2CH[R0]
000000B3 08                   S  		BRA L51
000000B4                         L50:	; bb44
                                 ;     141 					 else
                                 ;     142 						 lStr[6] = "";
                                 		.LINE  "C:\Workspace\e2studio\git\MT01\src\states\ut_state_move.c",142
000000B4 FB12rrrrrrrr            		MOV.L #_L10, R1
000000BA A289                    		MOV.L R1, 2CH[R0]
000000BC                         L51:	; bb55
                                 ;     143 					 if(configFlags[MODOMAQUINA] == MODO_PLASMA)
                                 		.LINE  "C:\Workspace\e2studio\git\MT01\src\states\ut_state_move.c",143
000000BC FBE2rrrrrrrr            		MOV.L #_configFlags, R14
000000C2 ECEE                    		MOV.L [R14], R14
000000C4 610E                    		CMP #00H, R14
000000C6 3Brrrr               W  		BNE L94
000000C9                         L52:	; bb56
                                 ;     144 					 {
                                 ;     145 						sprintf(gStrManual[4], "THC SET: %.0f V",  configVarPl[PL_CONFIG_TENSAO_THC]);
                                 		.LINE  "C:\Workspace\e2studio\git\MT01\src\states\ut_state_move.c",145
000000C9 FBE2rrrrrrrr            		MOV.L #_configVarPl, R14
000000CF 6080                    		SUB #08H, R0
000000D1 E5E00401                		MOV.L 10H[R14], 04H[R0]
000000D5 FBE2rrrrrrrr            		MOV.L #_L14, R14
000000DB E30E                    		MOV.L R14, [R0]
000000DD FB12rrrrrrrr            		MOV.L #__$gStrManual, R1
000000E3 711160                  		ADD #60H, R1
000000E6 05rrrrrr             A  		BSR _sprintf
000000EA 6280                    		ADD #08H, R0
000000EC                         L53:	; bb56.split
                                 ;     146 						lStr[4] = gStrManual[4];
                                 		.LINE  "C:\Workspace\e2studio\git\MT01\src\states\ut_state_move.c",146
000000EC FB12rrrrrrrr            		MOV.L #__$gStrManual, R1
000000F2 711160                  		ADD #60H, R1
000000F5 A209                    		MOV.L R1, 24H[R0]
000000F7                         L54:	; bb56.split5
                                 ;     147 						sprintf(gStrManual[5], "THC REAL: %.0f V",  THC_realGet());
                                 		.LINE  "C:\Workspace\e2studio\git\MT01\src\states\ut_state_move.c",147
000000F7 05rrrrrr             A  		BSR _THC_realGet
000000FB 6080                    		SUB #08H, R0
000000FD FBE2rrrrrrrr            		MOV.L #_L15, R14
00000103 E30E                    		MOV.L R14, [R0]
00000105 A009                    		MOV.L R1, 04H[R0]
00000107 FB12rrrrrrrr            		MOV.L #__$gStrManual, R1
0000010D 711178                  		ADD #78H, R1
00000110 05rrrrrr             A  		BSR _sprintf
00000114 6280                    		ADD #08H, R0
00000116                         L55:	; bb56.split6
                                 ;     148 						lStr[5] = gStrManual[5];
                                 		.LINE  "C:\Workspace\e2studio\git\MT01\src\states\ut_state_move.c",148
00000116 FB12rrrrrrrr            		MOV.L #__$gStrManual, R1
0000011C 711178                  		ADD #78H, R1
0000011F A281                    		MOV.L R1, 28H[R0]
00000121 38rrrr               W  		BRA L94
00000124                         L56:	; bb70
                                 ;     149 					}
                                 ;     150 					break;
                                 ;     151 		case AUTO:   lStr[0] = gStrAuto[0];
                                 		.LINE  "C:\Workspace\e2studio\git\MT01\src\states\ut_state_move.c",151
00000124 FB12rrrrrrrr            		MOV.L #__$gStrAuto, R1
0000012A A109                    		MOV.L R1, 14H[R0]
0000012C                         L57:	; bb70.split
                                 ;     152 					 currentLine = cm_get_linenum(RUNTIME);
                                 		.LINE  "C:\Workspace\e2studio\git\MT01\src\states\ut_state_move.c",152
0000012C FB12rrrrrrrr            		MOV.L #_mr, R1
00000132 72114001                		ADD #0140H, R1
00000136 05rrrrrr             A  		BSR _cm_get_linenum
0000013A FBE2rrrrrrrr            		MOV.L #_currentLine, R14
00000140 E3E1                    		MOV.L R1, [R14]
00000142                         L58:	; bb70.split7
                                 ;     153  	 	 	 	 	 sprintf(gStrAuto[1], "LINHA: %d",  cm_get_linenum(RUNTIME));
                                 		.LINE  "C:\Workspace\e2studio\git\MT01\src\states\ut_state_move.c",153
00000142 FB12rrrrrrrr            		MOV.L #_mr, R1
00000148 72114001                		ADD #0140H, R1
0000014C 05rrrrrr             A  		BSR _cm_get_linenum
00000150 6080                    		SUB #08H, R0
00000152 FBE2rrrrrrrr            		MOV.L #_L16, R14
00000158 E30E                    		MOV.L R14, [R0]
0000015A A009                    		MOV.L R1, 04H[R0]
0000015C FB12rrrrrrrr            		MOV.L #__$gStrAuto, R1
00000162 711118                  		ADD #18H, R1
00000165 05rrrrrr             A  		BSR _sprintf
00000169 6280                    		ADD #08H, R0
0000016B                         L59:	; bb70.split8
                                 ;     154 		 	 	 	 lStr[1] = gStrAuto[1];
                                 		.LINE  "C:\Workspace\e2studio\git\MT01\src\states\ut_state_move.c",154
0000016B FB12rrrrrrrr            		MOV.L #__$gStrAuto, R1
00000171 711118                  		ADD #18H, R1
00000174 A181                    		MOV.L R1, 18H[R0]
00000176                         L60:	; bb70.split9
                                 ;     155 		 	 	 	 vel = cm_get_feed_rate(RUNTIME);
                                 		.LINE  "C:\Workspace\e2studio\git\MT01\src\states\ut_state_move.c",155
00000176 FB12rrrrrrrr            		MOV.L #_mr, R1
0000017C 72114001                		ADD #0140H, R1
00000180 05rrrrrr             A  		BSR _cm_get_feed_rate
00000184 A101                    		MOV.L R1, 10H[R0]
00000186                         L61:	; bb70.split10
                                 ;     156 		 	 	 	 if (vel == 0)
                                 		.LINE  "C:\Workspace\e2studio\git\MT01\src\states\ut_state_move.c",156
00000186 A901                    		MOV.L 10H[R0], R1
00000188 FD721100000000          		FCMP #00000000H, R1
0000018F 18                   S  		BNE L63
00000190                         L62:	; bb80
                                 ;     157 		 	 	 	 {
                                 ;     158 		 	 	 		vel = mp_get_runtime_velocity();
                                 		.LINE  "C:\Workspace\e2studio\git\MT01\src\states\ut_state_move.c",158
00000190 05rrrrrr             A  		BSR _mp_get_runtime_velocity
00000194 A101                    		MOV.L R1, 10H[R0]
00000196                         L63:	; bb86
                                 ;     159 		 	 	 	 }
                                 ;     160 
                                 ;     161 			         sprintf(gStrAuto[2], "VEL.: %.0f mm/min",  vel);
                                 		.LINE  "C:\Workspace\e2studio\git\MT01\src\states\ut_state_move.c",161
00000196 A901                    		MOV.L 10H[R0], R1
00000198 6080                    		SUB #08H, R0
0000019A A009                    		MOV.L R1, 04H[R0]
0000019C FBE2rrrrrrrr            		MOV.L #_L11, R14
000001A2 E30E                    		MOV.L R14, [R0]
000001A4 FB12rrrrrrrr            		MOV.L #__$gStrAuto, R1
000001AA 711130                  		ADD #30H, R1
000001AD 05rrrrrr             A  		BSR _sprintf
000001B1 6280                    		ADD #08H, R0
000001B3                         L64:	; bb86.split
                                 ;     162                      lStr[2] = gStrAuto[2];
                                 		.LINE  "C:\Workspace\e2studio\git\MT01\src\states\ut_state_move.c",162
000001B3 FB12rrrrrrrr            		MOV.L #__$gStrAuto, R1
000001B9 711130                  		ADD #30H, R1
000001BC A189                    		MOV.L R1, 1CH[R0]
000001BE                         L65:	; bb86.split11
                                 ;     163 
                                 ;     164 						 if (arcoOkGet())
                                 		.LINE  "C:\Workspace\e2studio\git\MT01\src\states\ut_state_move.c",164
000001BE 05rrrrrr             A  		BSR _arcoOkGet
000001C2 6101                    		CMP #00H, R1
000001C4 10                   S  		BEQ L67
000001C5                         L66:	; bb92
                                 ;     165 							 lStr[3] = "AOK";
                                 		.LINE  "C:\Workspace\e2studio\git\MT01\src\states\ut_state_move.c",165
000001C5 FB12rrrrrrrr            		MOV.L #_L12, R1
000001CB A201                    		MOV.L R1, 20H[R0]
000001CD 08                   S  		BRA L68
000001CE                         L67:	; bb95
                                 ;     166 						 else
                                 ;     167 							 lStr[3] = "";
                                 		.LINE  "C:\Workspace\e2studio\git\MT01\src\states\ut_state_move.c",167
000001CE FB12rrrrrrrr            		MOV.L #_L10, R1
000001D4 A201                    		MOV.L R1, 20H[R0]
000001D6                         L68:	; bb104
                                 ;     168 					 if(configFlags[MODOMAQUINA] == MODO_PLASMA)
                                 		.LINE  "C:\Workspace\e2studio\git\MT01\src\states\ut_state_move.c",168
000001D6 FBE2rrrrrrrr            		MOV.L #_configFlags, R14
000001DC ECEE                    		MOV.L [R14], R14
000001DE 610E                    		CMP #00H, R14
000001E0 3Brrrr               W  		BNE L78
000001E3                         L69:	; bb105
                                 ;     169 					 {
                                 ;     170 						 sprintf(gStrAuto[4], "THC SET: %.0f V",  configVarPl[PL_CONFIG_TENSAO_THC]);
                                 		.LINE  "C:\Workspace\e2studio\git\MT01\src\states\ut_state_move.c",170
000001E3 FBE2rrrrrrrr            		MOV.L #_configVarPl, R14
000001E9 6080                    		SUB #08H, R0
000001EB E5E00401                		MOV.L 10H[R14], 04H[R0]
000001EF FBE2rrrrrrrr            		MOV.L #_L14, R14
000001F5 E30E                    		MOV.L R14, [R0]
000001F7 FB12rrrrrrrr            		MOV.L #__$gStrAuto, R1
000001FD 711160                  		ADD #60H, R1
00000200 05rrrrrr             A  		BSR _sprintf
00000204 6280                    		ADD #08H, R0
00000206                         L70:	; bb105.split
                                 ;     171 						 lStr[4] = gStrAuto[4];
                                 		.LINE  "C:\Workspace\e2studio\git\MT01\src\states\ut_state_move.c",171
00000206 FB12rrrrrrrr            		MOV.L #__$gStrAuto, R1
0000020C 711160                  		ADD #60H, R1
0000020F A209                    		MOV.L R1, 24H[R0]
00000211                         L71:	; bb105.split12
                                 ;     172 						 if(isCuttingGet()){
                                 		.LINE  "C:\Workspace\e2studio\git\MT01\src\states\ut_state_move.c",172
00000211 05rrrrrr             A  		BSR _isCuttingGet
00000215 6101                    		CMP #00H, R1
00000217 20rr                    		BEQ L74
00000219                         L72:	; bb111
                                 ;     173 							 sprintf(gStrAuto[5], "THC REAL: %.0f V",  THC_realGet());
                                 		.LINE  "C:\Workspace\e2studio\git\MT01\src\states\ut_state_move.c",173
00000219 05rrrrrr             A  		BSR _THC_realGet
0000021D 6080                    		SUB #08H, R0
0000021F FBE2rrrrrrrr            		MOV.L #_L15, R14
00000225 E30E                    		MOV.L R14, [R0]
00000227 A009                    		MOV.L R1, 04H[R0]
00000229 FB12rrrrrrrr            		MOV.L #__$gStrAuto, R1
0000022F 711178                  		ADD #78H, R1
00000232 05rrrrrr             A  		BSR _sprintf
00000236 6280                    		ADD #08H, R0
00000238                         L73:	; bb111.split
                                 ;     174 							 lStr[5] = gStrAuto[5];
                                 		.LINE  "C:\Workspace\e2studio\git\MT01\src\states\ut_state_move.c",174
00000238 FB12rrrrrrrr            		MOV.L #__$gStrAuto, R1
0000023E 711178                  		ADD #78H, R1
00000241 A281                    		MOV.L R1, 28H[R0]
00000243 08                   S  		BRA L75
00000244                         L74:	; bb116
                                 ;     175 						 }
                                 ;     176 						 else
                                 ;     177 						 {
                                 ;     178 							 lStr[5] = "THC REAL: --- V";
                                 		.LINE  "C:\Workspace\e2studio\git\MT01\src\states\ut_state_move.c",178
00000244 FB12rrrrrrrr            		MOV.L #_L17, R1
0000024A A281                    		MOV.L R1, 28H[R0]
0000024C                         L75:	; bb125
0000024C FBEE41C008              		MOV.L #0008C041H, R14
                                 ;     179 						 }
                                 ;     180 						 if (MATERIAL)
                                 		.LINE  "C:\Workspace\e2studio\git\MT01\src\states\ut_state_move.c",180
00000251 58EE                    		MOVU.B [R14], R14
00000253 682E                    		SHLR #02H, R14
00000255 7C0E                    		BTST #00H, R14
00000257 20rr                    		BEQ L77
00000259                         L76:	; bb126
                                 ;     181 							 lStr[6] = "OH";
                                 		.LINE  "C:\Workspace\e2studio\git\MT01\src\states\ut_state_move.c",181
00000259 FB12rrrrrrrr            		MOV.L #_L13, R1
0000025F A289                    		MOV.L R1, 2CH[R0]
00000261 38rrrr               W  		BRA L94
00000264                         L77:	; bb129
                                 ;     182 						 else
                                 ;     183 							 lStr[6] = "";
                                 		.LINE  "C:\Workspace\e2studio\git\MT01\src\states\ut_state_move.c",183
00000264 FB12rrrrrrrr            		MOV.L #_L10, R1
0000026A A289                    		MOV.L R1, 2CH[R0]
0000026C 38rrrr               W  		BRA L94
0000026F                         L78:	; bb141
                                 ;     184                      }
                                 ;     185                      else
                                 ;     186                      {
                                 ;     187                     	 if(isDwell){
                                 		.LINE  "C:\Workspace\e2studio\git\MT01\src\states\ut_state_move.c",187
0000026F FBE2rrrrrrrr            		MOV.L #_isDwell, R14
00000275 58EE                    		MOVU.B [R14], R14
00000277 610E                    		CMP #00H, R14
00000279 3Arrrr               W  		BEQ L94
0000027C                         L79:	; bb142
                                 ;     188         			         sprintf(gStrAuto[4], "T: %.0f s",  st_get_dwell_elapsed_time());
                                 		.LINE  "C:\Workspace\e2studio\git\MT01\src\states\ut_state_move.c",188
0000027C 05rrrrrr             A  		BSR _st_get_dwell_elapsed_time
00000280 6080                    		SUB #08H, R0
00000282 FBE2rrrrrrrr            		MOV.L #_L18, R14
00000288 E30E                    		MOV.L R14, [R0]
0000028A A009                    		MOV.L R1, 04H[R0]
0000028C FB12rrrrrrrr            		MOV.L #__$gStrAuto, R1
00000292 711160                  		ADD #60H, R1
00000295 05rrrrrr             A  		BSR _sprintf
00000299 6280                    		ADD #08H, R0
0000029B                         L80:	; bb142.split
                                 ;     189                     		 lStr[4] = gStrAuto[4];
                                 		.LINE  "C:\Workspace\e2studio\git\MT01\src\states\ut_state_move.c",189
0000029B FB12rrrrrrrr            		MOV.L #__$gStrAuto, R1
000002A1 711160                  		ADD #60H, R1
000002A4 A209                    		MOV.L R1, 24H[R0]
000002A6 38rrrr               W  		BRA L94
000002A9                         L81:	; bb158
                                 ;     190                     	 }
                                 ;     191                      }
                                 ;     192                      break;
                                 ;     193 		case SIM:    lStr[0] = gStrSim[0];
                                 		.LINE  "C:\Workspace\e2studio\git\MT01\src\states\ut_state_move.c",193
000002A9 FB12rrrrrrrr            		MOV.L #__$gStrSim, R1
000002AF A109                    		MOV.L R1, 14H[R0]
000002B1                         L82:	; bb158.split
                                 ;     194 		 	 	 	 currentLine = cm_get_linenum(RUNTIME);
                                 		.LINE  "C:\Workspace\e2studio\git\MT01\src\states\ut_state_move.c",194
000002B1 FB12rrrrrrrr            		MOV.L #_mr, R1
000002B7 72114001                		ADD #0140H, R1
000002BB 05rrrrrr             A  		BSR _cm_get_linenum
000002BF FBE2rrrrrrrr            		MOV.L #_currentLine, R14
000002C5 E3E1                    		MOV.L R1, [R14]
000002C7                         L83:	; bb158.split13
                                 ;     195 	 	 	 	 	 sprintf(gStrSim[1], "LINHA: %d",  cm_get_linenum(RUNTIME));
                                 		.LINE  "C:\Workspace\e2studio\git\MT01\src\states\ut_state_move.c",195
000002C7 FB12rrrrrrrr            		MOV.L #_mr, R1
000002CD 72114001                		ADD #0140H, R1
000002D1 05rrrrrr             A  		BSR _cm_get_linenum
000002D5 6080                    		SUB #08H, R0
000002D7 FBE2rrrrrrrr            		MOV.L #_L16, R14
000002DD E30E                    		MOV.L R14, [R0]
000002DF A009                    		MOV.L R1, 04H[R0]
000002E1 FB12rrrrrrrr            		MOV.L #__$gStrSim, R1
000002E7 71111C                  		ADD #1CH, R1
000002EA 05rrrrrr             A  		BSR _sprintf
000002EE 6280                    		ADD #08H, R0
000002F0                         L84:	; bb158.split14
                                 ;     196 		 	 	 	 lStr[1] = gStrSim[1];
                                 		.LINE  "C:\Workspace\e2studio\git\MT01\src\states\ut_state_move.c",196
000002F0 FB12rrrrrrrr            		MOV.L #__$gStrSim, R1
000002F6 71111C                  		ADD #1CH, R1
000002F9 A181                    		MOV.L R1, 18H[R0]
000002FB                         L85:	; bb158.split15
                                 ;     197 		 	 	 	 vel = cm_get_feed_rate(ACTIVE_MODEL);
                                 		.LINE  "C:\Workspace\e2studio\git\MT01\src\states\ut_state_move.c",197
000002FB FBE2rrrrrrrr            		MOV.L #_cm, R14
00000301 EDE194                  		MOV.L 0250H[R14], R1
00000304 05rrrrrr             A  		BSR _cm_get_feed_rate
00000308 A101                    		MOV.L R1, 10H[R0]
0000030A                         L86:	; bb158.split16
                                 ;     198 		 	 	 	 if (vel == 0)
                                 		.LINE  "C:\Workspace\e2studio\git\MT01\src\states\ut_state_move.c",198
0000030A A901                    		MOV.L 10H[R0], R1
0000030C FD721100000000          		FCMP #00000000H, R1
00000313 18                   S  		BNE L88
00000314                         L87:	; bb169
                                 ;     199 		 	 	 	 {
                                 ;     200 		 	 	 		vel = mp_get_runtime_velocity();
                                 		.LINE  "C:\Workspace\e2studio\git\MT01\src\states\ut_state_move.c",200
00000314 05rrrrrr             A  		BSR _mp_get_runtime_velocity
00000318 A101                    		MOV.L R1, 10H[R0]
0000031A                         L88:	; bb175
                                 ;     201 		 	 	 	 }
                                 ;     202 			         sprintf(gStrSim[2], "VEL.: %.0f mm/min",  vel);
                                 		.LINE  "C:\Workspace\e2studio\git\MT01\src\states\ut_state_move.c",202
0000031A A901                    		MOV.L 10H[R0], R1
0000031C 6080                    		SUB #08H, R0
0000031E A009                    		MOV.L R1, 04H[R0]
00000320 FBE2rrrrrrrr            		MOV.L #_L11, R14
00000326 E30E                    		MOV.L R14, [R0]
00000328 FB12rrrrrrrr            		MOV.L #__$gStrSim, R1
0000032E 711138                  		ADD #38H, R1
00000331 05rrrrrr             A  		BSR _sprintf
00000335 6280                    		ADD #08H, R0
00000337                         L89:	; bb175.split
                                 ;     203                      lStr[2] = gStrSim[2];
                                 		.LINE  "C:\Workspace\e2studio\git\MT01\src\states\ut_state_move.c",203
00000337 FB12rrrrrrrr            		MOV.L #__$gStrSim, R1
0000033D 711138                  		ADD #38H, R1
00000340 A189                    		MOV.L R1, 1CH[R0]
00000342 2Err                 B  		BRA L94
00000344                         L90:	; bb180
                                 ;     204                      break;
                                 ;     205 		case DESLOCA: lStr[0] = gStrDesloca[0];
                                 		.LINE  "C:\Workspace\e2studio\git\MT01\src\states\ut_state_move.c",205
00000344 FB12rrrrrrrr            		MOV.L #__$gStrDesloca, R1
0000034A A109                    		MOV.L R1, 14H[R0]
0000034C                         L91:	; bb180.split
                                 ;     206 					  lStr[1] = gStrDesloca[1];
                                 		.LINE  "C:\Workspace\e2studio\git\MT01\src\states\ut_state_move.c",206
0000034C FB12rrrrrrrr            		MOV.L #__$gStrDesloca, R1
00000352 711118                  		ADD #18H, R1
00000355 A181                    		MOV.L R1, 18H[R0]
00000357                         L92:	; bb180.split17
                                 ;     207 				      sprintf(gStrDesloca[2], "VEL.: %.0f mm/min",  mp_get_runtime_velocity());
                                 		.LINE  "C:\Workspace\e2studio\git\MT01\src\states\ut_state_move.c",207
00000357 05rrrrrr             A  		BSR _mp_get_runtime_velocity
0000035B 6080                    		SUB #08H, R0
0000035D FBE2rrrrrrrr            		MOV.L #_L11, R14
00000363 E30E                    		MOV.L R14, [R0]
00000365 A009                    		MOV.L R1, 04H[R0]
00000367 FB12rrrrrrrr            		MOV.L #__$gStrDesloca, R1
0000036D 711130                  		ADD #30H, R1
00000370 05rrrrrr             A  		BSR _sprintf
00000374 6280                    		ADD #08H, R0
00000376                         L93:	; bb180.split18
                                 ;     208 					  lStr[2] = gStrDesloca[2];
                                 		.LINE  "C:\Workspace\e2studio\git\MT01\src\states\ut_state_move.c",208
00000376 FB12rrrrrrrr            		MOV.L #__$gStrDesloca, R1
0000037C 711130                  		ADD #30H, R1
0000037F A189                    		MOV.L R1, 1CH[R0]
00000381                         L94:	; bb189
00000381 6601                    		MOV.L #00000000H, R1
                                 ;     209 					  break;
                                 ;     210 	}
                                 ;     211 	/* TODO: get position from machine */
                                 ;     212 	x = mp_get_runtime_absolute_position(0);
                                 		.LINE  "C:\Workspace\e2studio\git\MT01\src\states\ut_state_move.c",212
00000383 05rrrrrr             A  		BSR _mp_get_runtime_absolute_position
00000387 A009                    		MOV.L R1, 04H[R0]
00000389                         L95:	; bb189.split
00000389 6611                    		MOV.L #00000001H, R1
                                 ;     213 	y = mp_get_runtime_absolute_position(1);
                                 		.LINE  "C:\Workspace\e2studio\git\MT01\src\states\ut_state_move.c",213
0000038B 05rrrrrr             A  		BSR _mp_get_runtime_absolute_position
0000038F A081                    		MOV.L R1, 08H[R0]
00000391                         L96:	; bb189.split19
00000391 6621                    		MOV.L #00000002H, R1
                                 ;     214 	z = mp_get_runtime_absolute_position(2);
                                 		.LINE  "C:\Workspace\e2studio\git\MT01\src\states\ut_state_move.c",214
00000393 05rrrrrr             A  		BSR _mp_get_runtime_absolute_position
00000397 A089                    		MOV.L R1, 0CH[R0]
00000399                         L97:	; bb189.split20
                                 ;     215 
                                 ;     216 	sprintf(textXStr, "%4.2f mm", x);
                                 		.LINE  "C:\Workspace\e2studio\git\MT01\src\states\ut_state_move.c",216
00000399 A809                    		MOV.L 04H[R0], R1
0000039B 6080                    		SUB #08H, R0
0000039D A009                    		MOV.L R1, 04H[R0]
0000039F FBE2rrrrrrrr            		MOV.L #_L19, R14
000003A5 E30E                    		MOV.L R14, [R0]
000003A7 FB12rrrrrrrr            		MOV.L #_textXStr, R1
000003AD 05rrrrrr             A  		BSR _sprintf
000003B1 6280                    		ADD #08H, R0
000003B3                         L98:	; bb189.split21
                                 ;     217 	sprintf(textYStr, "%4.2f mm", y);
                                 		.LINE  "C:\Workspace\e2studio\git\MT01\src\states\ut_state_move.c",217
000003B3 A881                    		MOV.L 08H[R0], R1
000003B5 6080                    		SUB #08H, R0
000003B7 A009                    		MOV.L R1, 04H[R0]
000003B9 FBE2rrrrrrrr            		MOV.L #_L19, R14
000003BF E30E                    		MOV.L R14, [R0]
000003C1 FB12rrrrrrrr            		MOV.L #_textYStr, R1
000003C7 05rrrrrr             A  		BSR _sprintf
000003CB 6280                    		ADD #08H, R0
000003CD                         L99:	; bb189.split22
                                 ;     218 	sprintf(textZStr, "%4.2f mm", z);
                                 		.LINE  "C:\Workspace\e2studio\git\MT01\src\states\ut_state_move.c",218
000003CD A889                    		MOV.L 0CH[R0], R1
000003CF 6080                    		SUB #08H, R0
000003D1 A009                    		MOV.L R1, 04H[R0]
000003D3 FBE2rrrrrrrr            		MOV.L #_L19, R14
000003D9 E30E                    		MOV.L R14, [R0]
000003DB FB12rrrrrrrr            		MOV.L #_textZStr, R1
000003E1 05rrrrrr             A  		BSR _sprintf
000003E5 6280                    		ADD #08H, R0
000003E7                         L100:	; bb189.split23
                                 ;     219 
                                 ;     220 	if(cm.machine_state == MACHINE_PROGRAM_END && !programEnd && (menu == AUTO || menu == SIM))
                                 		.LINE  "C:\Workspace\e2studio\git\MT01\src\states\ut_state_move.c",220
000003E7 FBE2rrrrrrrr            		MOV.L #_cm, R14
000003ED 5AEE1D02                		MOVU.B 021DH[R14], R14
000003F1 614E                    		CMP #04H, R14
000003F3 3Arrrr               W  		BEQ L119
000003F6 38rrrr               W  		BRA L124
000003F9                         L101:	; bb200
                                 ;     221 	{
                                 ;     222 		xTimerStop( swTimers[AUTO_MENU_TIMER], 0 );
                                 		.LINE  "C:\Workspace\e2studio\git\MT01\src\states\ut_state_move.c",222
000003F9 FB12rrrrrrrr            		MOV.L #_swTimers, R1
000003FF AA11                    		MOV.L 20H[R1], R1
00000401 6040                    		SUB #04H, R0
00000403 F80600                  		MOV.L #00000000H, [R0]
00000406 6603                    		MOV.L #00000000H, R3
00000408 6632                    		MOV.L #00000003H, R2
0000040A EF34                    		MOV.L R3, R4
0000040C 05rrrrrr             A  		BSR _xTimerGenericCommand
00000410 6240                    		ADD #04H, R0
00000412                         L102:	; bb200.split
                                 ;     223 		ut_lcd_output_warning("CORTE AUTOM햀ICO\nFINALIZADO\nPRESSIONE ESC\n");
                                 		.LINE  "C:\Workspace\e2studio\git\MT01\src\states\ut_state_move.c",223
00000412 FB12rrrrrrrr            		MOV.L #_L20, R1
00000418 05rrrrrr             A  		BSR _ut_lcd_output_warning
0000041C                         L103:	; bb200.split24
                                 ;     224 		/* Delay */
                                 ;     225 	//	vTaskDelay(2000 / portTICK_PERIOD_MS);
                                 ;     226 		currentLine = 0;
                                 		.LINE  "C:\Workspace\e2studio\git\MT01\src\states\ut_state_move.c",226
0000041C FBE2rrrrrrrr            		MOV.L #_currentLine, R14
00000422 F8E600                  		MOV.L #00000000H, [R14]
00000425                         L104:	; bb200.split25
                                 ;     227 		intepreterRunning = false;
                                 		.LINE  "C:\Workspace\e2studio\git\MT01\src\states\ut_state_move.c",227
00000425 FBE2rrrrrrrr            		MOV.L #_intepreterRunning, R14
0000042B F8E400                  		MOV.B #00H, [R14]
0000042E                         L105:	; bb200.split26
                                 ;     228 		programEnd = true;
                                 		.LINE  "C:\Workspace\e2studio\git\MT01\src\states\ut_state_move.c",228
0000042E FBE2rrrrrrrr            		MOV.L #_programEnd, R14
00000434 F8E401                  		MOV.B #01H, [R14]
00000437 670D                    		RTSD #34H
00000439                         L106:	; bb204
                                 ;     229 	}
                                 ;     230 	else
                                 ;     231 	{
                                 ;     232 		if(menu == MANUAL)
                                 		.LINE  "C:\Workspace\e2studio\git\MT01\src\states\ut_state_move.c",232
00000439 590133                  		MOVU.B 33H[R0], R1
0000043C 6101                    		CMP #00H, R1
0000043E 21rr                    		BNE L108
00000440                         L107:	; bb205
                                 ;     233 		{
                                 ;     234 			ut_lcd_output_manual_mode(TORCH,
                                 		.LINE  "C:\Workspace\e2studio\git\MT01\src\states\ut_state_move.c",234
00000440 FBEE22C008              		MOV.L #0008C022H, R14
00000445 58EE                    		MOVU.B [R14], R14
00000447 6040                    		SUB #04H, R0
00000449 FBF2rrrrrrrr            		MOV.L #_textZStr, R15
0000044F E30F                    		MOV.L R15, [R0]
00000451 683E                    		SHLR #03H, R14
00000453 7C0E                    		BTST #00H, R14
00000455 FCDB11                  		SCNE.L R1
00000458 FB42rrrrrrrr            		MOV.L #_textYStr, R4
0000045E FB32rrrrrrrr            		MOV.L #_textXStr, R3
00000464 710218                  		ADD #18H, R0, R2
00000467 05rrrrrr             A  		BSR _ut_lcd_output_manual_mode
0000046B 6240                    		ADD #04H, R0
0000046D 670D                    		RTSD #34H
0000046F                         L108:	; bb215
                                 ;     235 					lStr,
                                 ;     236 					(const char *)textXStr,
                                 ;     237 					(const char *)textYStr,
                                 ;     238 					(const char *)textZStr);
                                 ;     239 		}
                                 ;     240 		else
                                 ;     241 		{
                                 ;     242 			if((configFlags[MODOMAQUINA] == MODO_OXICORTE) || sim || menu == DESLOCA){
                                 		.LINE  "C:\Workspace\e2studio\git\MT01\src\states\ut_state_move.c",242
0000046F FBE2rrrrrrrr            		MOV.L #_configFlags, R14
00000475 ECEE                    		MOV.L [R14], R14
00000477 611E                    		CMP #01H, R14
00000479 20rr                    		BEQ L112
0000047B 2Err                 B  		BRA L111
0000047D                         L109:	; bb216
                                 ;     243 				ut_lcd_output_mov_mode(TORCH,
                                 		.LINE  "C:\Workspace\e2studio\git\MT01\src\states\ut_state_move.c",243
0000047D FBEE22C008              		MOV.L #0008C022H, R14
00000482 58EE                    		MOVU.B [R14], R14
00000484 6040                    		SUB #04H, R0
00000486 FBF2rrrrrrrr            		MOV.L #_textZStr, R15
0000048C E30F                    		MOV.L R15, [R0]
0000048E 683E                    		SHLR #03H, R14
00000490 7C0E                    		BTST #00H, R14
00000492 FCDB11                  		SCNE.L R1
00000495 FB42rrrrrrrr            		MOV.L #_textYStr, R4
0000049B FB32rrrrrrrr            		MOV.L #_textXStr, R3
000004A1 710218                  		ADD #18H, R0, R2
000004A4 05rrrrrr             A  		BSR _ut_lcd_output_mov_mode
000004A8 6240                    		ADD #04H, R0
000004AA 670D                    		RTSD #34H
000004AC                         L110:	; bb225
                                 ;     244 						lStr,
                                 ;     245 						(const char *)textXStr,
                                 ;     246 						(const char *)textYStr,
                                 ;     247 						(const char *)textZStr);
                                 ;     248 			}
                                 ;     249 			else{
                                 ;     250 				ut_lcd_output_plasma_mode(TORCH,
                                 		.LINE  "C:\Workspace\e2studio\git\MT01\src\states\ut_state_move.c",250
000004AC FBEE22C008              		MOV.L #0008C022H, R14
000004B1 58EE                    		MOVU.B [R14], R14
000004B3 6040                    		SUB #04H, R0
000004B5 FBF2rrrrrrrr            		MOV.L #_textZStr, R15
000004BB E30F                    		MOV.L R15, [R0]
000004BD 683E                    		SHLR #03H, R14
000004BF 7C0E                    		BTST #00H, R14
000004C1 FCDB11                  		SCNE.L R1
000004C4 FB42rrrrrrrr            		MOV.L #_textYStr, R4
000004CA FB32rrrrrrrr            		MOV.L #_textXStr, R3
000004D0 710218                  		ADD #18H, R0, R2
000004D3 05rrrrrr             A  		BSR _ut_lcd_output_plasma_mode
000004D7 6240                    		ADD #04H, R0
000004D9 670D                    		RTSD #34H
000004DB                         L111:	; bb237
000004DB FBE2rrrrrrrr            		MOV.L #_sim, R14
000004E1 58EE                    		MOVU.B [R14], R14
000004E3 610E                    		CMP #00H, R14
000004E5 10                   S  		BEQ L113
000004E6                         L112:	; bb242
000004E6 F80601                  		MOV.L #00000001H, [R0]
000004E9 08                   S  		BRA L114
000004EA                         L113:	; bb243
000004EA F80600                  		MOV.L #00000000H, [R0]
000004ED                         L114:	; bb244
000004ED EC01                    		MOV.L [R0], R1
000004EF 6101                    		CMP #00H, R1
000004F1 18                   S  		BNE L116
000004F2                         L115:	; bb248
000004F2 590133                  		MOVU.B 33H[R0], R1
000004F5 6121                    		CMP #02H, R1
000004F7 18                   S  		BNE L117
000004F8                         L116:	; bb253
000004F8 F80601                  		MOV.L #00000001H, [R0]
000004FB 08                   S  		BRA L118
000004FC                         L117:	; bb254
000004FC F80600                  		MOV.L #00000000H, [R0]
000004FF                         L118:	; bb255
000004FF EC01                    		MOV.L [R0], R1
00000501 6101                    		CMP #00H, R1
00000503 3Brrrr               W  		BNE L109
00000506 2Err                 B  		BRA L110
00000508                         L119:	; bb271
00000508 FBE2rrrrrrrr            		MOV.L #_programEnd, R14
0000050E 58EE                    		MOVU.B [R14], R14
00000510 610E                    		CMP #00H, R14
00000512 10                   S  		BEQ L121
00000513                         L120:	; bb276
00000513 F80600                  		MOV.L #00000000H, [R0]
00000516 08                   S  		BRA L122
00000517                         L121:	; bb277
00000517 F80601                  		MOV.L #00000001H, [R0]
0000051A                         L122:	; bb278
0000051A EC01                    		MOV.L [R0], R1
0000051C 6101                    		CMP #00H, R1
0000051E 10                   S  		BEQ L124
0000051F                         L123:	; bb281
0000051F F80601                  		MOV.L #00000001H, [R0]
00000522 08                   S  		BRA L125
00000523                         L124:	; bb282
00000523 F80600                  		MOV.L #00000000H, [R0]
00000526                         L125:	; bb283
00000526 EC01                    		MOV.L [R0], R1
00000528 6101                    		CMP #00H, R1
0000052A 20rr                    		BEQ L132
0000052C                         L126:	; bb287
0000052C 590133                  		MOVU.B 33H[R0], R1
0000052F 6111                    		CMP #01H, R1
00000531 10                   S  		BEQ L128
00000532                         L127:	; bb292
00000532 590133                  		MOVU.B 33H[R0], R1
00000535 6131                    		CMP #03H, R1
00000537 18                   S  		BNE L129
00000538                         L128:	; bb297
00000538 F80601                  		MOV.L #00000001H, [R0]
0000053B 08                   S  		BRA L130
0000053C                         L129:	; bb298
0000053C F80600                  		MOV.L #00000000H, [R0]
0000053F                         L130:	; bb299
0000053F EC01                    		MOV.L [R0], R1
00000541 6101                    		CMP #00H, R1
00000543 10                   S  		BEQ L132
00000544                         L131:	; bb303
00000544 F80601                  		MOV.L #00000001H, [R0]
00000547 08                   S  		BRA L133
00000548                         L132:	; bb304
00000548 F80600                  		MOV.L #00000000H, [R0]
0000054B                         L133:	; bb305
0000054B EC01                    		MOV.L [R0], R1
0000054D 6101                    		CMP #00H, R1
0000054F 3Brrrr               W  		BNE L101
00000552 38rrrr               W  		BRA L106
00000555                         _ut_state_manual_mode:
                                 		.STACK	_ut_state_manual_mode=32
                                 ;     251 						lStr,
                                 ;     252 						(const char *)textXStr,
                                 ;     253 						(const char *)textYStr,
                                 ;     254 						(const char *)textZStr);
                                 ;     255 			}
                                 ;     256 		}
                                 ;     257 	}
                                 ;     258 }
                                 ;     259 
                                 ;     260 /**
                                 ;     261  * Put machine into manual mode state.
                                 ;     262  *
                                 ;     263  *
                                 ;     264  * @param pContext Context object
                                 ;     265  * @return Main menu state
                                 ;     266  */
                                 ;     267 ut_state ut_state_manual_mode(ut_context* pContext)
                                 		.LINE  "C:\Workspace\e2studio\git\MT01\src\states\ut_state_move.c",267
00000555 7EA6                    		PUSH.L R6
00000557 7100EC                  		ADD #0FFFFFFECH, R0
0000055A A101                    		MOV.L R1, 10H[R0]
                                 ;     268 {
                                 ;     269 	static uint32_t keyEntry_buffer;
                                 ;     270 	uint32_t keyEntry;
                                 ;     271 	restart_stepper();
                                 		.LINE  "C:\Workspace\e2studio\git\MT01\src\states\ut_state_move.c",271
0000055C 05rrrrrr             A  		BSR _restart_stepper
00000560                         L135:	; entry.split
00000560 6601                    		MOV.L #00000000H, R1
                                 ;     272 	/* Clear display */
                                 ;     273 	updatePosition(MANUAL);
                                 		.LINE  "C:\Workspace\e2studio\git\MT01\src\states\ut_state_move.c",273
00000562 39rrrr               W  		BSR __$updatePosition
00000565                         L136:	; entry.split1
                                 ;     274 	gTitle = MANUAL;
                                 		.LINE  "C:\Workspace\e2studio\git\MT01\src\states\ut_state_move.c",274
00000565 FBE2rrrrrrrr            		MOV.L #_gTitle, R14
0000056B F8E400                  		MOV.B #00H, [R14]
0000056E                         L137:	; entry.split2
                                 ;     275 //	tg_set_primary_source(XIO_DEV_COMMAND);
                                 ;     276 	iif_bind_jog();
                                 		.LINE  "C:\Workspace\e2studio\git\MT01\src\states\ut_state_move.c",276
0000056E 05rrrrrr             A  		BSR _iif_bind_jog
00000572                         L138:	; entry.split3
                                 ;     277 	if(swTimers[AUTO_MENU_TIMER] == NULL)
                                 		.LINE  "C:\Workspace\e2studio\git\MT01\src\states\ut_state_move.c",277
00000572 FB12rrrrrrrr            		MOV.L #_swTimers, R1
00000578 AA11                    		MOV.L 20H[R1], R1
0000057A 6101                    		CMP #00H, R1
0000057C 21rr                    		BNE L140
0000057E                         L139:	; bb3
0000057E 6040                    		SUB #04H, R0
                                 ;     278 	{
                                 ;     279 	swTimers[AUTO_MENU_TIMER] = xTimerCreate
                                 		.LINE  "C:\Workspace\e2studio\git\MT01\src\states\ut_state_move.c",279
00000580 FBE2rrrrrrrr            		MOV.L #__$vTimerUpdateCallback, R14
00000586 E30E                    		MOV.L R14, [R0]
00000588 6684                    		MOV.L #00000008H, R4
0000058A 6613                    		MOV.L #00000001H, R3
0000058C 7542C8                  		MOV.L #000000C8H, R2
0000058F FB12rrrrrrrr            		MOV.L #_L21, R1
00000595 05rrrrrr             A  		BSR _xTimerCreate
00000599 6240                    		ADD #04H, R0
0000059B FB22rrrrrrrr            		MOV.L #_swTimers, R2
000005A1 A221                    		MOV.L R1, 20H[R2]
000005A3                         L140:	; bb8
                                 ;     280 				   (  /* Just a text name, not used by the RTOS kernel. */
                                 ;     281 					 "Timer Update",
                                 ;     282 					 /* The timer period in ticks, must be greater than 0. */
                                 ;     283 					 ( 200 ),
                                 ;     284 					 /* The timers will auto-reload themselves when they
                                 ;     285 					 expire. */
                                 ;     286 					 pdTRUE,
                                 ;     287 					 /* Assign each timer a unique id equal to its array
                                 ;     288 					 index. */
                                 ;     289 					 ( void * ) AUTO_MENU_TIMER,
                                 ;     290 					 /* Each timer calls the same callback when it expires. */
                                 ;     291 					 vTimerUpdateCallback
                                 ;     292 				   );
                                 ;     293 	}
                                 ;     294 	xTimerStart( swTimers[AUTO_MENU_TIMER], 0 );
                                 		.LINE  "C:\Workspace\e2studio\git\MT01\src\states\ut_state_move.c",294
000005A3 FB12rrrrrrrr            		MOV.L #_swTimers, R1
000005A9 AA16                    		MOV.L 20H[R1], R6
000005AB 05rrrrrr             A  		BSR _xTaskGetTickCount
000005AF EF13                    		MOV.L R1, R3
000005B1 6040                    		SUB #04H, R0
000005B3 F80600                  		MOV.L #00000000H, [R0]
000005B6 6604                    		MOV.L #00000000H, R4
000005B8 6612                    		MOV.L #00000001H, R2
000005BA EF61                    		MOV.L R6, R1
000005BC 05rrrrrr             A  		BSR _xTimerGenericCommand
000005C0 6240                    		ADD #04H, R0
000005C2                         L141:	; bb8.split
                                 ;     295 	macro_func_ptr = command_idle;
                                 		.LINE  "C:\Workspace\e2studio\git\MT01\src\states\ut_state_move.c",295
000005C2 FBE2rrrrrrrr            		MOV.L #_macro_func_ptr, R14
000005C8 FBF2rrrrrrrr            		MOV.L #_command_idle, R15
000005CE E3EF                    		MOV.L R15, [R14]
000005D0                         L142:	; bb8.split4
                                 ;     296 	xTaskNotifyGive(xCncTaskHandle);
                                 		.LINE  "C:\Workspace\e2studio\git\MT01\src\states\ut_state_move.c",296
000005D0 FBE2rrrrrrrr            		MOV.L #_xCncTaskHandle, R14
000005D6 ECE1                    		MOV.L [R14], R1
000005D8 6623                    		MOV.L #00000002H, R3
000005DA 6602                    		MOV.L #00000000H, R2
000005DC EF24                    		MOV.L R2, R4
000005DE 05rrrrrr             A  		BSR _xTaskGenericNotify
000005E2                         L143:	; bb8.split5
                                 ;     297 	intepreterRunning = true;
                                 		.LINE  "C:\Workspace\e2studio\git\MT01\src\states\ut_state_move.c",297
000005E2 FBE2rrrrrrrr            		MOV.L #_intepreterRunning, R14
000005E8 F8E401                  		MOV.B #01H, [R14]
000005EB 38rrrr               W  		BRA L183
000005EE                         L144:	; bb20
                                 ;     298 
                                 ;     299 	while(true)
                                 ;     300 	{
                                 ;     301 		/* Wait for user interaction */
                                 ;     302 		keyEntry = 0;
                                 ;     303 		xQueueReceive( qKeyboard, &keyEntry, DEFAULT_UPDATE_TIMEOUT);
                                 ;     304 		JogkeyPressed = keyEntry;
                                 ;     305 		if ((keyEntry & KEY_DOWN) == KEY_DOWN)
                                 ;     306 		{
                                 ;     307 			iif_func_down();
                                 		.LINE  "C:\Workspace\e2studio\git\MT01\src\states\ut_state_move.c",307
000005EE FBE2rrrrrrrr            		MOV.L #_iif_func_down, R14
000005F4 ECEE                    		MOV.L [R14], R14
000005F6 7F1E                    		JSR R14
000005F8                         L145:	; bb28
                                 ;     308 		}
                                 ;     309 		if ((keyEntry & KEY_UP) == KEY_UP)
                                 		.LINE  "C:\Workspace\e2studio\git\MT01\src\states\ut_state_move.c",309
000005F8 A881                    		MOV.L 08H[R0], R1
000005FA 76210001                		AND #0100H, R1
000005FE 76010001                		CMP #0100H, R1
00000602 21rr                    		BNE L147
00000604                         L146:	; bb29
                                 ;     310 		{
                                 ;     311 			iif_func_up();
                                 		.LINE  "C:\Workspace\e2studio\git\MT01\src\states\ut_state_move.c",311
00000604 FBE2rrrrrrrr            		MOV.L #_iif_func_up, R14
0000060A ECEE                    		MOV.L [R14], R14
0000060C 7F1E                    		JSR R14
0000060E                         L147:	; bb37
                                 ;     312 		}
                                 ;     313 		if ((keyEntry & KEY_RIGHT) == KEY_RIGHT)
                                 		.LINE  "C:\Workspace\e2studio\git\MT01\src\states\ut_state_move.c",313
0000060E A881                    		MOV.L 08H[R0], R1
00000610 76210002                		AND #0200H, R1
00000614 76010002                		CMP #0200H, R1
00000618 21rr                    		BNE L149
0000061A                         L148:	; bb38
                                 ;     314 		{
                                 ;     315 			iif_func_right();
                                 		.LINE  "C:\Workspace\e2studio\git\MT01\src\states\ut_state_move.c",315
0000061A FBE2rrrrrrrr            		MOV.L #_iif_func_right, R14
00000620 ECEE                    		MOV.L [R14], R14
00000622 7F1E                    		JSR R14
00000624                         L149:	; bb46
                                 ;     316 		}
                                 ;     317 		if ((keyEntry & KEY_LEFT) == KEY_LEFT)
                                 		.LINE  "C:\Workspace\e2studio\git\MT01\src\states\ut_state_move.c",317
00000624 A881                    		MOV.L 08H[R0], R1
00000626 752120                  		AND #20H, R1
00000629 755120                  		CMP #20H, R1
0000062C 21rr                    		BNE L151
0000062E                         L150:	; bb47
                                 ;     318 		{
                                 ;     319 			iif_func_left();
                                 		.LINE  "C:\Workspace\e2studio\git\MT01\src\states\ut_state_move.c",319
0000062E FBE2rrrrrrrr            		MOV.L #_iif_func_left, R14
00000634 ECEE                    		MOV.L [R14], R14
00000636 7F1E                    		JSR R14
00000638                         L151:	; bb55
                                 ;     320 		}
                                 ;     321 		if ((keyEntry & KEY_Z_UP) == KEY_Z_UP)
                                 		.LINE  "C:\Workspace\e2studio\git\MT01\src\states\ut_state_move.c",321
00000638 A881                    		MOV.L 08H[R0], R1
0000063A 752110                  		AND #10H, R1
0000063D 755110                  		CMP #10H, R1
00000640 21rr                    		BNE L153
00000642                         L152:	; bb56
                                 ;     322 		{
                                 ;     323 			iif_func_zup();
                                 		.LINE  "C:\Workspace\e2studio\git\MT01\src\states\ut_state_move.c",323
00000642 FBE2rrrrrrrr            		MOV.L #_iif_func_zup, R14
00000648 ECEE                    		MOV.L [R14], R14
0000064A 7F1E                    		JSR R14
0000064C                         L153:	; bb64
                                 ;     324 		}
                                 ;     325 		if ((keyEntry & KEY_Z_DOWN) == KEY_Z_DOWN)
                                 		.LINE  "C:\Workspace\e2studio\git\MT01\src\states\ut_state_move.c",325
0000064C A881                    		MOV.L 08H[R0], R1
0000064E 752140                  		AND #40H, R1
00000651 755140                  		CMP #40H, R1
00000654 21rr                    		BNE L155
00000656                         L154:	; bb65
                                 ;     326 		{
                                 ;     327 			iif_func_zdown();
                                 		.LINE  "C:\Workspace\e2studio\git\MT01\src\states\ut_state_move.c",327
00000656 FBE2rrrrrrrr            		MOV.L #_iif_func_zdown, R14
0000065C ECEE                    		MOV.L [R14], R14
0000065E 7F1E                    		JSR R14
00000660                         L155:	; bb73
                                 ;     328 		}
                                 ;     329 		if ((keyEntry_buffer & KEY_Z_UP) == KEY_Z_UP && (keyEntry & KEY_Z_UP) != KEY_Z_UP)
                                 		.LINE  "C:\Workspace\e2studio\git\MT01\src\states\ut_state_move.c",329
00000660 FBE2rrrrrrrr            		MOV.L #__$keyEntry_buffer$1, R14
00000666 ECEE                    		MOV.L [R14], R14
00000668 752E10                  		AND #10H, R14
0000066B 755E10                  		CMP #10H, R14
0000066E 20rr                    		BEQ L157
00000670 2Err                 B  		BRA L159
00000672                         L156:	; bb74
                                 ;     330 		{
                                 ;     331 			zmove = 0;
                                 		.LINE  "C:\Workspace\e2studio\git\MT01\src\states\ut_state_move.c",331
00000672 FBE2rrrrrrrr            		MOV.L #_zmove, R14
00000678 F8E600                  		MOV.L #00000000H, [R14]
0000067B 2Err                 B  		BRA L161
0000067D                         L157:	; bb79
0000067D A881                    		MOV.L 08H[R0], R1
0000067F 752110                  		AND #10H, R1
00000682 755110                  		CMP #10H, R1
00000685 10                   S  		BEQ L159
00000686                         L158:	; bb84
00000686 F80601                  		MOV.L #00000001H, [R0]
00000689 08                   S  		BRA L160
0000068A                         L159:	; bb85
0000068A F80600                  		MOV.L #00000000H, [R0]
0000068D                         L160:	; bb86
0000068D EC01                    		MOV.L [R0], R1
0000068F 6101                    		CMP #00H, R1
00000691 21rr                    		BNE L156
00000693                         L161:	; bb92
                                 ;     332 		}
                                 ;     333 
                                 ;     334 		if ((keyEntry_buffer & KEY_Z_DOWN) == KEY_Z_DOWN && (keyEntry & KEY_Z_DOWN) != KEY_Z_DOWN)
                                 		.LINE  "C:\Workspace\e2studio\git\MT01\src\states\ut_state_move.c",334
00000693 FBE2rrrrrrrr            		MOV.L #__$keyEntry_buffer$1, R14
00000699 ECEE                    		MOV.L [R14], R14
0000069B 752E40                  		AND #40H, R14
0000069E 755E40                  		CMP #40H, R14
000006A1 20rr                    		BEQ L163
000006A3 2Err                 B  		BRA L165
000006A5                         L162:	; bb93
                                 ;     335 		{
                                 ;     336 			zmove = 0;
                                 		.LINE  "C:\Workspace\e2studio\git\MT01\src\states\ut_state_move.c",336
000006A5 FBE2rrrrrrrr            		MOV.L #_zmove, R14
000006AB F8E600                  		MOV.L #00000000H, [R14]
000006AE 2Err                 B  		BRA L167
000006B0                         L163:	; bb98
000006B0 A881                    		MOV.L 08H[R0], R1
000006B2 752140                  		AND #40H, R1
000006B5 755140                  		CMP #40H, R1
000006B8 10                   S  		BEQ L165
000006B9                         L164:	; bb103
000006B9 F80601                  		MOV.L #00000001H, [R0]
000006BC 08                   S  		BRA L166
000006BD                         L165:	; bb104
000006BD F80600                  		MOV.L #00000000H, [R0]
000006C0                         L166:	; bb105
000006C0 EC01                    		MOV.L [R0], R1
000006C2 6101                    		CMP #00H, R1
000006C4 21rr                    		BNE L162
000006C6                         L167:	; bb110
                                 ;     337 		}
                                 ;     338 
                                 ;     339 
                                 ;     340 		keyEntry_buffer = keyEntry;
                                 		.LINE  "C:\Workspace\e2studio\git\MT01\src\states\ut_state_move.c",340
000006C6 FBE2rrrrrrrr            		MOV.L #__$keyEntry_buffer$1, R14
000006CC E10E02                  		MOV.L 08H[R0], [R14]
000006CF                         L168:	; bb110.split
                                 ;     341 		/* Check which key */
                                 ;     342 		switch (keyEntry)
                                 		.LINE  "C:\Workspace\e2studio\git\MT01\src\states\ut_state_move.c",342
000006CF A881                    		MOV.L 08H[R0], R1
000006D1 74010000AAAA            		CMP #0AAAA0000H, R1
000006D7 20rr                    		BEQ L179
000006D9                         L169:	; bb110.split
000006D9 6101                    		CMP #00H, R1
000006DB 20rr                    		BEQ L178
000006DD                         L170:	; bb110.split
000006DD 6141                    		CMP #04H, R1
000006DF 20rr                    		BEQ L177
000006E1                         L171:	; bb110.split
000006E1 6111                    		CMP #01H, R1
000006E3 3Brrrr               W  		BNE L183
000006E6                         L172:	; bb113
                                 ;     343 		{
                                 ;     344 		case KEY_ESC:
                                 ;     345 			xTimerStop( swTimers[AUTO_MENU_TIMER], 0 );
                                 		.LINE  "C:\Workspace\e2studio\git\MT01\src\states\ut_state_move.c",345
000006E6 FB12rrrrrrrr            		MOV.L #_swTimers, R1
000006EC AA11                    		MOV.L 20H[R1], R1
000006EE 6040                    		SUB #04H, R0
000006F0 F80600                  		MOV.L #00000000H, [R0]
000006F3 6603                    		MOV.L #00000000H, R3
000006F5 6632                    		MOV.L #00000003H, R2
000006F7 EF34                    		MOV.L R3, R4
000006F9 05rrrrrr             A  		BSR _xTimerGenericCommand
000006FD 6240                    		ADD #04H, R0
000006FF                         L173:	; bb113.split
                                 ;     346 			iif_func_esc();
                                 		.LINE  "C:\Workspace\e2studio\git\MT01\src\states\ut_state_move.c",346
000006FF FBE2rrrrrrrr            		MOV.L #_iif_func_esc, R14
00000705 ECEE                    		MOV.L [R14], R14
00000707 7F1E                    		JSR R14
00000709                         L174:	; bb113.split6
                                 ;     347 			intepreterRunning = false;
                                 		.LINE  "C:\Workspace\e2studio\git\MT01\src\states\ut_state_move.c",347
00000709 FBE2rrrrrrrr            		MOV.L #_intepreterRunning, R14
0000070F F8E400                  		MOV.B #00H, [R14]
00000712                         L175:	; bb113.split7
                                 ;     348 			return STATE_CONFIG_MANUAL_MODE;
                                 		.LINE  "C:\Workspace\e2studio\git\MT01\src\states\ut_state_move.c",348
00000712 3E0106                  		MOV.L #00000006H, 04H[R0]
00000715 3E0306                  		MOV.L #00000006H, 0CH[R0]
00000718 6661                    		MOV.L #00000006H, R1
0000071A                         L176:	; bb113.split8
                                 ;     349 
                                 ;     350 		case KEY_ENTER:
                                 ;     351 			iif_func_enter();
                                 ;     352 			break;
                                 ;     353 
                                 ;     354 		case KEY_RELEASED:
                                 ;     355 			iif_func_released();
                                 ;     356 			break;
                                 ;     357 
                                 ;     358 		case EMERGENCIA_SIGNAL:
                                 ;     359 			cm_request_feedhold();
                                 ;     360 			cm_request_queue_flush();
                                 ;     361 			while(cm.queue_flush_requested == true)
                                 ;     362 			{
                                 ;     363 
                                 ;     364 			}
                                 ;     365 			xTimerStart( swTimers[AUTO_MENU_TIMER], 0 );
                                 ;     366 			break;
                                 ;     367 
                                 ;     368 		/* TODO: operate machine - with other keys */
                                 ;     369 		default:
                                 ;     370 
                                 ;     371 			break;
                                 ;     372 		}
                                 ;     373 	}
                                 ;     374 
                                 ;     375 	return STATE_MAIN_MENU;
                                 ;     376 }
                                 		.LINE  "C:\Workspace\e2studio\git\MT01\src\states\ut_state_move.c",376
0000071A 3F6606                  		RTSD #18H, R6-R6
0000071D                         L177:	; bb118
                                 		.LINE  "C:\Workspace\e2studio\git\MT01\src\states\ut_state_move.c",351
0000071D FBE2rrrrrrrr            		MOV.L #_iif_func_enter, R14
00000723 ECEE                    		MOV.L [R14], R14
00000725 7F1E                    		JSR R14
00000727 2Err                 B  		BRA L183
00000729                         L178:	; bb120
                                 		.LINE  "C:\Workspace\e2studio\git\MT01\src\states\ut_state_move.c",355
00000729 FBE2rrrrrrrr            		MOV.L #_iif_func_released, R14
0000072F ECEE                    		MOV.L [R14], R14
00000731 7F1E                    		JSR R14
00000733 2Err                 B  		BRA L183
00000735                         L179:	; bb122
                                 		.LINE  "C:\Workspace\e2studio\git\MT01\src\states\ut_state_move.c",359
00000735 05rrrrrr             A  		BSR _cm_request_feedhold
00000739                         L180:	; bb122.split
                                 		.LINE  "C:\Workspace\e2studio\git\MT01\src\states\ut_state_move.c",360
00000739 05rrrrrr             A  		BSR _cm_request_queue_flush
0000073D                         L181:	; bb124
                                 		.LINE  "C:\Workspace\e2studio\git\MT01\src\states\ut_state_move.c",361
0000073D FBE2rrrrrrrr            		MOV.L #_cm, R14
00000743 5AEE4802                		MOVU.B 0248H[R14], R14
00000747 611E                    		CMP #01H, R14
00000749 20rr                    		BEQ L181
0000074B                         L182:	; bb130
                                 		.LINE  "C:\Workspace\e2studio\git\MT01\src\states\ut_state_move.c",365
0000074B FB12rrrrrrrr            		MOV.L #_swTimers, R1
00000751 AA16                    		MOV.L 20H[R1], R6
00000753 05rrrrrr             A  		BSR _xTaskGetTickCount
00000757 EF13                    		MOV.L R1, R3
00000759 6040                    		SUB #04H, R0
0000075B F80600                  		MOV.L #00000000H, [R0]
0000075E 6604                    		MOV.L #00000000H, R4
00000760 6612                    		MOV.L #00000001H, R2
00000762 EF61                    		MOV.L R6, R1
00000764 05rrrrrr             A  		BSR _xTimerGenericCommand
00000768 6240                    		ADD #04H, R0
0000076A                         L183:	; bb136.split
                                 		.LINE  "C:\Workspace\e2studio\git\MT01\src\states\ut_state_move.c",302
0000076A 3E0200                  		MOV.L #00000000H, 08H[R0]
0000076D                         L184:	; bb136.split9
                                 		.LINE  "C:\Workspace\e2studio\git\MT01\src\states\ut_state_move.c",303
0000076D FBE2rrrrrrrr            		MOV.L #_qKeyboard, R14
00000773 ECE1                    		MOV.L [R14], R1
00000775 6604                    		MOV.L #00000000H, R4
00000777 FB36FF                  		MOV.L #0FFFFFFFFH, R3
0000077A 710208                  		ADD #08H, R0, R2
0000077D 05rrrrrr             A  		BSR _xQueueGenericReceive
00000781                         L185:	; bb136.split10
                                 		.LINE  "C:\Workspace\e2studio\git\MT01\src\states\ut_state_move.c",304
00000781 FBE2rrrrrrrr            		MOV.L #_JogkeyPressed, R14
00000787 E10E02                  		MOV.L 08H[R0], [R14]
0000078A                         L186:	; bb136.split11
                                 		.LINE  "C:\Workspace\e2studio\git\MT01\src\states\ut_state_move.c",305
0000078A A881                    		MOV.L 08H[R0], R1
0000078C 76210004                		AND #0400H, R1
00000790 76010004                		CMP #0400H, R1
00000794 3Arrrr               W  		BEQ L144
00000797 38rrrr               W  		BRA L145
0000079A                         _ut_state_auto_mode:
                                 		.STACK	_ut_state_auto_mode=48
                                 ;     377 
                                 ;     378 /**
                                 ;     379  * Put machine into automatic mode.
                                 ;     380  *
                                 ;     381  * @param pContext Context object.
                                 ;     382  * @return Main menu state
                                 ;     383  */
                                 ;     384 ut_state ut_state_auto_mode(ut_context* pContext)
                                 		.LINE  "C:\Workspace\e2studio\git\MT01\src\states\ut_state_move.c",384
0000079A 7EA6                    		PUSH.L R6
0000079C 7100DC                  		ADD #0FFFFFFDCH, R0
0000079F A201                    		MOV.L R1, 20H[R0]
                                 ;     385 {
                                 ;     386 	uint32_t keyEntry;
                                 ;     387 	uint32_t statePrevious = 0;
                                 		.LINE  "C:\Workspace\e2studio\git\MT01\src\states\ut_state_move.c",387
000007A1 3E0300                  		MOV.L #00000000H, 0CH[R0]
000007A4                         L188:	; entry.split
                                 ;     388 	ltorchBuffer = false;
                                 		.LINE  "C:\Workspace\e2studio\git\MT01\src\states\ut_state_move.c",388
000007A4 FBE2rrrrrrrr            		MOV.L #__$ltorchBuffer, R14
000007AA F8E400                  		MOV.B #00H, [R14]
000007AD                         L189:	; entry.split1
                                 ;     389 	uint32_t arco = 0;
                                 		.LINE  "C:\Workspace\e2studio\git\MT01\src\states\ut_state_move.c",389
000007AD 3E0400                  		MOV.L #00000000H, 10H[R0]
000007B0                         L190:	; entry.split2
                                 ;     390 //	stepper_init();
                                 ;     391 	restart_stepper();
                                 		.LINE  "C:\Workspace\e2studio\git\MT01\src\states\ut_state_move.c",391
000007B0 05rrrrrr             A  		BSR _restart_stepper
000007B4                         L191:	; entry.split3
000007B4 6651                    		MOV.L #00000005H, R1
                                 ;     392 	eepromReadConfig(CONFIGVAR_MAQ);
                                 		.LINE  "C:\Workspace\e2studio\git\MT01\src\states\ut_state_move.c",392
000007B6 05rrrrrr             A  		BSR _eepromReadConfig
000007BA                         L192:	; entry.split4
                                 ;     393 	if (configFlags[MODOMAQUINA] == MODO_PLASMA)
                                 		.LINE  "C:\Workspace\e2studio\git\MT01\src\states\ut_state_move.c",393
000007BA FBE2rrrrrrrr            		MOV.L #_configFlags, R14
000007C0 ECEE                    		MOV.L [R14], R14
000007C2 610E                    		CMP #00H, R14
000007C4 18                   S  		BNE L194
000007C5                         L193:	; bb8
000007C5 6611                    		MOV.L #00000001H, R1
                                 ;     394 		eepromReadConfig(CONFIGVAR_PL);
                                 		.LINE  "C:\Workspace\e2studio\git\MT01\src\states\ut_state_move.c",394
000007C7 05rrrrrr             A  		BSR _eepromReadConfig
000007CB 08                   S  		BRA L195
000007CC                         L194:	; bb9
000007CC 6601                    		MOV.L #00000000H, R1
                                 ;     395 	else
                                 ;     396 		eepromReadConfig(CONFIGVAR_OX);
                                 		.LINE  "C:\Workspace\e2studio\git\MT01\src\states\ut_state_move.c",396
000007CE 05rrrrrr             A  		BSR _eepromReadConfig
000007D2                         L195:	; bb13
                                 ;     397 	lstop = false;
                                 		.LINE  "C:\Workspace\e2studio\git\MT01\src\states\ut_state_move.c",397
000007D2 FBE2rrrrrrrr            		MOV.L #_lstop, R14
000007D8 F8E400                  		MOV.B #00H, [R14]
000007DB                         L196:	; bb13.split
                                 ;     398 	cm.gmx.feed_rate_override_enable = true;
                                 		.LINE  "C:\Workspace\e2studio\git\MT01\src\states\ut_state_move.c",398
000007DB FBE2rrrrrrrr            		MOV.L #_cm, R14
000007E1 FAE41C0301              		MOV.B #01H, 031CH[R14]
000007E6                         L197:	; bb13.split5
                                 ;     399 	cm.gmx.feed_rate_override_factor = 1;
                                 		.LINE  "C:\Workspace\e2studio\git\MT01\src\states\ut_state_move.c",399
000007E6 FBE2rrrrrrrr            		MOV.L #_cm, R14
000007EC F9E2C50000803F          		MOV.L #3F800000H, 0314H[R14]
000007F3                         L198:	; bb13.split6
                                 ;     400 	func_back = 0;
                                 		.LINE  "C:\Workspace\e2studio\git\MT01\src\states\ut_state_move.c",400
000007F3 FBE2rrrrrrrr            		MOV.L #_func_back, R14
000007F9 F8E400                  		MOV.B #00H, [R14]
000007FC                         L199:	; bb13.split7
                                 ;     401 	programEnd = false;
                                 		.LINE  "C:\Workspace\e2studio\git\MT01\src\states\ut_state_move.c",401
000007FC FBE2rrrrrrrr            		MOV.L #_programEnd, R14
00000802 F8E400                  		MOV.B #00H, [R14]
00000805                         L200:	; bb13.split8
00000805 6601                    		MOV.L #00000000H, R1
                                 ;     402 	stopDuringCut_Set(false);
                                 		.LINE  "C:\Workspace\e2studio\git\MT01\src\states\ut_state_move.c",402
00000807 05rrrrrr             A  		BSR _stopDuringCut_Set
0000080B                         L201:	; bb13.split9
                                 ;     403 	cm.machine_state = MACHINE_READY;
                                 		.LINE  "C:\Workspace\e2studio\git\MT01\src\states\ut_state_move.c",403
0000080B FBE2rrrrrrrr            		MOV.L #_cm, R14
00000811 FAE41D0201              		MOV.B #01H, 021DH[R14]
00000816                         L202:	; bb13.split10
                                 ;     404 	/* Clear display */
                                 ;     405 	if(!sim){
                                 		.LINE  "C:\Workspace\e2studio\git\MT01\src\states\ut_state_move.c",405
00000816 FBE2rrrrrrrr            		MOV.L #_sim, R14
0000081C 58EE                    		MOVU.B [R14], R14
0000081E 610E                    		CMP #00H, R14
00000820 21rr                    		BNE L207
00000822 2Err                 B  		BRA L208
00000824                         L203:	; bb15
00000824 6611                    		MOV.L #00000001H, R1
                                 ;     406 		updatePosition(AUTO);
                                 		.LINE  "C:\Workspace\e2studio\git\MT01\src\states\ut_state_move.c",406
00000826 39rrrr               W  		BSR __$updatePosition
00000829                         L204:	; bb15.split
                                 ;     407 		gTitle = AUTO;
                                 		.LINE  "C:\Workspace\e2studio\git\MT01\src\states\ut_state_move.c",407
00000829 FBE2rrrrrrrr            		MOV.L #_gTitle, R14
0000082F F8E401                  		MOV.B #01H, [R14]
00000832 2Err                 B  		BRA L210
00000834                         L205:	; bb16
00000834 6631                    		MOV.L #00000003H, R1
                                 ;     408 	}
                                 ;     409 	else{
                                 ;     410 		updatePosition(SIM);
                                 		.LINE  "C:\Workspace\e2studio\git\MT01\src\states\ut_state_move.c",410
00000836 39rrrr               W  		BSR __$updatePosition
00000839                         L206:	; bb16.split
                                 ;     411 		gTitle = SIM;
                                 		.LINE  "C:\Workspace\e2studio\git\MT01\src\states\ut_state_move.c",411
00000839 FBE2rrrrrrrr            		MOV.L #_gTitle, R14
0000083F F8E403                  		MOV.B #03H, [R14]
00000842 2Err                 B  		BRA L210
00000844                         L207:	; bb21
00000844 F80600                  		MOV.L #00000000H, [R0]
00000847 08                   S  		BRA L209
00000848                         L208:	; bb22
00000848 F80601                  		MOV.L #00000001H, [R0]
0000084B                         L209:	; bb23
0000084B EC01                    		MOV.L [R0], R1
0000084D 6101                    		CMP #00H, R1
0000084F 21rr                    		BNE L203
00000851 2Err                 B  		BRA L205
00000853                         L210:	; bb28
                                 ;     412 	}
                                 ;     413 
                                 ;     414 	if (swTimers[AUTO_MENU_TIMER] == NULL)
                                 		.LINE  "C:\Workspace\e2studio\git\MT01\src\states\ut_state_move.c",414
00000853 FB12rrrrrrrr            		MOV.L #_swTimers, R1
00000859 AA11                    		MOV.L 20H[R1], R1
0000085B 6101                    		CMP #00H, R1
0000085D 21rr                    		BNE L212
0000085F                         L211:	; bb29
0000085F 6040                    		SUB #04H, R0
                                 ;     415 	{
                                 ;     416 	swTimers[AUTO_MENU_TIMER] = xTimerCreate
                                 		.LINE  "C:\Workspace\e2studio\git\MT01\src\states\ut_state_move.c",416
00000861 FBE2rrrrrrrr            		MOV.L #__$vTimerUpdateCallback, R14
00000867 E30E                    		MOV.L R14, [R0]
00000869 6684                    		MOV.L #00000008H, R4
0000086B 6613                    		MOV.L #00000001H, R3
0000086D 7542C8                  		MOV.L #000000C8H, R2
00000870 FB12rrrrrrrr            		MOV.L #_L21, R1
00000876 05rrrrrr             A  		BSR _xTimerCreate
0000087A 6240                    		ADD #04H, R0
0000087C FB22rrrrrrrr            		MOV.L #_swTimers, R2
00000882 A221                    		MOV.L R1, 20H[R2]
00000884                         L212:	; bb35
                                 ;     417 				   (  /* Just a text name, not used by the RTOS kernel. */
                                 ;     418 					 "Timer Update",
                                 ;     419 					 /* The timer period in ticks, must be greater than 0. */
                                 ;     420 					 ( 200 ),
                                 ;     421 					 /* The timers will auto-reload themselves when they
                                 ;     422 					 expire. */
                                 ;     423 					 pdTRUE,
                                 ;     424 					 /* Assign each timer a unique id equal to its array
                                 ;     425 					 index. */
                                 ;     426 					 ( void * ) AUTO_MENU_TIMER,
                                 ;     427 					 /* Each timer calls the same callback when it expires. */
                                 ;     428 					 vTimerUpdateCallback
                                 ;     429 				   );
                                 ;     430 	}
                                 ;     431 	xTimerStart( swTimers[AUTO_MENU_TIMER], 0 );
                                 		.LINE  "C:\Workspace\e2studio\git\MT01\src\states\ut_state_move.c",431
00000884 FB12rrrrrrrr            		MOV.L #_swTimers, R1
0000088A AA16                    		MOV.L 20H[R1], R6
0000088C 05rrrrrr             A  		BSR _xTaskGetTickCount
00000890 EF13                    		MOV.L R1, R3
00000892 6040                    		SUB #04H, R0
00000894 F80600                  		MOV.L #00000000H, [R0]
00000897 6604                    		MOV.L #00000000H, R4
00000899 6612                    		MOV.L #00000001H, R2
0000089B EF61                    		MOV.L R6, R1
0000089D 05rrrrrr             A  		BSR _xTimerGenericCommand
000008A1 6240                    		ADD #04H, R0
000008A3                         L213:	; bb35.split
000008A3 6621                    		MOV.L #00000002H, R1
                                 ;     432 	tg_set_primary_source(CNC_MEDIA);
                                 		.LINE  "C:\Workspace\e2studio\git\MT01\src\states\ut_state_move.c",432
000008A5 05rrrrrr             A  		BSR _tg_set_primary_source
000008A9                         L214:	; bb35.split11
                                 ;     433 	xio_close(cs.primary_src);
                                 		.LINE  "C:\Workspace\e2studio\git\MT01\src\states\ut_state_move.c",433
000008A9 FB12rrrrrrrr            		MOV.L #_cs, R1
000008AF B611                    		MOVU.B 18H[R1], R1
000008B1 05rrrrrr             A  		BSR _xio_close
000008B5                         L215:	; bb35.split12
                                 ;     434 	macro_func_ptr = _command_dispatch;
                                 		.LINE  "C:\Workspace\e2studio\git\MT01\src\states\ut_state_move.c",434
000008B5 FBE2rrrrrrrr            		MOV.L #_macro_func_ptr, R14
000008BB FBF2rrrrrrrr            		MOV.L #__command_dispatch, R15
000008C1 E3EF                    		MOV.L R15, [R14]
000008C3                         L216:	; bb35.split13
                                 ;     435 	xio_open(cs.primary_src,0,1);
                                 		.LINE  "C:\Workspace\e2studio\git\MT01\src\states\ut_state_move.c",435
000008C3 FB12rrrrrrrr            		MOV.L #_cs, R1
000008C9 B611                    		MOVU.B 18H[R1], R1
000008CB 6613                    		MOV.L #00000001H, R3
000008CD 6602                    		MOV.L #00000000H, R2
000008CF 05rrrrrr             A  		BSR _xio_open
000008D3                         L217:	; bb35.split14
                                 ;     436 	xTaskNotifyGive(xCncTaskHandle);
                                 		.LINE  "C:\Workspace\e2studio\git\MT01\src\states\ut_state_move.c",436
000008D3 FBE2rrrrrrrr            		MOV.L #_xCncTaskHandle, R14
000008D9 ECE1                    		MOV.L [R14], R1
000008DB 6623                    		MOV.L #00000002H, R3
000008DD 6602                    		MOV.L #00000000H, R2
000008DF EF24                    		MOV.L R2, R4
000008E1 05rrrrrr             A  		BSR _xTaskGenericNotify
000008E5                         L218:	; bb35.split15
                                 ;     437 	iif_bind_filerunning();
                                 		.LINE  "C:\Workspace\e2studio\git\MT01\src\states\ut_state_move.c",437
000008E5 05rrrrrr             A  		BSR _iif_bind_filerunning
000008E9 38rrrr               W  		BRA L432
000008EC                         L219:	; bb49
                                 ;     438 	while(true)
                                 ;     439 	{
                                 ;     440 		/* Wait for user interaction */
                                 ;     441 		keyEntry = 0;
                                 ;     442 		xQueueReceive( qKeyboard, &keyEntry, DEFAULT_UPDATE_TIMEOUT);
                                 ;     443 
                                 ;     444 		/* Check which key */
                                 ;     445 		switch (keyEntry)
                                 ;     446 		{
                                 ;     447 		case KEY_DOWN:
                                 ;     448 			iif_func_down();
                                 		.LINE  "C:\Workspace\e2studio\git\MT01\src\states\ut_state_move.c",448
000008EC FBE2rrrrrrrr            		MOV.L #_iif_func_down, R14
000008F2 ECEE                    		MOV.L [R14], R14
000008F4 7F1E                    		JSR R14
000008F6 38rrrr               W  		BRA L432
000008F9                         L220:	; bb51
                                 ;     449 			break;
                                 ;     450 
                                 ;     451 		case KEY_UP:
                                 ;     452 			iif_func_up();
                                 		.LINE  "C:\Workspace\e2studio\git\MT01\src\states\ut_state_move.c",452
000008F9 FBE2rrrrrrrr            		MOV.L #_iif_func_up, R14
000008FF ECEE                    		MOV.L [R14], R14
00000901 7F1E                    		JSR R14
00000903 38rrrr               W  		BRA L432
00000906                         L221:	; bb53
                                 ;     453 			break;
                                 ;     454 
                                 ;     455 		case KEY_RIGHT:
                                 ;     456 			iif_func_right();
                                 		.LINE  "C:\Workspace\e2studio\git\MT01\src\states\ut_state_move.c",456
00000906 FBE2rrrrrrrr            		MOV.L #_iif_func_right, R14
0000090C ECEE                    		MOV.L [R14], R14
0000090E 7F1E                    		JSR R14
00000910 38rrrr               W  		BRA L432
00000913                         L222:	; bb55
                                 ;     457 			break;
                                 ;     458 
                                 ;     459 		case KEY_LEFT:
                                 ;     460 			iif_func_left();
                                 		.LINE  "C:\Workspace\e2studio\git\MT01\src\states\ut_state_move.c",460
00000913 FBE2rrrrrrrr            		MOV.L #_iif_func_left, R14
00000919 ECEE                    		MOV.L [R14], R14
0000091B 7F1E                    		JSR R14
0000091D 38rrrr               W  		BRA L432
00000920                         L223:	; bb57
                                 ;     461 			break;
                                 ;     462 
                                 ;     463 		case KEY_Z_UP:
                                 ;     464 			iif_func_zup();
                                 		.LINE  "C:\Workspace\e2studio\git\MT01\src\states\ut_state_move.c",464
00000920 FBE2rrrrrrrr            		MOV.L #_iif_func_zup, R14
00000926 ECEE                    		MOV.L [R14], R14
00000928 7F1E                    		JSR R14
0000092A 38rrrr               W  		BRA L432
0000092D                         L224:	; bb59
                                 ;     465 			break;
                                 ;     466 
                                 ;     467 		case KEY_Z_DOWN:
                                 ;     468 			iif_func_zdown();
                                 		.LINE  "C:\Workspace\e2studio\git\MT01\src\states\ut_state_move.c",468
0000092D FBE2rrrrrrrr            		MOV.L #_iif_func_zdown, R14
00000933 ECEE                    		MOV.L [R14], R14
00000935 7F1E                    		JSR R14
00000937 38rrrr               W  		BRA L432
0000093A                         L225:	; bb62
                                 ;     469 			break;
                                 ;     470 
                                 ;     471 		case KEY_ENTER:
                                 ;     472 			if (statePrevious == MATERIAL_FAILED)
                                 		.LINE  "C:\Workspace\e2studio\git\MT01\src\states\ut_state_move.c",472
0000093A A889                    		MOV.L 0CH[R0], R1
0000093C 77010000FD              		CMP #0FFFD0000H, R1
00000941 3Arrrr               W  		BEQ L432
00000944                         L226:	; bb70
                                 ;     473 				break;
                                 ;     474 			if(lstop)
                                 		.LINE  "C:\Workspace\e2studio\git\MT01\src\states\ut_state_move.c",474
00000944 FBE2rrrrrrrr            		MOV.L #_lstop, R14
0000094A 58EE                    		MOVU.B [R14], R14
0000094C 610E                    		CMP #00H, R14
0000094E 3Arrrr               W  		BEQ L295
00000951                         L227:	; bb72
                                 ;     475 			{
                                 ;     476 
                                 ;     477 	//			if (arco == ARCO_OK_OFF || (statePrevious == EMERGENCIA_SIGNAL && ltorchBuffer == TRUE))
                                 ;     478 				if (configFlags[MODOMAQUINA] ==  MODO_PLASMA)
                                 		.LINE  "C:\Workspace\e2studio\git\MT01\src\states\ut_state_move.c",478
00000951 FBE2rrrrrrrr            		MOV.L #_configFlags, R14
00000957 ECEE                    		MOV.L [R14], R14
00000959 610E                    		CMP #00H, R14
0000095B 3Brrrr               W  		BNE L256
0000095E                         L228:	; bb73
                                 ;     479 				{
                                 ;     480 					lstop = false;
                                 		.LINE  "C:\Workspace\e2studio\git\MT01\src\states\ut_state_move.c",480
0000095E FBE2rrrrrrrr            		MOV.L #_lstop, R14
00000964 F8E400                  		MOV.B #00H, [R14]
00000967                         L229:	; bb73.split
                                 ;     481 					iif_bind_filerunning_stop(lstop);
                                 		.LINE  "C:\Workspace\e2studio\git\MT01\src\states\ut_state_move.c",481
00000967 FBE2rrrrrrrr            		MOV.L #_lstop, R14
0000096D 58E1                    		MOVU.B [R14], R1
0000096F 05rrrrrr             A  		BSR _iif_bind_filerunning_stop
00000973                         L230:	; bb73.split16
                                 ;     482 					if(gTitle == AUTO){
                                 		.LINE  "C:\Workspace\e2studio\git\MT01\src\states\ut_state_move.c",482
00000973 FBE2rrrrrrrr            		MOV.L #_gTitle, R14
00000979 58EE                    		MOVU.B [R14], R14
0000097B 611E                    		CMP #01H, R14
0000097D 21rr                    		BNE L233
0000097F                         L231:	; bb76
0000097F 754310                  		MOV.L #00000010H, R3
                                 ;     483 						strcpy(gStrAuto[0],DEFAULT_AUTO_TITLE);
                                 		.LINE  "C:\Workspace\e2studio\git\MT01\src\states\ut_state_move.c",483
00000982 FB22rrrrrrrr            		MOV.L #_L22, R2
00000988 FB12rrrrrrrr            		MOV.L #__$gStrAuto, R1
0000098E 7F87                    		SMOVU
00000990                         L232:	; bb76.split
                                 ;     484 						strcpy(gStrAuto[1],DEFAULT_AVISO_AUTO);
                                 		.LINE  "C:\Workspace\e2studio\git\MT01\src\states\ut_state_move.c",484
00000990 FBE2rrrrrrrr            		MOV.L #__$gStrAuto, R14
00000996 FBF2rrrrrrrr            		MOV.L #_L10, R15
0000099C C4FE18                  		MOV.B [R15], 18H[R14]
0000099F 2Err                 B  		BRA L236
000009A1                         L233:	; bb78
                                 ;     485 					}else if(gTitle == SIM){
                                 		.LINE  "C:\Workspace\e2studio\git\MT01\src\states\ut_state_move.c",485
000009A1 FBE2rrrrrrrr            		MOV.L #_gTitle, R14
000009A7 58EE                    		MOVU.B [R14], R14
000009A9 613E                    		CMP #03H, R14
000009AB 21rr                    		BNE L236
000009AD                         L234:	; bb79
000009AD 66F3                    		MOV.L #0000000FH, R3
                                 ;     486 						strcpy(gStrSim[0],DEFAULT_SIM_TITLE);
                                 		.LINE  "C:\Workspace\e2studio\git\MT01\src\states\ut_state_move.c",486
000009AF FB22rrrrrrrr            		MOV.L #_L23, R2
000009B5 FB12rrrrrrrr            		MOV.L #__$gStrSim, R1
000009BB 7F87                    		SMOVU
000009BD                         L235:	; bb79.split
                                 ;     487 						strcpy(gStrSim[1],DEFAULT_AVISO_SIM);
                                 		.LINE  "C:\Workspace\e2studio\git\MT01\src\states\ut_state_move.c",487
000009BD FBE2rrrrrrrr            		MOV.L #__$gStrSim, R14
000009C3 FBF2rrrrrrrr            		MOV.L #_L10, R15
000009C9 C4FE1C                  		MOV.B [R15], 1CH[R14]
000009CC                         L236:	; bb92
                                 ;     488 					}
                                 ;     489 					if(isDwell == true)
                                 		.LINE  "C:\Workspace\e2studio\git\MT01\src\states\ut_state_move.c",489
000009CC FBE2rrrrrrrr            		MOV.L #_isDwell, R14
000009D2 58EE                    		MOVU.B [R14], R14
000009D4 611E                    		CMP #01H, R14
000009D6 18                   S  		BNE L238
000009D7                         L237:	; bb93
000009D7 6621                    		MOV.L #00000002H, R1
                                 ;     490 					{
                                 ;     491 						st_command_dwell(DWELL_RESTART);
                                 		.LINE  "C:\Workspace\e2studio\git\MT01\src\states\ut_state_move.c",491
000009D9 05rrrrrr             A  		BSR _st_command_dwell
000009DD                         L238:	; bb100
                                 ;     492 					}
                                 ;     493 					if (arco == ARCO_OK_OFF || ltorchBuffer == TRUE)
                                 		.LINE  "C:\Workspace\e2studio\git\MT01\src\states\ut_state_move.c",493
000009DD A901                    		MOV.L 10H[R0], R1
000009DF 77010000FE              		CMP #0FFFE0000H, R1
000009E4 3Arrrr               W  		BEQ L253
000009E7 38rrrr               W  		BRA L252
000009EA                         L239:	; bb101
                                 ;     494 					//if (ltorchBuffer == TRUE)
                                 ;     495 					{
                                 ;     496 						arco = 0;
                                 		.LINE  "C:\Workspace\e2studio\git\MT01\src\states\ut_state_move.c",496
000009EA 3E0400                  		MOV.L #00000000H, 10H[R0]
000009ED                         L240:	; bb101.split
                                 ;     497 						if(stopDuringCut_Get())
                                 		.LINE  "C:\Workspace\e2studio\git\MT01\src\states\ut_state_move.c",497
000009ED 05rrrrrr             A  		BSR _stopDuringCut_Get
000009F1 6101                    		CMP #00H, R1
000009F3 20rr                    		BEQ L246
000009F5                         L241:	; bb103
000009F5 6601                    		MOV.L #00000000H, R1
                                 ;     498 						{
                                 ;     499 							stopDuringCut_Set(false);
                                 		.LINE  "C:\Workspace\e2studio\git\MT01\src\states\ut_state_move.c",499
000009F7 05rrrrrr             A  		BSR _stopDuringCut_Set
000009FB                         L242:	; bb103.split
                                 ;     500 							if (cm.probe_state == PROBE_WAITING)
                                 		.LINE  "C:\Workspace\e2studio\git\MT01\src\states\ut_state_move.c",500
000009FB FBE2rrrrrrrr            		MOV.L #_cm, R14
00000A01 5AEE2802                		MOVU.B 0228H[R14], R14
00000A05 612E                    		CMP #02H, R14
00000A07 21rr                    		BNE L245
00000A09                         L243:	; bb105
                                 ;     501 							{
                                 ;     502 								simTorch = false;
                                 		.LINE  "C:\Workspace\e2studio\git\MT01\src\states\ut_state_move.c",502
00000A09 FBE2rrrrrrrr            		MOV.L #_simTorch, R14
00000A0F F8E400                  		MOV.B #00H, [R14]
00000A12                         L244:	; bb105.split
                                 ;     503 								macro_func_ptr = macro_buffer;
                                 		.LINE  "C:\Workspace\e2studio\git\MT01\src\states\ut_state_move.c",503
00000A12 FBE2rrrrrrrr            		MOV.L #_macro_func_ptr, R14
00000A18 FBF2rrrrrrrr            		MOV.L #_macro_buffer, R15
00000A1E E0FE                    		MOV.L [R15], [R14]
00000A20                         L245:	; bb112
                                 ;     504 							}
                                 ;     505 							xMacroArcoOkSync = true;
                                 		.LINE  "C:\Workspace\e2studio\git\MT01\src\states\ut_state_move.c",505
00000A20 FBE2rrrrrrrr            		MOV.L #_xMacroArcoOkSync, R14
00000A26 F8E401                  		MOV.B #01H, [R14]
00000A29 2Err                 B  		BRA L249
00000A2B                         L246:	; bb113
                                 ;     506 						}
                                 ;     507 						else
                                 ;     508 						{
                                 ;     509 							simTorch = false;
                                 		.LINE  "C:\Workspace\e2studio\git\MT01\src\states\ut_state_move.c",509
00000A2B FBE2rrrrrrrr            		MOV.L #_simTorch, R14
00000A31 F8E400                  		MOV.B #00H, [R14]
00000A34                         L247:	; bb113.split
                                 ;     510 							macro_func_ptr = macro_buffer;
                                 		.LINE  "C:\Workspace\e2studio\git\MT01\src\states\ut_state_move.c",510
00000A34 FBE2rrrrrrrr            		MOV.L #_macro_func_ptr, R14
00000A3A FBF2rrrrrrrr            		MOV.L #_macro_buffer, R15
00000A40 E0FE                    		MOV.L [R15], [R14]
00000A42                         L248:	; bb113.split17
                                 ;     511 							iif_func_enter();
                                 		.LINE  "C:\Workspace\e2studio\git\MT01\src\states\ut_state_move.c",511
00000A42 FBE2rrrrrrrr            		MOV.L #_iif_func_enter, R14
00000A48 ECEE                    		MOV.L [R14], R14
00000A4A 7F1E                    		JSR R14
00000A4C                         L249:	; bb121
                                 ;     512 						}
                                 ;     513 						TORCH = ltorchBuffer;
                                 		.LINE  "C:\Workspace\e2studio\git\MT01\src\states\ut_state_move.c",513
00000A4C FBE2rrrrrrrr            		MOV.L #__$ltorchBuffer, R14
00000A52 58EE                    		MOVU.B [R14], R14
00000A54 FBFE22C008              		MOV.L #0008C022H, R15
00000A59 7545F7                  		MOV.L #000000F7H, R5
00000A5C 50F5                    		AND [R15].UB, R5
00000A5E 6C3E                    		SHLL #03H, R14
00000A60 648E                    		AND #08H, R14
00000A62 57E5                    		OR R14, R5
00000A64 C3F5                    		MOV.B R5, [R15]
00000A66 38rrrr               W  		BRA L432
00000A69                         L250:	; bb128
                                 ;     514 					}
                                 ;     515 					else{
                                 ;     516 						iif_func_enter();
                                 		.LINE  "C:\Workspace\e2studio\git\MT01\src\states\ut_state_move.c",516
00000A69 FBE2rrrrrrrr            		MOV.L #_iif_func_enter, R14
00000A6F ECEE                    		MOV.L [R14], R14
00000A71 7F1E                    		JSR R14
00000A73                         L251:	; bb128.split
                                 ;     517 						TORCH = ltorchBuffer;
                                 		.LINE  "C:\Workspace\e2studio\git\MT01\src\states\ut_state_move.c",517
00000A73 FBE2rrrrrrrr            		MOV.L #__$ltorchBuffer, R14
00000A79 58EE                    		MOVU.B [R14], R14
00000A7B FBFE22C008              		MOV.L #0008C022H, R15
00000A80 7545F7                  		MOV.L #000000F7H, R5
00000A83 50F5                    		AND [R15].UB, R5
00000A85 6C3E                    		SHLL #03H, R14
00000A87 648E                    		AND #08H, R14
00000A89 57E5                    		OR R14, R5
00000A8B C3F5                    		MOV.B R5, [R15]
00000A8D 38rrrr               W  		BRA L432
00000A90                         L252:	; bb139
00000A90 FBE2rrrrrrrr            		MOV.L #__$ltorchBuffer, R14
00000A96 58EE                    		MOVU.B [R14], R14
00000A98 610E                    		CMP #00H, R14
00000A9A 18                   S  		BNE L254
00000A9B                         L253:	; bb144
00000A9B F80601                  		MOV.L #00000001H, [R0]
00000A9E 08                   S  		BRA L255
00000A9F                         L254:	; bb145
00000A9F F80600                  		MOV.L #00000000H, [R0]
00000AA2                         L255:	; bb146
00000AA2 EC01                    		MOV.L [R0], R1
00000AA4 6101                    		CMP #00H, R1
00000AA6 3Brrrr               W  		BNE L239
00000AA9 2Err                 B  		BRA L250
00000AAB                         L256:	; bb153
                                 ;     518 					}
                                 ;     519 				}
                                 ;     520 				else /* configFlags[MODOMAQUINA] ==  MODO_PLASMA */
                                 ;     521 				{
                                 ;     522 					/* se estiver simulando*/
                                 ;     523 					if (sim == true)
                                 		.LINE  "C:\Workspace\e2studio\git\MT01\src\states\ut_state_move.c",523
00000AAB FBE2rrrrrrrr            		MOV.L #_sim, R14
00000AB1 58EE                    		MOVU.B [R14], R14
00000AB3 611E                    		CMP #01H, R14
00000AB5 3Brrrr               W  		BNE L284
00000AB8                         L257:	; bb154
                                 ;     524 					{
                                 ;     525 						uint32_t *value = configsVar->value;
                                 		.LINE  "C:\Workspace\e2studio\git\MT01\src\states\ut_state_move.c",525
00000AB8 FBE2rrrrrrrr            		MOV.L #_configsVar, R14
00000ABE ECE1                    		MOV.L [R14], R1
00000AC0 E5100105                		MOV.L 04H[R1], 14H[R0]
00000AC4                         L258:	; bb154.split
                                 ;     526 						xTimerStop( swTimers[AUTO_MENU_TIMER], 0 );
                                 		.LINE  "C:\Workspace\e2studio\git\MT01\src\states\ut_state_move.c",526
00000AC4 FB12rrrrrrrr            		MOV.L #_swTimers, R1
00000ACA AA11                    		MOV.L 20H[R1], R1
00000ACC 6040                    		SUB #04H, R0
00000ACE F80600                  		MOV.L #00000000H, [R0]
00000AD1 6603                    		MOV.L #00000000H, R3
00000AD3 6632                    		MOV.L #00000003H, R2
00000AD5 EF34                    		MOV.L R3, R4
00000AD7 05rrrrrr             A  		BSR _xTimerGenericCommand
00000ADB 6240                    		ADD #04H, R0
00000ADD                         L259:	; bb154.split18
                                 ;     527 						iif_bind_idle();
                                 		.LINE  "C:\Workspace\e2studio\git\MT01\src\states\ut_state_move.c",527
00000ADD 05rrrrrr             A  		BSR _iif_bind_idle
00000AE1                         L260:	; bb154.split19
                                 ;     528 						configsVar->currentItem = CONFIG_AUTO_MODO_SIM_RUN;
                                 		.LINE  "C:\Workspace\e2studio\git\MT01\src\states\ut_state_move.c",528
00000AE1 FBE2rrrrrrrr            		MOV.L #_configsVar, R14
00000AE7 ECEE                    		MOV.L [R14], R14
00000AE9 F9E42406                		MOV.B #06H, 24H[R14]
00000AED                         L261:	; bb154.split20
                                 ;     529 						configsVar->type = UT_CONFIG_BOOL;
                                 		.LINE  "C:\Workspace\e2studio\git\MT01\src\states\ut_state_move.c",529
00000AED FBE2rrrrrrrr            		MOV.L #_configsVar, R14
00000AF3 ECEE                    		MOV.L [R14], R14
00000AF5 F8E601                  		MOV.L #00000001H, [R14]
00000AF8                         L262:	; bb154.split21
                                 ;     530 						configsVar->name = "CONTINUAR COMO?";
                                 		.LINE  "C:\Workspace\e2studio\git\MT01\src\states\ut_state_move.c",530
00000AF8 FBE2rrrrrrrr            		MOV.L #_configsVar, R14
00000AFE ECE1                    		MOV.L [R14], R1
00000B00 FB22rrrrrrrr            		MOV.L #_L24, R2
00000B06 A19A                    		MOV.L R2, 1CH[R1]
00000B08                         L263:	; bb154.split22
                                 ;     531 						ut_state_config_var(pContext);
                                 		.LINE  "C:\Workspace\e2studio\git\MT01\src\states\ut_state_move.c",531
00000B08 AA01                    		MOV.L 20H[R0], R1
00000B0A 05rrrrrr             A  		BSR _ut_state_config_var
00000B0E                         L264:	; bb154.split23
                                 ;     532 						iif_bind_filerunning();
                                 		.LINE  "C:\Workspace\e2studio\git\MT01\src\states\ut_state_move.c",532
00000B0E 05rrrrrr             A  		BSR _iif_bind_filerunning
00000B12                         L265:	; bb154.split24
                                 ;     533 						xTimerStart( swTimers[AUTO_MENU_TIMER], 0 );
                                 		.LINE  "C:\Workspace\e2studio\git\MT01\src\states\ut_state_move.c",533
00000B12 FB12rrrrrrrr            		MOV.L #_swTimers, R1
00000B18 AA16                    		MOV.L 20H[R1], R6
00000B1A 05rrrrrr             A  		BSR _xTaskGetTickCount
00000B1E EF13                    		MOV.L R1, R3
00000B20 6040                    		SUB #04H, R0
00000B22 F80600                  		MOV.L #00000000H, [R0]
00000B25 6604                    		MOV.L #00000000H, R4
00000B27 6612                    		MOV.L #00000001H, R2
00000B29 EF61                    		MOV.L R6, R1
00000B2B 05rrrrrr             A  		BSR _xTimerGenericCommand
00000B2F 6240                    		ADD #04H, R0
00000B31                         L266:	; bb154.split25
                                 ;     534 						if(func_back != 0xFF){
                                 		.LINE  "C:\Workspace\e2studio\git\MT01\src\states\ut_state_move.c",534
00000B31 FBE2rrrrrrrr            		MOV.L #_func_back, R14
00000B37 58EE                    		MOVU.B [R14], R14
00000B39 755EFF                  		CMP #0FFH, R14
00000B3C 3Arrrr               W  		BEQ L283
00000B3F                         L267:	; bb173
                                 ;     535 							lstop = false;
                                 		.LINE  "C:\Workspace\e2studio\git\MT01\src\states\ut_state_move.c",535
00000B3F FBE2rrrrrrrr            		MOV.L #_lstop, R14
00000B45 F8E400                  		MOV.B #00H, [R14]
00000B48                         L268:	; bb173.split
                                 ;     536 							iif_bind_filerunning_stop(lstop);
                                 		.LINE  "C:\Workspace\e2studio\git\MT01\src\states\ut_state_move.c",536
00000B48 FBE2rrrrrrrr            		MOV.L #_lstop, R14
00000B4E 58E1                    		MOVU.B [R14], R1
00000B50 05rrrrrr             A  		BSR _iif_bind_filerunning_stop
00000B54                         L269:	; bb173.split26
                                 ;     537 							if(gTitle == AUTO){
                                 		.LINE  "C:\Workspace\e2studio\git\MT01\src\states\ut_state_move.c",537
00000B54 FBE2rrrrrrrr            		MOV.L #_gTitle, R14
00000B5A 58EE                    		MOVU.B [R14], R14
00000B5C 611E                    		CMP #01H, R14
00000B5E 21rr                    		BNE L272
00000B60                         L270:	; bb176
00000B60 754310                  		MOV.L #00000010H, R3
                                 ;     538 								strcpy(gStrAuto[0],DEFAULT_AUTO_TITLE);
                                 		.LINE  "C:\Workspace\e2studio\git\MT01\src\states\ut_state_move.c",538
00000B63 FB22rrrrrrrr            		MOV.L #_L22, R2
00000B69 FB12rrrrrrrr            		MOV.L #__$gStrAuto, R1
00000B6F 7F87                    		SMOVU
00000B71                         L271:	; bb176.split
                                 ;     539 								strcpy(gStrAuto[1],DEFAULT_AVISO_AUTO);
                                 		.LINE  "C:\Workspace\e2studio\git\MT01\src\states\ut_state_move.c",539
00000B71 FBE2rrrrrrrr            		MOV.L #__$gStrAuto, R14
00000B77 FBF2rrrrrrrr            		MOV.L #_L10, R15
00000B7D C4FE18                  		MOV.B [R15], 18H[R14]
00000B80 2Err                 B  		BRA L275
00000B82                         L272:	; bb178
                                 ;     540 							}else if(gTitle == SIM){
                                 		.LINE  "C:\Workspace\e2studio\git\MT01\src\states\ut_state_move.c",540
00000B82 FBE2rrrrrrrr            		MOV.L #_gTitle, R14
00000B88 58EE                    		MOVU.B [R14], R14
00000B8A 613E                    		CMP #03H, R14
00000B8C 21rr                    		BNE L275
00000B8E                         L273:	; bb179
00000B8E 66F3                    		MOV.L #0000000FH, R3
                                 ;     541 								strcpy(gStrSim[0],DEFAULT_SIM_TITLE);
                                 		.LINE  "C:\Workspace\e2studio\git\MT01\src\states\ut_state_move.c",541
00000B90 FB22rrrrrrrr            		MOV.L #_L23, R2
00000B96 FB12rrrrrrrr            		MOV.L #__$gStrSim, R1
00000B9C 7F87                    		SMOVU
00000B9E                         L274:	; bb179.split
                                 ;     542 								strcpy(gStrSim[1],DEFAULT_AVISO_SIM);
                                 		.LINE  "C:\Workspace\e2studio\git\MT01\src\states\ut_state_move.c",542
00000B9E FBE2rrrrrrrr            		MOV.L #__$gStrSim, R14
00000BA4 FBF2rrrrrrrr            		MOV.L #_L10, R15
00000BAA C4FE1C                  		MOV.B [R15], 1CH[R14]
00000BAD                         L275:	; bb192
                                 ;     543 							}
                                 ;     544 							if(isDwell == true)
                                 		.LINE  "C:\Workspace\e2studio\git\MT01\src\states\ut_state_move.c",544
00000BAD FBE2rrrrrrrr            		MOV.L #_isDwell, R14
00000BB3 58EE                    		MOVU.B [R14], R14
00000BB5 611E                    		CMP #01H, R14
00000BB7 18                   S  		BNE L277
00000BB8                         L276:	; bb193
00000BB8 6621                    		MOV.L #00000002H, R1
                                 ;     545 							{
                                 ;     546 								st_command_dwell(DWELL_RESTART);
                                 		.LINE  "C:\Workspace\e2studio\git\MT01\src\states\ut_state_move.c",546
00000BBA 05rrrrrr             A  		BSR _st_command_dwell
00000BBE                         L277:	; bb199
                                 ;     547 							}
                                 ;     548 							iif_func_enter();
                                 		.LINE  "C:\Workspace\e2studio\git\MT01\src\states\ut_state_move.c",548
00000BBE FBE2rrrrrrrr            		MOV.L #_iif_func_enter, R14
00000BC4 ECEE                    		MOV.L [R14], R14
00000BC6 7F1E                    		JSR R14
00000BC8                         L278:	; bb199.split
                                 ;     549 							if(*value == true)
                                 		.LINE  "C:\Workspace\e2studio\git\MT01\src\states\ut_state_move.c",549
00000BC8 A909                    		MOV.L 14H[R0], R1
00000BCA EC1E                    		MOV.L [R1], R14
00000BCC 611E                    		CMP #01H, R14
00000BCE 21rr                    		BNE L283
00000BD0                         L279:	; bb202
                                 ;     550 							{
                                 ;     551 								gTitle = AUTO;
                                 		.LINE  "C:\Workspace\e2studio\git\MT01\src\states\ut_state_move.c",551
00000BD0 FBE2rrrrrrrr            		MOV.L #_gTitle, R14
00000BD6 F8E401                  		MOV.B #01H, [R14]
00000BD9                         L280:	; bb202.split
                                 ;     552 								sim = false;
                                 		.LINE  "C:\Workspace\e2studio\git\MT01\src\states\ut_state_move.c",552
00000BD9 FBE2rrrrrrrr            		MOV.L #_sim, R14
00000BDF F8E400                  		MOV.B #00H, [R14]
00000BE2                         L281:	; bb202.split27
                                 ;     553 								if (simTorch)
                                 		.LINE  "C:\Workspace\e2studio\git\MT01\src\states\ut_state_move.c",553
00000BE2 FBE2rrrrrrrr            		MOV.L #_simTorch, R14
00000BE8 58EE                    		MOVU.B [R14], R14
00000BEA 610E                    		CMP #00H, R14
00000BEC 10                   S  		BEQ L283
00000BED                         L282:	; bb204
00000BED FBEE22C008              		MOV.L #0008C022H, R14
                                 ;     554 								{
                                 ;     555 									TORCH = TRUE;
                                 		.LINE  "C:\Workspace\e2studio\git\MT01\src\states\ut_state_move.c",555
00000BF2 F0EB                    		BCLR #03H, [R14].B
00000BF4                         L283:	; bb225
                                 ;     556 								}
                                 ;     557 							}
                                 ;     558 						}
                                 ;     559 						func_back = 0;
                                 		.LINE  "C:\Workspace\e2studio\git\MT01\src\states\ut_state_move.c",559
00000BF4 FBE2rrrrrrrr            		MOV.L #_func_back, R14
00000BFA F8E400                  		MOV.B #00H, [R14]
00000BFD 38rrrr               W  		BRA L432
00000C00                         L284:	; bb227
                                 ;     560 					}
                                 ;     561 					else
                                 ;     562 					{
                                 ;     563 						if(gTitle == AUTO){
                                 		.LINE  "C:\Workspace\e2studio\git\MT01\src\states\ut_state_move.c",563
00000C00 FBE2rrrrrrrr            		MOV.L #_gTitle, R14
00000C06 58EE                    		MOVU.B [R14], R14
00000C08 611E                    		CMP #01H, R14
00000C0A 21rr                    		BNE L287
00000C0C                         L285:	; bb228
00000C0C 754310                  		MOV.L #00000010H, R3
                                 ;     564 							strcpy(gStrAuto[0],DEFAULT_AUTO_TITLE);
                                 		.LINE  "C:\Workspace\e2studio\git\MT01\src\states\ut_state_move.c",564
00000C0F FB22rrrrrrrr            		MOV.L #_L22, R2
00000C15 FB12rrrrrrrr            		MOV.L #__$gStrAuto, R1
00000C1B 7F87                    		SMOVU
00000C1D                         L286:	; bb228.split
                                 ;     565 							strcpy(gStrAuto[1],DEFAULT_AVISO_AUTO);
                                 		.LINE  "C:\Workspace\e2studio\git\MT01\src\states\ut_state_move.c",565
00000C1D FBE2rrrrrrrr            		MOV.L #__$gStrAuto, R14
00000C23 FBF2rrrrrrrr            		MOV.L #_L10, R15
00000C29 C4FE18                  		MOV.B [R15], 18H[R14]
00000C2C 2Err                 B  		BRA L290
00000C2E                         L287:	; bb230
                                 ;     566 						}else if(gTitle == SIM){
                                 		.LINE  "C:\Workspace\e2studio\git\MT01\src\states\ut_state_move.c",566
00000C2E FBE2rrrrrrrr            		MOV.L #_gTitle, R14
00000C34 58EE                    		MOVU.B [R14], R14
00000C36 613E                    		CMP #03H, R14
00000C38 21rr                    		BNE L290
00000C3A                         L288:	; bb231
00000C3A 66F3                    		MOV.L #0000000FH, R3
                                 ;     567 							strcpy(gStrSim[0],DEFAULT_SIM_TITLE);
                                 		.LINE  "C:\Workspace\e2studio\git\MT01\src\states\ut_state_move.c",567
00000C3C FB22rrrrrrrr            		MOV.L #_L23, R2
00000C42 FB12rrrrrrrr            		MOV.L #__$gStrSim, R1
00000C48 7F87                    		SMOVU
00000C4A                         L289:	; bb231.split
                                 ;     568 							strcpy(gStrSim[1],DEFAULT_AVISO_SIM);
                                 		.LINE  "C:\Workspace\e2studio\git\MT01\src\states\ut_state_move.c",568
00000C4A FBE2rrrrrrrr            		MOV.L #__$gStrSim, R14
00000C50 FBF2rrrrrrrr            		MOV.L #_L10, R15
00000C56 C4FE1C                  		MOV.B [R15], 1CH[R14]
00000C59                         L290:	; bb244
                                 ;     569 						}
                                 ;     570 						if(isDwell == true)
                                 		.LINE  "C:\Workspace\e2studio\git\MT01\src\states\ut_state_move.c",570
00000C59 FBE2rrrrrrrr            		MOV.L #_isDwell, R14
00000C5F 58EE                    		MOVU.B [R14], R14
00000C61 611E                    		CMP #01H, R14
00000C63 18                   S  		BNE L292
00000C64                         L291:	; bb245
00000C64 6621                    		MOV.L #00000002H, R1
                                 ;     571 						{
                                 ;     572 							st_command_dwell(DWELL_RESTART);
                                 		.LINE  "C:\Workspace\e2studio\git\MT01\src\states\ut_state_move.c",572
00000C66 05rrrrrr             A  		BSR _st_command_dwell
00000C6A                         L292:	; bb251
                                 ;     573 						}
                                 ;     574 						lstop = false;
                                 		.LINE  "C:\Workspace\e2studio\git\MT01\src\states\ut_state_move.c",574
00000C6A FBE2rrrrrrrr            		MOV.L #_lstop, R14
00000C70 F8E400                  		MOV.B #00H, [R14]
00000C73                         L293:	; bb251.split
                                 ;     575 						iif_func_enter();
                                 		.LINE  "C:\Workspace\e2studio\git\MT01\src\states\ut_state_move.c",575
00000C73 FBE2rrrrrrrr            		MOV.L #_iif_func_enter, R14
00000C79 ECEE                    		MOV.L [R14], R14
00000C7B 7F1E                    		JSR R14
00000C7D                         L294:	; bb251.split28
                                 ;     576 						TORCH = ltorchBuffer;
                                 		.LINE  "C:\Workspace\e2studio\git\MT01\src\states\ut_state_move.c",576
00000C7D FBE2rrrrrrrr            		MOV.L #__$ltorchBuffer, R14
00000C83 58EE                    		MOVU.B [R14], R14
00000C85 FBFE22C008              		MOV.L #0008C022H, R15
00000C8A 7545F7                  		MOV.L #000000F7H, R5
00000C8D 50F5                    		AND [R15].UB, R5
00000C8F 6C3E                    		SHLL #03H, R14
00000C91 648E                    		AND #08H, R14
00000C93 57E5                    		OR R14, R5
00000C95 C3F5                    		MOV.B R5, [R15]
00000C97 38rrrr               W  		BRA L432
00000C9A                         L295:	; bb271
                                 ;     577 					}
                                 ;     578 				}
                                 ;     579 			//
                                 ;     580 //				if(sim && configFlags[MODOMAQUINA] == MODO_OXICORTE){
                                 ;     581 //					gTitle = AUTO;
                                 ;     582 //				//	sim = false;
                                 ;     583 //					if (simTorch)
                                 ;     584 //					{
                                 ;     585 //						TORCH = TRUE;
                                 ;     586 //					}
                                 ;     587 //				}
                                 ;     588 			}
                                 ;     589 			else
                                 ;     590 			{
                                 ;     591 				if(isDwell == true)
                                 		.LINE  "C:\Workspace\e2studio\git\MT01\src\states\ut_state_move.c",591
00000C9A FBE2rrrrrrrr            		MOV.L #_isDwell, R14
00000CA0 58EE                    		MOVU.B [R14], R14
00000CA2 611E                    		CMP #01H, R14
00000CA4 18                   S  		BNE L297
00000CA5                         L296:	; bb272
00000CA5 6631                    		MOV.L #00000003H, R1
                                 ;     592 				{
                                 ;     593 					st_command_dwell(DWELL_EXIT);
                                 		.LINE  "C:\Workspace\e2studio\git\MT01\src\states\ut_state_move.c",593
00000CA7 05rrrrrr             A  		BSR _st_command_dwell
00000CAB                         L297:	; bb279
                                 ;     594 				}
                                 ;     595 				if(sim){
                                 		.LINE  "C:\Workspace\e2studio\git\MT01\src\states\ut_state_move.c",595
00000CAB FBE2rrrrrrrr            		MOV.L #_sim, R14
00000CB1 58EE                    		MOVU.B [R14], R14
00000CB3 610E                    		CMP #00H, R14
00000CB5 3Arrrr               W  		BEQ L432
00000CB8                         L298:	; bb280
                                 ;     596 					gTitle = AUTO;
                                 		.LINE  "C:\Workspace\e2studio\git\MT01\src\states\ut_state_move.c",596
00000CB8 FBE2rrrrrrrr            		MOV.L #_gTitle, R14
00000CBE F8E401                  		MOV.B #01H, [R14]
00000CC1                         L299:	; bb280.split
                                 ;     597 					sim = false;
                                 		.LINE  "C:\Workspace\e2studio\git\MT01\src\states\ut_state_move.c",597
00000CC1 FBE2rrrrrrrr            		MOV.L #_sim, R14
00000CC7 F8E400                  		MOV.B #00H, [R14]
00000CCA                         L300:	; bb280.split29
                                 ;     598 					if (simTorch)
                                 		.LINE  "C:\Workspace\e2studio\git\MT01\src\states\ut_state_move.c",598
00000CCA FBE2rrrrrrrr            		MOV.L #_simTorch, R14
00000CD0 58EE                    		MOVU.B [R14], R14
00000CD2 610E                    		CMP #00H, R14
00000CD4 3Arrrr               W  		BEQ L432
00000CD7                         L301:	; bb282
00000CD7 FBEE22C008              		MOV.L #0008C022H, R14
                                 ;     599 					{
                                 ;     600 						TORCH = TRUE;
                                 		.LINE  "C:\Workspace\e2studio\git\MT01\src\states\ut_state_move.c",600
00000CDC F0EB                    		BCLR #03H, [R14].B
00000CDE                         L302:	; bb282.split
                                 ;     601 						simTorch = false;
                                 		.LINE  "C:\Workspace\e2studio\git\MT01\src\states\ut_state_move.c",601
00000CDE FBE2rrrrrrrr            		MOV.L #_simTorch, R14
00000CE4 F8E400                  		MOV.B #00H, [R14]
00000CE7                         L303:	; bb282.split30
                                 ;     602 						if(configFlags[MODOMAQUINA] == MODO_PLASMA){
                                 		.LINE  "C:\Workspace\e2studio\git\MT01\src\states\ut_state_move.c",602
00000CE7 FBE2rrrrrrrr            		MOV.L #_configFlags, R14
00000CED ECEE                    		MOV.L [R14], R14
00000CEF 610E                    		CMP #00H, R14
00000CF1 3Brrrr               W  		BNE L432
00000CF4                         L304:	; bb287
                                 ;     603 							pl_arcook_start();
                                 		.LINE  "C:\Workspace\e2studio\git\MT01\src\states\ut_state_move.c",603
00000CF4 05rrrrrr             A  		BSR _pl_arcook_start
00000CF8                         L305:	; bb287.split
00000CF8 6611                    		MOV.L #00000001H, R1
                                 ;     604 							/* Necessario para ligar o THC */
                                 ;     605 							delay_thcStartStop(true);
                                 		.LINE  "C:\Workspace\e2studio\git\MT01\src\states\ut_state_move.c",605
00000CFA 05rrrrrr             A  		BSR _delay_thcStartStop
00000CFE                         L306:	; bb287.split31
00000CFE 6611                    		MOV.L #00000001H, R1
                                 ;     606 							isCuttingSet(true);
                                 		.LINE  "C:\Workspace\e2studio\git\MT01\src\states\ut_state_move.c",606
00000D00 05rrrrrr             A  		BSR _isCuttingSet
00000D04 38rrrr               W  		BRA L432
00000D07                         L307:	; bb311
                                 ;     607 						}
                                 ;     608 					}
                                 ;     609 				}
                                 ;     610 			}
                                 ;     611 			break;
                                 ;     612 
                                 ;     613 		case KEY_ESC:
                                 ;     614 			statePrevious = 0;
                                 		.LINE  "C:\Workspace\e2studio\git\MT01\src\states\ut_state_move.c",614
00000D07 3E0300                  		MOV.L #00000000H, 0CH[R0]
00000D0A                         L308:	; bb311.split
                                 ;     615 			if (programEnd || lstop){
                                 		.LINE  "C:\Workspace\e2studio\git\MT01\src\states\ut_state_move.c",615
00000D0A FBE2rrrrrrrr            		MOV.L #_programEnd, R14
00000D10 58EE                    		MOVU.B [R14], R14
00000D12 610E                    		CMP #00H, R14
00000D14 3Brrrr               W  		BNE L368
00000D17 38rrrr               W  		BRA L367
00000D1A                         L309:	; bb313
                                 ;     616 				uint32_t *value = configsVar->value;
                                 		.LINE  "C:\Workspace\e2studio\git\MT01\src\states\ut_state_move.c",616
00000D1A FBE2rrrrrrrr            		MOV.L #_configsVar, R14
00000D20 ECE1                    		MOV.L [R14], R1
00000D22 E5100106                		MOV.L 04H[R1], 18H[R0]
00000D26                         L310:	; bb313.split
                                 ;     617 				if(!programEnd){
                                 		.LINE  "C:\Workspace\e2studio\git\MT01\src\states\ut_state_move.c",617
00000D26 FBE2rrrrrrrr            		MOV.L #_programEnd, R14
00000D2C 58EE                    		MOVU.B [R14], R14
00000D2E 610E                    		CMP #00H, R14
00000D30 21rr                    		BNE L319
00000D32 2Err                 B  		BRA L320
00000D34                         L311:	; bb319
                                 ;     618 				//	cm_request_feedhold();
                                 ;     619 						xTimerStop( swTimers[AUTO_MENU_TIMER], 0 );
                                 		.LINE  "C:\Workspace\e2studio\git\MT01\src\states\ut_state_move.c",619
00000D34 FB12rrrrrrrr            		MOV.L #_swTimers, R1
00000D3A AA11                    		MOV.L 20H[R1], R1
00000D3C 6040                    		SUB #04H, R0
00000D3E F80600                  		MOV.L #00000000H, [R0]
00000D41 6603                    		MOV.L #00000000H, R3
00000D43 6632                    		MOV.L #00000003H, R2
00000D45 EF34                    		MOV.L R3, R4
00000D47 05rrrrrr             A  		BSR _xTimerGenericCommand
00000D4B 6240                    		ADD #04H, R0
00000D4D                         L312:	; bb319.split
                                 ;     620 						iif_bind_idle();
                                 		.LINE  "C:\Workspace\e2studio\git\MT01\src\states\ut_state_move.c",620
00000D4D 05rrrrrr             A  		BSR _iif_bind_idle
00000D51                         L313:	; bb319.split32
                                 ;     621 						configsVar->currentState = STATE_AUTO_MODE;
                                 		.LINE  "C:\Workspace\e2studio\git\MT01\src\states\ut_state_move.c",621
00000D51 FBE2rrrrrrrr            		MOV.L #_configsVar, R14
00000D57 ECE1                    		MOV.L [R14], R1
00000D59 3E180F                  		MOV.L #0000000FH, 20H[R1]
00000D5C                         L314:	; bb319.split33
                                 ;     622 						configsVar->currentItem = CONFIG_AUTO_RODAR_PROG;
                                 		.LINE  "C:\Workspace\e2studio\git\MT01\src\states\ut_state_move.c",622
00000D5C FBE2rrrrrrrr            		MOV.L #_configsVar, R14
00000D62 ECEE                    		MOV.L [R14], R14
00000D64 F9E42400                		MOV.B #00H, 24H[R14]
00000D68                         L315:	; bb319.split34
                                 ;     623 						configsVar->type = UT_CONFIG_BOOL;
                                 		.LINE  "C:\Workspace\e2studio\git\MT01\src\states\ut_state_move.c",623
00000D68 FBE2rrrrrrrr            		MOV.L #_configsVar, R14
00000D6E ECEE                    		MOV.L [R14], R14
00000D70 F8E601                  		MOV.L #00000001H, [R14]
00000D73                         L316:	; bb319.split35
                                 ;     624 						configsVar->name = "DESEJA SAIR?";
                                 		.LINE  "C:\Workspace\e2studio\git\MT01\src\states\ut_state_move.c",624
00000D73 FBE2rrrrrrrr            		MOV.L #_configsVar, R14
00000D79 ECE1                    		MOV.L [R14], R1
00000D7B FB22rrrrrrrr            		MOV.L #_L25, R2
00000D81 A19A                    		MOV.L R2, 1CH[R1]
00000D83                         L317:	; bb319.split36
                                 ;     625 						ut_state_config_var(pContext);
                                 		.LINE  "C:\Workspace\e2studio\git\MT01\src\states\ut_state_move.c",625
00000D83 AA01                    		MOV.L 20H[R0], R1
00000D85 05rrrrrr             A  		BSR _ut_state_config_var
00000D89                         L318:	; bb319.split37
                                 ;     626 						iif_bind_filerunning();
                                 		.LINE  "C:\Workspace\e2studio\git\MT01\src\states\ut_state_move.c",626
00000D89 05rrrrrr             A  		BSR _iif_bind_filerunning
00000D8D 2Err                 B  		BRA L322
00000D8F                         L319:	; bb336
00000D8F F80600                  		MOV.L #00000000H, [R0]
00000D92 08                   S  		BRA L321
00000D93                         L320:	; bb337
00000D93 F80601                  		MOV.L #00000001H, [R0]
00000D96                         L321:	; bb338
00000D96 EC01                    		MOV.L [R0], R1
00000D98 6101                    		CMP #00H, R1
00000D9A 21rr                    		BNE L311
00000D9C                         L322:	; bb343
                                 ;     627 				}
                                 ;     628 				if(*value || programEnd){
                                 		.LINE  "C:\Workspace\e2studio\git\MT01\src\states\ut_state_move.c",628
00000D9C A981                    		MOV.L 18H[R0], R1
00000D9E EC1E                    		MOV.L [R1], R14
00000DA0 610E                    		CMP #00H, R14
00000DA2 3Brrrr               W  		BNE L364
00000DA5 38rrrr               W  		BRA L363
00000DA8                         L323:	; bb345
                                 ;     629 //					xTimerStop( swTimers[AUTO_MENU_TIMER], 0 );
                                 ;     630 					if(gTitle == AUTO){
                                 		.LINE  "C:\Workspace\e2studio\git\MT01\src\states\ut_state_move.c",630
00000DA8 FBE2rrrrrrrr            		MOV.L #_gTitle, R14
00000DAE 58EE                    		MOVU.B [R14], R14
00000DB0 611E                    		CMP #01H, R14
00000DB2 21rr                    		BNE L326
00000DB4                         L324:	; bb346
00000DB4 754310                  		MOV.L #00000010H, R3
                                 ;     631 						strcpy(gStrAuto[0],DEFAULT_AUTO_TITLE);
                                 		.LINE  "C:\Workspace\e2studio\git\MT01\src\states\ut_state_move.c",631
00000DB7 FB22rrrrrrrr            		MOV.L #_L22, R2
00000DBD FB12rrrrrrrr            		MOV.L #__$gStrAuto, R1
00000DC3 7F87                    		SMOVU
00000DC5                         L325:	; bb346.split
                                 ;     632 						strcpy(gStrAuto[1],DEFAULT_AVISO_AUTO);
                                 		.LINE  "C:\Workspace\e2studio\git\MT01\src\states\ut_state_move.c",632
00000DC5 FBE2rrrrrrrr            		MOV.L #__$gStrAuto, R14
00000DCB FBF2rrrrrrrr            		MOV.L #_L10, R15
00000DD1 C4FE18                  		MOV.B [R15], 18H[R14]
00000DD4 2Err                 B  		BRA L329
00000DD6                         L326:	; bb348
                                 ;     633 					}else if(gTitle == SIM){
                                 		.LINE  "C:\Workspace\e2studio\git\MT01\src\states\ut_state_move.c",633
00000DD6 FBE2rrrrrrrr            		MOV.L #_gTitle, R14
00000DDC 58EE                    		MOVU.B [R14], R14
00000DDE 613E                    		CMP #03H, R14
00000DE0 21rr                    		BNE L329
00000DE2                         L327:	; bb349
00000DE2 66F3                    		MOV.L #0000000FH, R3
                                 ;     634 						strcpy(gStrSim[0],DEFAULT_SIM_TITLE);
                                 		.LINE  "C:\Workspace\e2studio\git\MT01\src\states\ut_state_move.c",634
00000DE4 FB22rrrrrrrr            		MOV.L #_L23, R2
00000DEA FB12rrrrrrrr            		MOV.L #__$gStrSim, R1
00000DF0 7F87                    		SMOVU
00000DF2                         L328:	; bb349.split
                                 ;     635 						strcpy(gStrSim[1],DEFAULT_AVISO_SIM);
                                 		.LINE  "C:\Workspace\e2studio\git\MT01\src\states\ut_state_move.c",635
00000DF2 FBE2rrrrrrrr            		MOV.L #__$gStrSim, R14
00000DF8 FBF2rrrrrrrr            		MOV.L #_L10, R15
00000DFE C4FE1C                  		MOV.B [R15], 1CH[R14]
00000E01                         L329:	; bb361
                                 ;     636 					}
                                 ;     637 					cm_request_feedhold();
                                 		.LINE  "C:\Workspace\e2studio\git\MT01\src\states\ut_state_move.c",637
00000E01 05rrrrrr             A  		BSR _cm_request_feedhold
00000E05                         L330:	; bb361.split
                                 ;     638 					cm_request_queue_flush();
                                 		.LINE  "C:\Workspace\e2studio\git\MT01\src\states\ut_state_move.c",638
00000E05 05rrrrrr             A  		BSR _cm_request_queue_flush
00000E09                         L331:	; bb361.split38
                                 ;     639 					xio_close(cs.primary_src);
                                 		.LINE  "C:\Workspace\e2studio\git\MT01\src\states\ut_state_move.c",639
00000E09 FB12rrrrrrrr            		MOV.L #_cs, R1
00000E0F B611                    		MOVU.B 18H[R1], R1
00000E11 05rrrrrr             A  		BSR _xio_close
00000E15                         L332:	; bb361.split39
                                 ;     640 					if(isDwell == true)
                                 		.LINE  "C:\Workspace\e2studio\git\MT01\src\states\ut_state_move.c",640
00000E15 FBE2rrrrrrrr            		MOV.L #_isDwell, R14
00000E1B 58EE                    		MOVU.B [R14], R14
00000E1D 611E                    		CMP #01H, R14
00000E1F 21rr                    		BNE L338
00000E21                         L333:	; bb364
00000E21 6641                    		MOV.L #00000004H, R1
                                 ;     641 					{
                                 ;     642 //						st_command_dwell(DWELL_EXIT);
                                 ;     643 //						st_command_dwell(DWELL_RESTART);
                                 ;     644 						st_command_dwell(DWELL_ZERO);
                                 		.LINE  "C:\Workspace\e2studio\git\MT01\src\states\ut_state_move.c",644
00000E23 05rrrrrr             A  		BSR _st_command_dwell
00000E27                         L334:	; bb364.split
                                 ;     645 						mr.move_state = MOVE_OFF;
                                 		.LINE  "C:\Workspace\e2studio\git\MT01\src\states\ut_state_move.c",645
00000E27 FB12rrrrrrrr            		MOV.L #_mr, R1
00000E2D 3C1200                  		MOV.B #00H, 02H[R1]
00000E30                         L335:	; bb364.split40
                                 ;     646 //						while(!st_runtime_isbusy());
                                 ;     647 						cm.queue_flush_requested = false;
                                 		.LINE  "C:\Workspace\e2studio\git\MT01\src\states\ut_state_move.c",647
00000E30 FBE2rrrrrrrr            		MOV.L #_cm, R14
00000E36 FAE4480200              		MOV.B #00H, 0248H[R14]
00000E3B                         L336:	; bb364.split41
                                 ;     648 						cm_queue_flush();
                                 		.LINE  "C:\Workspace\e2studio\git\MT01\src\states\ut_state_move.c",648
00000E3B 05rrrrrr             A  		BSR _cm_queue_flush
00000E3F                         L337:	; bb364.split42
                                 ;     649 						cm.motion_state = MOTION_STOP;
                                 		.LINE  "C:\Workspace\e2studio\git\MT01\src\states\ut_state_move.c",649
00000E3F FBE2rrrrrrrr            		MOV.L #_cm, R14
00000E45 FAE41F0200              		MOV.B #00H, 021FH[R14]
00000E4A                         L338:	; bb371
                                 ;     650 					}
                                 ;     651 					state = 0;
                                 		.LINE  "C:\Workspace\e2studio\git\MT01\src\states\ut_state_move.c",651
00000E4A FBE2rrrrrrrr            		MOV.L #_state, R14
00000E50 F8E400                  		MOV.B #00H, [R14]
00000E53                         L339:	; bb371.split
                                 ;     652 					cm.cycle_state = CYCLE_OFF;
                                 		.LINE  "C:\Workspace\e2studio\git\MT01\src\states\ut_state_move.c",652
00000E53 FBE2rrrrrrrr            		MOV.L #_cm, R14
00000E59 FAE41E0200              		MOV.B #00H, 021EH[R14]
00000E5E                         L340:	; bb371.split43
                                 ;     653 					pl_arcook_stop();
                                 		.LINE  "C:\Workspace\e2studio\git\MT01\src\states\ut_state_move.c",653
00000E5E 05rrrrrr             A  		BSR _pl_arcook_stop
00000E62                         L341:	; bb371.split44
                                 ;     654 			//		isCuttingSet(false);
                                 ;     655 					iif_bind_idle();
                                 		.LINE  "C:\Workspace\e2studio\git\MT01\src\states\ut_state_move.c",655
00000E62 05rrrrrr             A  		BSR _iif_bind_idle
00000E66                         L342:	; bb371.split45
                                 ;     656 					cm.gmx.feed_rate_override_enable = true;
                                 		.LINE  "C:\Workspace\e2studio\git\MT01\src\states\ut_state_move.c",656
00000E66 FBE2rrrrrrrr            		MOV.L #_cm, R14
00000E6C FAE41C0301              		MOV.B #01H, 031CH[R14]
00000E71                         L343:	; bb371.split46
                                 ;     657 					cm.gmx.feed_rate_override_factor = 1;
                                 		.LINE  "C:\Workspace\e2studio\git\MT01\src\states\ut_state_move.c",657
00000E71 FBE2rrrrrrrr            		MOV.L #_cm, R14
00000E77 F9E2C50000803F          		MOV.L #3F800000H, 0314H[R14]
00000E7E                         L344:	; bb373
                                 ;     658 					while(cm.queue_flush_requested == true && !programEnd)
                                 		.LINE  "C:\Workspace\e2studio\git\MT01\src\states\ut_state_move.c",658
00000E7E FBE2rrrrrrrr            		MOV.L #_cm, R14
00000E84 5AEE4802                		MOVU.B 0248H[R14], R14
00000E88 611E                    		CMP #01H, R14
00000E8A 21rr                    		BNE L350
00000E8C                         L345:	; bb378
00000E8C FBE2rrrrrrrr            		MOV.L #_programEnd, R14
00000E92 58EE                    		MOVU.B [R14], R14
00000E94 610E                    		CMP #00H, R14
00000E96 10                   S  		BEQ L347
00000E97                         L346:	; bb383
00000E97 F80600                  		MOV.L #00000000H, [R0]
00000E9A 08                   S  		BRA L348
00000E9B                         L347:	; bb384
00000E9B F80601                  		MOV.L #00000001H, [R0]
00000E9E                         L348:	; bb385
00000E9E EC01                    		MOV.L [R0], R1
00000EA0 6101                    		CMP #00H, R1
00000EA2 10                   S  		BEQ L350
00000EA3                         L349:	; bb388
00000EA3 F80601                  		MOV.L #00000001H, [R0]
00000EA6 08                   S  		BRA L351
00000EA7                         L350:	; bb389
00000EA7 F80600                  		MOV.L #00000000H, [R0]
00000EAA                         L351:	; bb390
00000EAA EC01                    		MOV.L [R0], R1
00000EAC 6101                    		CMP #00H, R1
00000EAE 21rr                    		BNE L344
00000EB0                         L352:	; bb395
                                 ;     659 					{
                                 ;     660 
                                 ;     661 					}
                                 ;     662 					cm.probe_state = PROBE_FAILED;
                                 		.LINE  "C:\Workspace\e2studio\git\MT01\src\states\ut_state_move.c",662
00000EB0 FBE2rrrrrrrr            		MOV.L #_cm, R14
00000EB6 FAE4280200              		MOV.B #00H, 0228H[R14]
00000EBB                         L353:	; bb395.split
00000EBB FBEE22C008              		MOV.L #0008C022H, R14
                                 ;     663 					TORCH = FALSE;
                                 		.LINE  "C:\Workspace\e2studio\git\MT01\src\states\ut_state_move.c",663
00000EC0 F0E3                    		BSET #03H, [R14].B
00000EC2                         L354:	; bb395.split47
                                 ;     664 					macro_func_ptr = command_idle;
                                 		.LINE  "C:\Workspace\e2studio\git\MT01\src\states\ut_state_move.c",664
00000EC2 FBE2rrrrrrrr            		MOV.L #_macro_func_ptr, R14
00000EC8 FBF2rrrrrrrr            		MOV.L #_command_idle, R15
00000ECE E3EF                    		MOV.L R15, [R14]
00000ED0                         L355:	; bb395.split48
                                 ;     665 					intepreterRunning = false;
                                 		.LINE  "C:\Workspace\e2studio\git\MT01\src\states\ut_state_move.c",665
00000ED0 FBE2rrrrrrrr            		MOV.L #_intepreterRunning, R14
00000ED6 F8E400                  		MOV.B #00H, [R14]
00000ED9                         L356:	; bb395.split49
                                 ;     666 					sim = false;
                                 		.LINE  "C:\Workspace\e2studio\git\MT01\src\states\ut_state_move.c",666
00000ED9 FBE2rrrrrrrr            		MOV.L #_sim, R14
00000EDF F8E400                  		MOV.B #00H, [R14]
00000EE2                         L357:	; bb395.split50
                                 ;     667 					currentLine = 0;
                                 		.LINE  "C:\Workspace\e2studio\git\MT01\src\states\ut_state_move.c",667
00000EE2 FBE2rrrrrrrr            		MOV.L #_currentLine, R14
00000EE8 F8E600                  		MOV.L #00000000H, [R14]
00000EEB                         L358:	; bb395.split51
                                 ;     668 					zinhibitor = false;
                                 		.LINE  "C:\Workspace\e2studio\git\MT01\src\states\ut_state_move.c",668
00000EEB FBE2rrrrrrrr            		MOV.L #_zinhibitor, R14
00000EF1 F8E400                  		MOV.B #00H, [R14]
00000EF4                         L359:	; bb395.split52
                                 ;     669 					if (programEnd)
                                 		.LINE  "C:\Workspace\e2studio\git\MT01\src\states\ut_state_move.c",669
00000EF4 FBE2rrrrrrrr            		MOV.L #_programEnd, R14
00000EFA 58EE                    		MOVU.B [R14], R14
00000EFC 610E                    		CMP #00H, R14
00000EFE 10                   S  		BEQ L361
00000EFF                         L360:	; bb400
                                 ;     670 					{
                                 ;     671 						return STATE_MANUAL_MODE;
                                 		.LINE  "C:\Workspace\e2studio\git\MT01\src\states\ut_state_move.c",671
00000EFF 3E010D                  		MOV.L #0000000DH, 04H[R0]
00000F02 38rrrr               W  		BRA L447
00000F05                         L361:	; bb407
                                 ;     672 					}
                                 ;     673 
                                 ;     674 					return STATE_CONFIG_AUTO_MODE;
                                 		.LINE  "C:\Workspace\e2studio\git\MT01\src\states\ut_state_move.c",674
00000F05 3E0108                  		MOV.L #00000008H, 04H[R0]
00000F08 38rrrr               W  		BRA L447
00000F0B                         L362:	; bb409
                                 ;     675 				}
                                 ;     676 				else
                                 ;     677 				{
                                 ;     678 					xTimerStart( swTimers[AUTO_MENU_TIMER], 0 );
                                 		.LINE  "C:\Workspace\e2studio\git\MT01\src\states\ut_state_move.c",678
00000F0B FB12rrrrrrrr            		MOV.L #_swTimers, R1
00000F11 AA16                    		MOV.L 20H[R1], R6
00000F13 05rrrrrr             A  		BSR _xTaskGetTickCount
00000F17 EF13                    		MOV.L R1, R3
00000F19 6040                    		SUB #04H, R0
00000F1B F80600                  		MOV.L #00000000H, [R0]
00000F1E 6604                    		MOV.L #00000000H, R4
00000F20 6612                    		MOV.L #00000001H, R2
00000F22 EF61                    		MOV.L R6, R1
00000F24 05rrrrrr             A  		BSR _xTimerGenericCommand
00000F28 6240                    		ADD #04H, R0
00000F2A 2Err                 B  		BRA L371
00000F2C                         L363:	; bb417
00000F2C FBE2rrrrrrrr            		MOV.L #_programEnd, R14
00000F32 58EE                    		MOVU.B [R14], R14
00000F34 610E                    		CMP #00H, R14
00000F36 10                   S  		BEQ L365
00000F37                         L364:	; bb422
00000F37 F80601                  		MOV.L #00000001H, [R0]
00000F3A 08                   S  		BRA L366
00000F3B                         L365:	; bb423
00000F3B F80600                  		MOV.L #00000000H, [R0]
00000F3E                         L366:	; bb424
00000F3E EC01                    		MOV.L [R0], R1
00000F40 6101                    		CMP #00H, R1
00000F42 3Brrrr               W  		BNE L323
00000F45 2Err                 B  		BRA L362
00000F47                         L367:	; bb434
00000F47 FBE2rrrrrrrr            		MOV.L #_lstop, R14
00000F4D 58EE                    		MOVU.B [R14], R14
00000F4F 610E                    		CMP #00H, R14
00000F51 10                   S  		BEQ L369
00000F52                         L368:	; bb439
00000F52 F80601                  		MOV.L #00000001H, [R0]
00000F55 08                   S  		BRA L370
00000F56                         L369:	; bb440
00000F56 F80600                  		MOV.L #00000000H, [R0]
00000F59                         L370:	; bb441
00000F59 EC01                    		MOV.L [R0], R1
00000F5B 6101                    		CMP #00H, R1
00000F5D 3Brrrr               W  		BNE L309
00000F60                         L371:	; bb447
                                 ;     679 		//			warm_stop(1);
                                 ;     680 				}
                                 ;     681 
                                 ;     682 			}
                                 ;     683 			if(!lstop){
                                 		.LINE  "C:\Workspace\e2studio\git\MT01\src\states\ut_state_move.c",683
00000F60 FBE2rrrrrrrr            		MOV.L #_lstop, R14
00000F66 58EE                    		MOVU.B [R14], R14
00000F68 610E                    		CMP #00H, R14
00000F6A 21rr                    		BNE L380
00000F6C 2Err                 B  		BRA L381
00000F6E                         L372:	; bb449
                                 ;     684 				if(arco == ARCO_OK_FAILED)
                                 		.LINE  "C:\Workspace\e2studio\git\MT01\src\states\ut_state_move.c",684
00000F6E A901                    		MOV.L 10H[R0], R1
00000F70 77010000FF              		CMP #0FFFF0000H, R1
00000F75 21rr                    		BNE L376
00000F77                         L373:	; bb450
                                 ;     685 				{
                                 ;     686 					arco = ARCO_OK_OFF;
                                 		.LINE  "C:\Workspace\e2studio\git\MT01\src\states\ut_state_move.c",686
00000F77 F90E040000FE            		MOV.L #0FFFE0000H, 10H[R0]
00000F7D                         L374:	; bb450.split
                                 ;     687 					lstop = true;
                                 		.LINE  "C:\Workspace\e2studio\git\MT01\src\states\ut_state_move.c",687
00000F7D FBE2rrrrrrrr            		MOV.L #_lstop, R14
00000F83 F8E401                  		MOV.B #01H, [R14]
00000F86                         L375:	; bb450.split53
                                 ;     688 					xTimerStart( swTimers[AUTO_MENU_TIMER], 0 );
                                 		.LINE  "C:\Workspace\e2studio\git\MT01\src\states\ut_state_move.c",688
00000F86 FB12rrrrrrrr            		MOV.L #_swTimers, R1
00000F8C AA16                    		MOV.L 20H[R1], R6
00000F8E 05rrrrrr             A  		BSR _xTaskGetTickCount
00000F92 EF13                    		MOV.L R1, R3
00000F94 6040                    		SUB #04H, R0
00000F96 F80600                  		MOV.L #00000000H, [R0]
00000F99 6604                    		MOV.L #00000000H, R4
00000F9B 6612                    		MOV.L #00000001H, R2
00000F9D EF61                    		MOV.L R6, R1
00000F9F 05rrrrrr             A  		BSR _xTimerGenericCommand
00000FA3 6240                    		ADD #04H, R0
00000FA5 38rrrr               W  		BRA L432
00000FA8                         L376:	; bb455
                                 ;     689 				}
                                 ;     690 				else
                                 ;     691 				{
                                 ;     692 					if (isCuttingGet() == true)
                                 		.LINE  "C:\Workspace\e2studio\git\MT01\src\states\ut_state_move.c",692
00000FA8 05rrrrrr             A  		BSR _isCuttingGet
00000FAC 6111                    		CMP #01H, R1
00000FAE 18                   S  		BNE L378
00000FAF                         L377:	; bb456
00000FAF 6611                    		MOV.L #00000001H, R1
                                 ;     693 						stopDuringCut_Set(true);
                                 		.LINE  "C:\Workspace\e2studio\git\MT01\src\states\ut_state_move.c",693
00000FB1 05rrrrrr             A  		BSR _stopDuringCut_Set
00000FB5                         L378:	; bb462
                                 ;     694 					lstop = true;
                                 		.LINE  "C:\Workspace\e2studio\git\MT01\src\states\ut_state_move.c",694
00000FB5 FBE2rrrrrrrr            		MOV.L #_lstop, R14
00000FBB F8E401                  		MOV.B #01H, [R14]
00000FBE                         L379:	; bb462.split
00000FBE 6601                    		MOV.L #00000000H, R1
                                 ;     695 					warm_stop(0);
                                 		.LINE  "C:\Workspace\e2studio\git\MT01\src\states\ut_state_move.c",695
00000FC0 39rrrr               W  		BSR _warm_stop
00000FC3 38rrrr               W  		BRA L432
00000FC6                         L380:	; bb472
00000FC6 F80600                  		MOV.L #00000000H, [R0]
00000FC9 08                   S  		BRA L382
00000FCA                         L381:	; bb473
00000FCA F80601                  		MOV.L #00000001H, [R0]
00000FCD                         L382:	; bb474
00000FCD EC01                    		MOV.L [R0], R1
00000FCF 6101                    		CMP #00H, R1
00000FD1 21rr                    		BNE L372
00000FD3 38rrrr               W  		BRA L432
00000FD6                         L383:	; bb479
                                 ;     696 				}
                                 ;     697 			}
                                 ;     698 
                                 ;     699 			break;
                                 ;     700 
                                 ;     701 		case KEY_RELEASED:
                                 ;     702 			iif_func_released();
                                 		.LINE  "C:\Workspace\e2studio\git\MT01\src\states\ut_state_move.c",702
00000FD6 FBE2rrrrrrrr            		MOV.L #_iif_func_released, R14
00000FDC ECEE                    		MOV.L [R14], R14
00000FDE 7F1E                    		JSR R14
00000FE0 38rrrr               W  		BRA L432
00000FE3                         L384:	; bb482
                                 ;     703 			break;
                                 ;     704 		/* TODO: operate machine - with other keys */
                                 ;     705 		case MATERIAL_FAILED:
                                 ;     706 			if(!arco)
                                 		.LINE  "C:\Workspace\e2studio\git\MT01\src\states\ut_state_move.c",706
00000FE3 A901                    		MOV.L 10H[R0], R1
00000FE5 6101                    		CMP #00H, R1
00000FE7 21rr                    		BNE L393
00000FE9 2Err                 B  		BRA L394
00000FEB                         L385:	; bb483
                                 ;     707 			{
                                 ;     708 				xTimerStop( swTimers[AUTO_MENU_TIMER], 0 );
                                 		.LINE  "C:\Workspace\e2studio\git\MT01\src\states\ut_state_move.c",708
00000FEB FB12rrrrrrrr            		MOV.L #_swTimers, R1
00000FF1 AA11                    		MOV.L 20H[R1], R1
00000FF3 6040                    		SUB #04H, R0
00000FF5 F80600                  		MOV.L #00000000H, [R0]
00000FF8 6603                    		MOV.L #00000000H, R3
00000FFA 6632                    		MOV.L #00000003H, R2
00000FFC EF34                    		MOV.L R3, R4
00000FFE 05rrrrrr             A  		BSR _xTimerGenericCommand
00001002 6240                    		ADD #04H, R0
00001004                         L386:	; bb483.split
                                 ;     709 				ut_lcd_output_warning("CHECAR SENSOR\nOHMICO\n");
                                 		.LINE  "C:\Workspace\e2studio\git\MT01\src\states\ut_state_move.c",709
00001004 FB12rrrrrrrr            		MOV.L #_L26, R1
0000100A 05rrrrrr             A  		BSR _ut_lcd_output_warning
0000100E                         L387:	; bb483.split54
0000100E FBEE22C008              		MOV.L #0008C022H, R14
                                 ;     710 				TORCH = FALSE;
                                 		.LINE  "C:\Workspace\e2studio\git\MT01\src\states\ut_state_move.c",710
00001013 F0E3                    		BSET #03H, [R14].B
00001015                         L388:	; bb483.split55
                                 ;     711 			//	isCuttingSet(false);
                                 ;     712 				statePrevious = MATERIAL_FAILED;
                                 		.LINE  "C:\Workspace\e2studio\git\MT01\src\states\ut_state_move.c",712
00001015 F90E030000FD            		MOV.L #0FFFD0000H, 0CH[R0]
0000101B                         L389:	; bb483.split56
                                 ;     713 				arco = ARCO_OK_FAILED;
                                 		.LINE  "C:\Workspace\e2studio\git\MT01\src\states\ut_state_move.c",713
0000101B F90E040000FF            		MOV.L #0FFFF0000H, 10H[R0]
00001021                         L390:	; bb483.split57
                                 ;     714 				lstop = false;
                                 		.LINE  "C:\Workspace\e2studio\git\MT01\src\states\ut_state_move.c",714
00001021 FBE2rrrrrrrr            		MOV.L #_lstop, R14
00001027 F8E400                  		MOV.B #00H, [R14]
0000102A                         L391:	; bb483.split58
0000102A 6601                    		MOV.L #00000000H, R1
                                 ;     715 				warm_stop(0);
                                 		.LINE  "C:\Workspace\e2studio\git\MT01\src\states\ut_state_move.c",715
0000102C 39rrrr               W  		BSR _warm_stop
0000102F                         L392:	; bb483.split59
                                 ;     716 				state = 0;
                                 		.LINE  "C:\Workspace\e2studio\git\MT01\src\states\ut_state_move.c",716
0000102F FBE2rrrrrrrr            		MOV.L #_state, R14
00001035 F8E400                  		MOV.B #00H, [R14]
00001038 38rrrr               W  		BRA L432
0000103B                         L393:	; bb492
0000103B F80600                  		MOV.L #00000000H, [R0]
0000103E 08                   S  		BRA L395
0000103F                         L394:	; bb493
0000103F F80601                  		MOV.L #00000001H, [R0]
00001042                         L395:	; bb494
00001042 EC01                    		MOV.L [R0], R1
00001044 6101                    		CMP #00H, R1
00001046 21rr                    		BNE L385
00001048 38rrrr               W  		BRA L432
0000104B                         L396:	; bb500
                                 ;     717 			}
                                 ;     718 			break;
                                 ;     719 		case ARCO_OK_FAILED:
                                 ;     720 			if(!sim){
                                 		.LINE  "C:\Workspace\e2studio\git\MT01\src\states\ut_state_move.c",720
0000104B FBE2rrrrrrrr            		MOV.L #_sim, R14
00001051 58EE                    		MOVU.B [R14], R14
00001053 610E                    		CMP #00H, R14
00001055 21rr                    		BNE L401
00001057 2Err                 B  		BRA L402
00001059                         L397:	; bb501
00001059 6611                    		MOV.L #00000001H, R1
                                 ;     721 				updatePosition(AUTO);
                                 		.LINE  "C:\Workspace\e2studio\git\MT01\src\states\ut_state_move.c",721
0000105B 39rrrr               W  		BSR __$updatePosition
0000105E                         L398:	; bb501.split
                                 ;     722 				gTitle = AUTO;
                                 		.LINE  "C:\Workspace\e2studio\git\MT01\src\states\ut_state_move.c",722
0000105E FBE2rrrrrrrr            		MOV.L #_gTitle, R14
00001064 F8E401                  		MOV.B #01H, [R14]
00001067 2Err                 B  		BRA L404
00001069                         L399:	; bb502
00001069 6631                    		MOV.L #00000003H, R1
                                 ;     723 			}
                                 ;     724 			else{
                                 ;     725 				updatePosition(SIM);
                                 		.LINE  "C:\Workspace\e2studio\git\MT01\src\states\ut_state_move.c",725
0000106B 39rrrr               W  		BSR __$updatePosition
0000106E                         L400:	; bb502.split
                                 ;     726 				gTitle = SIM;
                                 		.LINE  "C:\Workspace\e2studio\git\MT01\src\states\ut_state_move.c",726
0000106E FBE2rrrrrrrr            		MOV.L #_gTitle, R14
00001074 F8E403                  		MOV.B #03H, [R14]
00001077 2Err                 B  		BRA L404
00001079                         L401:	; bb507
00001079 F80600                  		MOV.L #00000000H, [R0]
0000107C 08                   S  		BRA L403
0000107D                         L402:	; bb508
0000107D F80601                  		MOV.L #00000001H, [R0]
00001080                         L403:	; bb509
00001080 EC01                    		MOV.L [R0], R1
00001082 6101                    		CMP #00H, R1
00001084 21rr                    		BNE L397
00001086 2Err                 B  		BRA L399
00001088                         L404:	; bb513
                                 ;     727 			}
                                 ;     728 			xTimerStart( swTimers[AUTO_MENU_TIMER], 0 );
                                 		.LINE  "C:\Workspace\e2studio\git\MT01\src\states\ut_state_move.c",728
00001088 FB12rrrrrrrr            		MOV.L #_swTimers, R1
0000108E AA16                    		MOV.L 20H[R1], R6
00001090 05rrrrrr             A  		BSR _xTaskGetTickCount
00001094 EF13                    		MOV.L R1, R3
00001096 6040                    		SUB #04H, R0
00001098 F80600                  		MOV.L #00000000H, [R0]
0000109B 6604                    		MOV.L #00000000H, R4
0000109D 6612                    		MOV.L #00000001H, R2
0000109F EF61                    		MOV.L R6, R1
000010A1 05rrrrrr             A  		BSR _xTimerGenericCommand
000010A5 6240                    		ADD #04H, R0
000010A7 38rrrr               W  		BRA L432
000010AA                         L405:	; bb518
                                 ;     729 			break;
                                 ;     730 		case ARCO_OK_INIT_FAILED:
                                 ;     731 			if(!arco)
                                 		.LINE  "C:\Workspace\e2studio\git\MT01\src\states\ut_state_move.c",731
000010AA A901                    		MOV.L 10H[R0], R1
000010AC 6101                    		CMP #00H, R1
000010AE 21rr                    		BNE L414
000010B0 2Err                 B  		BRA L415
000010B2                         L406:	; bb519
                                 ;     732 			{
                                 ;     733 				xTimerStop( swTimers[AUTO_MENU_TIMER], 0 );
                                 		.LINE  "C:\Workspace\e2studio\git\MT01\src\states\ut_state_move.c",733
000010B2 FB12rrrrrrrr            		MOV.L #_swTimers, R1
000010B8 AA11                    		MOV.L 20H[R1], R1
000010BA 6040                    		SUB #04H, R0
000010BC F80600                  		MOV.L #00000000H, [R0]
000010BF 6603                    		MOV.L #00000000H, R3
000010C1 6632                    		MOV.L #00000003H, R2
000010C3 EF34                    		MOV.L R3, R4
000010C5 05rrrrrr             A  		BSR _xTimerGenericCommand
000010C9 6240                    		ADD #04H, R0
000010CB                         L407:	; bb519.split
                                 ;     734 				ut_lcd_output_warning("PLASMA N홒\nTRANSFERIDO\n");
                                 		.LINE  "C:\Workspace\e2studio\git\MT01\src\states\ut_state_move.c",734
000010CB FB12rrrrrrrr            		MOV.L #_L27, R1
000010D1 05rrrrrr             A  		BSR _ut_lcd_output_warning
000010D5                         L408:	; bb519.split60
000010D5 FBEE22C008              		MOV.L #0008C022H, R14
                                 ;     735 				TORCH = FALSE;
                                 		.LINE  "C:\Workspace\e2studio\git\MT01\src\states\ut_state_move.c",735
000010DA F0E3                    		BSET #03H, [R14].B
000010DC                         L409:	; bb519.split61
                                 ;     736 				pl_arcook_stop();
                                 		.LINE  "C:\Workspace\e2studio\git\MT01\src\states\ut_state_move.c",736
000010DC 05rrrrrr             A  		BSR _pl_arcook_stop
000010E0                         L410:	; bb519.split62
                                 ;     737 			//	isCuttingSet(false);
                                 ;     738 				arco = ARCO_OK_FAILED;
                                 		.LINE  "C:\Workspace\e2studio\git\MT01\src\states\ut_state_move.c",738
000010E0 F90E040000FF            		MOV.L #0FFFF0000H, 10H[R0]
000010E6                         L411:	; bb519.split63
                                 ;     739 				lstop = false;
                                 		.LINE  "C:\Workspace\e2studio\git\MT01\src\states\ut_state_move.c",739
000010E6 FBE2rrrrrrrr            		MOV.L #_lstop, R14
000010EC F8E400                  		MOV.B #00H, [R14]
000010EF                         L412:	; bb519.split64
000010EF 6601                    		MOV.L #00000000H, R1
                                 ;     740 				warm_stop(0);
                                 		.LINE  "C:\Workspace\e2studio\git\MT01\src\states\ut_state_move.c",740
000010F1 39rrrr               W  		BSR _warm_stop
000010F4                         L413:	; bb519.split65
                                 ;     741 				ltorchBuffer = TRUE;
                                 		.LINE  "C:\Workspace\e2studio\git\MT01\src\states\ut_state_move.c",741
000010F4 FBE2rrrrrrrr            		MOV.L #__$ltorchBuffer, R14
000010FA F8E400                  		MOV.B #00H, [R14]
000010FD 38rrrr               W  		BRA L432
00001100                         L414:	; bb528
00001100 F80600                  		MOV.L #00000000H, [R0]
00001103 08                   S  		BRA L416
00001104                         L415:	; bb529
00001104 F80601                  		MOV.L #00000001H, [R0]
00001107                         L416:	; bb530
00001107 EC01                    		MOV.L [R0], R1
00001109 6101                    		CMP #00H, R1
0000110B 21rr                    		BNE L406
0000110D 38rrrr               W  		BRA L432
00001110                         L417:	; bb536
                                 ;     742 			}
                                 ;     743 			break;
                                 ;     744 
                                 ;     745 		case EMERGENCIA_SIGNAL:
                                 ;     746 			if (!programEnd)
                                 		.LINE  "C:\Workspace\e2studio\git\MT01\src\states\ut_state_move.c",746
00001110 FBE2rrrrrrrr            		MOV.L #_programEnd, R14
00001116 58EE                    		MOVU.B [R14], R14
00001118 610E                    		CMP #00H, R14
0000111A 21rr                    		BNE L429
0000111C 2Err                 B  		BRA L430
0000111E                         L418:	; bb537
                                 ;     747 			{
                                 ;     748 				statePrevious = EMERGENCIA_SIGNAL;
                                 		.LINE  "C:\Workspace\e2studio\git\MT01\src\states\ut_state_move.c",748
0000111E F902030000AAAA          		MOV.L #0AAAA0000H, 0CH[R0]
00001125                         L419:	; bb537.split
                                 ;     749 			//	warm_stop(0);
                                 ;     750 				if(!sim){
                                 		.LINE  "C:\Workspace\e2studio\git\MT01\src\states\ut_state_move.c",750
00001125 FBE2rrrrrrrr            		MOV.L #_sim, R14
0000112B 58EE                    		MOVU.B [R14], R14
0000112D 610E                    		CMP #00H, R14
0000112F 21rr                    		BNE L424
00001131 2Err                 B  		BRA L425
00001133                         L420:	; bb539
00001133 6611                    		MOV.L #00000001H, R1
                                 ;     751 					updatePosition(AUTO);
                                 		.LINE  "C:\Workspace\e2studio\git\MT01\src\states\ut_state_move.c",751
00001135 39rrrr               W  		BSR __$updatePosition
00001138                         L421:	; bb539.split
                                 ;     752 					gTitle = AUTO;
                                 		.LINE  "C:\Workspace\e2studio\git\MT01\src\states\ut_state_move.c",752
00001138 FBE2rrrrrrrr            		MOV.L #_gTitle, R14
0000113E F8E401                  		MOV.B #01H, [R14]
00001141 2Err                 B  		BRA L427
00001143                         L422:	; bb540
00001143 6631                    		MOV.L #00000003H, R1
                                 ;     753 				}
                                 ;     754 				else{
                                 ;     755 					updatePosition(SIM);
                                 		.LINE  "C:\Workspace\e2studio\git\MT01\src\states\ut_state_move.c",755
00001145 39rrrr               W  		BSR __$updatePosition
00001148                         L423:	; bb540.split
                                 ;     756 					gTitle = SIM;
                                 		.LINE  "C:\Workspace\e2studio\git\MT01\src\states\ut_state_move.c",756
00001148 FBE2rrrrrrrr            		MOV.L #_gTitle, R14
0000114E F8E403                  		MOV.B #03H, [R14]
00001151 2Err                 B  		BRA L427
00001153                         L424:	; bb545
00001153 F80600                  		MOV.L #00000000H, [R0]
00001156 08                   S  		BRA L426
00001157                         L425:	; bb546
00001157 F80601                  		MOV.L #00000001H, [R0]
0000115A                         L426:	; bb547
0000115A EC01                    		MOV.L [R0], R1
0000115C 6101                    		CMP #00H, R1
0000115E 21rr                    		BNE L420
00001160 2Err                 B  		BRA L422
00001162                         L427:	; bb551
                                 ;     757 				}
                                 ;     758 				xTimerStart( swTimers[AUTO_MENU_TIMER], 0 );
                                 		.LINE  "C:\Workspace\e2studio\git\MT01\src\states\ut_state_move.c",758
00001162 FB12rrrrrrrr            		MOV.L #_swTimers, R1
00001168 AA16                    		MOV.L 20H[R1], R6
0000116A 05rrrrrr             A  		BSR _xTaskGetTickCount
0000116E EF13                    		MOV.L R1, R3
00001170 6040                    		SUB #04H, R0
00001172 F80600                  		MOV.L #00000000H, [R0]
00001175 6604                    		MOV.L #00000000H, R4
00001177 6612                    		MOV.L #00000001H, R2
00001179 EF61                    		MOV.L R6, R1
0000117B 05rrrrrr             A  		BSR _xTimerGenericCommand
0000117F 6240                    		ADD #04H, R0
00001181 2Err                 B  		BRA L432
00001183                         L428:	; bb555
                                 ;     759 			}
                                 ;     760 			else
                                 ;     761 			{
                                 ;     762 				ut_lcd_output_warning("CORTE AUTOM햀ICO\nFINALIZADO\nPRESSIONE ESC\n");
                                 		.LINE  "C:\Workspace\e2studio\git\MT01\src\states\ut_state_move.c",762
00001183 FB12rrrrrrrr            		MOV.L #_L20, R1
00001189 05rrrrrr             A  		BSR _ut_lcd_output_warning
0000118D 2Err                 B  		BRA L432
0000118F                         L429:	; bb560
0000118F F80600                  		MOV.L #00000000H, [R0]
00001192 08                   S  		BRA L431
00001193                         L430:	; bb561
00001193 F80601                  		MOV.L #00000001H, [R0]
00001196                         L431:	; bb562
00001196 EC01                    		MOV.L [R0], R1
00001198 6101                    		CMP #00H, R1
0000119A 21rr                    		BNE L418
0000119C 2Err                 B  		BRA L428
0000119E                         L432:	; bb570.split
                                 		.LINE  "C:\Workspace\e2studio\git\MT01\src\states\ut_state_move.c",441
0000119E 3E0200                  		MOV.L #00000000H, 08H[R0]
000011A1                         L433:	; bb570.split66
                                 		.LINE  "C:\Workspace\e2studio\git\MT01\src\states\ut_state_move.c",442
000011A1 FBE2rrrrrrrr            		MOV.L #_qKeyboard, R14
000011A7 ECE1                    		MOV.L [R14], R1
000011A9 6604                    		MOV.L #00000000H, R4
000011AB FB36FF                  		MOV.L #0FFFFFFFFH, R3
000011AE 710208                  		ADD #08H, R0, R2
000011B1 05rrrrrr             A  		BSR _xQueueGenericReceive
000011B5                         L434:	; bb570.split67
                                 		.LINE  "C:\Workspace\e2studio\git\MT01\src\states\ut_state_move.c",445
000011B5 A881                    		MOV.L 08H[R0], R1
000011B7 74010000AAAA            		CMP #0AAAA0000H, R1
000011BD 3Arrrr               W  		BEQ L417
000011C0                         L435:	; bb570.split67
000011C0 77010000FC              		CMP #0FFFC0000H, R1
000011C5 3Arrrr               W  		BEQ L405
000011C8                         L436:	; bb570.split67
000011C8 77010000FD              		CMP #0FFFD0000H, R1
000011CD 3Arrrr               W  		BEQ L384
000011D0                         L437:	; bb570.split67
000011D0 77010000FF              		CMP #0FFFF0000H, R1
000011D5 3Arrrr               W  		BEQ L396
000011D8                         L438:	; bb570.split67
000011D8 6101                    		CMP #00H, R1
000011DA 3Arrrr               W  		BEQ L383
000011DD                         L439:	; bb570.split67
000011DD 6111                    		CMP #01H, R1
000011DF 3Arrrr               W  		BEQ L307
000011E2                         L440:	; bb570.split67
000011E2 6141                    		CMP #04H, R1
000011E4 3Arrrr               W  		BEQ L225
000011E7                         L441:	; bb570.split67
000011E7 755110                  		CMP #10H, R1
000011EA 3Arrrr               W  		BEQ L223
000011ED                         L442:	; bb570.split67
000011ED 755120                  		CMP #20H, R1
000011F0 3Arrrr               W  		BEQ L222
000011F3                         L443:	; bb570.split67
000011F3 755140                  		CMP #40H, R1
000011F6 3Arrrr               W  		BEQ L224
000011F9                         L444:	; bb570.split67
000011F9 76010001                		CMP #0100H, R1
000011FD 3Arrrr               W  		BEQ L220
00001200                         L445:	; bb570.split67
00001200 76010002                		CMP #0200H, R1
00001204 3Arrrr               W  		BEQ L221
00001207                         L446:	; bb570.split67
00001207 76010004                		CMP #0400H, R1
0000120B 3Arrrr               W  		BEQ L219
0000120E 2Err                 B  		BRA L432
00001210                         L447:	; bb573
00001210 A809                    		MOV.L 04H[R0], R1
00001212 A189                    		MOV.L R1, 1CH[R0]
                                 ;     763 			}
                                 ;     764 			break;
                                 ;     765 
                                 ;     766 		default: break;
                                 ;     767 		}
                                 ;     768 
                                 ;     769 
                                 ;     770 
                                 ;     771 		/* Update position */
                                 ;     772 	//	updatePosition(NULL);
                                 ;     773 	}
                                 ;     774 
                                 ;     775 	return STATE_MAIN_MENU;
                                 ;     776 }
                                 		.LINE  "C:\Workspace\e2studio\git\MT01\src\states\ut_state_move.c",776
00001214 3F660A                  		RTSD #28H, R6-R6
00001217                         _ut_state_deslocaZero_mode:
                                 		.STACK	_ut_state_deslocaZero_mode=36
                                 ;     777 
                                 ;     778 ut_state ut_state_deslocaZero_mode(ut_context* pContext)
                                 		.LINE  "C:\Workspace\e2studio\git\MT01\src\states\ut_state_move.c",778
00001217 7EA6                    		PUSH.L R6
00001219 7100E8                  		ADD #0FFFFFFE8H, R0
0000121C A109                    		MOV.L R1, 14H[R0]
                                 ;     779 {
                                 ;     780 	uint32_t keyEntry;
                                 ;     781 //	stepper_init();
                                 ;     782 	restart_stepper();
                                 		.LINE  "C:\Workspace\e2studio\git\MT01\src\states\ut_state_move.c",782
0000121E 05rrrrrr             A  		BSR _restart_stepper
00001222                         L449:	; entry.split
                                 ;     783 	cm_request_queue_flush();
                                 		.LINE  "C:\Workspace\e2studio\git\MT01\src\states\ut_state_move.c",783
00001222 05rrrrrr             A  		BSR _cm_request_queue_flush
00001226                         L450:	; entry.split1
00001226 6621                    		MOV.L #00000002H, R1
                                 ;     784 	/* Clear display */
                                 ;     785 	updatePosition(DESLOCA);
                                 		.LINE  "C:\Workspace\e2studio\git\MT01\src\states\ut_state_move.c",785
00001228 39rrrr               W  		BSR __$updatePosition
0000122B                         L451:	; entry.split2
                                 ;     786 	gTitle = DESLOCA;
                                 		.LINE  "C:\Workspace\e2studio\git\MT01\src\states\ut_state_move.c",786
0000122B FBE2rrrrrrrr            		MOV.L #_gTitle, R14
00001231 F8E402                  		MOV.B #02H, [R14]
00001234                         L452:	; entry.split3
00001234 66B3                    		MOV.L #0000000BH, R3
                                 ;     787 	strcpy(gStrDesloca[0],DEFAULT_DESCOLA_TITLE);
                                 		.LINE  "C:\Workspace\e2studio\git\MT01\src\states\ut_state_move.c",787
00001236 FB22rrrrrrrr            		MOV.L #_L28, R2
0000123C FB12rrrrrrrr            		MOV.L #__$gStrDesloca, R1
00001242 7F87                    		SMOVU
00001244                         L453:	; entry.split4
                                 ;     788 	strcpy(gStrDesloca[1],DEFAULT_AVISO_DESLOCA);
                                 		.LINE  "C:\Workspace\e2studio\git\MT01\src\states\ut_state_move.c",788
00001244 FB12rrrrrrrr            		MOV.L #__$gStrDesloca, R1
0000124A 711118                  		ADD #18H, R1
0000124D 66A3                    		MOV.L #0000000AH, R3
0000124F FB22rrrrrrrr            		MOV.L #_L29, R2
00001255 7F87                    		SMOVU
00001257                         L454:	; entry.split5
                                 ;     789 	iif_bind_deslocar();
                                 		.LINE  "C:\Workspace\e2studio\git\MT01\src\states\ut_state_move.c",789
00001257 05rrrrrr             A  		BSR _iif_bind_deslocar
0000125B                         L455:	; entry.split6
                                 ;     790 	if(swTimers[AUTO_MENU_TIMER] == NULL)
                                 		.LINE  "C:\Workspace\e2studio\git\MT01\src\states\ut_state_move.c",790
0000125B FB12rrrrrrrr            		MOV.L #_swTimers, R1
00001261 AA11                    		MOV.L 20H[R1], R1
00001263 6101                    		CMP #00H, R1
00001265 21rr                    		BNE L457
00001267                         L456:	; bb4
00001267 6040                    		SUB #04H, R0
                                 ;     791 	{
                                 ;     792 	swTimers[AUTO_MENU_TIMER] = xTimerCreate
                                 		.LINE  "C:\Workspace\e2studio\git\MT01\src\states\ut_state_move.c",792
00001269 FBE2rrrrrrrr            		MOV.L #__$vTimerUpdateCallback, R14
0000126F E30E                    		MOV.L R14, [R0]
00001271 6684                    		MOV.L #00000008H, R4
00001273 6613                    		MOV.L #00000001H, R3
00001275 7542C8                  		MOV.L #000000C8H, R2
00001278 FB12rrrrrrrr            		MOV.L #_L21, R1
0000127E 05rrrrrr             A  		BSR _xTimerCreate
00001282 6240                    		ADD #04H, R0
00001284 FB22rrrrrrrr            		MOV.L #_swTimers, R2
0000128A A221                    		MOV.L R1, 20H[R2]
0000128C                         L457:	; bb9
                                 ;     793 				   (  /* Just a text name, not used by the RTOS kernel. */
                                 ;     794 					 "Timer Update",
                                 ;     795 					 /* The timer period in ticks, must be greater than 0. */
                                 ;     796 					 ( 200 ),
                                 ;     797 					 /* The timers will auto-reload themselves when they
                                 ;     798 					 expire. */
                                 ;     799 					 pdTRUE,
                                 ;     800 					 /* Assign each timer a unique id equal to its array
                                 ;     801 					 index. */
                                 ;     802 					 ( void * ) AUTO_MENU_TIMER,
                                 ;     803 					 /* Each timer calls the same callback when it expires. */
                                 ;     804 					 vTimerUpdateCallback
                                 ;     805 				   );
                                 ;     806 	}
                                 ;     807 	xTimerStart( swTimers[AUTO_MENU_TIMER], 0 );
                                 		.LINE  "C:\Workspace\e2studio\git\MT01\src\states\ut_state_move.c",807
0000128C FB12rrrrrrrr            		MOV.L #_swTimers, R1
00001292 AA16                    		MOV.L 20H[R1], R6
00001294 05rrrrrr             A  		BSR _xTaskGetTickCount
00001298 EF13                    		MOV.L R1, R3
0000129A 6040                    		SUB #04H, R0
0000129C F80600                  		MOV.L #00000000H, [R0]
0000129F 6604                    		MOV.L #00000000H, R4
000012A1 6612                    		MOV.L #00000001H, R2
000012A3 EF61                    		MOV.L R6, R1
000012A5 05rrrrrr             A  		BSR _xTimerGenericCommand
000012A9 6240                    		ADD #04H, R0
000012AB                         L458:	; bb9.split
                                 ;     808 	xTaskNotifyGive(xCncTaskHandle);
                                 		.LINE  "C:\Workspace\e2studio\git\MT01\src\states\ut_state_move.c",808
000012AB FBE2rrrrrrrr            		MOV.L #_xCncTaskHandle, R14
000012B1 ECE1                    		MOV.L [R14], R1
000012B3 6623                    		MOV.L #00000002H, R3
000012B5 6602                    		MOV.L #00000000H, R2
000012B7 EF24                    		MOV.L R2, R4
000012B9 05rrrrrr             A  		BSR _xTaskGenericNotify
000012BD                         L459:	; bb9.split7
                                 ;     809 	lstop = false;
                                 		.LINE  "C:\Workspace\e2studio\git\MT01\src\states\ut_state_move.c",809
000012BD FBE2rrrrrrrr            		MOV.L #_lstop, R14
000012C3 F8E400                  		MOV.B #00H, [R14]
000012C6 38rrrr               W  		BRA L513
000012C9                         L460:	; bb20
                                 ;     810 	while(true)
                                 ;     811 	{
                                 ;     812 		/* Wait for user interaction */
                                 ;     813 		keyEntry = 0;
                                 ;     814 		xQueueReceive( qKeyboard, &keyEntry, DEFAULT_UPDATE_TIMEOUT);
                                 ;     815 
                                 ;     816 		/* Check which key */
                                 ;     817 		switch (keyEntry)
                                 ;     818 		{
                                 ;     819 		case KEY_DOWN:
                                 ;     820 			iif_func_down();
                                 		.LINE  "C:\Workspace\e2studio\git\MT01\src\states\ut_state_move.c",820
000012C9 FBE2rrrrrrrr            		MOV.L #_iif_func_down, R14
000012CF ECEE                    		MOV.L [R14], R14
000012D1 7F1E                    		JSR R14
000012D3 38rrrr               W  		BRA L513
000012D6                         L461:	; bb22
                                 ;     821 			break;
                                 ;     822 
                                 ;     823 		case KEY_UP:
                                 ;     824 			iif_func_up();
                                 		.LINE  "C:\Workspace\e2studio\git\MT01\src\states\ut_state_move.c",824
000012D6 FBE2rrrrrrrr            		MOV.L #_iif_func_up, R14
000012DC ECEE                    		MOV.L [R14], R14
000012DE 7F1E                    		JSR R14
000012E0 38rrrr               W  		BRA L513
000012E3                         L462:	; bb24
                                 ;     825 			break;
                                 ;     826 
                                 ;     827 		case KEY_RIGHT:
                                 ;     828 			iif_func_right();
                                 		.LINE  "C:\Workspace\e2studio\git\MT01\src\states\ut_state_move.c",828
000012E3 FBE2rrrrrrrr            		MOV.L #_iif_func_right, R14
000012E9 ECEE                    		MOV.L [R14], R14
000012EB 7F1E                    		JSR R14
000012ED 38rrrr               W  		BRA L513
000012F0                         L463:	; bb26
                                 ;     829 			break;
                                 ;     830 
                                 ;     831 		case KEY_LEFT:
                                 ;     832 			iif_func_left();
                                 		.LINE  "C:\Workspace\e2studio\git\MT01\src\states\ut_state_move.c",832
000012F0 FBE2rrrrrrrr            		MOV.L #_iif_func_left, R14
000012F6 ECEE                    		MOV.L [R14], R14
000012F8 7F1E                    		JSR R14
000012FA 38rrrr               W  		BRA L513
000012FD                         L464:	; bb28
                                 ;     833 			break;
                                 ;     834 
                                 ;     835 		case KEY_Z_UP:
                                 ;     836 			iif_func_zup();
                                 		.LINE  "C:\Workspace\e2studio\git\MT01\src\states\ut_state_move.c",836
000012FD FBE2rrrrrrrr            		MOV.L #_iif_func_zup, R14
00001303 ECEE                    		MOV.L [R14], R14
00001305 7F1E                    		JSR R14
00001307 38rrrr               W  		BRA L513
0000130A                         L465:	; bb30
                                 ;     837 			break;
                                 ;     838 
                                 ;     839 
                                 ;     840 		case KEY_Z_DOWN:
                                 ;     841 			iif_func_zdown();
                                 		.LINE  "C:\Workspace\e2studio\git\MT01\src\states\ut_state_move.c",841
0000130A FBE2rrrrrrrr            		MOV.L #_iif_func_zdown, R14
00001310 ECEE                    		MOV.L [R14], R14
00001312 7F1E                    		JSR R14
00001314 38rrrr               W  		BRA L513
00001317                         L466:	; bb33
                                 ;     842 			break;
                                 ;     843 		case KEY_ENTER:
                                 ;     844 				if(lstop)
                                 		.LINE  "C:\Workspace\e2studio\git\MT01\src\states\ut_state_move.c",844
00001317 FBE2rrrrrrrr            		MOV.L #_lstop, R14
0000131D 58EE                    		MOVU.B [R14], R14
0000131F 610E                    		CMP #00H, R14
00001321 3Arrrr               W  		BEQ L513
00001324                         L467:	; bb34
                                 ;     845 				{
                                 ;     846 					lstop = false;
                                 		.LINE  "C:\Workspace\e2studio\git\MT01\src\states\ut_state_move.c",846
00001324 FBE2rrrrrrrr            		MOV.L #_lstop, R14
0000132A F8E400                  		MOV.B #00H, [R14]
0000132D                         L468:	; bb34.split
                                 ;     847 					iif_bind_filerunning_stop(lstop);
                                 		.LINE  "C:\Workspace\e2studio\git\MT01\src\states\ut_state_move.c",847
0000132D FBE2rrrrrrrr            		MOV.L #_lstop, R14
00001333 58E1                    		MOVU.B [R14], R1
00001335 05rrrrrr             A  		BSR _iif_bind_filerunning_stop
00001339                         L469:	; bb34.split8
00001339 66B3                    		MOV.L #0000000BH, R3
                                 ;     848 					strcpy(gStrDesloca[0],DEFAULT_DESCOLA_TITLE);
                                 		.LINE  "C:\Workspace\e2studio\git\MT01\src\states\ut_state_move.c",848
0000133B FB22rrrrrrrr            		MOV.L #_L28, R2
00001341 FB12rrrrrrrr            		MOV.L #__$gStrDesloca, R1
00001347 7F87                    		SMOVU
00001349                         L470:	; bb34.split9
                                 ;     849 					strcpy(gStrDesloca[1],DEFAULT_AVISO_DESLOCA);
                                 		.LINE  "C:\Workspace\e2studio\git\MT01\src\states\ut_state_move.c",849
00001349 FB12rrrrrrrr            		MOV.L #__$gStrDesloca, R1
0000134F 711118                  		ADD #18H, R1
00001352 66A3                    		MOV.L #0000000AH, R3
00001354 FB22rrrrrrrr            		MOV.L #_L29, R2
0000135A 7F87                    		SMOVU
0000135C                         L471:	; bb34.split10
                                 ;     850 //					if(isDwell == true)
                                 ;     851 //					{
                                 ;     852 //						st_command_dwell(DWELL_RESTART);
                                 ;     853 //					}
                                 ;     854 					cm_request_cycle_start();
                                 		.LINE  "C:\Workspace\e2studio\git\MT01\src\states\ut_state_move.c",854
0000135C 05rrrrrr             A  		BSR _cm_request_cycle_start
00001360 38rrrr               W  		BRA L513
00001363                         L472:	; bb43
                                 ;     855 				}
                                 ;     856 				break;
                                 ;     857 		case KEY_ESC:
                                 ;     858 //			xTimerStop( swTimers[AUTO_MENU_TIMER], 0 );
                                 ;     859 //			iif_bind_idle();
                                 ;     860 //			intepreterRunning = false;
                                 ;     861 //			return (ut_state)pContext->value[0];
                                 ;     862 			if (cm.machine_state == MACHINE_PROGRAM_END || lstop){
                                 		.LINE  "C:\Workspace\e2studio\git\MT01\src\states\ut_state_move.c",862
00001363 FBE2rrrrrrrr            		MOV.L #_cm, R14
00001369 5AEE1D02                		MOVU.B 021DH[R14], R14
0000136D 614E                    		CMP #04H, R14
0000136F 3Arrrr               W  		BEQ L500
00001372 38rrrr               W  		BRA L499
00001375                         L473:	; bb44
                                 ;     863 				uint32_t *value = configsVar->value;
                                 		.LINE  "C:\Workspace\e2studio\git\MT01\src\states\ut_state_move.c",863
00001375 FBE2rrrrrrrr            		MOV.L #_configsVar, R14
0000137B ECE1                    		MOV.L [R14], R1
0000137D E5100103                		MOV.L 04H[R1], 0CH[R0]
00001381                         L474:	; bb44.split
                                 ;     864 				xTimerStop( swTimers[AUTO_MENU_TIMER], 0 );
                                 		.LINE  "C:\Workspace\e2studio\git\MT01\src\states\ut_state_move.c",864
00001381 FB12rrrrrrrr            		MOV.L #_swTimers, R1
00001387 AA11                    		MOV.L 20H[R1], R1
00001389 6040                    		SUB #04H, R0
0000138B F80600                  		MOV.L #00000000H, [R0]
0000138E 6603                    		MOV.L #00000000H, R3
00001390 6632                    		MOV.L #00000003H, R2
00001392 EF34                    		MOV.L R3, R4
00001394 05rrrrrr             A  		BSR _xTimerGenericCommand
00001398 6240                    		ADD #04H, R0
0000139A                         L475:	; bb44.split11
                                 ;     865 				if(cm.machine_state != MACHINE_PROGRAM_END){
                                 		.LINE  "C:\Workspace\e2studio\git\MT01\src\states\ut_state_move.c",865
0000139A FBE2rrrrrrrr            		MOV.L #_cm, R14
000013A0 5AEE1D02                		MOVU.B 021DH[R14], R14
000013A4 614E                    		CMP #04H, R14
000013A6 20rr                    		BEQ L486
000013A8                         L476:	; bb52
                                 ;     866 					configsVar->type = UT_CONFIG_BOOL;
                                 		.LINE  "C:\Workspace\e2studio\git\MT01\src\states\ut_state_move.c",866
000013A8 FBE2rrrrrrrr            		MOV.L #_configsVar, R14
000013AE ECEE                    		MOV.L [R14], R14
000013B0 F8E601                  		MOV.L #00000001H, [R14]
000013B3                         L477:	; bb52.split
                                 ;     867 					configsVar->name = "DESEJA SAIR?";
                                 		.LINE  "C:\Workspace\e2studio\git\MT01\src\states\ut_state_move.c",867
000013B3 FBE2rrrrrrrr            		MOV.L #_configsVar, R14
000013B9 ECE1                    		MOV.L [R14], R1
000013BB FB22rrrrrrrr            		MOV.L #_L25, R2
000013C1 A19A                    		MOV.L R2, 1CH[R1]
000013C3                         L478:	; bb52.split12
                                 ;     868 					ut_state_config_var(pContext);
                                 		.LINE  "C:\Workspace\e2studio\git\MT01\src\states\ut_state_move.c",868
000013C3 A909                    		MOV.L 14H[R0], R1
000013C5 05rrrrrr             A  		BSR _ut_state_config_var
000013C9                         L479:	; bb52.split13
                                 ;     869 					if (*value)
                                 		.LINE  "C:\Workspace\e2studio\git\MT01\src\states\ut_state_move.c",869
000013C9 A889                    		MOV.L 0CH[R0], R1
000013CB EC1E                    		MOV.L [R1], R14
000013CD 610E                    		CMP #00H, R14
000013CF 20rr                    		BEQ L485
000013D1                         L480:	; bb60
                                 ;     870 					{
                                 ;     871 //						if(isDwell == true)
                                 ;     872 //						{
                                 ;     873 //							st_command_dwell(DWELL_EXIT);
                                 ;     874 //						}
                                 ;     875 						cm_request_feedhold();
                                 		.LINE  "C:\Workspace\e2studio\git\MT01\src\states\ut_state_move.c",875
000013D1 05rrrrrr             A  		BSR _cm_request_feedhold
000013D5                         L481:	; bb60.split
                                 ;     876 						cm_request_queue_flush();
                                 		.LINE  "C:\Workspace\e2studio\git\MT01\src\states\ut_state_move.c",876
000013D5 05rrrrrr             A  		BSR _cm_request_queue_flush
000013D9                         L482:	; bb60.split14
                                 ;     877 						macro_func_ptr = command_idle;
                                 		.LINE  "C:\Workspace\e2studio\git\MT01\src\states\ut_state_move.c",877
000013D9 FBE2rrrrrrrr            		MOV.L #_macro_func_ptr, R14
000013DF FBF2rrrrrrrr            		MOV.L #_command_idle, R15
000013E5 E3EF                    		MOV.L R15, [R14]
000013E7                         L483:	; bb60.split15
                                 ;     878 						intepreterRunning = false;
                                 		.LINE  "C:\Workspace\e2studio\git\MT01\src\states\ut_state_move.c",878
000013E7 FBE2rrrrrrrr            		MOV.L #_intepreterRunning, R14
000013ED F8E400                  		MOV.B #00H, [R14]
000013F0                         L484:	; bb60.split16
                                 ;     879 						return (ut_state)pContext->value[0];
                                 		.LINE  "C:\Workspace\e2studio\git\MT01\src\states\ut_state_move.c",879
000013F0 A909                    		MOV.L 14H[R0], R1
000013F2 B091                    		MOVU.B 02H[R1], R1
000013F4 A009                    		MOV.L R1, 04H[R0]
000013F6 38rrrr               W  		BRA L525
000013F9                         L485:	; bb68
                                 ;     880 					}
                                 ;     881 					else
                                 ;     882 					{
                                 ;     883 						xTimerStart( swTimers[AUTO_MENU_TIMER], 0 );
                                 		.LINE  "C:\Workspace\e2studio\git\MT01\src\states\ut_state_move.c",883
000013F9 FB12rrrrrrrr            		MOV.L #_swTimers, R1
000013FF AA16                    		MOV.L 20H[R1], R6
00001401 05rrrrrr             A  		BSR _xTaskGetTickCount
00001405 EF13                    		MOV.L R1, R3
00001407 6040                    		SUB #04H, R0
00001409 F80600                  		MOV.L #00000000H, [R0]
0000140C 6604                    		MOV.L #00000000H, R4
0000140E 6612                    		MOV.L #00000001H, R2
00001410 EF61                    		MOV.L R6, R1
00001412 05rrrrrr             A  		BSR _xTimerGenericCommand
00001416 6240                    		ADD #04H, R0
00001418                         L486:	; bb84
                                 ;     884 					}
                                 ;     885 				}
                                 ;     886 				if(cm.machine_state == MACHINE_PROGRAM_END){
                                 		.LINE  "C:\Workspace\e2studio\git\MT01\src\states\ut_state_move.c",886
00001418 FBE2rrrrrrrr            		MOV.L #_cm, R14
0000141E 5AEE1D02                		MOVU.B 021DH[R14], R14
00001422 614E                    		CMP #04H, R14
00001424 21rr                    		BNE L503
00001426                         L487:	; bb85
                                 ;     887 					iif_bind_idle();
                                 		.LINE  "C:\Workspace\e2studio\git\MT01\src\states\ut_state_move.c",887
00001426 05rrrrrr             A  		BSR _iif_bind_idle
0000142A                         L488:	; bb85.split
                                 ;     888 					ut_lcd_output_warning("COMANDO\nFINALIZADO\n");
                                 		.LINE  "C:\Workspace\e2studio\git\MT01\src\states\ut_state_move.c",888
0000142A FB12rrrrrrrr            		MOV.L #_L30, R1
00001430 05rrrrrr             A  		BSR _ut_lcd_output_warning
00001434                         L489:	; bb85.split17
                                 ;     889 					keyEntry = 0;
                                 		.LINE  "C:\Workspace\e2studio\git\MT01\src\states\ut_state_move.c",889
00001434 3E0200                  		MOV.L #00000000H, 08H[R0]
00001437 2Err                 B  		BRA L491
00001439                         L490:	; bb86
                                 ;     890 					while(keyEntry != KEY_ENTER && keyEntry != KEY_ESC){
                                 ;     891 						xQueueReceive( qKeyboard, &keyEntry, portMAX_DELAY );
                                 		.LINE  "C:\Workspace\e2studio\git\MT01\src\states\ut_state_move.c",891
00001439 FBE2rrrrrrrr            		MOV.L #_qKeyboard, R14
0000143F ECE1                    		MOV.L [R14], R1
00001441 6604                    		MOV.L #00000000H, R4
00001443 FB36FF                  		MOV.L #0FFFFFFFFH, R3
00001446 710208                  		ADD #08H, R0, R2
00001449 05rrrrrr             A  		BSR _xQueueGenericReceive
0000144D                         L491:	; bb90
                                 		.LINE  "C:\Workspace\e2studio\git\MT01\src\states\ut_state_move.c",890
0000144D A881                    		MOV.L 08H[R0], R1
0000144F 6141                    		CMP #04H, R1
00001451 10                   S  		BEQ L494
00001452                         L492:	; bb94
00001452 A881                    		MOV.L 08H[R0], R1
00001454 6111                    		CMP #01H, R1
00001456 10                   S  		BEQ L494
00001457                         L493:	; bb98
00001457 F80601                  		MOV.L #00000001H, [R0]
0000145A 08                   S  		BRA L495
0000145B                         L494:	; bb99
0000145B F80600                  		MOV.L #00000000H, [R0]
0000145E                         L495:	; bb100
0000145E EC01                    		MOV.L [R0], R1
00001460 6101                    		CMP #00H, R1
00001462 21rr                    		BNE L490
00001464                         L496:	; bb105
                                 ;     892 					}
                                 ;     893 					macro_func_ptr = command_idle;
                                 		.LINE  "C:\Workspace\e2studio\git\MT01\src\states\ut_state_move.c",893
00001464 FBE2rrrrrrrr            		MOV.L #_macro_func_ptr, R14
0000146A FBF2rrrrrrrr            		MOV.L #_command_idle, R15
00001470 E3EF                    		MOV.L R15, [R14]
00001472                         L497:	; bb105.split
                                 ;     894 					intepreterRunning = false;
                                 		.LINE  "C:\Workspace\e2studio\git\MT01\src\states\ut_state_move.c",894
00001472 FBE2rrrrrrrr            		MOV.L #_intepreterRunning, R14
00001478 F8E400                  		MOV.B #00H, [R14]
0000147B                         L498:	; bb105.split18
                                 ;     895 					return (ut_state)pContext->value[0];
                                 		.LINE  "C:\Workspace\e2studio\git\MT01\src\states\ut_state_move.c",895
0000147B A909                    		MOV.L 14H[R0], R1
0000147D B091                    		MOVU.B 02H[R1], R1
0000147F A009                    		MOV.L R1, 04H[R0]
00001481 38rrrr               W  		BRA L525
00001484                         L499:	; bb123
00001484 FBE2rrrrrrrr            		MOV.L #_lstop, R14
0000148A 58EE                    		MOVU.B [R14], R14
0000148C 610E                    		CMP #00H, R14
0000148E 10                   S  		BEQ L501
0000148F                         L500:	; bb128
0000148F F80601                  		MOV.L #00000001H, [R0]
00001492 08                   S  		BRA L502
00001493                         L501:	; bb129
00001493 F80600                  		MOV.L #00000000H, [R0]
00001496                         L502:	; bb130
00001496 EC01                    		MOV.L [R0], R1
00001498 6101                    		CMP #00H, R1
0000149A 3Brrrr               W  		BNE L473
0000149D                         L503:	; bb136
                                 ;     896 				}
                                 ;     897 			}
                                 ;     898 			if(!lstop){
                                 		.LINE  "C:\Workspace\e2studio\git\MT01\src\states\ut_state_move.c",898
0000149D FBE2rrrrrrrr            		MOV.L #_lstop, R14
000014A3 58EE                    		MOVU.B [R14], R14
000014A5 610E                    		CMP #00H, R14
000014A7 21rr                    		BNE L508
000014A9 2Err                 B  		BRA L509
000014AB                         L504:	; bb137
                                 ;     899 				lstop = true;
                                 		.LINE  "C:\Workspace\e2studio\git\MT01\src\states\ut_state_move.c",899
000014AB FBE2rrrrrrrr            		MOV.L #_lstop, R14
000014B1 F8E401                  		MOV.B #01H, [R14]
000014B4                         L505:	; bb137.split
000014B4 754310                  		MOV.L #00000010H, R3
                                 ;     900 				strcpy(gStrDesloca[0],STOP_AUTO_TITLE);
                                 		.LINE  "C:\Workspace\e2studio\git\MT01\src\states\ut_state_move.c",900
000014B7 FB22rrrrrrrr            		MOV.L #_L31, R2
000014BD FB12rrrrrrrr            		MOV.L #__$gStrDesloca, R1
000014C3 7F87                    		SMOVU
000014C5                         L506:	; bb137.split19
                                 ;     901 				strcpy(gStrDesloca[1],DEFAULT_AVISO_DESLOCA);
                                 		.LINE  "C:\Workspace\e2studio\git\MT01\src\states\ut_state_move.c",901
000014C5 FB12rrrrrrrr            		MOV.L #__$gStrDesloca, R1
000014CB 711118                  		ADD #18H, R1
000014CE 66A3                    		MOV.L #0000000AH, R3
000014D0 FB22rrrrrrrr            		MOV.L #_L29, R2
000014D6 7F87                    		SMOVU
000014D8                         L507:	; bb137.split20
000014D8 6601                    		MOV.L #00000000H, R1
                                 ;     902 				warm_stop(0);
                                 		.LINE  "C:\Workspace\e2studio\git\MT01\src\states\ut_state_move.c",902
000014DA 39rrrr               W  		BSR _warm_stop
000014DD 2Err                 B  		BRA L513
000014DF                         L508:	; bb142
000014DF F80600                  		MOV.L #00000000H, [R0]
000014E2 08                   S  		BRA L510
000014E3                         L509:	; bb143
000014E3 F80601                  		MOV.L #00000001H, [R0]
000014E6                         L510:	; bb144
000014E6 EC01                    		MOV.L [R0], R1
000014E8 6101                    		CMP #00H, R1
000014EA 21rr                    		BNE L504
000014EC 2Err                 B  		BRA L513
000014EE                         L511:	; bb149
                                 ;     903 			}
                                 ;     904 			break;
                                 ;     905 
                                 ;     906 		case KEY_RELEASED:
                                 ;     907 			iif_func_released();
                                 		.LINE  "C:\Workspace\e2studio\git\MT01\src\states\ut_state_move.c",907
000014EE FBE2rrrrrrrr            		MOV.L #_iif_func_released, R14
000014F4 ECEE                    		MOV.L [R14], R14
000014F6 7F1E                    		JSR R14
000014F8 2Err                 B  		BRA L513
000014FA                         L512:	; bb151
                                 ;     908 			break;
                                 ;     909 
                                 ;     910 		case EMERGENCIA_SIGNAL:
                                 ;     911 			xTimerStart( swTimers[AUTO_MENU_TIMER], 0 );
                                 		.LINE  "C:\Workspace\e2studio\git\MT01\src\states\ut_state_move.c",911
000014FA FB12rrrrrrrr            		MOV.L #_swTimers, R1
00001500 AA16                    		MOV.L 20H[R1], R6
00001502 05rrrrrr             A  		BSR _xTaskGetTickCount
00001506 EF13                    		MOV.L R1, R3
00001508 6040                    		SUB #04H, R0
0000150A F80600                  		MOV.L #00000000H, [R0]
0000150D 6604                    		MOV.L #00000000H, R4
0000150F 6612                    		MOV.L #00000001H, R2
00001511 EF61                    		MOV.L R6, R1
00001513 05rrrrrr             A  		BSR _xTimerGenericCommand
00001517 6240                    		ADD #04H, R0
00001519                         L513:	; bb157.split
                                 		.LINE  "C:\Workspace\e2studio\git\MT01\src\states\ut_state_move.c",813
00001519 3E0200                  		MOV.L #00000000H, 08H[R0]
0000151C                         L514:	; bb157.split21
                                 		.LINE  "C:\Workspace\e2studio\git\MT01\src\states\ut_state_move.c",814
0000151C FBE2rrrrrrrr            		MOV.L #_qKeyboard, R14
00001522 ECE1                    		MOV.L [R14], R1
00001524 6604                    		MOV.L #00000000H, R4
00001526 FB36FF                  		MOV.L #0FFFFFFFFH, R3
00001529 710208                  		ADD #08H, R0, R2
0000152C 05rrrrrr             A  		BSR _xQueueGenericReceive
00001530                         L515:	; bb157.split22
                                 		.LINE  "C:\Workspace\e2studio\git\MT01\src\states\ut_state_move.c",817
00001530 A881                    		MOV.L 08H[R0], R1
00001532 74010000AAAA            		CMP #0AAAA0000H, R1
00001538 20rr                    		BEQ L512
0000153A                         L516:	; bb157.split22
0000153A 6101                    		CMP #00H, R1
0000153C 20rr                    		BEQ L511
0000153E                         L517:	; bb157.split22
0000153E 6111                    		CMP #01H, R1
00001540 3Arrrr               W  		BEQ L472
00001543                         L518:	; bb157.split22
00001543 6141                    		CMP #04H, R1
00001545 3Arrrr               W  		BEQ L466
00001548                         L519:	; bb157.split22
00001548 755110                  		CMP #10H, R1
0000154B 3Arrrr               W  		BEQ L464
0000154E                         L520:	; bb157.split22
0000154E 755120                  		CMP #20H, R1
00001551 3Arrrr               W  		BEQ L463
00001554                         L521:	; bb157.split22
00001554 755140                  		CMP #40H, R1
00001557 3Arrrr               W  		BEQ L465
0000155A                         L522:	; bb157.split22
0000155A 76010001                		CMP #0100H, R1
0000155E 3Arrrr               W  		BEQ L461
00001561                         L523:	; bb157.split22
00001561 76010002                		CMP #0200H, R1
00001565 3Arrrr               W  		BEQ L462
00001568                         L524:	; bb157.split22
00001568 76010004                		CMP #0400H, R1
0000156C 3Arrrr               W  		BEQ L460
0000156F 2Err                 B  		BRA L513
00001571                         L525:	; bb160
00001571 A809                    		MOV.L 04H[R0], R1
00001573 A101                    		MOV.L R1, 10H[R0]
                                 ;     912 			break;
                                 ;     913 
                                 ;     914 		default:
                                 ;     915 			break;
                                 ;     916 		}
                                 ;     917 
                                 ;     918 		/* Update position */
                                 ;     919 	//	updatePosition(NULL);
                                 ;     920 	}
                                 ;     921 
                                 ;     922 	return STATE_MAIN_MENU;
                                 ;     923 }
                                 		.LINE  "C:\Workspace\e2studio\git\MT01\src\states\ut_state_move.c",923
00001575 3F6607                  		RTSD #1CH, R6-R6
00001578                         __$vTimerUpdateCallback:
                                 		.STACK	__$vTimerUpdateCallback=12
                                 ;     924 
                                 ;     925 static void vTimerUpdateCallback( TimerHandle_t pxTimer )
                                 		.LINE  "C:\Workspace\e2studio\git\MT01\src\states\ut_state_move.c",925
00001578 6080                    		SUB #08H, R0
0000157A A009                    		MOV.L R1, 04H[R0]
                                 ;     926 {
                                 ;     927 	if(gTitle == AUTO || gTitle == SIM){
                                 		.LINE  "C:\Workspace\e2studio\git\MT01\src\states\ut_state_move.c",927
0000157C FBE2rrrrrrrr            		MOV.L #_gTitle, R14
00001582 58EE                    		MOVU.B [R14], R14
00001584 611E                    		CMP #01H, R14
00001586 20rr                    		BEQ L529
00001588 2Err                 B  		BRA L528
0000158A                         L527:	; bb2
                                 ;     928 		iif_func_esc();
                                 		.LINE  "C:\Workspace\e2studio\git\MT01\src\states\ut_state_move.c",928
0000158A FBE2rrrrrrrr            		MOV.L #_iif_func_esc, R14
00001590 ECEE                    		MOV.L [R14], R14
00001592 7F1E                    		JSR R14
00001594 2Err                 B  		BRA L532
00001596                         L528:	; bb7
00001596 FBE2rrrrrrrr            		MOV.L #_gTitle, R14
0000159C 58EE                    		MOVU.B [R14], R14
0000159E 613E                    		CMP #03H, R14
000015A0 18                   S  		BNE L530
000015A1                         L529:	; bb12
000015A1 F80601                  		MOV.L #00000001H, [R0]
000015A4 08                   S  		BRA L531
000015A5                         L530:	; bb13
000015A5 F80600                  		MOV.L #00000000H, [R0]
000015A8                         L531:	; bb14
000015A8 EC01                    		MOV.L [R0], R1
000015AA 6101                    		CMP #00H, R1
000015AC 21rr                    		BNE L527
000015AE                         L532:	; bb18
                                 ;     929 	}
                                 ;     930 	updatePosition(gTitle);
                                 		.LINE  "C:\Workspace\e2studio\git\MT01\src\states\ut_state_move.c",930
000015AE FBE2rrrrrrrr            		MOV.L #_gTitle, R14
000015B4 58E1                    		MOVU.B [R14], R1
000015B6 39rrrr               W  		BSR __$updatePosition
000015B9 6702                    		RTSD #08H
000015BB                         _warm_stop:
                                 		.STACK	_warm_stop=8
                                 ;     931 }
                                 ;     932 
                                 ;     933 void warm_stop(uint8_t flag)
                                 		.LINE  "C:\Workspace\e2studio\git\MT01\src\states\ut_state_move.c",933
000015BB 6040                    		SUB #04H, R0
000015BD 8089                    		MOV.B R1, 03H[R0]
                                 ;     934 {
                                 ;     935 
                                 ;     936 	//iif_bind_filerunning_stop(lstop);
                                 ;     937 	cm_request_feedhold();
                                 		.LINE  "C:\Workspace\e2studio\git\MT01\src\states\ut_state_move.c",937
000015BF 05rrrrrr             A  		BSR _cm_request_feedhold
000015C3                         L534:	; entry.split
                                 ;     938 	if(gTitle == AUTO){
                                 		.LINE  "C:\Workspace\e2studio\git\MT01\src\states\ut_state_move.c",938
000015C3 FBE2rrrrrrrr            		MOV.L #_gTitle, R14
000015C9 58EE                    		MOVU.B [R14], R14
000015CB 611E                    		CMP #01H, R14
000015CD 21rr                    		BNE L537
000015CF                         L535:	; bb2
000015CF 754310                  		MOV.L #00000010H, R3
                                 ;     939 		strcpy(gStrAuto[0],STOP_AUTO_TITLE);
                                 		.LINE  "C:\Workspace\e2studio\git\MT01\src\states\ut_state_move.c",939
000015D2 FB22rrrrrrrr            		MOV.L #_L31, R2
000015D8 FB12rrrrrrrr            		MOV.L #__$gStrAuto, R1
000015DE 7F87                    		SMOVU
000015E0                         L536:	; bb2.split
                                 ;     940 		strcpy(gStrAuto[1],STOP_AVISO_AUTO);
                                 		.LINE  "C:\Workspace\e2studio\git\MT01\src\states\ut_state_move.c",940
000015E0 FBE2rrrrrrrr            		MOV.L #__$gStrAuto, R14
000015E6 FBF2rrrrrrrr            		MOV.L #_L10, R15
000015EC C4FE18                  		MOV.B [R15], 18H[R14]
000015EF 2Err                 B  		BRA L540
000015F1                         L537:	; bb4
                                 ;     941 	}else if(gTitle == SIM){
                                 		.LINE  "C:\Workspace\e2studio\git\MT01\src\states\ut_state_move.c",941
000015F1 FBE2rrrrrrrr            		MOV.L #_gTitle, R14
000015F7 58EE                    		MOVU.B [R14], R14
000015F9 613E                    		CMP #03H, R14
000015FB 21rr                    		BNE L540
000015FD                         L538:	; bb5
000015FD 754310                  		MOV.L #00000010H, R3
                                 ;     942 		strcpy(gStrSim[0],STOP_SIM_TITLE);
                                 		.LINE  "C:\Workspace\e2studio\git\MT01\src\states\ut_state_move.c",942
00001600 FB22rrrrrrrr            		MOV.L #_L31, R2
00001606 FB12rrrrrrrr            		MOV.L #__$gStrSim, R1
0000160C 7F87                    		SMOVU
0000160E                         L539:	; bb5.split
                                 ;     943 		strcpy(gStrSim[1],STOP_AVISO_SIM);
                                 		.LINE  "C:\Workspace\e2studio\git\MT01\src\states\ut_state_move.c",943
0000160E FBE2rrrrrrrr            		MOV.L #__$gStrSim, R14
00001614 FBF2rrrrrrrr            		MOV.L #_L10, R15
0000161A C4FE1C                  		MOV.B [R15], 1CH[R14]
0000161D                         L540:	; bb15
                                 ;     944 	}
                                 ;     945 	pl_arcook_stop();
                                 		.LINE  "C:\Workspace\e2studio\git\MT01\src\states\ut_state_move.c",945
0000161D 05rrrrrr             A  		BSR _pl_arcook_stop
00001621                         L541:	; bb15.split
                                 ;     946 	if(isDwell == true)
                                 		.LINE  "C:\Workspace\e2studio\git\MT01\src\states\ut_state_move.c",946
00001621 FBE2rrrrrrrr            		MOV.L #_isDwell, R14
00001627 58EE                    		MOVU.B [R14], R14
00001629 611E                    		CMP #01H, R14
0000162B 18                   S  		BNE L543
0000162C                         L542:	; bb17
0000162C 6611                    		MOV.L #00000001H, R1
                                 ;     947 	{
                                 ;     948 		st_command_dwell(DWELL_PAUSE);
                                 		.LINE  "C:\Workspace\e2studio\git\MT01\src\states\ut_state_move.c",948
0000162E 05rrrrrr             A  		BSR _st_command_dwell
00001632                         L543:	; bb24
                                 ;     949 	}
                                 ;     950 	if (flag != 2)
                                 		.LINE  "C:\Workspace\e2studio\git\MT01\src\states\ut_state_move.c",950
00001632 B089                    		MOVU.B 03H[R0], R1
00001634 6121                    		CMP #02H, R1
00001636 21rr                    		BNE L546
00001638 2Err                 B  		BRA L547
0000163A                         L544:	; bb26
0000163A FBEE308008              		MOV.L #00088030H, R14
                                 ;     951 	{
                                 ;     952 		while(cm.feedhold_requested == true)
                                 ;     953 		{
                                 ;     954 			WDT_FEED
                                 		.LINE  "C:\Workspace\e2studio\git\MT01\src\states\ut_state_move.c",954
0000163F F8E400                  		MOV.B #00H, [R14]
00001642                         L545:	; bb26.split
00001642 FBEE308008              		MOV.L #00088030H, R14
00001647 F8E4FF                  		MOV.B #0FFH, [R14]
0000164A                         L546:	; bb27
                                 		.LINE  "C:\Workspace\e2studio\git\MT01\src\states\ut_state_move.c",952
0000164A FBE2rrrrrrrr            		MOV.L #_cm, R14
00001650 5AEE4702                		MOVU.B 0247H[R14], R14
00001654 611E                    		CMP #01H, R14
00001656 20rr                    		BEQ L544
00001658                         L547:	; bb40
                                 ;     955 		}
                                 ;     956 	}
                                 ;     957 	if (flag != 1)
                                 		.LINE  "C:\Workspace\e2studio\git\MT01\src\states\ut_state_move.c",957
00001658 B089                    		MOVU.B 03H[R0], R1
0000165A 6111                    		CMP #01H, R1
0000165C 20rr                    		BEQ L550
0000165E                         L548:	; bb41
0000165E FBEE22C008              		MOV.L #0008C022H, R14
                                 ;     958 	{
                                 ;     959 		ltorchBuffer = TORCH;
                                 		.LINE  "C:\Workspace\e2studio\git\MT01\src\states\ut_state_move.c",959
00001663 58EE                    		MOVU.B [R14], R14
00001665 683E                    		SHLR #03H, R14
00001667 7C0E                    		BTST #00H, R14
00001669 FBE2rrrrrrrr            		MOV.L #__$ltorchBuffer, R14
0000166F FCD0E1                  		SCNE.B [R14]
00001672                         L549:	; bb41.split
00001672 FBEE22C008              		MOV.L #0008C022H, R14
                                 ;     960 		TORCH = FALSE;
                                 		.LINE  "C:\Workspace\e2studio\git\MT01\src\states\ut_state_move.c",960
00001677 F0E3                    		BSET #03H, [R14].B
00001679 6701                    		RTSD #04H
0000167B                         L550:	; return
                                 ;     961 	}
                                 ;     962 }
                                 		.LINE  "C:\Workspace\e2studio\git\MT01\src\states\ut_state_move.c",962
0000167B 6701                    		RTSD #04H
                                 		.SECTION	L,ROMDATA,ALIGN=4
00000000                         _L10:
00000000 00                      		.byte	0
00000001                         _L11:
00000001 56454C2E                		.byte	"VEL.: %.0f mm/min"
         3A20252E                
         3066206D                
         6D2F6D69                
         6E                      
00000012 00                      		.byte	00H
00000013                         _L12:
00000013 414F4B                  		.byte	"AOK"
00000016 00                      		.byte	00H
00000017                         _L13:
00000017 4F48                    		.byte	"OH"
00000019 00                      		.byte	00H
0000001A                         _L14:
0000001A 54484320                		.byte	"THC SET: %.0f V"
         5345543A                
         20252E30                
         662056                  
00000029 00                      		.byte	00H
0000002A                         _L15:
0000002A 54484320                		.byte	"THC REAL: %.0f V"
         5245414C                
         3A20252E                
         30662056                
0000003A 00                      		.byte	00H
0000003B                         _L16:
0000003B 4C494E48                		.byte	"LINHA: %d"
         413A2025                
         64                      
00000044 00                      		.byte	00H
00000045                         _L17:
00000045 54484320                		.byte	"THC REAL: --- V"
         5245414C                
         3A202D2D                
         2D2056                  
00000054 00                      		.byte	00H
00000055                         _L18:
00000055 543A2025                		.byte	"T: %.0f s"
         2E306620                
         73                      
0000005E 00                      		.byte	00H
0000005F                         _L19:
0000005F 25342E32                		.byte	"%4.2f mm"
         66206D6D                
00000067 00                      		.byte	00H
00000068                         _L20:
00000068 434F5254                		.byte	"CORTE AUTOM"
         45204155                
         544F4D                  
00000073 C1                      		.byte	0C1H
00000074 5449434F                		.byte	"TICO"
00000078 0A                      		.byte	0AH
00000079 46494E41                		.byte	"FINALIZADO"
         4C495A41                
         444F                    
00000083 0A                      		.byte	0AH
00000084 50524553                		.byte	"PRESSIONE ESC"
         53494F4E                
         45204553                
         43                      
00000091 0A00                    		.byte	0AH,00H
00000093                         _L21:
00000093 54696D65                		.byte	"Timer Update"
         72205570                
         64617465                
0000009F 00                      		.byte	00H
000000A0                         _L22:
000000A0 4D4F444F                		.byte	"MODO AUTOM"
         20415554                
         4F4D                    
000000AA C1                      		.byte	0C1H
000000AB 5449434F                		.byte	"TICO"
000000AF 00                      		.byte	00H
000000B0                         _L23:
000000B0 4D4F444F                		.byte	"MODO SIMULA"
         2053494D                
         554C41                  
000000BB C7C3                    		.byte	0C7H,0C3H
000000BD 4F                      		.byte	"O"
000000BE 00                      		.byte	00H
000000BF                         _L24:
000000BF 434F4E54                		.byte	"CONTINUAR COMO?"
         494E5541                
         5220434F                
         4D4F3F                  
000000CE 00                      		.byte	00H
000000CF                         _L25:
000000CF 44455345                		.byte	"DESEJA SAIR?"
         4A412053                
         4149523F                
000000DB 00                      		.byte	00H
000000DC                         _L26:
000000DC 43484543                		.byte	"CHECAR SENSOR"
         41522053                
         454E534F                
         52                      
000000E9 0A                      		.byte	0AH
000000EA 4F484D49                		.byte	"OHMICO"
         434F                    
000000F0 0A00                    		.byte	0AH,00H
000000F2                         _L27:
000000F2 504C4153                		.byte	"PLASMA N"
         4D41204E                
000000FA C3                      		.byte	0C3H
000000FB 4F                      		.byte	"O"
000000FC 0A                      		.byte	0AH
000000FD 5452414E                		.byte	"TRANSFERIDO"
         53464552                
         49444F                  
00000108 0A00                    		.byte	0AH,00H
0000010A                         _L28:
0000010A 4445534C                		.byte	"DESLOCANDO"
         4F43414E                
         444F                    
00000114 00                      		.byte	00H
00000115                         _L29:
00000115 45534320                		.byte	"ESC VOLTA"
         564F4C54                
         41                      
0000011E 00                      		.byte	00H
0000011F                         _L30:
0000011F 434F4D41                		.byte	"COMANDO"
         4E444F                  
00000126 0A                      		.byte	0AH
00000127 46494E41                		.byte	"FINALIZADO"
         4C495A41                
         444F                    
00000131 0A00                    		.byte	0AH,00H
00000133                         _L31:
00000133 4D                      		.byte	"M"
00000134 C1                      		.byte	0C1H
00000135 5155494E                		.byte	"QUINA PAUSADA"
         41205041                
         55534144                
         41                      
00000142 00                      		.byte	00H
                                 		.SECTION	D_1,ROMDATA
00000000                         _sim:
00000000 00                      		.byte	00H
00000001                         _programEnd:
00000001 00                      		.byte	00H
00000002                         _lstop:
00000002 00                      		.byte	00H
00000003                         __$gStrManual:
00000003 4D4F444F                		.byte	"MODO MANUAL"
         204D414E                
         55414C                  
0000000E 00000000                		.byte	00H,00H,00H,00H,00H,00H,00H,00H,00H,00H,00H,00H,00H
         00000000                
         00000000                
         00                      
0000001B 454E5445                		.byte	"ENTER DISPARA/ESC VOLTA"
         52204449                
         53504152                
         412F4553                
         4320564F                
         4C5441                  
00000032 00                      		.byte	00H
00000033 00                      		.byte	0
00000034 00                      		.byte	0
00000035 00                      		.byte	0
00000036 00                      		.byte	0
00000037 00                      		.byte	0
00000038 00                      		.byte	0
00000039 00                      		.byte	0
0000003A 00                      		.byte	0
0000003B 00                      		.byte	0
0000003C 00                      		.byte	0
0000003D 00                      		.byte	0
0000003E 00                      		.byte	0
0000003F 00                      		.byte	0
00000040 00                      		.byte	0
00000041 00                      		.byte	0
00000042 00                      		.byte	0
00000043 00                      		.byte	0
00000044 00                      		.byte	0
00000045 00                      		.byte	0
00000046 00                      		.byte	0
00000047 00                      		.byte	0
00000048 00                      		.byte	0
00000049 00                      		.byte	0
0000004A 00                      		.byte	0
0000004B 00                      		.byte	0
0000004C 00                      		.byte	0
0000004D 00                      		.byte	0
0000004E 00                      		.byte	0
0000004F 00                      		.byte	0
00000050 00                      		.byte	0
00000051 00                      		.byte	0
00000052 00                      		.byte	0
00000053 00                      		.byte	0
00000054 00                      		.byte	0
00000055 00                      		.byte	0
00000056 00                      		.byte	0
00000057 00                      		.byte	0
00000058 00                      		.byte	0
00000059 00                      		.byte	0
0000005A 00                      		.byte	0
0000005B 00                      		.byte	0
0000005C 00                      		.byte	0
0000005D 00                      		.byte	0
0000005E 00                      		.byte	0
0000005F 00                      		.byte	0
00000060 00                      		.byte	0
00000061 00                      		.byte	0
00000062 00                      		.byte	0
00000063 00                      		.byte	0
00000064 00                      		.byte	0
00000065 00                      		.byte	0
00000066 00                      		.byte	0
00000067 00                      		.byte	0
00000068 00                      		.byte	0
00000069 00                      		.byte	0
0000006A 00                      		.byte	0
0000006B 00                      		.byte	0
0000006C 00                      		.byte	0
0000006D 00                      		.byte	0
0000006E 00                      		.byte	0
0000006F 00                      		.byte	0
00000070 00                      		.byte	0
00000071 00                      		.byte	0
00000072 00                      		.byte	0
00000073 00                      		.byte	0
00000074 00                      		.byte	0
00000075 00                      		.byte	0
00000076 00                      		.byte	0
00000077 00                      		.byte	0
00000078 00                      		.byte	0
00000079 00                      		.byte	0
0000007A 00                      		.byte	0
0000007B 00                      		.byte	0
0000007C 00                      		.byte	0
0000007D 00                      		.byte	0
0000007E 00                      		.byte	0
0000007F 00                      		.byte	0
00000080 00                      		.byte	0
00000081 00                      		.byte	0
00000082 00                      		.byte	0
00000083 00                      		.byte	0
00000084 00                      		.byte	0
00000085 00                      		.byte	0
00000086 00                      		.byte	0
00000087 00                      		.byte	0
00000088 00                      		.byte	0
00000089 00                      		.byte	0
0000008A 00                      		.byte	0
0000008B 00                      		.byte	0
0000008C 00                      		.byte	0
0000008D 00                      		.byte	0
0000008E 00                      		.byte	0
0000008F 00                      		.byte	0
00000090 00                      		.byte	0
00000091 00                      		.byte	0
00000092 00                      		.byte	0
00000093                         __$gStrAuto:
00000093 4D4F444F                		.byte	"MODO AUTOM"
         20415554                
         4F4D                    
0000009D C1                      		.byte	0C1H
0000009E 5449434F                		.byte	"TICO"
000000A2 00000000                		.byte	00H,00H,00H,00H,00H,00H,00H,00H,00H
         00000000                
         00                      
000000AB 00                      		.byte	0
000000AC 00                      		.byte	0
000000AD 00                      		.byte	0
000000AE 00                      		.byte	0
000000AF 00                      		.byte	0
000000B0 00                      		.byte	0
000000B1 00                      		.byte	0
000000B2 00                      		.byte	0
000000B3 00                      		.byte	0
000000B4 00                      		.byte	0
000000B5 00                      		.byte	0
000000B6 00                      		.byte	0
000000B7 00                      		.byte	0
000000B8 00                      		.byte	0
000000B9 00                      		.byte	0
000000BA 00                      		.byte	0
000000BB 00                      		.byte	0
000000BC 00                      		.byte	0
000000BD 00                      		.byte	0
000000BE 00                      		.byte	0
000000BF 00                      		.byte	0
000000C0 00                      		.byte	0
000000C1 00                      		.byte	0
000000C2 00                      		.byte	0
000000C3 00                      		.byte	0
000000C4 00                      		.byte	0
000000C5 00                      		.byte	0
000000C6 00                      		.byte	0
000000C7 00                      		.byte	0
000000C8 00                      		.byte	0
000000C9 00                      		.byte	0
000000CA 00                      		.byte	0
000000CB 00                      		.byte	0
000000CC 00                      		.byte	0
000000CD 00                      		.byte	0
000000CE 00                      		.byte	0
000000CF 00                      		.byte	0
000000D0 00                      		.byte	0
000000D1 00                      		.byte	0
000000D2 00                      		.byte	0
000000D3 00                      		.byte	0
000000D4 00                      		.byte	0
000000D5 00                      		.byte	0
000000D6 00                      		.byte	0
000000D7 00                      		.byte	0
000000D8 00                      		.byte	0
000000D9 00                      		.byte	0
000000DA 00                      		.byte	0
000000DB 00                      		.byte	0
000000DC 00                      		.byte	0
000000DD 00                      		.byte	0
000000DE 00                      		.byte	0
000000DF 00                      		.byte	0
000000E0 00                      		.byte	0
000000E1 00                      		.byte	0
000000E2 00                      		.byte	0
000000E3 00                      		.byte	0
000000E4 00                      		.byte	0
000000E5 00                      		.byte	0
000000E6 00                      		.byte	0
000000E7 00                      		.byte	0
000000E8 00                      		.byte	0
000000E9 00                      		.byte	0
000000EA 00                      		.byte	0
000000EB 00                      		.byte	0
000000EC 00                      		.byte	0
000000ED 00                      		.byte	0
000000EE 00                      		.byte	0
000000EF 00                      		.byte	0
000000F0 00                      		.byte	0
000000F1 00                      		.byte	0
000000F2 00                      		.byte	0
000000F3 00                      		.byte	0
000000F4 00                      		.byte	0
000000F5 00                      		.byte	0
000000F6 00                      		.byte	0
000000F7 00                      		.byte	0
000000F8 00                      		.byte	0
000000F9 00                      		.byte	0
000000FA 00                      		.byte	0
000000FB 00                      		.byte	0
000000FC 00                      		.byte	0
000000FD 00                      		.byte	0
000000FE 00                      		.byte	0
000000FF 00                      		.byte	0
00000100 00                      		.byte	0
00000101 00                      		.byte	0
00000102 00                      		.byte	0
00000103 00                      		.byte	0
00000104 00                      		.byte	0
00000105 00                      		.byte	0
00000106 00                      		.byte	0
00000107 00                      		.byte	0
00000108 00                      		.byte	0
00000109 00                      		.byte	0
0000010A 00                      		.byte	0
0000010B 00                      		.byte	0
0000010C 00                      		.byte	0
0000010D 00                      		.byte	0
0000010E 00                      		.byte	0
0000010F 00                      		.byte	0
00000110 00                      		.byte	0
00000111 00                      		.byte	0
00000112 00                      		.byte	0
00000113 00                      		.byte	0
00000114 00                      		.byte	0
00000115 00                      		.byte	0
00000116 00                      		.byte	0
00000117 00                      		.byte	0
00000118 00                      		.byte	0
00000119 00                      		.byte	0
0000011A 00                      		.byte	0
0000011B 00                      		.byte	0
0000011C 00                      		.byte	0
0000011D 00                      		.byte	0
0000011E 00                      		.byte	0
0000011F 00                      		.byte	0
00000120 00                      		.byte	0
00000121 00                      		.byte	0
00000122 00                      		.byte	0
00000123                         __$gStrSim:
00000123 4D4F444F                		.byte	"MODO SIMULA"
         2053494D                
         554C41                  
0000012E C7C3                    		.byte	0C7H,0C3H
00000130 4F                      		.byte	"O"
00000131 00000000                		.byte	00H,00H,00H,00H,00H,00H,00H,00H,00H,00H,00H,00H,00H,00H
         00000000                
         00000000                
         0000                    
0000013F 00                      		.byte	0
00000140 00                      		.byte	0
00000141 00                      		.byte	0
00000142 00                      		.byte	0
00000143 00                      		.byte	0
00000144 00                      		.byte	0
00000145 00                      		.byte	0
00000146 00                      		.byte	0
00000147 00                      		.byte	0
00000148 00                      		.byte	0
00000149 00                      		.byte	0
0000014A 00                      		.byte	0
0000014B 00                      		.byte	0
0000014C 00                      		.byte	0
0000014D 00                      		.byte	0
0000014E 00                      		.byte	0
0000014F 00                      		.byte	0
00000150 00                      		.byte	0
00000151 00                      		.byte	0
00000152 00                      		.byte	0
00000153 00                      		.byte	0
00000154 00                      		.byte	0
00000155 00                      		.byte	0
00000156 00                      		.byte	0
00000157 00                      		.byte	0
00000158 00                      		.byte	0
00000159 00                      		.byte	0
0000015A 00                      		.byte	0
0000015B 00                      		.byte	0
0000015C 00                      		.byte	0
0000015D 00                      		.byte	0
0000015E 00                      		.byte	0
0000015F 00                      		.byte	0
00000160 00                      		.byte	0
00000161 00                      		.byte	0
00000162 00                      		.byte	0
00000163 00                      		.byte	0
00000164 00                      		.byte	0
00000165 00                      		.byte	0
00000166 00                      		.byte	0
00000167 00                      		.byte	0
00000168 00                      		.byte	0
00000169 00                      		.byte	0
0000016A 00                      		.byte	0
0000016B 00                      		.byte	0
0000016C 00                      		.byte	0
0000016D 00                      		.byte	0
0000016E 00                      		.byte	0
0000016F 00                      		.byte	0
00000170 00                      		.byte	0
00000171 00                      		.byte	0
00000172 00                      		.byte	0
00000173 00                      		.byte	0
00000174 00                      		.byte	0
00000175 00                      		.byte	0
00000176 00                      		.byte	0
00000177 00                      		.byte	0
00000178 00                      		.byte	0
00000179 00                      		.byte	0
0000017A 00                      		.byte	0
0000017B 00                      		.byte	0
0000017C 00                      		.byte	0
0000017D 00                      		.byte	0
0000017E 00                      		.byte	0
0000017F 00                      		.byte	0
00000180 00                      		.byte	0
00000181 00                      		.byte	0
00000182 00                      		.byte	0
00000183 00                      		.byte	0
00000184 00                      		.byte	0
00000185 00                      		.byte	0
00000186 00                      		.byte	0
00000187 00                      		.byte	0
00000188 00                      		.byte	0
00000189 00                      		.byte	0
0000018A 00                      		.byte	0
0000018B 00                      		.byte	0
0000018C 00                      		.byte	0
0000018D 00                      		.byte	0
0000018E 00                      		.byte	0
0000018F 00                      		.byte	0
00000190 00                      		.byte	0
00000191 00                      		.byte	0
00000192 00                      		.byte	0
00000193                         __$gStrDesloca:
00000193 4445534C                		.byte	"DESLOCANDO"
         4F43414E                
         444F                    
0000019D 00000000                		.byte	00H,00H,00H,00H,00H,00H,00H,00H,00H,00H,00H,00H,00H,00H
         00000000                
         00000000                
         0000                    
000001AB 45534320                		.byte	"ESC VOLTA"
         564F4C54                
         41                      
000001B4 00000000                		.byte	00H,00H,00H,00H,00H,00H,00H,00H,00H,00H,00H,00H,00H,00H,00H
         00000000                
         00000000                
         000000                  
000001C3 00                      		.byte	0
000001C4 00                      		.byte	0
000001C5 00                      		.byte	0
000001C6 00                      		.byte	0
000001C7 00                      		.byte	0
000001C8 00                      		.byte	0
000001C9 00                      		.byte	0
000001CA 00                      		.byte	0
000001CB 00                      		.byte	0
000001CC 00                      		.byte	0
000001CD 00                      		.byte	0
000001CE 00                      		.byte	0
000001CF 00                      		.byte	0
000001D0 00                      		.byte	0
000001D1 00                      		.byte	0
000001D2 00                      		.byte	0
000001D3 00                      		.byte	0
000001D4 00                      		.byte	0
000001D5 00                      		.byte	0
000001D6 00                      		.byte	0
000001D7 00                      		.byte	0
000001D8 00                      		.byte	0
000001D9 00                      		.byte	0
000001DA 00                      		.byte	0
000001DB 00                      		.byte	0
000001DC 00                      		.byte	0
000001DD 00                      		.byte	0
000001DE 00                      		.byte	0
000001DF 00                      		.byte	0
000001E0 00                      		.byte	0
000001E1 00                      		.byte	0
000001E2 00                      		.byte	0
000001E3 00                      		.byte	0
000001E4 00                      		.byte	0
000001E5 00                      		.byte	0
000001E6 00                      		.byte	0
000001E7 00                      		.byte	0
000001E8 00                      		.byte	0
000001E9 00                      		.byte	0
000001EA 00                      		.byte	0
000001EB 00                      		.byte	0
000001EC 00                      		.byte	0
000001ED 00                      		.byte	0
000001EE 00                      		.byte	0
000001EF 00                      		.byte	0
000001F0 00                      		.byte	0
000001F1 00                      		.byte	0
000001F2 00                      		.byte	0
000001F3                         __$ltorchBuffer:
000001F3 00                      		.byte	00H
                                 		.SECTION	B,DATA,ALIGN=4
00000000                         __$keyEntry_buffer$1:
00000000(00000004H)              		.blkl	1
                                 		.SECTION	B_1,DATA
00000000                         _textXStr:
00000000(00000014H)              		.blkb	20
00000014                         _textYStr:
00000014(00000014H)              		.blkb	20
00000028                         _textZStr:
00000028(00000014H)              		.blkb	20
0000003C                         _gTitle:
0000003C(00000001H)              		.blkb	1
                                 		.END

Information List

TOTAL ERROR(S)    00000
TOTAL WARNING(S)  00000
TOTAL LINE(S)     04269   LINES

Section List

Attr         Size               Name
CODE     0000005757(0000167DH)  P
ROMDATA  0000000323(00000143H)  L
ROMDATA  0000000500(000001F4H)  D_1
DATA     0000000004(00000004H)  B
DATA     0000000061(0000003DH)  B_1

Cpu Type

-ISA=RXV1 -FPU

Command Parameter

-subcommand=C:\Users\LAFONS~1\AppData\Local\Temp\$ccrx124\$ccrx\ut_state_move.src.cmd
    -nologo
    -isa=rxv1
    -fpu
    -show=conditionals,definitions,expansions
    -define=__RXV1=1
    -fint_register=0
    -debug
    -endian=little
-listfile=C:\Workspace\e2studio\git\MT01\EasyMak_build\ut_state_move.lst
-output=C:\Workspace\e2studio\git\MT01\EasyMak_build\src\states\ut_state_move.obj
